
Tester.elf:     file format elf32-avr

Sections:
Idx Name          Size      VMA       LMA       File off  Algn
  0 .data         00000136  00800100  00005728  000057bc  2**0
                  CONTENTS, ALLOC, LOAD, DATA
  1 .text         00005728  00000000  00000000  00000094  2**1
                  CONTENTS, ALLOC, LOAD, READONLY, CODE
  2 .bss          00000003  00800236  00800236  000058f2  2**0
                  ALLOC
  3 .comment      00000030  00000000  00000000  000058f2  2**0
                  CONTENTS, READONLY
  4 .note.gnu.avr.deviceinfo 00000040  00000000  00000000  00005924  2**2
                  CONTENTS, READONLY
  5 .debug_aranges 000003f0  00000000  00000000  00005964  2**0
                  CONTENTS, READONLY, DEBUGGING
  6 .debug_info   0000c362  00000000  00000000  00005d54  2**0
                  CONTENTS, READONLY, DEBUGGING
  7 .debug_abbrev 00001bd7  00000000  00000000  000120b6  2**0
                  CONTENTS, READONLY, DEBUGGING
  8 .debug_line   00003333  00000000  00000000  00013c8d  2**0
                  CONTENTS, READONLY, DEBUGGING
  9 .debug_frame  00001568  00000000  00000000  00016fc0  2**2
                  CONTENTS, READONLY, DEBUGGING
 10 .debug_str    00001176  00000000  00000000  00018528  2**0
                  CONTENTS, READONLY, DEBUGGING
 11 .debug_loc    0000afd2  00000000  00000000  0001969e  2**0
                  CONTENTS, READONLY, DEBUGGING
 12 .debug_ranges 00000520  00000000  00000000  00024670  2**0
                  CONTENTS, READONLY, DEBUGGING

Disassembly of section .text:

00000000 <__vectors>:
       0:	39 c2       	rjmp	.+1138   	; 0x474 <__ctors_end>
       2:	00 00       	nop
       4:	56 c2       	rjmp	.+1196   	; 0x4b2 <__bad_interrupt>
       6:	00 00       	nop
       8:	54 c2       	rjmp	.+1192   	; 0x4b2 <__bad_interrupt>
       a:	00 00       	nop
       c:	52 c2       	rjmp	.+1188   	; 0x4b2 <__bad_interrupt>
       e:	00 00       	nop
      10:	50 c2       	rjmp	.+1184   	; 0x4b2 <__bad_interrupt>
      12:	00 00       	nop
      14:	0c 94 14 18 	jmp	0x3028	; 0x3028 <__vector_5>
      18:	0c 94 41 18 	jmp	0x3082	; 0x3082 <__vector_6>
      1c:	0c 94 78 18 	jmp	0x30f0	; 0x30f0 <__vector_7>
      20:	0c 94 82 18 	jmp	0x3104	; 0x3104 <__vector_8>
      24:	46 c2       	rjmp	.+1164   	; 0x4b2 <__bad_interrupt>
      26:	00 00       	nop
      28:	44 c2       	rjmp	.+1160   	; 0x4b2 <__bad_interrupt>
      2a:	00 00       	nop
      2c:	42 c2       	rjmp	.+1156   	; 0x4b2 <__bad_interrupt>
      2e:	00 00       	nop
      30:	40 c2       	rjmp	.+1152   	; 0x4b2 <__bad_interrupt>
      32:	00 00       	nop
      34:	3e c2       	rjmp	.+1148   	; 0x4b2 <__bad_interrupt>
      36:	00 00       	nop
      38:	3c c2       	rjmp	.+1144   	; 0x4b2 <__bad_interrupt>
      3a:	00 00       	nop
      3c:	3a c2       	rjmp	.+1140   	; 0x4b2 <__bad_interrupt>
      3e:	00 00       	nop
      40:	38 c2       	rjmp	.+1136   	; 0x4b2 <__bad_interrupt>
      42:	00 00       	nop
      44:	36 c2       	rjmp	.+1132   	; 0x4b2 <__bad_interrupt>
      46:	00 00       	nop
      48:	34 c2       	rjmp	.+1128   	; 0x4b2 <__bad_interrupt>
      4a:	00 00       	nop
      4c:	32 c2       	rjmp	.+1124   	; 0x4b2 <__bad_interrupt>
      4e:	00 00       	nop
      50:	30 c2       	rjmp	.+1120   	; 0x4b2 <__bad_interrupt>
      52:	00 00       	nop
      54:	2e c2       	rjmp	.+1116   	; 0x4b2 <__bad_interrupt>
      56:	00 00       	nop
      58:	2c c2       	rjmp	.+1112   	; 0x4b2 <__bad_interrupt>
      5a:	00 00       	nop
      5c:	2a c2       	rjmp	.+1108   	; 0x4b2 <__bad_interrupt>
      5e:	00 00       	nop
      60:	28 c2       	rjmp	.+1104   	; 0x4b2 <__bad_interrupt>
      62:	00 00       	nop
      64:	26 c2       	rjmp	.+1100   	; 0x4b2 <__bad_interrupt>
      66:	00 00       	nop
      68:	24 c2       	rjmp	.+1096   	; 0x4b2 <__bad_interrupt>
      6a:	00 00       	nop
      6c:	22 c2       	rjmp	.+1092   	; 0x4b2 <__bad_interrupt>
      6e:	00 00       	nop
      70:	20 c2       	rjmp	.+1088   	; 0x4b2 <__bad_interrupt>
      72:	00 00       	nop
      74:	1e c2       	rjmp	.+1084   	; 0x4b2 <__bad_interrupt>
      76:	00 00       	nop
      78:	1c c2       	rjmp	.+1080   	; 0x4b2 <__bad_interrupt>
      7a:	00 00       	nop
      7c:	1a c2       	rjmp	.+1076   	; 0x4b2 <__bad_interrupt>
      7e:	00 00       	nop
      80:	18 c2       	rjmp	.+1072   	; 0x4b2 <__bad_interrupt>
      82:	00 00       	nop
      84:	16 c2       	rjmp	.+1068   	; 0x4b2 <__bad_interrupt>
      86:	00 00       	nop
      88:	14 c2       	rjmp	.+1064   	; 0x4b2 <__bad_interrupt>
      8a:	00 00       	nop
      8c:	12 c2       	rjmp	.+1060   	; 0x4b2 <__bad_interrupt>
      8e:	00 00       	nop
      90:	10 c2       	rjmp	.+1056   	; 0x4b2 <__bad_interrupt>
	...

00000094 <__trampolines_end>:
      94:	67 e6       	ldi	r22, 0x67	; 103
      96:	09 6a       	ori	r16, 0xA9	; 169
      98:	85 ae       	std	Z+61, r8	; 0x3d
      9a:	67 bb       	out	0x17, r22	; 23
      9c:	72 f3       	brmi	.-36     	; 0x7a <__SREG__+0x3b>
      9e:	6e 3c       	cpi	r22, 0xCE	; 206
      a0:	3a f5       	brpl	.+78     	; 0xf0 <sha2_large_common_const+0x3c>
      a2:	4f a5       	ldd	r20, Y+47	; 0x2f
      a4:	7f 52       	subi	r23, 0x2F	; 47
      a6:	0e 51       	subi	r16, 0x1E	; 30
      a8:	8c 68       	ori	r24, 0x8C	; 140
      aa:	05 9b       	sbis	0x00, 5	; 0
      ac:	ab d9       	rcall	.-3242   	; 0xfffff404 <__eeprom_end+0xff7ef404>
      ae:	83 1f       	adc	r24, r19
      b0:	19 cd       	rjmp	.-1486   	; 0xfffffae4 <__eeprom_end+0xff7efae4>
      b2:	e0 5b       	subi	r30, 0xB0	; 176

000000b4 <sha2_large_common_const>:
      b4:	22 ae 28 d7 98 2f 8a 42 cd 65 ef 23 91 44 37 71     ".(../.B.e.#.D7q
      c4:	2f 3b 4d ec cf fb c0 b5 bc db 89 81 a5 db b5 e9     /;M.............
      d4:	38 b5 48 f3 5b c2 56 39 19 d0 05 b6 f1 11 f1 59     8.H.[.V9.......Y
      e4:	9b 4f 19 af a4 82 3f 92 18 81 6d da d5 5e 1c ab     .O....?...m..^..
      f4:	42 02 03 a3 98 aa 07 d8 be 6f 70 45 01 5b 83 12     B........opE.[..
     104:	8c b2 e4 4e be 85 31 24 e2 b4 ff d5 c3 7d 0c 55     ...N..1$.....}.U
     114:	6f 89 7b f2 74 5d be 72 b1 96 16 3b fe b1 de 80     o.{.t].r...;....
     124:	35 12 c7 25 a7 06 dc 9b 94 26 69 cf 74 f1 9b c1     5..%.....&i.t...
     134:	d2 4a f1 9e c1 69 9b e4 e3 25 4f 38 86 47 be ef     .J...i...%O8.G..
     144:	b5 d5 8c 8b c6 9d c1 0f 65 9c ac 77 cc a1 0c 24     ........e..w...$
     154:	75 02 2b 59 6f 2c e9 2d 83 e4 a6 6e aa 84 74 4a     u.+Yo,.-...n..tJ
     164:	d4 fb 41 bd dc a9 b0 5c b5 53 11 83 da 88 f9 76     ..A....\.S.....v
     174:	ab df 66 ee 52 51 3e 98 10 32 b4 2d 6d c6 31 a8     ..f.RQ>..2.-m.1.
     184:	3f 21 fb 98 c8 27 03 b0 e4 0e ef be c7 7f 59 bf     ?!...'........Y.
     194:	c2 8f a8 3d f3 0b e0 c6 25 a7 0a 93 47 91 a7 d5     ...=....%...G...
     1a4:	6f 82 03 e0 51 63 ca 06 70 6e 0e 0a 67 29 29 14     o...Qc..pn..g)).
     1b4:	fc 2f d2 46 85 0a b7 27 26 c9 26 5c 38 21 1b 2e     ./.F...'&.&\8!..
     1c4:	ed 2a c4 5a fc 6d 2c 4d df b3 95 9d 13 0d 38 53     .*.Z.m,M......8S
     1d4:	de 63 af 8b 54 73 0a 65 a8 b2 77 3c bb 0a 6a 76     .c..Ts.e..w<..jv
     1e4:	e6 ae ed 47 2e c9 c2 81 3b 35 82 14 85 2c 72 92     ...G....;5...,r.
     1f4:	64 03 f1 4c a1 e8 bf a2 01 30 42 bc 4b 66 1a a8     d..L.....0B.Kf..
     204:	91 97 f8 d0 70 8b 4b c2 30 be 54 06 a3 51 6c c7     ....p.K.0.T..Ql.
     214:	18 52 ef d6 19 e8 92 d1 10 a9 65 55 24 06 99 d6     .R........eU$...
     224:	2a 20 71 57 85 35 0e f4 b8 d1 bb 32 70 a0 6a 10     * qW.5.....2p.j.
     234:	c8 d0 d2 b8 16 c1 a4 19 53 ab 41 51 08 6c 37 1e     ........S.AQ.l7.
     244:	99 eb 8e df 4c 77 48 27 a8 48 9b e1 b5 bc b0 34     ....LwH'.H.....4
     254:	63 5a c9 c5 b3 0c 1c 39 cb 8a 41 e3 4a aa d8 4e     cZ.....9..A.J..N
     264:	73 e3 63 77 4f ca 9c 5b a3 b8 b2 d6 f3 6f 2e 68     s.cwO..[.....o.h
     274:	fc b2 ef 5d ee 82 8f 74 60 2f 17 43 6f 63 a5 78     ...]...t`/.Coc.x
     284:	72 ab f0 a1 14 78 c8 84 ec 39 64 1a 08 02 c7 8c     r....x...9d.....
     294:	28 1e 63 23 fa ff be 90 e9 bd 82 de eb 6c 50 a4     (.c#.........lP.
     2a4:	15 79 c6 b2 f7 a3 f9 be 2b 53 72 e3 f2 78 71 c6     .y......+Sr..xq.
     2b4:	9c 61 26 ea ce 3e 27 ca 07 c2 c0 21 c7 b8 86 d1     .a&..>'....!....
     2c4:	1e eb e0 cd d6 7d da ea 78 d1 6e ee 7f 4f 7d f5     .....}..x.n..O}.
     2d4:	ba 6f 17 72 aa 67 f0 06 a6 98 c8 a2 c5 7d 63 0a     .o.r.g.......}c.
     2e4:	ae 0d f9 be 04 98 3f 11 1b 47 1c 13 35 0b 71 1b     ......?..G..5.q.
     2f4:	84 7d 04 23 f5 77 db 28 93 24 c7 40 7b ab ca 32     .}.#.w.(.$.@{..2
     304:	bc be c9 15 0a be 9e 3c 4c 0d 10 9c c4 67 1d 43     .......<L....g.C
     314:	b6 42 3e cb be d4 c5 4c 2a 7e 65 fc 9c 29 7f 59     .B>....L*~e..).Y
     324:	ec fa d6 3a ab 6f cb 5f 17 58 47 4a 8c 19 44 6c     ...:.o._.XGJ..Dl

00000334 <k>:
     334:	98 2f 8a 42 91 44 37 71 cf fb c0 b5 a5 db b5 e9     ./.B.D7q........
     344:	5b c2 56 39 f1 11 f1 59 a4 82 3f 92 d5 5e 1c ab     [.V9...Y..?..^..
     354:	98 aa 07 d8 01 5b 83 12 be 85 31 24 c3 7d 0c 55     .....[....1$.}.U
     364:	74 5d be 72 fe b1 de 80 a7 06 dc 9b 74 f1 9b c1     t].r........t...
     374:	c1 69 9b e4 86 47 be ef c6 9d c1 0f cc a1 0c 24     .i...G.........$
     384:	6f 2c e9 2d aa 84 74 4a dc a9 b0 5c da 88 f9 76     o,.-..tJ...\...v
     394:	52 51 3e 98 6d c6 31 a8 c8 27 03 b0 c7 7f 59 bf     RQ>.m.1..'....Y.
     3a4:	f3 0b e0 c6 47 91 a7 d5 51 63 ca 06 67 29 29 14     ....G...Qc..g)).
     3b4:	85 0a b7 27 38 21 1b 2e fc 6d 2c 4d 13 0d 38 53     ...'8!...m,M..8S
     3c4:	54 73 0a 65 bb 0a 6a 76 2e c9 c2 81 85 2c 72 92     Ts.e..jv.....,r.
     3d4:	a1 e8 bf a2 4b 66 1a a8 70 8b 4b c2 a3 51 6c c7     ....Kf..p.K..Ql.
     3e4:	19 e8 92 d1 24 06 99 d6 85 35 0e f4 70 a0 6a 10     ....$....5..p.j.
     3f4:	16 c1 a4 19 08 6c 37 1e 4c 77 48 27 b5 bc b0 34     .....l7.LwH'...4
     404:	b3 0c 1c 39 4a aa d8 4e 4f ca 9c 5b f3 6f 2e 68     ...9J..NO..[.o.h
     414:	ee 82 8f 74 6f 63 a5 78 14 78 c8 84 08 02 c7 8c     ...toc.x.x......
     424:	fa ff be 90 eb 6c 50 a4 f7 a3 f9 be f2 78 71 c6     .....lP......xq.

00000434 <sha512_init_values>:
     434:	08 c9 bc f3 67 e6 09 6a 3b a7 ca 84 85 ae 67 bb     ....g..j;.....g.
     444:	2b f8 94 fe 72 f3 6e 3c f1 36 1d 5f 3a f5 4f a5     +...r.n<.6._:.O.
     454:	d1 82 e6 ad 7f 52 0e 51 1f 6c 3e 2b 8c 68 05 9b     .....R.Q.l>+.h..
     464:	6b bd 41 fb ab d9 83 1f 79 21 7e 13 19 cd e0 5b     k.A.....y!~....[

00000474 <__ctors_end>:
     474:	11 24       	eor	r1, r1
     476:	1f be       	out	0x3f, r1	; 63
     478:	cf ef       	ldi	r28, 0xFF	; 255
     47a:	d0 e1       	ldi	r29, 0x10	; 16
     47c:	de bf       	out	0x3e, r29	; 62
     47e:	cd bf       	out	0x3d, r28	; 61

00000480 <__do_copy_data>:
     480:	12 e0       	ldi	r17, 0x02	; 2
     482:	a0 e0       	ldi	r26, 0x00	; 0
     484:	b1 e0       	ldi	r27, 0x01	; 1
     486:	e8 e2       	ldi	r30, 0x28	; 40
     488:	f7 e5       	ldi	r31, 0x57	; 87
     48a:	00 e0       	ldi	r16, 0x00	; 0
     48c:	0b bf       	out	0x3b, r16	; 59
     48e:	02 c0       	rjmp	.+4      	; 0x494 <__do_copy_data+0x14>
     490:	07 90       	elpm	r0, Z+
     492:	0d 92       	st	X+, r0
     494:	a6 33       	cpi	r26, 0x36	; 54
     496:	b1 07       	cpc	r27, r17
     498:	d9 f7       	brne	.-10     	; 0x490 <__do_copy_data+0x10>

0000049a <__do_clear_bss>:
     49a:	22 e0       	ldi	r18, 0x02	; 2
     49c:	a6 e3       	ldi	r26, 0x36	; 54
     49e:	b2 e0       	ldi	r27, 0x02	; 2
     4a0:	01 c0       	rjmp	.+2      	; 0x4a4 <.do_clear_bss_start>

000004a2 <.do_clear_bss_loop>:
     4a2:	1d 92       	st	X+, r1

000004a4 <.do_clear_bss_start>:
     4a4:	a9 33       	cpi	r26, 0x39	; 57
     4a6:	b2 07       	cpc	r27, r18
     4a8:	e1 f7       	brne	.-8      	; 0x4a2 <.do_clear_bss_loop>
     4aa:	0e 94 4f 19 	call	0x329e	; 0x329e <main>
     4ae:	0c 94 92 2b 	jmp	0x5724	; 0x5724 <_exit>

000004b2 <__bad_interrupt>:
     4b2:	a6 cd       	rjmp	.-1204   	; 0x0 <__vectors>

000004b4 <can_init>:
	uint8_t j;
	for(j=0; j<8; j++){
		CANMSG = *message;
		message++;
	}
}
     4b4:	f8 94       	cli
     4b6:	81 e0       	ldi	r24, 0x01	; 1
     4b8:	80 93 d8 00 	sts	0x00D8, r24	; 0x8000d8 <__TEXT_REGION_LENGTH__+0x7e00d8>
     4bc:	84 e3       	ldi	r24, 0x34	; 52
     4be:	80 93 db 00 	sts	0x00DB, r24	; 0x8000db <__TEXT_REGION_LENGTH__+0x7e00db>
     4c2:	10 92 da 00 	sts	0x00DA, r1	; 0x8000da <__TEXT_REGION_LENGTH__+0x7e00da>
     4c6:	80 e0       	ldi	r24, 0x00	; 0
     4c8:	98 2f       	mov	r25, r24
     4ca:	92 95       	swap	r25
     4cc:	90 7f       	andi	r25, 0xF0	; 240
     4ce:	90 93 ed 00 	sts	0x00ED, r25	; 0x8000ed <__TEXT_REGION_LENGTH__+0x7e00ed>
     4d2:	10 92 ef 00 	sts	0x00EF, r1	; 0x8000ef <__TEXT_REGION_LENGTH__+0x7e00ef>
     4d6:	10 92 ee 00 	sts	0x00EE, r1	; 0x8000ee <__TEXT_REGION_LENGTH__+0x7e00ee>
     4da:	8f 5f       	subi	r24, 0xFF	; 255
     4dc:	8f 30       	cpi	r24, 0x0F	; 15
     4de:	a1 f7       	brne	.-24     	; 0x4c8 <can_init+0x14>
     4e0:	86 e0       	ldi	r24, 0x06	; 6
     4e2:	80 93 e2 00 	sts	0x00E2, r24	; 0x8000e2 <__TEXT_REGION_LENGTH__+0x7e00e2>
     4e6:	8c e0       	ldi	r24, 0x0C	; 12
     4e8:	80 93 e3 00 	sts	0x00E3, r24	; 0x8000e3 <__TEXT_REGION_LENGTH__+0x7e00e3>
     4ec:	87 e3       	ldi	r24, 0x37	; 55
     4ee:	80 93 e4 00 	sts	0x00E4, r24	; 0x8000e4 <__TEXT_REGION_LENGTH__+0x7e00e4>
     4f2:	10 92 e5 00 	sts	0x00E5, r1	; 0x8000e5 <__TEXT_REGION_LENGTH__+0x7e00e5>
     4f6:	82 e0       	ldi	r24, 0x02	; 2
     4f8:	80 93 d8 00 	sts	0x00D8, r24	; 0x8000d8 <__TEXT_REGION_LENGTH__+0x7e00d8>
     4fc:	78 94       	sei
     4fe:	08 95       	ret

00000500 <can_send_message>:

int can_send_message( uint8_t mobnr , uint8_t id, uint8_t *message ){
     500:	fa 01       	movw	r30, r20
	//select mob.
	CANPAGE = (mobnr << 4);
     502:	82 95       	swap	r24
     504:	80 7f       	andi	r24, 0xF0	; 240
     506:	80 93 ed 00 	sts	0x00ED, r24	; 0x8000ed <__TEXT_REGION_LENGTH__+0x7e00ed>
	bytes_to_hex(message, 8, hex);
	uart_puts(hex);
}

void can_init_id ( uint8_t id){
	CANIDT2 = id << 5;
     50a:	86 2f       	mov	r24, r22
     50c:	82 95       	swap	r24
     50e:	88 0f       	add	r24, r24
     510:	80 7e       	andi	r24, 0xE0	; 224
     512:	80 93 f2 00 	sts	0x00F2, r24	; 0x8000f2 <__TEXT_REGION_LENGTH__+0x7e00f2>
	CANIDT1 = id >> 3;
     516:	66 95       	lsr	r22
     518:	66 95       	lsr	r22
     51a:	66 95       	lsr	r22
     51c:	60 93 f3 00 	sts	0x00F3, r22	; 0x8000f3 <__TEXT_REGION_LENGTH__+0x7e00f3>
	CANIDT3 = 0x00;
     520:	10 92 f1 00 	sts	0x00F1, r1	; 0x8000f1 <__TEXT_REGION_LENGTH__+0x7e00f1>
	CANIDT4 = 0x00;
     524:	10 92 f0 00 	sts	0x00F0, r1	; 0x8000f0 <__TEXT_REGION_LENGTH__+0x7e00f0>
	//not a remote frame.
	CANIDT4 = 0 << RTRTAG;
     528:	10 92 f0 00 	sts	0x00F0, r1	; 0x8000f0 <__TEXT_REGION_LENGTH__+0x7e00f0>
     52c:	9a 01       	movw	r18, r20
     52e:	28 5f       	subi	r18, 0xF8	; 248
     530:	3f 4f       	sbci	r19, 0xFF	; 255
}

void can_init_message( uint8_t *message ){
	uint8_t j;
	for(j=0; j<8; j++){
		CANMSG = *message;
     532:	81 91       	ld	r24, Z+
     534:	80 93 fa 00 	sts	0x00FA, r24	; 0x8000fa <__TEXT_REGION_LENGTH__+0x7e00fa>
	CANIDM4 = (0 << RTRMSK) | (0 << IDEMSK);
}

void can_init_message( uint8_t *message ){
	uint8_t j;
	for(j=0; j<8; j++){
     538:	e2 17       	cp	r30, r18
     53a:	f3 07       	cpc	r31, r19
     53c:	d1 f7       	brne	.-12     	; 0x532 <can_send_message+0x32>
	//copy ID.
	can_init_id(id);
	//copy message.
	can_init_message(message);
	//enable transmission
	CANCDMOB = (1 << CONMOB0) | (1 << DLC3);
     53e:	88 e4       	ldi	r24, 0x48	; 72
     540:	80 93 ef 00 	sts	0x00EF, r24	; 0x8000ef <__TEXT_REGION_LENGTH__+0x7e00ef>
	
	return 0;
}
     544:	80 e0       	ldi	r24, 0x00	; 0
     546:	90 e0       	ldi	r25, 0x00	; 0
     548:	08 95       	ret

0000054a <can_receive_message>:

int can_receive_message( uint8_t mobnr, uint8_t id, uint8_t mask, uint8_t *message){
     54a:	f9 01       	movw	r30, r18
	CANPAGE = (mobnr << 4);
     54c:	48 2f       	mov	r20, r24
     54e:	42 95       	swap	r20
     550:	40 7f       	andi	r20, 0xF0	; 240
     552:	40 93 ed 00 	sts	0x00ED, r20	; 0x8000ed <__TEXT_REGION_LENGTH__+0x7e00ed>
	CANIE2 = (1 << mobnr);
     556:	21 e0       	ldi	r18, 0x01	; 1
     558:	30 e0       	ldi	r19, 0x00	; 0
     55a:	d9 01       	movw	r26, r18
     55c:	02 c0       	rjmp	.+4      	; 0x562 <can_receive_message+0x18>
     55e:	aa 0f       	add	r26, r26
     560:	bb 1f       	adc	r27, r27
     562:	8a 95       	dec	r24
     564:	e2 f7       	brpl	.-8      	; 0x55e <can_receive_message+0x14>
     566:	a0 93 de 00 	sts	0x00DE, r26	; 0x8000de <__TEXT_REGION_LENGTH__+0x7e00de>
	bytes_to_hex(message, 8, hex);
	uart_puts(hex);
}

void can_init_id ( uint8_t id){
	CANIDT2 = id << 5;
     56a:	86 2f       	mov	r24, r22
     56c:	82 95       	swap	r24
     56e:	88 0f       	add	r24, r24
     570:	80 7e       	andi	r24, 0xE0	; 224
     572:	80 93 f2 00 	sts	0x00F2, r24	; 0x8000f2 <__TEXT_REGION_LENGTH__+0x7e00f2>
	CANIDT1 = id >> 3;
     576:	66 95       	lsr	r22
     578:	66 95       	lsr	r22
     57a:	66 95       	lsr	r22
     57c:	60 93 f3 00 	sts	0x00F3, r22	; 0x8000f3 <__TEXT_REGION_LENGTH__+0x7e00f3>
	CANIDT3 = 0x00;
     580:	10 92 f1 00 	sts	0x00F1, r1	; 0x8000f1 <__TEXT_REGION_LENGTH__+0x7e00f1>
	CANIDT4 = 0x00;
     584:	10 92 f0 00 	sts	0x00F0, r1	; 0x8000f0 <__TEXT_REGION_LENGTH__+0x7e00f0>
	//not a remote frame.
	CANIDT4 = 0 << RTRTAG;
     588:	10 92 f0 00 	sts	0x00F0, r1	; 0x8000f0 <__TEXT_REGION_LENGTH__+0x7e00f0>
}

void can_init_mask_def(){
	CANIDM1 = 255;
     58c:	8f ef       	ldi	r24, 0xFF	; 255
     58e:	80 93 f7 00 	sts	0x00F7, r24	; 0x8000f7 <__TEXT_REGION_LENGTH__+0x7e00f7>
	CANIDM2 = 255;
     592:	80 93 f6 00 	sts	0x00F6, r24	; 0x8000f6 <__TEXT_REGION_LENGTH__+0x7e00f6>
	CANIDM4 = (0 << RTRMSK) | (0 << IDEMSK);
     596:	10 92 f4 00 	sts	0x00F4, r1	; 0x8000f4 <__TEXT_REGION_LENGTH__+0x7e00f4>
	CANPAGE = (mobnr << 4);
	CANIE2 = (1 << mobnr);
	can_init_id(id);
	can_init_mask_def();
	//CAN standard rev 2.0 A (identifiers length = 11 bits)
	CANCDMOB = (1 << CONMOB1) | (1 << DLC3); //enable reception and data length code = 8 bytes
     59a:	88 e8       	ldi	r24, 0x88	; 136
     59c:	80 93 ef 00 	sts	0x00EF, r24	; 0x8000ef <__TEXT_REGION_LENGTH__+0x7e00ef>
	
	//wait for interrupt
	while((CANGIT & INTR_MASK) != (1 << CANIT));
     5a0:	80 91 da 00 	lds	r24, 0x00DA	; 0x8000da <__TEXT_REGION_LENGTH__+0x7e00da>
     5a4:	87 ff       	sbrs	r24, 7
     5a6:	fc cf       	rjmp	.-8      	; 0x5a0 <can_receive_message+0x56>
	//check if it is the right interrupt.
	if((CANSTMOB & RXOK_MASK) != (1 << RXOK)) return 1;
     5a8:	80 91 ee 00 	lds	r24, 0x00EE	; 0x8000ee <__TEXT_REGION_LENGTH__+0x7e00ee>
     5ac:	85 ff       	sbrs	r24, 5
     5ae:	16 c0       	rjmp	.+44     	; 0x5dc <can_receive_message+0x92>
	//reset mob RXOK flag.
	CANSTMOB = 0x00;
     5b0:	10 92 ee 00 	sts	0x00EE, r1	; 0x8000ee <__TEXT_REGION_LENGTH__+0x7e00ee>
	//reset interrupt enable
	CANIE2 = 0x00;
     5b4:	10 92 de 00 	sts	0x00DE, r1	; 0x8000de <__TEXT_REGION_LENGTH__+0x7e00de>
	//reset interrupt register.
	CANGIT = CANGIT;
     5b8:	80 91 da 00 	lds	r24, 0x00DA	; 0x8000da <__TEXT_REGION_LENGTH__+0x7e00da>
     5bc:	80 93 da 00 	sts	0x00DA, r24	; 0x8000da <__TEXT_REGION_LENGTH__+0x7e00da>
		message = message + 8;
	}
}

void can_get_message(uint8_t mobnr , uint8_t *message ){
	CANPAGE = mobnr << 4;
     5c0:	40 93 ed 00 	sts	0x00ED, r20	; 0x8000ed <__TEXT_REGION_LENGTH__+0x7e00ed>
     5c4:	9f 01       	movw	r18, r30
     5c6:	28 5f       	subi	r18, 0xF8	; 248
     5c8:	3f 4f       	sbci	r19, 0xFF	; 255
	uint8_t j;
	for(j=0; j<8; j++){
		*message = CANMSG;
     5ca:	80 91 fa 00 	lds	r24, 0x00FA	; 0x8000fa <__TEXT_REGION_LENGTH__+0x7e00fa>
     5ce:	81 93       	st	Z+, r24
}

void can_get_message(uint8_t mobnr , uint8_t *message ){
	CANPAGE = mobnr << 4;
	uint8_t j;
	for(j=0; j<8; j++){
     5d0:	e2 17       	cp	r30, r18
     5d2:	f3 07       	cpc	r31, r19
     5d4:	d1 f7       	brne	.-12     	; 0x5ca <can_receive_message+0x80>
	CANIE2 = 0x00;
	//reset interrupt register.
	CANGIT = CANGIT;
	//retrieve message.
	can_get_message(mobnr, message);
	return 0;
     5d6:	80 e0       	ldi	r24, 0x00	; 0
     5d8:	90 e0       	ldi	r25, 0x00	; 0
     5da:	08 95       	ret
	CANCDMOB = (1 << CONMOB1) | (1 << DLC3); //enable reception and data length code = 8 bytes
	
	//wait for interrupt
	while((CANGIT & INTR_MASK) != (1 << CANIT));
	//check if it is the right interrupt.
	if((CANSTMOB & RXOK_MASK) != (1 << RXOK)) return 1;
     5dc:	81 e0       	ldi	r24, 0x01	; 1
     5de:	90 e0       	ldi	r25, 0x00	; 0
	//reset interrupt register.
	CANGIT = CANGIT;
	//retrieve message.
	can_get_message(mobnr, message);
	return 0;
}
     5e0:	08 95       	ret

000005e2 <can_send_frame_buffer>:

int can_send_frame_buffer( uint8_t *message, uint8_t buff_len ){
     5e2:	fc 01       	movw	r30, r24
	uint8_t j;
	for(j=0; j<buff_len; j++){
     5e4:	66 23       	and	r22, r22
     5e6:	39 f1       	breq	.+78     	; 0x636 <can_send_frame_buffer+0x54>
     5e8:	90 e0       	ldi	r25, 0x00	; 0
	//copy ID.
	can_init_id(id);
	//copy message.
	can_init_message(message);
	//enable transmission
	CANCDMOB = (1 << CONMOB0) | (1 << DLC3);
     5ea:	48 e4       	ldi	r20, 0x48	; 72
	}
}

int can_send_message( uint8_t mobnr , uint8_t id, uint8_t *message ){
	//select mob.
	CANPAGE = (mobnr << 4);
     5ec:	89 2f       	mov	r24, r25
     5ee:	82 95       	swap	r24
     5f0:	80 7f       	andi	r24, 0xF0	; 240
     5f2:	80 93 ed 00 	sts	0x00ED, r24	; 0x8000ed <__TEXT_REGION_LENGTH__+0x7e00ed>
	bytes_to_hex(message, 8, hex);
	uart_puts(hex);
}

void can_init_id ( uint8_t id){
	CANIDT2 = id << 5;
     5f6:	89 2f       	mov	r24, r25
     5f8:	82 95       	swap	r24
     5fa:	88 0f       	add	r24, r24
     5fc:	80 7e       	andi	r24, 0xE0	; 224
     5fe:	80 93 f2 00 	sts	0x00F2, r24	; 0x8000f2 <__TEXT_REGION_LENGTH__+0x7e00f2>
	CANIDT1 = id >> 3;
     602:	89 2f       	mov	r24, r25
     604:	86 95       	lsr	r24
     606:	86 95       	lsr	r24
     608:	86 95       	lsr	r24
     60a:	80 93 f3 00 	sts	0x00F3, r24	; 0x8000f3 <__TEXT_REGION_LENGTH__+0x7e00f3>
	CANIDT3 = 0x00;
     60e:	10 92 f1 00 	sts	0x00F1, r1	; 0x8000f1 <__TEXT_REGION_LENGTH__+0x7e00f1>
	CANIDT4 = 0x00;
     612:	10 92 f0 00 	sts	0x00F0, r1	; 0x8000f0 <__TEXT_REGION_LENGTH__+0x7e00f0>
	//not a remote frame.
	CANIDT4 = 0 << RTRTAG;
     616:	10 92 f0 00 	sts	0x00F0, r1	; 0x8000f0 <__TEXT_REGION_LENGTH__+0x7e00f0>
     61a:	9f 01       	movw	r18, r30
     61c:	28 5f       	subi	r18, 0xF8	; 248
     61e:	3f 4f       	sbci	r19, 0xFF	; 255
}

void can_init_message( uint8_t *message ){
	uint8_t j;
	for(j=0; j<8; j++){
		CANMSG = *message;
     620:	81 91       	ld	r24, Z+
     622:	80 93 fa 00 	sts	0x00FA, r24	; 0x8000fa <__TEXT_REGION_LENGTH__+0x7e00fa>
	CANIDM4 = (0 << RTRMSK) | (0 << IDEMSK);
}

void can_init_message( uint8_t *message ){
	uint8_t j;
	for(j=0; j<8; j++){
     626:	2e 17       	cp	r18, r30
     628:	3f 07       	cpc	r19, r31
     62a:	d1 f7       	brne	.-12     	; 0x620 <can_send_frame_buffer+0x3e>
	//copy ID.
	can_init_id(id);
	//copy message.
	can_init_message(message);
	//enable transmission
	CANCDMOB = (1 << CONMOB0) | (1 << DLC3);
     62c:	40 93 ef 00 	sts	0x00EF, r20	; 0x8000ef <__TEXT_REGION_LENGTH__+0x7e00ef>
	return 0;
}

int can_send_frame_buffer( uint8_t *message, uint8_t buff_len ){
	uint8_t j;
	for(j=0; j<buff_len; j++){
     630:	9f 5f       	subi	r25, 0xFF	; 255
     632:	69 13       	cpse	r22, r25
     634:	db cf       	rjmp	.-74     	; 0x5ec <can_send_frame_buffer+0xa>
		can_send_message(j,j,message);
		message = message + 8;
	}
	return 0;
}
     636:	80 e0       	ldi	r24, 0x00	; 0
     638:	90 e0       	ldi	r25, 0x00	; 0
     63a:	08 95       	ret

0000063c <can_receive_frame_buffer>:

int can_receive_frame_buffer( uint8_t *message , uint8_t buff_len){
     63c:	fc 01       	movw	r30, r24
	//Enable buffer receive interrupt.
	CANGIE |= (1 << ENBX);
     63e:	80 91 db 00 	lds	r24, 0x00DB	; 0x8000db <__TEXT_REGION_LENGTH__+0x7e00db>
     642:	84 60       	ori	r24, 0x04	; 4
     644:	80 93 db 00 	sts	0x00DB, r24	; 0x8000db <__TEXT_REGION_LENGTH__+0x7e00db>
	uint8_t j;
	for(j=0; j<buff_len; j++){
     648:	66 23       	and	r22, r22
     64a:	29 f1       	breq	.+74     	; 0x696 <can_receive_frame_buffer+0x5a>
     64c:	80 e0       	ldi	r24, 0x00	; 0
	//not a remote frame.
	CANIDT4 = 0 << RTRTAG;
}

void can_init_mask_def(){
	CANIDM1 = 255;
     64e:	9f ef       	ldi	r25, 0xFF	; 255
		CANPAGE = (j << 4);
		can_init_id(j);
		// Mask = 255
		can_init_mask_def();
		//set mob in buffer receive mode.
		CANCDMOB = (1 << CONMOB0) | (1 << CONMOB1) | (1 << DLC3);
     650:	38 ec       	ldi	r19, 0xC8	; 200
int can_receive_frame_buffer( uint8_t *message , uint8_t buff_len){
	//Enable buffer receive interrupt.
	CANGIE |= (1 << ENBX);
	uint8_t j;
	for(j=0; j<buff_len; j++){
		CANPAGE = (j << 4);
     652:	28 2f       	mov	r18, r24
     654:	22 95       	swap	r18
     656:	20 7f       	andi	r18, 0xF0	; 240
     658:	20 93 ed 00 	sts	0x00ED, r18	; 0x8000ed <__TEXT_REGION_LENGTH__+0x7e00ed>
	bytes_to_hex(message, 8, hex);
	uart_puts(hex);
}

void can_init_id ( uint8_t id){
	CANIDT2 = id << 5;
     65c:	28 2f       	mov	r18, r24
     65e:	22 95       	swap	r18
     660:	22 0f       	add	r18, r18
     662:	20 7e       	andi	r18, 0xE0	; 224
     664:	20 93 f2 00 	sts	0x00F2, r18	; 0x8000f2 <__TEXT_REGION_LENGTH__+0x7e00f2>
	CANIDT1 = id >> 3;
     668:	28 2f       	mov	r18, r24
     66a:	26 95       	lsr	r18
     66c:	26 95       	lsr	r18
     66e:	26 95       	lsr	r18
     670:	20 93 f3 00 	sts	0x00F3, r18	; 0x8000f3 <__TEXT_REGION_LENGTH__+0x7e00f3>
	CANIDT3 = 0x00;
     674:	10 92 f1 00 	sts	0x00F1, r1	; 0x8000f1 <__TEXT_REGION_LENGTH__+0x7e00f1>
	CANIDT4 = 0x00;
     678:	10 92 f0 00 	sts	0x00F0, r1	; 0x8000f0 <__TEXT_REGION_LENGTH__+0x7e00f0>
	//not a remote frame.
	CANIDT4 = 0 << RTRTAG;
     67c:	10 92 f0 00 	sts	0x00F0, r1	; 0x8000f0 <__TEXT_REGION_LENGTH__+0x7e00f0>
}

void can_init_mask_def(){
	CANIDM1 = 255;
     680:	90 93 f7 00 	sts	0x00F7, r25	; 0x8000f7 <__TEXT_REGION_LENGTH__+0x7e00f7>
	CANIDM2 = 255;
     684:	90 93 f6 00 	sts	0x00F6, r25	; 0x8000f6 <__TEXT_REGION_LENGTH__+0x7e00f6>
	CANIDM4 = (0 << RTRMSK) | (0 << IDEMSK);
     688:	10 92 f4 00 	sts	0x00F4, r1	; 0x8000f4 <__TEXT_REGION_LENGTH__+0x7e00f4>
		CANPAGE = (j << 4);
		can_init_id(j);
		// Mask = 255
		can_init_mask_def();
		//set mob in buffer receive mode.
		CANCDMOB = (1 << CONMOB0) | (1 << CONMOB1) | (1 << DLC3);
     68c:	30 93 ef 00 	sts	0x00EF, r19	; 0x8000ef <__TEXT_REGION_LENGTH__+0x7e00ef>

int can_receive_frame_buffer( uint8_t *message , uint8_t buff_len){
	//Enable buffer receive interrupt.
	CANGIE |= (1 << ENBX);
	uint8_t j;
	for(j=0; j<buff_len; j++){
     690:	8f 5f       	subi	r24, 0xFF	; 255
     692:	68 13       	cpse	r22, r24
     694:	de cf       	rjmp	.-68     	; 0x652 <can_receive_frame_buffer+0x16>
		can_init_mask_def();
		//set mob in buffer receive mode.
		CANCDMOB = (1 << CONMOB0) | (1 << CONMOB1) | (1 << DLC3);
	}
	//wait for interrupt.
	while((CANGIT & INTR_MASK) != (1 << CANIT));
     696:	80 91 da 00 	lds	r24, 0x00DA	; 0x8000da <__TEXT_REGION_LENGTH__+0x7e00da>
     69a:	87 ff       	sbrs	r24, 7
     69c:	fc cf       	rjmp	.-8      	; 0x696 <can_receive_frame_buffer+0x5a>
	//Check if interrupt is the right one (BXOK).
	if((CANGIT & BXOK_MASK) != (1 << BXOK)) return 1;
     69e:	80 91 da 00 	lds	r24, 0x00DA	; 0x8000da <__TEXT_REGION_LENGTH__+0x7e00da>
     6a2:	84 ff       	sbrs	r24, 4
     6a4:	28 c0       	rjmp	.+80     	; 0x6f6 <can_receive_frame_buffer+0xba>
     6a6:	80 e0       	ldi	r24, 0x00	; 0
	//reset mob RXOK flags
	for(j=0; j<8; j++){
		CANPAGE = (j << 4);
     6a8:	98 2f       	mov	r25, r24
     6aa:	92 95       	swap	r25
     6ac:	90 7f       	andi	r25, 0xF0	; 240
     6ae:	90 93 ed 00 	sts	0x00ED, r25	; 0x8000ed <__TEXT_REGION_LENGTH__+0x7e00ed>
		CANCDMOB = 0x00;
     6b2:	10 92 ef 00 	sts	0x00EF, r1	; 0x8000ef <__TEXT_REGION_LENGTH__+0x7e00ef>
		CANSTMOB = 0x00;
     6b6:	10 92 ee 00 	sts	0x00EE, r1	; 0x8000ee <__TEXT_REGION_LENGTH__+0x7e00ee>
	//wait for interrupt.
	while((CANGIT & INTR_MASK) != (1 << CANIT));
	//Check if interrupt is the right one (BXOK).
	if((CANGIT & BXOK_MASK) != (1 << BXOK)) return 1;
	//reset mob RXOK flags
	for(j=0; j<8; j++){
     6ba:	8f 5f       	subi	r24, 0xFF	; 255
     6bc:	88 30       	cpi	r24, 0x08	; 8
     6be:	a1 f7       	brne	.-24     	; 0x6a8 <can_receive_frame_buffer+0x6c>
		CANPAGE = (j << 4);
		CANCDMOB = 0x00;
		CANSTMOB = 0x00;
	}
	//Reset interrupt register.
	CANGIT = CANGIT;
     6c0:	80 91 da 00 	lds	r24, 0x00DA	; 0x8000da <__TEXT_REGION_LENGTH__+0x7e00da>
     6c4:	80 93 da 00 	sts	0x00DA, r24	; 0x8000da <__TEXT_REGION_LENGTH__+0x7e00da>

}

void can_get_frame_buffer( uint8_t *message , uint8_t buff_len){
	uint8_t j;
	for(j=0; j<buff_len; j++){
     6c8:	66 23       	and	r22, r22
     6ca:	91 f0       	breq	.+36     	; 0x6f0 <can_receive_frame_buffer+0xb4>
     6cc:	90 e0       	ldi	r25, 0x00	; 0
		message = message + 8;
	}
}

void can_get_message(uint8_t mobnr , uint8_t *message ){
	CANPAGE = mobnr << 4;
     6ce:	89 2f       	mov	r24, r25
     6d0:	82 95       	swap	r24
     6d2:	80 7f       	andi	r24, 0xF0	; 240
     6d4:	80 93 ed 00 	sts	0x00ED, r24	; 0x8000ed <__TEXT_REGION_LENGTH__+0x7e00ed>
     6d8:	9f 01       	movw	r18, r30
     6da:	28 5f       	subi	r18, 0xF8	; 248
     6dc:	3f 4f       	sbci	r19, 0xFF	; 255
	uint8_t j;
	for(j=0; j<8; j++){
		*message = CANMSG;
     6de:	80 91 fa 00 	lds	r24, 0x00FA	; 0x8000fa <__TEXT_REGION_LENGTH__+0x7e00fa>
     6e2:	81 93       	st	Z+, r24
}

void can_get_message(uint8_t mobnr , uint8_t *message ){
	CANPAGE = mobnr << 4;
	uint8_t j;
	for(j=0; j<8; j++){
     6e4:	2e 17       	cp	r18, r30
     6e6:	3f 07       	cpc	r19, r31
     6e8:	d1 f7       	brne	.-12     	; 0x6de <can_receive_frame_buffer+0xa2>

}

void can_get_frame_buffer( uint8_t *message , uint8_t buff_len){
	uint8_t j;
	for(j=0; j<buff_len; j++){
     6ea:	9f 5f       	subi	r25, 0xFF	; 255
     6ec:	69 13       	cpse	r22, r25
     6ee:	ef cf       	rjmp	.-34     	; 0x6ce <can_receive_frame_buffer+0x92>
	}
	//Reset interrupt register.
	CANGIT = CANGIT;
	//retrieve message.
	can_get_frame_buffer(message, buff_len);
	return 0;
     6f0:	80 e0       	ldi	r24, 0x00	; 0
     6f2:	90 e0       	ldi	r25, 0x00	; 0
     6f4:	08 95       	ret
		CANCDMOB = (1 << CONMOB0) | (1 << CONMOB1) | (1 << DLC3);
	}
	//wait for interrupt.
	while((CANGIT & INTR_MASK) != (1 << CANIT));
	//Check if interrupt is the right one (BXOK).
	if((CANGIT & BXOK_MASK) != (1 << BXOK)) return 1;
     6f6:	81 e0       	ldi	r24, 0x01	; 1
     6f8:	90 e0       	ldi	r25, 0x00	; 0
	//Reset interrupt register.
	CANGIT = CANGIT;
	//retrieve message.
	can_get_frame_buffer(message, buff_len);
	return 0;
}
     6fa:	08 95       	ret

000006fc <uECC_vli_clear>:
    uECC_word_t _private[uECC_MAX_WORDS];
    uECC_word_t _public[uECC_MAX_WORDS * 2];
#endif

#if uECC_VLI_NATIVE_LITTLE_ENDIAN == 0
    uECC_vli_bytesToNative(_private, private_key, BITS_TO_BYTES(curve->num_n_bits));
     6fc:	dc 01       	movw	r26, r24
     6fe:	e4 ea       	ldi	r30, 0xA4	; 164
     700:	f3 e0       	ldi	r31, 0x03	; 3
     702:	e6 1b       	sub	r30, r22
     704:	f1 09       	sbc	r31, r1
     706:	09 94       	ijmp
     708:	1d 92       	st	X+, r1
     70a:	1d 92       	st	X+, r1
     70c:	1d 92       	st	X+, r1
     70e:	1d 92       	st	X+, r1
     710:	1d 92       	st	X+, r1
     712:	1d 92       	st	X+, r1
     714:	1d 92       	st	X+, r1
     716:	1d 92       	st	X+, r1
     718:	1d 92       	st	X+, r1
     71a:	1d 92       	st	X+, r1
     71c:	1d 92       	st	X+, r1
     71e:	1d 92       	st	X+, r1
     720:	1d 92       	st	X+, r1
     722:	1d 92       	st	X+, r1
     724:	1d 92       	st	X+, r1
     726:	1d 92       	st	X+, r1
     728:	1d 92       	st	X+, r1
     72a:	1d 92       	st	X+, r1
     72c:	1d 92       	st	X+, r1
     72e:	1d 92       	st	X+, r1
     730:	1d 92       	st	X+, r1
     732:	1d 92       	st	X+, r1
     734:	1d 92       	st	X+, r1
     736:	1d 92       	st	X+, r1
     738:	1d 92       	st	X+, r1
     73a:	1d 92       	st	X+, r1
     73c:	1d 92       	st	X+, r1
     73e:	1d 92       	st	X+, r1
     740:	1d 92       	st	X+, r1
     742:	1d 92       	st	X+, r1
     744:	1d 92       	st	X+, r1
     746:	1d 92       	st	X+, r1
     748:	08 95       	ret

0000074a <uECC_vli_set>:
     74a:	cf 93       	push	r28
     74c:	df 93       	push	r29
     74e:	44 0f       	add	r20, r20
     750:	eb 01       	movw	r28, r22
     752:	dc 01       	movw	r26, r24
     754:	ef ee       	ldi	r30, 0xEF	; 239
     756:	f3 e0       	ldi	r31, 0x03	; 3
     758:	e4 1b       	sub	r30, r20
     75a:	f1 09       	sbc	r31, r1
     75c:	09 94       	ijmp
     75e:	09 90       	ld	r0, Y+
     760:	0d 92       	st	X+, r0
     762:	09 90       	ld	r0, Y+
     764:	0d 92       	st	X+, r0
     766:	09 90       	ld	r0, Y+
     768:	0d 92       	st	X+, r0
     76a:	09 90       	ld	r0, Y+
     76c:	0d 92       	st	X+, r0
     76e:	09 90       	ld	r0, Y+
     770:	0d 92       	st	X+, r0
     772:	09 90       	ld	r0, Y+
     774:	0d 92       	st	X+, r0
     776:	09 90       	ld	r0, Y+
     778:	0d 92       	st	X+, r0
     77a:	09 90       	ld	r0, Y+
     77c:	0d 92       	st	X+, r0
     77e:	09 90       	ld	r0, Y+
     780:	0d 92       	st	X+, r0
     782:	09 90       	ld	r0, Y+
     784:	0d 92       	st	X+, r0
     786:	09 90       	ld	r0, Y+
     788:	0d 92       	st	X+, r0
     78a:	09 90       	ld	r0, Y+
     78c:	0d 92       	st	X+, r0
     78e:	09 90       	ld	r0, Y+
     790:	0d 92       	st	X+, r0
     792:	09 90       	ld	r0, Y+
     794:	0d 92       	st	X+, r0
     796:	09 90       	ld	r0, Y+
     798:	0d 92       	st	X+, r0
     79a:	09 90       	ld	r0, Y+
     79c:	0d 92       	st	X+, r0
     79e:	09 90       	ld	r0, Y+
     7a0:	0d 92       	st	X+, r0
     7a2:	09 90       	ld	r0, Y+
     7a4:	0d 92       	st	X+, r0
     7a6:	09 90       	ld	r0, Y+
     7a8:	0d 92       	st	X+, r0
     7aa:	09 90       	ld	r0, Y+
     7ac:	0d 92       	st	X+, r0
     7ae:	09 90       	ld	r0, Y+
     7b0:	0d 92       	st	X+, r0
     7b2:	09 90       	ld	r0, Y+
     7b4:	0d 92       	st	X+, r0
     7b6:	09 90       	ld	r0, Y+
     7b8:	0d 92       	st	X+, r0
     7ba:	09 90       	ld	r0, Y+
     7bc:	0d 92       	st	X+, r0
     7be:	09 90       	ld	r0, Y+
     7c0:	0d 92       	st	X+, r0
     7c2:	09 90       	ld	r0, Y+
     7c4:	0d 92       	st	X+, r0
     7c6:	09 90       	ld	r0, Y+
     7c8:	0d 92       	st	X+, r0
     7ca:	09 90       	ld	r0, Y+
     7cc:	0d 92       	st	X+, r0
     7ce:	09 90       	ld	r0, Y+
     7d0:	0d 92       	st	X+, r0
     7d2:	09 90       	ld	r0, Y+
     7d4:	0d 92       	st	X+, r0
     7d6:	09 90       	ld	r0, Y+
     7d8:	0d 92       	st	X+, r0
     7da:	09 90       	ld	r0, Y+
     7dc:	0d 92       	st	X+, r0
     7de:	df 91       	pop	r29
     7e0:	cf 91       	pop	r28
     7e2:	08 95       	ret

000007e4 <uECC_vli_rshift1>:
     7e4:	26 2f       	mov	r18, r22
     7e6:	32 e0       	ldi	r19, 0x02	; 2
     7e8:	63 9f       	mul	r22, r19
     7ea:	20 0d       	add	r18, r0
     7ec:	11 24       	eor	r1, r1
     7ee:	23 50       	subi	r18, 0x03	; 3
     7f0:	dc 01       	movw	r26, r24
     7f2:	e0 e6       	ldi	r30, 0x60	; 96
     7f4:	f4 e0       	ldi	r31, 0x04	; 4
     7f6:	e2 1b       	sub	r30, r18
     7f8:	f1 09       	sbc	r31, r1
     7fa:	a6 0f       	add	r26, r22
     7fc:	b1 1d       	adc	r27, r1
     7fe:	0e 90       	ld	r0, -X
     800:	06 94       	lsr	r0
     802:	0c 92       	st	X, r0
     804:	09 94       	ijmp
     806:	0e 90       	ld	r0, -X
     808:	07 94       	ror	r0
     80a:	0c 92       	st	X, r0
     80c:	0e 90       	ld	r0, -X
     80e:	07 94       	ror	r0
     810:	0c 92       	st	X, r0
     812:	0e 90       	ld	r0, -X
     814:	07 94       	ror	r0
     816:	0c 92       	st	X, r0
     818:	0e 90       	ld	r0, -X
     81a:	07 94       	ror	r0
     81c:	0c 92       	st	X, r0
     81e:	0e 90       	ld	r0, -X
     820:	07 94       	ror	r0
     822:	0c 92       	st	X, r0
     824:	0e 90       	ld	r0, -X
     826:	07 94       	ror	r0
     828:	0c 92       	st	X, r0
     82a:	0e 90       	ld	r0, -X
     82c:	07 94       	ror	r0
     82e:	0c 92       	st	X, r0
     830:	0e 90       	ld	r0, -X
     832:	07 94       	ror	r0
     834:	0c 92       	st	X, r0
     836:	0e 90       	ld	r0, -X
     838:	07 94       	ror	r0
     83a:	0c 92       	st	X, r0
     83c:	0e 90       	ld	r0, -X
     83e:	07 94       	ror	r0
     840:	0c 92       	st	X, r0
     842:	0e 90       	ld	r0, -X
     844:	07 94       	ror	r0
     846:	0c 92       	st	X, r0
     848:	0e 90       	ld	r0, -X
     84a:	07 94       	ror	r0
     84c:	0c 92       	st	X, r0
     84e:	0e 90       	ld	r0, -X
     850:	07 94       	ror	r0
     852:	0c 92       	st	X, r0
     854:	0e 90       	ld	r0, -X
     856:	07 94       	ror	r0
     858:	0c 92       	st	X, r0
     85a:	0e 90       	ld	r0, -X
     85c:	07 94       	ror	r0
     85e:	0c 92       	st	X, r0
     860:	0e 90       	ld	r0, -X
     862:	07 94       	ror	r0
     864:	0c 92       	st	X, r0
     866:	0e 90       	ld	r0, -X
     868:	07 94       	ror	r0
     86a:	0c 92       	st	X, r0
     86c:	0e 90       	ld	r0, -X
     86e:	07 94       	ror	r0
     870:	0c 92       	st	X, r0
     872:	0e 90       	ld	r0, -X
     874:	07 94       	ror	r0
     876:	0c 92       	st	X, r0
     878:	0e 90       	ld	r0, -X
     87a:	07 94       	ror	r0
     87c:	0c 92       	st	X, r0
     87e:	0e 90       	ld	r0, -X
     880:	07 94       	ror	r0
     882:	0c 92       	st	X, r0
     884:	0e 90       	ld	r0, -X
     886:	07 94       	ror	r0
     888:	0c 92       	st	X, r0
     88a:	0e 90       	ld	r0, -X
     88c:	07 94       	ror	r0
     88e:	0c 92       	st	X, r0
     890:	0e 90       	ld	r0, -X
     892:	07 94       	ror	r0
     894:	0c 92       	st	X, r0
     896:	0e 90       	ld	r0, -X
     898:	07 94       	ror	r0
     89a:	0c 92       	st	X, r0
     89c:	0e 90       	ld	r0, -X
     89e:	07 94       	ror	r0
     8a0:	0c 92       	st	X, r0
     8a2:	0e 90       	ld	r0, -X
     8a4:	07 94       	ror	r0
     8a6:	0c 92       	st	X, r0
     8a8:	0e 90       	ld	r0, -X
     8aa:	07 94       	ror	r0
     8ac:	0c 92       	st	X, r0
     8ae:	0e 90       	ld	r0, -X
     8b0:	07 94       	ror	r0
     8b2:	0c 92       	st	X, r0
     8b4:	0e 90       	ld	r0, -X
     8b6:	07 94       	ror	r0
     8b8:	0c 92       	st	X, r0
     8ba:	0e 90       	ld	r0, -X
     8bc:	07 94       	ror	r0
     8be:	0c 92       	st	X, r0
     8c0:	08 95       	ret

000008c2 <uECC_vli_add>:
     8c2:	cf 93       	push	r28
     8c4:	df 93       	push	r29
     8c6:	22 0f       	add	r18, r18
     8c8:	db 01       	movw	r26, r22
     8ca:	ea 01       	movw	r28, r20
     8cc:	ac 01       	movw	r20, r24
     8ce:	ed ea       	ldi	r30, 0xAD	; 173
     8d0:	f4 e0       	ldi	r31, 0x04	; 4
     8d2:	e2 1b       	sub	r30, r18
     8d4:	f1 09       	sbc	r31, r1
     8d6:	88 94       	clc
     8d8:	09 94       	ijmp
     8da:	fa 01       	movw	r30, r20
     8dc:	3e c0       	rjmp	.+124    	; 0x95a <add_90_32>
     8de:	fa 01       	movw	r30, r20
     8e0:	40 c0       	rjmp	.+128    	; 0x962 <add_90_31>
     8e2:	fa 01       	movw	r30, r20
     8e4:	42 c0       	rjmp	.+132    	; 0x96a <add_90_30>
     8e6:	fa 01       	movw	r30, r20
     8e8:	44 c0       	rjmp	.+136    	; 0x972 <add_90_29>
     8ea:	fa 01       	movw	r30, r20
     8ec:	46 c0       	rjmp	.+140    	; 0x97a <add_90_28>
     8ee:	fa 01       	movw	r30, r20
     8f0:	48 c0       	rjmp	.+144    	; 0x982 <add_90_27>
     8f2:	fa 01       	movw	r30, r20
     8f4:	4a c0       	rjmp	.+148    	; 0x98a <add_90_26>
     8f6:	fa 01       	movw	r30, r20
     8f8:	4c c0       	rjmp	.+152    	; 0x992 <add_90_25>
     8fa:	fa 01       	movw	r30, r20
     8fc:	4e c0       	rjmp	.+156    	; 0x99a <add_90_24>
     8fe:	fa 01       	movw	r30, r20
     900:	50 c0       	rjmp	.+160    	; 0x9a2 <add_90_23>
     902:	fa 01       	movw	r30, r20
     904:	52 c0       	rjmp	.+164    	; 0x9aa <add_90_22>
     906:	fa 01       	movw	r30, r20
     908:	54 c0       	rjmp	.+168    	; 0x9b2 <add_90_21>
     90a:	fa 01       	movw	r30, r20
     90c:	56 c0       	rjmp	.+172    	; 0x9ba <add_90_20>
     90e:	fa 01       	movw	r30, r20
     910:	58 c0       	rjmp	.+176    	; 0x9c2 <add_90_19>
     912:	fa 01       	movw	r30, r20
     914:	5a c0       	rjmp	.+180    	; 0x9ca <add_90_18>
     916:	fa 01       	movw	r30, r20
     918:	5c c0       	rjmp	.+184    	; 0x9d2 <add_90_17>
     91a:	fa 01       	movw	r30, r20
     91c:	5e c0       	rjmp	.+188    	; 0x9da <add_90_16>
     91e:	fa 01       	movw	r30, r20
     920:	60 c0       	rjmp	.+192    	; 0x9e2 <add_90_15>
     922:	fa 01       	movw	r30, r20
     924:	62 c0       	rjmp	.+196    	; 0x9ea <add_90_14>
     926:	fa 01       	movw	r30, r20
     928:	64 c0       	rjmp	.+200    	; 0x9f2 <add_90_13>
     92a:	fa 01       	movw	r30, r20
     92c:	66 c0       	rjmp	.+204    	; 0x9fa <add_90_12>
     92e:	fa 01       	movw	r30, r20
     930:	68 c0       	rjmp	.+208    	; 0xa02 <add_90_11>
     932:	fa 01       	movw	r30, r20
     934:	6a c0       	rjmp	.+212    	; 0xa0a <add_90_10>
     936:	fa 01       	movw	r30, r20
     938:	6c c0       	rjmp	.+216    	; 0xa12 <add_90_9>
     93a:	fa 01       	movw	r30, r20
     93c:	6e c0       	rjmp	.+220    	; 0xa1a <add_90_8>
     93e:	fa 01       	movw	r30, r20
     940:	70 c0       	rjmp	.+224    	; 0xa22 <add_90_7>
     942:	fa 01       	movw	r30, r20
     944:	72 c0       	rjmp	.+228    	; 0xa2a <add_90_6>
     946:	fa 01       	movw	r30, r20
     948:	74 c0       	rjmp	.+232    	; 0xa32 <add_90_5>
     94a:	fa 01       	movw	r30, r20
     94c:	76 c0       	rjmp	.+236    	; 0xa3a <add_90_4>
     94e:	fa 01       	movw	r30, r20
     950:	78 c0       	rjmp	.+240    	; 0xa42 <add_90_3>
     952:	fa 01       	movw	r30, r20
     954:	7a c0       	rjmp	.+244    	; 0xa4a <add_90_2>
     956:	fa 01       	movw	r30, r20
     958:	7c c0       	rjmp	.+248    	; 0xa52 <add_90_1>

0000095a <add_90_32>:
     95a:	8d 91       	ld	r24, X+
     95c:	99 91       	ld	r25, Y+
     95e:	89 1f       	adc	r24, r25
     960:	81 93       	st	Z+, r24

00000962 <add_90_31>:
     962:	8d 91       	ld	r24, X+
     964:	99 91       	ld	r25, Y+
     966:	89 1f       	adc	r24, r25
     968:	81 93       	st	Z+, r24

0000096a <add_90_30>:
     96a:	8d 91       	ld	r24, X+
     96c:	99 91       	ld	r25, Y+
     96e:	89 1f       	adc	r24, r25
     970:	81 93       	st	Z+, r24

00000972 <add_90_29>:
     972:	8d 91       	ld	r24, X+
     974:	99 91       	ld	r25, Y+
     976:	89 1f       	adc	r24, r25
     978:	81 93       	st	Z+, r24

0000097a <add_90_28>:
     97a:	8d 91       	ld	r24, X+
     97c:	99 91       	ld	r25, Y+
     97e:	89 1f       	adc	r24, r25
     980:	81 93       	st	Z+, r24

00000982 <add_90_27>:
     982:	8d 91       	ld	r24, X+
     984:	99 91       	ld	r25, Y+
     986:	89 1f       	adc	r24, r25
     988:	81 93       	st	Z+, r24

0000098a <add_90_26>:
     98a:	8d 91       	ld	r24, X+
     98c:	99 91       	ld	r25, Y+
     98e:	89 1f       	adc	r24, r25
     990:	81 93       	st	Z+, r24

00000992 <add_90_25>:
     992:	8d 91       	ld	r24, X+
     994:	99 91       	ld	r25, Y+
     996:	89 1f       	adc	r24, r25
     998:	81 93       	st	Z+, r24

0000099a <add_90_24>:
     99a:	8d 91       	ld	r24, X+
     99c:	99 91       	ld	r25, Y+
     99e:	89 1f       	adc	r24, r25
     9a0:	81 93       	st	Z+, r24

000009a2 <add_90_23>:
     9a2:	8d 91       	ld	r24, X+
     9a4:	99 91       	ld	r25, Y+
     9a6:	89 1f       	adc	r24, r25
     9a8:	81 93       	st	Z+, r24

000009aa <add_90_22>:
     9aa:	8d 91       	ld	r24, X+
     9ac:	99 91       	ld	r25, Y+
     9ae:	89 1f       	adc	r24, r25
     9b0:	81 93       	st	Z+, r24

000009b2 <add_90_21>:
     9b2:	8d 91       	ld	r24, X+
     9b4:	99 91       	ld	r25, Y+
     9b6:	89 1f       	adc	r24, r25
     9b8:	81 93       	st	Z+, r24

000009ba <add_90_20>:
     9ba:	8d 91       	ld	r24, X+
     9bc:	99 91       	ld	r25, Y+
     9be:	89 1f       	adc	r24, r25
     9c0:	81 93       	st	Z+, r24

000009c2 <add_90_19>:
     9c2:	8d 91       	ld	r24, X+
     9c4:	99 91       	ld	r25, Y+
     9c6:	89 1f       	adc	r24, r25
     9c8:	81 93       	st	Z+, r24

000009ca <add_90_18>:
     9ca:	8d 91       	ld	r24, X+
     9cc:	99 91       	ld	r25, Y+
     9ce:	89 1f       	adc	r24, r25
     9d0:	81 93       	st	Z+, r24

000009d2 <add_90_17>:
     9d2:	8d 91       	ld	r24, X+
     9d4:	99 91       	ld	r25, Y+
     9d6:	89 1f       	adc	r24, r25
     9d8:	81 93       	st	Z+, r24

000009da <add_90_16>:
     9da:	8d 91       	ld	r24, X+
     9dc:	99 91       	ld	r25, Y+
     9de:	89 1f       	adc	r24, r25
     9e0:	81 93       	st	Z+, r24

000009e2 <add_90_15>:
     9e2:	8d 91       	ld	r24, X+
     9e4:	99 91       	ld	r25, Y+
     9e6:	89 1f       	adc	r24, r25
     9e8:	81 93       	st	Z+, r24

000009ea <add_90_14>:
     9ea:	8d 91       	ld	r24, X+
     9ec:	99 91       	ld	r25, Y+
     9ee:	89 1f       	adc	r24, r25
     9f0:	81 93       	st	Z+, r24

000009f2 <add_90_13>:
     9f2:	8d 91       	ld	r24, X+
     9f4:	99 91       	ld	r25, Y+
     9f6:	89 1f       	adc	r24, r25
     9f8:	81 93       	st	Z+, r24

000009fa <add_90_12>:
     9fa:	8d 91       	ld	r24, X+
     9fc:	99 91       	ld	r25, Y+
     9fe:	89 1f       	adc	r24, r25
     a00:	81 93       	st	Z+, r24

00000a02 <add_90_11>:
     a02:	8d 91       	ld	r24, X+
     a04:	99 91       	ld	r25, Y+
     a06:	89 1f       	adc	r24, r25
     a08:	81 93       	st	Z+, r24

00000a0a <add_90_10>:
     a0a:	8d 91       	ld	r24, X+
     a0c:	99 91       	ld	r25, Y+
     a0e:	89 1f       	adc	r24, r25
     a10:	81 93       	st	Z+, r24

00000a12 <add_90_9>:
     a12:	8d 91       	ld	r24, X+
     a14:	99 91       	ld	r25, Y+
     a16:	89 1f       	adc	r24, r25
     a18:	81 93       	st	Z+, r24

00000a1a <add_90_8>:
     a1a:	8d 91       	ld	r24, X+
     a1c:	99 91       	ld	r25, Y+
     a1e:	89 1f       	adc	r24, r25
     a20:	81 93       	st	Z+, r24

00000a22 <add_90_7>:
     a22:	8d 91       	ld	r24, X+
     a24:	99 91       	ld	r25, Y+
     a26:	89 1f       	adc	r24, r25
     a28:	81 93       	st	Z+, r24

00000a2a <add_90_6>:
     a2a:	8d 91       	ld	r24, X+
     a2c:	99 91       	ld	r25, Y+
     a2e:	89 1f       	adc	r24, r25
     a30:	81 93       	st	Z+, r24

00000a32 <add_90_5>:
     a32:	8d 91       	ld	r24, X+
     a34:	99 91       	ld	r25, Y+
     a36:	89 1f       	adc	r24, r25
     a38:	81 93       	st	Z+, r24

00000a3a <add_90_4>:
     a3a:	8d 91       	ld	r24, X+
     a3c:	99 91       	ld	r25, Y+
     a3e:	89 1f       	adc	r24, r25
     a40:	81 93       	st	Z+, r24

00000a42 <add_90_3>:
     a42:	8d 91       	ld	r24, X+
     a44:	99 91       	ld	r25, Y+
     a46:	89 1f       	adc	r24, r25
     a48:	81 93       	st	Z+, r24

00000a4a <add_90_2>:
     a4a:	8d 91       	ld	r24, X+
     a4c:	99 91       	ld	r25, Y+
     a4e:	89 1f       	adc	r24, r25
     a50:	81 93       	st	Z+, r24

00000a52 <add_90_1>:
     a52:	8d 91       	ld	r24, X+
     a54:	99 91       	ld	r25, Y+
     a56:	89 1f       	adc	r24, r25
     a58:	81 93       	st	Z+, r24
     a5a:	81 2d       	mov	r24, r1
     a5c:	88 1f       	adc	r24, r24
     a5e:	df 91       	pop	r29
     a60:	cf 91       	pop	r28
     a62:	08 95       	ret

00000a64 <uECC_vli_sub>:
     a64:	cf 93       	push	r28
     a66:	df 93       	push	r29
     a68:	22 0f       	add	r18, r18
     a6a:	db 01       	movw	r26, r22
     a6c:	ea 01       	movw	r28, r20
     a6e:	ac 01       	movw	r20, r24
     a70:	ee e7       	ldi	r30, 0x7E	; 126
     a72:	f5 e0       	ldi	r31, 0x05	; 5
     a74:	e2 1b       	sub	r30, r18
     a76:	f1 09       	sbc	r31, r1
     a78:	88 94       	clc
     a7a:	09 94       	ijmp
     a7c:	fa 01       	movw	r30, r20
     a7e:	3e c0       	rjmp	.+124    	; 0xafc <sub_130_32>
     a80:	fa 01       	movw	r30, r20
     a82:	40 c0       	rjmp	.+128    	; 0xb04 <sub_130_31>
     a84:	fa 01       	movw	r30, r20
     a86:	42 c0       	rjmp	.+132    	; 0xb0c <sub_130_30>
     a88:	fa 01       	movw	r30, r20
     a8a:	44 c0       	rjmp	.+136    	; 0xb14 <sub_130_29>
     a8c:	fa 01       	movw	r30, r20
     a8e:	46 c0       	rjmp	.+140    	; 0xb1c <sub_130_28>
     a90:	fa 01       	movw	r30, r20
     a92:	48 c0       	rjmp	.+144    	; 0xb24 <sub_130_27>
     a94:	fa 01       	movw	r30, r20
     a96:	4a c0       	rjmp	.+148    	; 0xb2c <sub_130_26>
     a98:	fa 01       	movw	r30, r20
     a9a:	4c c0       	rjmp	.+152    	; 0xb34 <sub_130_25>
     a9c:	fa 01       	movw	r30, r20
     a9e:	4e c0       	rjmp	.+156    	; 0xb3c <sub_130_24>
     aa0:	fa 01       	movw	r30, r20
     aa2:	50 c0       	rjmp	.+160    	; 0xb44 <sub_130_23>
     aa4:	fa 01       	movw	r30, r20
     aa6:	52 c0       	rjmp	.+164    	; 0xb4c <sub_130_22>
     aa8:	fa 01       	movw	r30, r20
     aaa:	54 c0       	rjmp	.+168    	; 0xb54 <sub_130_21>
     aac:	fa 01       	movw	r30, r20
     aae:	56 c0       	rjmp	.+172    	; 0xb5c <sub_130_20>
     ab0:	fa 01       	movw	r30, r20
     ab2:	58 c0       	rjmp	.+176    	; 0xb64 <sub_130_19>
     ab4:	fa 01       	movw	r30, r20
     ab6:	5a c0       	rjmp	.+180    	; 0xb6c <sub_130_18>
     ab8:	fa 01       	movw	r30, r20
     aba:	5c c0       	rjmp	.+184    	; 0xb74 <sub_130_17>
     abc:	fa 01       	movw	r30, r20
     abe:	5e c0       	rjmp	.+188    	; 0xb7c <sub_130_16>
     ac0:	fa 01       	movw	r30, r20
     ac2:	60 c0       	rjmp	.+192    	; 0xb84 <sub_130_15>
     ac4:	fa 01       	movw	r30, r20
     ac6:	62 c0       	rjmp	.+196    	; 0xb8c <sub_130_14>
     ac8:	fa 01       	movw	r30, r20
     aca:	64 c0       	rjmp	.+200    	; 0xb94 <sub_130_13>
     acc:	fa 01       	movw	r30, r20
     ace:	66 c0       	rjmp	.+204    	; 0xb9c <sub_130_12>
     ad0:	fa 01       	movw	r30, r20
     ad2:	68 c0       	rjmp	.+208    	; 0xba4 <sub_130_11>
     ad4:	fa 01       	movw	r30, r20
     ad6:	6a c0       	rjmp	.+212    	; 0xbac <sub_130_10>
     ad8:	fa 01       	movw	r30, r20
     ada:	6c c0       	rjmp	.+216    	; 0xbb4 <sub_130_9>
     adc:	fa 01       	movw	r30, r20
     ade:	6e c0       	rjmp	.+220    	; 0xbbc <sub_130_8>
     ae0:	fa 01       	movw	r30, r20
     ae2:	70 c0       	rjmp	.+224    	; 0xbc4 <sub_130_7>
     ae4:	fa 01       	movw	r30, r20
     ae6:	72 c0       	rjmp	.+228    	; 0xbcc <sub_130_6>
     ae8:	fa 01       	movw	r30, r20
     aea:	74 c0       	rjmp	.+232    	; 0xbd4 <sub_130_5>
     aec:	fa 01       	movw	r30, r20
     aee:	76 c0       	rjmp	.+236    	; 0xbdc <sub_130_4>
     af0:	fa 01       	movw	r30, r20
     af2:	78 c0       	rjmp	.+240    	; 0xbe4 <sub_130_3>
     af4:	fa 01       	movw	r30, r20
     af6:	7a c0       	rjmp	.+244    	; 0xbec <sub_130_2>
     af8:	fa 01       	movw	r30, r20
     afa:	7c c0       	rjmp	.+248    	; 0xbf4 <sub_130_1>

00000afc <sub_130_32>:
     afc:	8d 91       	ld	r24, X+
     afe:	99 91       	ld	r25, Y+
     b00:	89 0b       	sbc	r24, r25
     b02:	81 93       	st	Z+, r24

00000b04 <sub_130_31>:
     b04:	8d 91       	ld	r24, X+
     b06:	99 91       	ld	r25, Y+
     b08:	89 0b       	sbc	r24, r25
     b0a:	81 93       	st	Z+, r24

00000b0c <sub_130_30>:
     b0c:	8d 91       	ld	r24, X+
     b0e:	99 91       	ld	r25, Y+
     b10:	89 0b       	sbc	r24, r25
     b12:	81 93       	st	Z+, r24

00000b14 <sub_130_29>:
     b14:	8d 91       	ld	r24, X+
     b16:	99 91       	ld	r25, Y+
     b18:	89 0b       	sbc	r24, r25
     b1a:	81 93       	st	Z+, r24

00000b1c <sub_130_28>:
     b1c:	8d 91       	ld	r24, X+
     b1e:	99 91       	ld	r25, Y+
     b20:	89 0b       	sbc	r24, r25
     b22:	81 93       	st	Z+, r24

00000b24 <sub_130_27>:
     b24:	8d 91       	ld	r24, X+
     b26:	99 91       	ld	r25, Y+
     b28:	89 0b       	sbc	r24, r25
     b2a:	81 93       	st	Z+, r24

00000b2c <sub_130_26>:
     b2c:	8d 91       	ld	r24, X+
     b2e:	99 91       	ld	r25, Y+
     b30:	89 0b       	sbc	r24, r25
     b32:	81 93       	st	Z+, r24

00000b34 <sub_130_25>:
     b34:	8d 91       	ld	r24, X+
     b36:	99 91       	ld	r25, Y+
     b38:	89 0b       	sbc	r24, r25
     b3a:	81 93       	st	Z+, r24

00000b3c <sub_130_24>:
     b3c:	8d 91       	ld	r24, X+
     b3e:	99 91       	ld	r25, Y+
     b40:	89 0b       	sbc	r24, r25
     b42:	81 93       	st	Z+, r24

00000b44 <sub_130_23>:
     b44:	8d 91       	ld	r24, X+
     b46:	99 91       	ld	r25, Y+
     b48:	89 0b       	sbc	r24, r25
     b4a:	81 93       	st	Z+, r24

00000b4c <sub_130_22>:
     b4c:	8d 91       	ld	r24, X+
     b4e:	99 91       	ld	r25, Y+
     b50:	89 0b       	sbc	r24, r25
     b52:	81 93       	st	Z+, r24

00000b54 <sub_130_21>:
     b54:	8d 91       	ld	r24, X+
     b56:	99 91       	ld	r25, Y+
     b58:	89 0b       	sbc	r24, r25
     b5a:	81 93       	st	Z+, r24

00000b5c <sub_130_20>:
     b5c:	8d 91       	ld	r24, X+
     b5e:	99 91       	ld	r25, Y+
     b60:	89 0b       	sbc	r24, r25
     b62:	81 93       	st	Z+, r24

00000b64 <sub_130_19>:
     b64:	8d 91       	ld	r24, X+
     b66:	99 91       	ld	r25, Y+
     b68:	89 0b       	sbc	r24, r25
     b6a:	81 93       	st	Z+, r24

00000b6c <sub_130_18>:
     b6c:	8d 91       	ld	r24, X+
     b6e:	99 91       	ld	r25, Y+
     b70:	89 0b       	sbc	r24, r25
     b72:	81 93       	st	Z+, r24

00000b74 <sub_130_17>:
     b74:	8d 91       	ld	r24, X+
     b76:	99 91       	ld	r25, Y+
     b78:	89 0b       	sbc	r24, r25
     b7a:	81 93       	st	Z+, r24

00000b7c <sub_130_16>:
     b7c:	8d 91       	ld	r24, X+
     b7e:	99 91       	ld	r25, Y+
     b80:	89 0b       	sbc	r24, r25
     b82:	81 93       	st	Z+, r24

00000b84 <sub_130_15>:
     b84:	8d 91       	ld	r24, X+
     b86:	99 91       	ld	r25, Y+
     b88:	89 0b       	sbc	r24, r25
     b8a:	81 93       	st	Z+, r24

00000b8c <sub_130_14>:
     b8c:	8d 91       	ld	r24, X+
     b8e:	99 91       	ld	r25, Y+
     b90:	89 0b       	sbc	r24, r25
     b92:	81 93       	st	Z+, r24

00000b94 <sub_130_13>:
     b94:	8d 91       	ld	r24, X+
     b96:	99 91       	ld	r25, Y+
     b98:	89 0b       	sbc	r24, r25
     b9a:	81 93       	st	Z+, r24

00000b9c <sub_130_12>:
     b9c:	8d 91       	ld	r24, X+
     b9e:	99 91       	ld	r25, Y+
     ba0:	89 0b       	sbc	r24, r25
     ba2:	81 93       	st	Z+, r24

00000ba4 <sub_130_11>:
     ba4:	8d 91       	ld	r24, X+
     ba6:	99 91       	ld	r25, Y+
     ba8:	89 0b       	sbc	r24, r25
     baa:	81 93       	st	Z+, r24

00000bac <sub_130_10>:
     bac:	8d 91       	ld	r24, X+
     bae:	99 91       	ld	r25, Y+
     bb0:	89 0b       	sbc	r24, r25
     bb2:	81 93       	st	Z+, r24

00000bb4 <sub_130_9>:
     bb4:	8d 91       	ld	r24, X+
     bb6:	99 91       	ld	r25, Y+
     bb8:	89 0b       	sbc	r24, r25
     bba:	81 93       	st	Z+, r24

00000bbc <sub_130_8>:
     bbc:	8d 91       	ld	r24, X+
     bbe:	99 91       	ld	r25, Y+
     bc0:	89 0b       	sbc	r24, r25
     bc2:	81 93       	st	Z+, r24

00000bc4 <sub_130_7>:
     bc4:	8d 91       	ld	r24, X+
     bc6:	99 91       	ld	r25, Y+
     bc8:	89 0b       	sbc	r24, r25
     bca:	81 93       	st	Z+, r24

00000bcc <sub_130_6>:
     bcc:	8d 91       	ld	r24, X+
     bce:	99 91       	ld	r25, Y+
     bd0:	89 0b       	sbc	r24, r25
     bd2:	81 93       	st	Z+, r24

00000bd4 <sub_130_5>:
     bd4:	8d 91       	ld	r24, X+
     bd6:	99 91       	ld	r25, Y+
     bd8:	89 0b       	sbc	r24, r25
     bda:	81 93       	st	Z+, r24

00000bdc <sub_130_4>:
     bdc:	8d 91       	ld	r24, X+
     bde:	99 91       	ld	r25, Y+
     be0:	89 0b       	sbc	r24, r25
     be2:	81 93       	st	Z+, r24

00000be4 <sub_130_3>:
     be4:	8d 91       	ld	r24, X+
     be6:	99 91       	ld	r25, Y+
     be8:	89 0b       	sbc	r24, r25
     bea:	81 93       	st	Z+, r24

00000bec <sub_130_2>:
     bec:	8d 91       	ld	r24, X+
     bee:	99 91       	ld	r25, Y+
     bf0:	89 0b       	sbc	r24, r25
     bf2:	81 93       	st	Z+, r24

00000bf4 <sub_130_1>:
     bf4:	8d 91       	ld	r24, X+
     bf6:	99 91       	ld	r25, Y+
     bf8:	89 0b       	sbc	r24, r25
     bfa:	81 93       	st	Z+, r24
     bfc:	81 2d       	mov	r24, r1
     bfe:	88 1f       	adc	r24, r24
     c00:	df 91       	pop	r29
     c02:	cf 91       	pop	r28
     c04:	08 95       	ret

00000c06 <uECC_vli_mult>:
     c06:	cf 93       	push	r28
     c08:	df 93       	push	r29
     c0a:	fc 01       	movw	r30, r24
     c0c:	db 01       	movw	r26, r22
     c0e:	ea 01       	movw	r28, r20
     c10:	90 e0       	ldi	r25, 0x00	; 0
     c12:	89 2f       	mov	r24, r25
     c14:	39 2f       	mov	r19, r25
     c16:	49 2f       	mov	r20, r25
     c18:	51 e0       	ldi	r21, 0x01	; 1
     c1a:	60 e0       	ldi	r22, 0x00	; 0
     c1c:	c5 0f       	add	r28, r21
     c1e:	d4 1f       	adc	r29, r20
     c20:	0d 90       	ld	r0, X+
     c22:	1a 90       	ld	r1, -Y
     c24:	01 9c       	mul	r0, r1
     c26:	90 0d       	add	r25, r0
     c28:	81 1d       	adc	r24, r1
     c2a:	34 1f       	adc	r19, r20
     c2c:	63 95       	inc	r22
     c2e:	65 17       	cp	r22, r21
     c30:	b8 f3       	brcs	.-18     	; 0xc20 <uECC_vli_mult+0x1a>
     c32:	a5 1b       	sub	r26, r21
     c34:	b4 0b       	sbc	r27, r20
     c36:	91 93       	st	Z+, r25
     c38:	98 2f       	mov	r25, r24
     c3a:	83 2f       	mov	r24, r19
     c3c:	34 2f       	mov	r19, r20
     c3e:	53 95       	inc	r21
     c40:	52 17       	cp	r21, r18
     c42:	58 f3       	brcs	.-42     	; 0xc1a <uECC_vli_mult+0x14>
     c44:	52 2f       	mov	r21, r18
     c46:	c2 0f       	add	r28, r18
     c48:	d4 1f       	adc	r29, r20
     c4a:	60 e0       	ldi	r22, 0x00	; 0
     c4c:	0d 90       	ld	r0, X+
     c4e:	1a 90       	ld	r1, -Y
     c50:	01 9c       	mul	r0, r1
     c52:	90 0d       	add	r25, r0
     c54:	81 1d       	adc	r24, r1
     c56:	34 1f       	adc	r19, r20
     c58:	63 95       	inc	r22
     c5a:	65 17       	cp	r22, r21
     c5c:	b8 f3       	brcs	.-18     	; 0xc4c <uECC_vli_mult+0x46>
     c5e:	c5 0f       	add	r28, r21
     c60:	d4 1f       	adc	r29, r20
     c62:	91 93       	st	Z+, r25
     c64:	98 2f       	mov	r25, r24
     c66:	83 2f       	mov	r24, r19
     c68:	34 2f       	mov	r19, r20
     c6a:	5a 95       	dec	r21
     c6c:	a5 1b       	sub	r26, r21
     c6e:	b4 0b       	sbc	r27, r20
     c70:	54 17       	cp	r21, r20
     c72:	59 f7       	brne	.-42     	; 0xc4a <uECC_vli_mult+0x44>
     c74:	91 93       	st	Z+, r25
     c76:	11 24       	eor	r1, r1
     c78:	df 91       	pop	r29
     c7a:	cf 91       	pop	r28
     c7c:	08 95       	ret

00000c7e <uECC_vli_numBits>:
     c7e:	9c 01       	movw	r18, r24
     c80:	61 50       	subi	r22, 0x01	; 1
     c82:	67 fd       	sbrc	r22, 7
     c84:	16 c0       	rjmp	.+44     	; 0xcb2 <uECC_vli_numBits+0x34>
     c86:	fc 01       	movw	r30, r24
     c88:	e6 0f       	add	r30, r22
     c8a:	f1 1d       	adc	r31, r1
     c8c:	67 fd       	sbrc	r22, 7
     c8e:	fa 95       	dec	r31
     c90:	80 81       	ld	r24, Z
     c92:	88 23       	and	r24, r24
     c94:	49 f0       	breq	.+18     	; 0xca8 <uECC_vli_numBits+0x2a>
     c96:	0d c0       	rjmp	.+26     	; 0xcb2 <uECC_vli_numBits+0x34>
     c98:	f9 01       	movw	r30, r18
     c9a:	e6 0f       	add	r30, r22
     c9c:	f1 1d       	adc	r31, r1
     c9e:	67 fd       	sbrc	r22, 7
     ca0:	fa 95       	dec	r31
     ca2:	90 81       	ld	r25, Z
     ca4:	91 11       	cpse	r25, r1
     ca6:	05 c0       	rjmp	.+10     	; 0xcb2 <uECC_vli_numBits+0x34>
     ca8:	61 50       	subi	r22, 0x01	; 1
     caa:	b0 f7       	brcc	.-20     	; 0xc98 <uECC_vli_numBits+0x1a>
     cac:	80 e0       	ldi	r24, 0x00	; 0
     cae:	90 e0       	ldi	r25, 0x00	; 0
     cb0:	08 95       	ret
     cb2:	6f 5f       	subi	r22, 0xFF	; 255
     cb4:	d9 f3       	breq	.-10     	; 0xcac <uECC_vli_numBits+0x2e>
     cb6:	06 2e       	mov	r0, r22
     cb8:	00 0c       	add	r0, r0
     cba:	77 0b       	sbc	r23, r23
     cbc:	26 0f       	add	r18, r22
     cbe:	37 1f       	adc	r19, r23
     cc0:	f9 01       	movw	r30, r18
     cc2:	31 97       	sbiw	r30, 0x01	; 1
     cc4:	80 81       	ld	r24, Z
     cc6:	88 23       	and	r24, r24
     cc8:	91 f0       	breq	.+36     	; 0xcee <uECC_vli_numBits+0x70>
     cca:	90 e0       	ldi	r25, 0x00	; 0
     ccc:	86 95       	lsr	r24
     cce:	9f 5f       	subi	r25, 0xFF	; 255
     cd0:	81 11       	cpse	r24, r1
     cd2:	fc cf       	rjmp	.-8      	; 0xccc <uECC_vli_numBits+0x4e>
     cd4:	89 2f       	mov	r24, r25
     cd6:	90 e0       	ldi	r25, 0x00	; 0
     cd8:	61 50       	subi	r22, 0x01	; 1
     cda:	71 09       	sbc	r23, r1
     cdc:	66 0f       	add	r22, r22
     cde:	77 1f       	adc	r23, r23
     ce0:	66 0f       	add	r22, r22
     ce2:	77 1f       	adc	r23, r23
     ce4:	66 0f       	add	r22, r22
     ce6:	77 1f       	adc	r23, r23
     ce8:	86 0f       	add	r24, r22
     cea:	97 1f       	adc	r25, r23
     cec:	08 95       	ret
     cee:	80 e0       	ldi	r24, 0x00	; 0
     cf0:	90 e0       	ldi	r25, 0x00	; 0
     cf2:	f2 cf       	rjmp	.-28     	; 0xcd8 <uECC_vli_numBits+0x5a>

00000cf4 <uECC_vli_cmp>:
     cf4:	1f 93       	push	r17
     cf6:	cf 93       	push	r28
     cf8:	df 93       	push	r29
     cfa:	cd b7       	in	r28, 0x3d	; 61
     cfc:	de b7       	in	r29, 0x3e	; 62
     cfe:	a0 97       	sbiw	r28, 0x20	; 32
     d00:	0f b6       	in	r0, 0x3f	; 63
     d02:	f8 94       	cli
     d04:	de bf       	out	0x3e, r29	; 62
     d06:	0f be       	out	0x3f, r0	; 63
     d08:	cd bf       	out	0x3d, r28	; 61
     d0a:	14 2f       	mov	r17, r20
     d0c:	24 2f       	mov	r18, r20
     d0e:	ab 01       	movw	r20, r22
     d10:	bc 01       	movw	r22, r24
     d12:	ce 01       	movw	r24, r28
     d14:	01 96       	adiw	r24, 0x01	; 1
     d16:	a6 de       	rcall	.-692    	; 0xa64 <uECC_vli_sub>
     d18:	41 e0       	ldi	r20, 0x01	; 1
     d1a:	81 11       	cpse	r24, r1
     d1c:	01 c0       	rjmp	.+2      	; 0xd20 <uECC_vli_cmp+0x2c>
     d1e:	40 e0       	ldi	r20, 0x00	; 0
     d20:	11 16       	cp	r1, r17
     d22:	f4 f4       	brge	.+60     	; 0xd60 <uECC_vli_cmp+0x6c>
     d24:	fe 01       	movw	r30, r28
     d26:	31 96       	adiw	r30, 0x01	; 1
     d28:	11 50       	subi	r17, 0x01	; 1
     d2a:	21 2f       	mov	r18, r17
     d2c:	30 e0       	ldi	r19, 0x00	; 0
     d2e:	2f 5f       	subi	r18, 0xFF	; 255
     d30:	3f 4f       	sbci	r19, 0xFF	; 255
     d32:	2e 0f       	add	r18, r30
     d34:	3f 1f       	adc	r19, r31
     d36:	90 e0       	ldi	r25, 0x00	; 0
     d38:	81 91       	ld	r24, Z+
     d3a:	98 2b       	or	r25, r24
     d3c:	2e 17       	cp	r18, r30
     d3e:	3f 07       	cpc	r19, r31
     d40:	d9 f7       	brne	.-10     	; 0xd38 <uECC_vli_cmp+0x44>
     d42:	81 e0       	ldi	r24, 0x01	; 1
     d44:	99 23       	and	r25, r25
     d46:	61 f0       	breq	.+24     	; 0xd60 <uECC_vli_cmp+0x6c>
     d48:	44 0f       	add	r20, r20
     d4a:	84 1b       	sub	r24, r20
     d4c:	a0 96       	adiw	r28, 0x20	; 32
     d4e:	0f b6       	in	r0, 0x3f	; 63
     d50:	f8 94       	cli
     d52:	de bf       	out	0x3e, r29	; 62
     d54:	0f be       	out	0x3f, r0	; 63
     d56:	cd bf       	out	0x3d, r28	; 61
     d58:	df 91       	pop	r29
     d5a:	cf 91       	pop	r28
     d5c:	1f 91       	pop	r17
     d5e:	08 95       	ret
     d60:	80 e0       	ldi	r24, 0x00	; 0
     d62:	f2 cf       	rjmp	.-28     	; 0xd48 <uECC_vli_cmp+0x54>

00000d64 <uECC_vli_modAdd>:
     d64:	ef 92       	push	r14
     d66:	ff 92       	push	r15
     d68:	0f 93       	push	r16
     d6a:	cf 93       	push	r28
     d6c:	df 93       	push	r29
     d6e:	ec 01       	movw	r28, r24
     d70:	79 01       	movw	r14, r18
     d72:	20 2f       	mov	r18, r16
     d74:	a6 dd       	rcall	.-1204   	; 0x8c2 <uECC_vli_add>
     d76:	81 11       	cpse	r24, r1
     d78:	1d c0       	rjmp	.+58     	; 0xdb4 <uECC_vli_modAdd+0x50>
     d7a:	2f ef       	ldi	r18, 0xFF	; 255
     d7c:	20 0f       	add	r18, r16
     d7e:	27 fd       	sbrc	r18, 7
     d80:	19 c0       	rjmp	.+50     	; 0xdb4 <uECC_vli_modAdd+0x50>
     d82:	04 c0       	rjmp	.+8      	; 0xd8c <uECC_vli_modAdd+0x28>
     d84:	38 17       	cp	r19, r24
     d86:	b0 f0       	brcs	.+44     	; 0xdb4 <uECC_vli_modAdd+0x50>
     d88:	21 50       	subi	r18, 0x01	; 1
     d8a:	a0 f0       	brcs	.+40     	; 0xdb4 <uECC_vli_modAdd+0x50>
     d8c:	82 2f       	mov	r24, r18
     d8e:	02 2e       	mov	r0, r18
     d90:	00 0c       	add	r0, r0
     d92:	99 0b       	sbc	r25, r25
     d94:	f7 01       	movw	r30, r14
     d96:	e8 0f       	add	r30, r24
     d98:	f9 1f       	adc	r31, r25
     d9a:	30 81       	ld	r19, Z
     d9c:	fe 01       	movw	r30, r28
     d9e:	e8 0f       	add	r30, r24
     da0:	f9 1f       	adc	r31, r25
     da2:	80 81       	ld	r24, Z
     da4:	83 17       	cp	r24, r19
     da6:	70 f7       	brcc	.-36     	; 0xd84 <uECC_vli_modAdd+0x20>
     da8:	df 91       	pop	r29
     daa:	cf 91       	pop	r28
     dac:	0f 91       	pop	r16
     dae:	ff 90       	pop	r15
     db0:	ef 90       	pop	r14
     db2:	08 95       	ret
     db4:	20 2f       	mov	r18, r16
     db6:	a7 01       	movw	r20, r14
     db8:	be 01       	movw	r22, r28
     dba:	ce 01       	movw	r24, r28
     dbc:	df 91       	pop	r29
     dbe:	cf 91       	pop	r28
     dc0:	0f 91       	pop	r16
     dc2:	ff 90       	pop	r15
     dc4:	ef 90       	pop	r14
     dc6:	4e ce       	rjmp	.-868    	; 0xa64 <uECC_vli_sub>

00000dc8 <uECC_vli_modSub>:
     dc8:	ef 92       	push	r14
     dca:	ff 92       	push	r15
     dcc:	0f 93       	push	r16
     dce:	cf 93       	push	r28
     dd0:	df 93       	push	r29
     dd2:	ec 01       	movw	r28, r24
     dd4:	79 01       	movw	r14, r18
     dd6:	20 2f       	mov	r18, r16
     dd8:	45 de       	rcall	.-886    	; 0xa64 <uECC_vli_sub>
     dda:	81 11       	cpse	r24, r1
     ddc:	06 c0       	rjmp	.+12     	; 0xdea <uECC_vli_modSub+0x22>
     dde:	df 91       	pop	r29
     de0:	cf 91       	pop	r28
     de2:	0f 91       	pop	r16
     de4:	ff 90       	pop	r15
     de6:	ef 90       	pop	r14
     de8:	08 95       	ret
     dea:	20 2f       	mov	r18, r16
     dec:	a7 01       	movw	r20, r14
     dee:	be 01       	movw	r22, r28
     df0:	ce 01       	movw	r24, r28
     df2:	df 91       	pop	r29
     df4:	cf 91       	pop	r28
     df6:	0f 91       	pop	r16
     df8:	ff 90       	pop	r15
     dfa:	ef 90       	pop	r14
     dfc:	62 cd       	rjmp	.-1340   	; 0x8c2 <uECC_vli_add>

00000dfe <uECC_vli_mmod>:
     dfe:	2f 92       	push	r2
     e00:	3f 92       	push	r3
     e02:	4f 92       	push	r4
     e04:	5f 92       	push	r5
     e06:	6f 92       	push	r6
     e08:	7f 92       	push	r7
     e0a:	8f 92       	push	r8
     e0c:	9f 92       	push	r9
     e0e:	af 92       	push	r10
     e10:	bf 92       	push	r11
     e12:	cf 92       	push	r12
     e14:	df 92       	push	r13
     e16:	ef 92       	push	r14
     e18:	ff 92       	push	r15
     e1a:	0f 93       	push	r16
     e1c:	1f 93       	push	r17
     e1e:	cf 93       	push	r28
     e20:	df 93       	push	r29
     e22:	cd b7       	in	r28, 0x3d	; 61
     e24:	de b7       	in	r29, 0x3e	; 62
     e26:	c7 58       	subi	r28, 0x87	; 135
     e28:	d1 09       	sbc	r29, r1
     e2a:	0f b6       	in	r0, 0x3f	; 63
     e2c:	f8 94       	cli
     e2e:	de bf       	out	0x3e, r29	; 62
     e30:	0f be       	out	0x3f, r0	; 63
     e32:	cd bf       	out	0x3d, r28	; 61
     e34:	cb 57       	subi	r28, 0x7B	; 123
     e36:	df 4f       	sbci	r29, 0xFF	; 255
     e38:	99 83       	std	Y+1, r25	; 0x01
     e3a:	88 83       	st	Y, r24
     e3c:	c5 58       	subi	r28, 0x85	; 133
     e3e:	d0 40       	sbci	r29, 0x00	; 0
     e40:	b6 2e       	mov	r11, r22
     e42:	a7 2e       	mov	r10, r23
     e44:	94 2e       	mov	r9, r20
     e46:	55 2e       	mov	r5, r21
     e48:	82 2e       	mov	r8, r18
     e4a:	ce 01       	movw	r24, r28
     e4c:	01 96       	adiw	r24, 0x01	; 1
     e4e:	cf 57       	subi	r28, 0x7F	; 127
     e50:	df 4f       	sbci	r29, 0xFF	; 255
     e52:	99 83       	std	Y+1, r25	; 0x01
     e54:	88 83       	st	Y, r24
     e56:	c1 58       	subi	r28, 0x81	; 129
     e58:	d0 40       	sbci	r29, 0x00	; 0
     e5a:	cd 57       	subi	r28, 0x7D	; 125
     e5c:	df 4f       	sbci	r29, 0xFF	; 255
     e5e:	68 83       	st	Y, r22
     e60:	c3 58       	subi	r28, 0x83	; 131
     e62:	d0 40       	sbci	r29, 0x00	; 0
     e64:	cc 57       	subi	r28, 0x7C	; 124
     e66:	df 4f       	sbci	r29, 0xFF	; 255
     e68:	78 83       	st	Y, r23
     e6a:	c4 58       	subi	r28, 0x84	; 132
     e6c:	d0 40       	sbci	r29, 0x00	; 0
     e6e:	02 2f       	mov	r16, r18
     e70:	02 2e       	mov	r0, r18
     e72:	00 0c       	add	r0, r0
     e74:	11 0b       	sbc	r17, r17
     e76:	62 2f       	mov	r22, r18
     e78:	84 2f       	mov	r24, r20
     e7a:	95 2f       	mov	r25, r21
     e7c:	00 df       	rcall	.-512    	; 0xc7e <uECC_vli_numBits>
     e7e:	78 01       	movw	r14, r16
     e80:	e2 94       	swap	r14
     e82:	f2 94       	swap	r15
     e84:	20 ef       	ldi	r18, 0xF0	; 240
     e86:	f2 22       	and	r15, r18
     e88:	fe 24       	eor	r15, r14
     e8a:	e2 22       	and	r14, r18
     e8c:	fe 24       	eor	r15, r14
     e8e:	e8 1a       	sub	r14, r24
     e90:	f9 0a       	sbc	r15, r25
     e92:	b7 01       	movw	r22, r14
     e94:	f7 fc       	sbrc	r15, 7
     e96:	00 c1       	rjmp	.+512    	; 0x1098 <uECC_vli_mmod+0x29a>
     e98:	3b 01       	movw	r6, r22
     e9a:	75 94       	asr	r7
     e9c:	67 94       	ror	r6
     e9e:	75 94       	asr	r7
     ea0:	67 94       	ror	r6
     ea2:	75 94       	asr	r7
     ea4:	67 94       	ror	r6
     ea6:	a7 01       	movw	r20, r14
     ea8:	47 70       	andi	r20, 0x07	; 7
     eaa:	50 78       	andi	r21, 0x80	; 128
     eac:	57 fd       	sbrc	r21, 7
     eae:	f7 c0       	rjmp	.+494    	; 0x109e <uECC_vli_mmod+0x2a0>
     eb0:	d4 2e       	mov	r13, r20
     eb2:	66 2d       	mov	r22, r6
     eb4:	ce 01       	movw	r24, r28
     eb6:	8f 5b       	subi	r24, 0xBF	; 191
     eb8:	9f 4f       	sbci	r25, 0xFF	; 255
     eba:	20 dc       	rcall	.-1984   	; 0x6fc <uECC_vli_clear>
     ebc:	1d 14       	cp	r1, r13
     ebe:	0c f0       	brlt	.+2      	; 0xec2 <uECC_vli_mmod+0xc4>
     ec0:	f5 c0       	rjmp	.+490    	; 0x10ac <uECC_vli_mmod+0x2ae>
     ec2:	88 20       	and	r8, r8
     ec4:	a9 f1       	breq	.+106    	; 0xf30 <uECC_vli_mmod+0x132>
     ec6:	4d 2d       	mov	r20, r13
     ec8:	dd 0c       	add	r13, r13
     eca:	55 0b       	sbc	r21, r21
     ecc:	88 e0       	ldi	r24, 0x08	; 8
     ece:	90 e0       	ldi	r25, 0x00	; 0
     ed0:	6c 01       	movw	r12, r24
     ed2:	c4 1a       	sub	r12, r20
     ed4:	d5 0a       	sbc	r13, r21
     ed6:	a9 2d       	mov	r26, r9
     ed8:	b5 2d       	mov	r27, r5
     eda:	66 2d       	mov	r22, r6
     edc:	66 0c       	add	r6, r6
     ede:	77 0b       	sbc	r23, r23
     ee0:	e1 e4       	ldi	r30, 0x41	; 65
     ee2:	f0 e0       	ldi	r31, 0x00	; 0
     ee4:	ec 0f       	add	r30, r28
     ee6:	fd 1f       	adc	r31, r29
     ee8:	e6 0f       	add	r30, r22
     eea:	f7 1f       	adc	r31, r23
     eec:	8f ef       	ldi	r24, 0xFF	; 255
     eee:	88 0d       	add	r24, r8
     ef0:	90 e0       	ldi	r25, 0x00	; 0
     ef2:	01 96       	adiw	r24, 0x01	; 1
     ef4:	68 0f       	add	r22, r24
     ef6:	79 1f       	adc	r23, r25
     ef8:	81 e4       	ldi	r24, 0x41	; 65
     efa:	28 2e       	mov	r2, r24
     efc:	31 2c       	mov	r3, r1
     efe:	2c 0e       	add	r2, r28
     f00:	3d 1e       	adc	r3, r29
     f02:	62 0d       	add	r22, r2
     f04:	73 1d       	adc	r23, r3
     f06:	91 2c       	mov	r9, r1
     f08:	8d 91       	ld	r24, X+
     f0a:	90 e0       	ldi	r25, 0x00	; 0
     f0c:	9c 01       	movw	r18, r24
     f0e:	04 2e       	mov	r0, r20
     f10:	01 c0       	rjmp	.+2      	; 0xf14 <uECC_vli_mmod+0x116>
     f12:	22 0f       	add	r18, r18
     f14:	0a 94       	dec	r0
     f16:	ea f7       	brpl	.-6      	; 0xf12 <uECC_vli_mmod+0x114>
     f18:	29 29       	or	r18, r9
     f1a:	21 93       	st	Z+, r18
     f1c:	0c 2c       	mov	r0, r12
     f1e:	02 c0       	rjmp	.+4      	; 0xf24 <uECC_vli_mmod+0x126>
     f20:	95 95       	asr	r25
     f22:	87 95       	ror	r24
     f24:	0a 94       	dec	r0
     f26:	e2 f7       	brpl	.-8      	; 0xf20 <uECC_vli_mmod+0x122>
     f28:	98 2e       	mov	r9, r24
     f2a:	6e 17       	cp	r22, r30
     f2c:	7f 07       	cpc	r23, r31
     f2e:	61 f7       	brne	.-40     	; 0xf08 <uECC_vli_mmod+0x10a>
     f30:	f7 fc       	sbrc	r15, 7
     f32:	ca c0       	rjmp	.+404    	; 0x10c8 <uECC_vli_mmod+0x2ca>
     f34:	38 01       	movw	r6, r16
     f36:	21 e0       	ldi	r18, 0x01	; 1
     f38:	62 1a       	sub	r6, r18
     f3a:	71 08       	sbc	r7, r1
     f3c:	61 e4       	ldi	r22, 0x41	; 65
     f3e:	c6 2e       	mov	r12, r22
     f40:	d1 2c       	mov	r13, r1
     f42:	cc 0e       	add	r12, r28
     f44:	dd 1e       	adc	r13, r29
     f46:	c0 0e       	add	r12, r16
     f48:	d1 1e       	adc	r13, r17
     f4a:	00 0f       	add	r16, r16
     f4c:	11 1f       	adc	r17, r17
     f4e:	99 24       	eor	r9, r9
     f50:	93 94       	inc	r9
     f52:	aa 24       	eor	r10, r10
     f54:	a3 94       	inc	r10
     f56:	b1 2c       	mov	r11, r1
     f58:	81 e4       	ldi	r24, 0x41	; 65
     f5a:	90 e0       	ldi	r25, 0x00	; 0
     f5c:	8c 0f       	add	r24, r28
     f5e:	9d 1f       	adc	r25, r29
     f60:	68 0e       	add	r6, r24
     f62:	79 1e       	adc	r7, r25
     f64:	26 01       	movw	r4, r12
     f66:	10 16       	cp	r1, r16
     f68:	11 06       	cpc	r1, r17
     f6a:	0c f0       	brlt	.+2      	; 0xf6e <uECC_vli_mmod+0x170>
     f6c:	93 c0       	rjmp	.+294    	; 0x1094 <uECC_vli_mmod+0x296>
     f6e:	89 2d       	mov	r24, r9
     f70:	90 e0       	ldi	r25, 0x00	; 0
     f72:	fc 01       	movw	r30, r24
     f74:	ee 0f       	add	r30, r30
     f76:	ff 1f       	adc	r31, r31
     f78:	31 e8       	ldi	r19, 0x81	; 129
     f7a:	23 2e       	mov	r2, r19
     f7c:	31 2c       	mov	r3, r1
     f7e:	2c 0e       	add	r2, r28
     f80:	3d 1e       	adc	r3, r29
     f82:	e2 0d       	add	r30, r2
     f84:	f3 1d       	adc	r31, r3
     f86:	60 81       	ld	r22, Z
     f88:	71 81       	ldd	r23, Z+1	; 0x01
     f8a:	f5 01       	movw	r30, r10
     f8c:	e8 1b       	sub	r30, r24
     f8e:	f9 0b       	sbc	r31, r25
     f90:	ee 0f       	add	r30, r30
     f92:	ff 1f       	adc	r31, r31
     f94:	e2 0d       	add	r30, r2
     f96:	f3 1d       	adc	r31, r3
     f98:	40 81       	ld	r20, Z
     f9a:	51 81       	ldd	r21, Z+1	; 0x01
     f9c:	20 e0       	ldi	r18, 0x00	; 0
     f9e:	30 e0       	ldi	r19, 0x00	; 0
     fa0:	a0 e0       	ldi	r26, 0x00	; 0
     fa2:	b0 e0       	ldi	r27, 0x00	; 0
     fa4:	80 e0       	ldi	r24, 0x00	; 0
     fa6:	90 e0       	ldi	r25, 0x00	; 0
     fa8:	fb 01       	movw	r30, r22
     faa:	e8 0f       	add	r30, r24
     fac:	f9 1f       	adc	r31, r25
     fae:	20 80       	ld	r2, Z
     fb0:	c9 57       	subi	r28, 0x79	; 121
     fb2:	df 4f       	sbci	r29, 0xFF	; 255
     fb4:	28 82       	st	Y, r2
     fb6:	c7 58       	subi	r28, 0x87	; 135
     fb8:	d0 40       	sbci	r29, 0x00	; 0
     fba:	e1 e4       	ldi	r30, 0x41	; 65
     fbc:	f0 e0       	ldi	r31, 0x00	; 0
     fbe:	ec 0f       	add	r30, r28
     fc0:	fd 1f       	adc	r31, r29
     fc2:	2e 0f       	add	r18, r30
     fc4:	3f 1f       	adc	r19, r31
     fc6:	f9 01       	movw	r30, r18
     fc8:	20 81       	ld	r18, Z
     fca:	22 1a       	sub	r2, r18
     fcc:	22 2d       	mov	r18, r2
     fce:	2b 1b       	sub	r18, r27
     fd0:	c9 57       	subi	r28, 0x79	; 121
     fd2:	df 4f       	sbci	r29, 0xFF	; 255
     fd4:	f8 81       	ld	r31, Y
     fd6:	c7 58       	subi	r28, 0x87	; 135
     fd8:	d0 40       	sbci	r29, 0x00	; 0
     fda:	f2 17       	cp	r31, r18
     fdc:	21 f0       	breq	.+8      	; 0xfe6 <uECC_vli_mmod+0x1e8>
     fde:	b1 e0       	ldi	r27, 0x01	; 1
     fe0:	f2 17       	cp	r31, r18
     fe2:	08 f0       	brcs	.+2      	; 0xfe6 <uECC_vli_mmod+0x1e8>
     fe4:	b0 e0       	ldi	r27, 0x00	; 0
     fe6:	fa 01       	movw	r30, r20
     fe8:	e8 0f       	add	r30, r24
     fea:	f9 1f       	adc	r31, r25
     fec:	20 83       	st	Z, r18
     fee:	af 5f       	subi	r26, 0xFF	; 255
     ff0:	8a 2f       	mov	r24, r26
     ff2:	0a 2e       	mov	r0, r26
     ff4:	00 0c       	add	r0, r0
     ff6:	99 0b       	sbc	r25, r25
     ff8:	9c 01       	movw	r18, r24
     ffa:	80 17       	cp	r24, r16
     ffc:	91 07       	cpc	r25, r17
     ffe:	a4 f2       	brlt	.-88     	; 0xfa8 <uECC_vli_mmod+0x1aa>
    1000:	33 24       	eor	r3, r3
    1002:	33 94       	inc	r3
    1004:	9b 12       	cpse	r9, r27
    1006:	31 2c       	mov	r3, r1
    1008:	93 2c       	mov	r9, r3
    100a:	68 2d       	mov	r22, r8
    100c:	ce 01       	movw	r24, r28
    100e:	8f 5b       	subi	r24, 0xBF	; 191
    1010:	9f 4f       	sbci	r25, 0xFF	; 255
    1012:	e8 db       	rcall	.-2096   	; 0x7e4 <uECC_vli_rshift1>
    1014:	f2 01       	movw	r30, r4
    1016:	80 81       	ld	r24, Z
    1018:	f0 e8       	ldi	r31, 0x80	; 128
    101a:	8f 9f       	mul	r24, r31
    101c:	c0 01       	movw	r24, r0
    101e:	11 24       	eor	r1, r1
    1020:	f3 01       	movw	r30, r6
    1022:	90 81       	ld	r25, Z
    1024:	89 2b       	or	r24, r25
    1026:	80 83       	st	Z, r24
    1028:	68 2d       	mov	r22, r8
    102a:	c6 01       	movw	r24, r12
    102c:	db db       	rcall	.-2122   	; 0x7e4 <uECC_vli_rshift1>
    102e:	f1 e0       	ldi	r31, 0x01	; 1
    1030:	ef 1a       	sub	r14, r31
    1032:	f1 08       	sbc	r15, r1
    1034:	08 f0       	brcs	.+2      	; 0x1038 <uECC_vli_mmod+0x23a>
    1036:	97 cf       	rjmp	.-210    	; 0xf66 <uECC_vli_mmod+0x168>
    1038:	e3 2d       	mov	r30, r3
    103a:	f0 e0       	ldi	r31, 0x00	; 0
    103c:	ee 0f       	add	r30, r30
    103e:	ff 1f       	adc	r31, r31
    1040:	81 e8       	ldi	r24, 0x81	; 129
    1042:	90 e0       	ldi	r25, 0x00	; 0
    1044:	8c 0f       	add	r24, r28
    1046:	9d 1f       	adc	r25, r29
    1048:	e8 0f       	add	r30, r24
    104a:	f9 1f       	adc	r31, r25
    104c:	60 81       	ld	r22, Z
    104e:	71 81       	ldd	r23, Z+1	; 0x01
    1050:	48 2d       	mov	r20, r8
    1052:	cb 57       	subi	r28, 0x7B	; 123
    1054:	df 4f       	sbci	r29, 0xFF	; 255
    1056:	88 81       	ld	r24, Y
    1058:	99 81       	ldd	r25, Y+1	; 0x01
    105a:	c5 58       	subi	r28, 0x85	; 133
    105c:	d0 40       	sbci	r29, 0x00	; 0
    105e:	75 db       	rcall	.-2326   	; 0x74a <uECC_vli_set>
    1060:	c9 57       	subi	r28, 0x79	; 121
    1062:	df 4f       	sbci	r29, 0xFF	; 255
    1064:	0f b6       	in	r0, 0x3f	; 63
    1066:	f8 94       	cli
    1068:	de bf       	out	0x3e, r29	; 62
    106a:	0f be       	out	0x3f, r0	; 63
    106c:	cd bf       	out	0x3d, r28	; 61
    106e:	df 91       	pop	r29
    1070:	cf 91       	pop	r28
    1072:	1f 91       	pop	r17
    1074:	0f 91       	pop	r16
    1076:	ff 90       	pop	r15
    1078:	ef 90       	pop	r14
    107a:	df 90       	pop	r13
    107c:	cf 90       	pop	r12
    107e:	bf 90       	pop	r11
    1080:	af 90       	pop	r10
    1082:	9f 90       	pop	r9
    1084:	8f 90       	pop	r8
    1086:	7f 90       	pop	r7
    1088:	6f 90       	pop	r6
    108a:	5f 90       	pop	r5
    108c:	4f 90       	pop	r4
    108e:	3f 90       	pop	r3
    1090:	2f 90       	pop	r2
    1092:	08 95       	ret
    1094:	b0 e0       	ldi	r27, 0x00	; 0
    1096:	b4 cf       	rjmp	.-152    	; 0x1000 <uECC_vli_mmod+0x202>
    1098:	69 5f       	subi	r22, 0xF9	; 249
    109a:	7f 4f       	sbci	r23, 0xFF	; 255
    109c:	fd ce       	rjmp	.-518    	; 0xe98 <uECC_vli_mmod+0x9a>
    109e:	41 50       	subi	r20, 0x01	; 1
    10a0:	51 09       	sbc	r21, r1
    10a2:	48 6f       	ori	r20, 0xF8	; 248
    10a4:	5f 6f       	ori	r21, 0xFF	; 255
    10a6:	4f 5f       	subi	r20, 0xFF	; 255
    10a8:	5f 4f       	sbci	r21, 0xFF	; 255
    10aa:	02 cf       	rjmp	.-508    	; 0xeb0 <uECC_vli_mmod+0xb2>
    10ac:	48 2d       	mov	r20, r8
    10ae:	69 2d       	mov	r22, r9
    10b0:	75 2d       	mov	r23, r5
    10b2:	81 e4       	ldi	r24, 0x41	; 65
    10b4:	90 e0       	ldi	r25, 0x00	; 0
    10b6:	8c 0f       	add	r24, r28
    10b8:	9d 1f       	adc	r25, r29
    10ba:	86 0d       	add	r24, r6
    10bc:	91 1d       	adc	r25, r1
    10be:	67 fc       	sbrc	r6, 7
    10c0:	9a 95       	dec	r25
    10c2:	43 db       	rcall	.-2426   	; 0x74a <uECC_vli_set>
    10c4:	f7 fe       	sbrs	r15, 7
    10c6:	36 cf       	rjmp	.-404    	; 0xf34 <uECC_vli_mmod+0x136>
    10c8:	6b 2d       	mov	r22, r11
    10ca:	7a 2d       	mov	r23, r10
    10cc:	c1 cf       	rjmp	.-126    	; 0x1050 <uECC_vli_mmod+0x252>

000010ce <double_jacobian_default>:
    10ce:	4f 92       	push	r4
    10d0:	5f 92       	push	r5
    10d2:	6f 92       	push	r6
    10d4:	7f 92       	push	r7
    10d6:	8f 92       	push	r8
    10d8:	9f 92       	push	r9
    10da:	af 92       	push	r10
    10dc:	bf 92       	push	r11
    10de:	cf 92       	push	r12
    10e0:	df 92       	push	r13
    10e2:	ef 92       	push	r14
    10e4:	ff 92       	push	r15
    10e6:	0f 93       	push	r16
    10e8:	1f 93       	push	r17
    10ea:	cf 93       	push	r28
    10ec:	df 93       	push	r29
    10ee:	cd b7       	in	r28, 0x3d	; 61
    10f0:	de b7       	in	r29, 0x3e	; 62
    10f2:	c0 58       	subi	r28, 0x80	; 128
    10f4:	d1 09       	sbc	r29, r1
    10f6:	0f b6       	in	r0, 0x3f	; 63
    10f8:	f8 94       	cli
    10fa:	de bf       	out	0x3e, r29	; 62
    10fc:	0f be       	out	0x3f, r0	; 63
    10fe:	cd bf       	out	0x3d, r28	; 61
    1100:	6c 01       	movw	r12, r24
    1102:	59 01       	movw	r10, r18
    1104:	d9 01       	movw	r26, r18
    1106:	1c 91       	ld	r17, X
    1108:	11 16       	cp	r1, r17
    110a:	7c f4       	brge	.+30     	; 0x112a <__stack+0x2b>
    110c:	fa 01       	movw	r30, r20
    110e:	af ef       	ldi	r26, 0xFF	; 255
    1110:	a1 0f       	add	r26, r17
    1112:	b0 e0       	ldi	r27, 0x00	; 0
    1114:	11 96       	adiw	r26, 0x01	; 1
    1116:	a4 0f       	add	r26, r20
    1118:	b5 1f       	adc	r27, r21
    111a:	90 e0       	ldi	r25, 0x00	; 0
    111c:	31 91       	ld	r19, Z+
    111e:	93 2b       	or	r25, r19
    1120:	ea 17       	cp	r30, r26
    1122:	fb 07       	cpc	r31, r27
    1124:	d9 f7       	brne	.-10     	; 0x111c <__stack+0x1d>
    1126:	91 11       	cpse	r25, r1
    1128:	18 c0       	rjmp	.+48     	; 0x115a <__stack+0x5b>
    112a:	c0 58       	subi	r28, 0x80	; 128
    112c:	df 4f       	sbci	r29, 0xFF	; 255
    112e:	0f b6       	in	r0, 0x3f	; 63
    1130:	f8 94       	cli
    1132:	de bf       	out	0x3e, r29	; 62
    1134:	0f be       	out	0x3f, r0	; 63
    1136:	cd bf       	out	0x3d, r28	; 61
    1138:	df 91       	pop	r29
    113a:	cf 91       	pop	r28
    113c:	1f 91       	pop	r17
    113e:	0f 91       	pop	r16
    1140:	ff 90       	pop	r15
    1142:	ef 90       	pop	r14
    1144:	df 90       	pop	r13
    1146:	cf 90       	pop	r12
    1148:	bf 90       	pop	r11
    114a:	af 90       	pop	r10
    114c:	9f 90       	pop	r9
    114e:	8f 90       	pop	r8
    1150:	7f 90       	pop	r7
    1152:	6f 90       	pop	r6
    1154:	5f 90       	pop	r5
    1156:	4f 90       	pop	r4
    1158:	08 95       	ret
    115a:	7a 01       	movw	r14, r20
    115c:	4b 01       	movw	r8, r22
    115e:	21 2f       	mov	r18, r17
    1160:	ab 01       	movw	r20, r22
    1162:	ce 01       	movw	r24, r28
    1164:	01 96       	adiw	r24, 0x01	; 1
    1166:	4f dd       	rcall	.-1378   	; 0xc06 <uECC_vli_mult>
    1168:	25 01       	movw	r4, r10
    116a:	ba ea       	ldi	r27, 0xAA	; 170
    116c:	4b 0e       	add	r4, r27
    116e:	51 1c       	adc	r5, r1
    1170:	d2 01       	movw	r26, r4
    1172:	ed 91       	ld	r30, X+
    1174:	fc 91       	ld	r31, X
    1176:	be 01       	movw	r22, r28
    1178:	6f 5f       	subi	r22, 0xFF	; 255
    117a:	7f 4f       	sbci	r23, 0xFF	; 255
    117c:	ce 01       	movw	r24, r28
    117e:	8f 59       	subi	r24, 0x9F	; 159
    1180:	9f 4f       	sbci	r25, 0xFF	; 255
    1182:	09 95       	icall
    1184:	f5 01       	movw	r30, r10
    1186:	20 81       	ld	r18, Z
    1188:	ae 01       	movw	r20, r28
    118a:	4f 59       	subi	r20, 0x9F	; 159
    118c:	5f 4f       	sbci	r21, 0xFF	; 255
    118e:	b6 01       	movw	r22, r12
    1190:	ce 01       	movw	r24, r28
    1192:	01 96       	adiw	r24, 0x01	; 1
    1194:	38 dd       	rcall	.-1424   	; 0xc06 <uECC_vli_mult>
    1196:	d2 01       	movw	r26, r4
    1198:	ed 91       	ld	r30, X+
    119a:	fc 91       	ld	r31, X
    119c:	be 01       	movw	r22, r28
    119e:	6f 5f       	subi	r22, 0xFF	; 255
    11a0:	7f 4f       	sbci	r23, 0xFF	; 255
    11a2:	ce 01       	movw	r24, r28
    11a4:	8f 5b       	subi	r24, 0xBF	; 191
    11a6:	9f 4f       	sbci	r25, 0xFF	; 255
    11a8:	09 95       	icall
    11aa:	f5 01       	movw	r30, r10
    11ac:	20 81       	ld	r18, Z
    11ae:	ae 01       	movw	r20, r28
    11b0:	4f 59       	subi	r20, 0x9F	; 159
    11b2:	5f 4f       	sbci	r21, 0xFF	; 255
    11b4:	ba 01       	movw	r22, r20
    11b6:	ce 01       	movw	r24, r28
    11b8:	01 96       	adiw	r24, 0x01	; 1
    11ba:	25 dd       	rcall	.-1462   	; 0xc06 <uECC_vli_mult>
    11bc:	d2 01       	movw	r26, r4
    11be:	ed 91       	ld	r30, X+
    11c0:	fc 91       	ld	r31, X
    11c2:	be 01       	movw	r22, r28
    11c4:	6f 5f       	subi	r22, 0xFF	; 255
    11c6:	7f 4f       	sbci	r23, 0xFF	; 255
    11c8:	ce 01       	movw	r24, r28
    11ca:	8f 59       	subi	r24, 0x9F	; 159
    11cc:	9f 4f       	sbci	r25, 0xFF	; 255
    11ce:	09 95       	icall
    11d0:	f5 01       	movw	r30, r10
    11d2:	20 81       	ld	r18, Z
    11d4:	a7 01       	movw	r20, r14
    11d6:	b4 01       	movw	r22, r8
    11d8:	ce 01       	movw	r24, r28
    11da:	01 96       	adiw	r24, 0x01	; 1
    11dc:	14 dd       	rcall	.-1496   	; 0xc06 <uECC_vli_mult>
    11de:	d2 01       	movw	r26, r4
    11e0:	ed 91       	ld	r30, X+
    11e2:	fc 91       	ld	r31, X
    11e4:	be 01       	movw	r22, r28
    11e6:	6f 5f       	subi	r22, 0xFF	; 255
    11e8:	7f 4f       	sbci	r23, 0xFF	; 255
    11ea:	c4 01       	movw	r24, r8
    11ec:	09 95       	icall
    11ee:	f5 01       	movw	r30, r10
    11f0:	20 81       	ld	r18, Z
    11f2:	a7 01       	movw	r20, r14
    11f4:	b7 01       	movw	r22, r14
    11f6:	ce 01       	movw	r24, r28
    11f8:	01 96       	adiw	r24, 0x01	; 1
    11fa:	05 dd       	rcall	.-1526   	; 0xc06 <uECC_vli_mult>
    11fc:	d2 01       	movw	r26, r4
    11fe:	ed 91       	ld	r30, X+
    1200:	fc 91       	ld	r31, X
    1202:	be 01       	movw	r22, r28
    1204:	6f 5f       	subi	r22, 0xFF	; 255
    1206:	7f 4f       	sbci	r23, 0xFF	; 255
    1208:	c7 01       	movw	r24, r14
    120a:	09 95       	icall
    120c:	35 01       	movw	r6, r10
    120e:	b4 e0       	ldi	r27, 0x04	; 4
    1210:	6b 0e       	add	r6, r27
    1212:	71 1c       	adc	r7, r1
    1214:	01 2f       	mov	r16, r17
    1216:	93 01       	movw	r18, r6
    1218:	a7 01       	movw	r20, r14
    121a:	b6 01       	movw	r22, r12
    121c:	c6 01       	movw	r24, r12
    121e:	a2 dd       	rcall	.-1212   	; 0xd64 <uECC_vli_modAdd>
    1220:	93 01       	movw	r18, r6
    1222:	a7 01       	movw	r20, r14
    1224:	b7 01       	movw	r22, r14
    1226:	c7 01       	movw	r24, r14
    1228:	9d dd       	rcall	.-1222   	; 0xd64 <uECC_vli_modAdd>
    122a:	93 01       	movw	r18, r6
    122c:	a7 01       	movw	r20, r14
    122e:	b6 01       	movw	r22, r12
    1230:	c7 01       	movw	r24, r14
    1232:	ca dd       	rcall	.-1132   	; 0xdc8 <uECC_vli_modSub>
    1234:	f5 01       	movw	r30, r10
    1236:	20 81       	ld	r18, Z
    1238:	a7 01       	movw	r20, r14
    123a:	b6 01       	movw	r22, r12
    123c:	ce 01       	movw	r24, r28
    123e:	01 96       	adiw	r24, 0x01	; 1
    1240:	e2 dc       	rcall	.-1596   	; 0xc06 <uECC_vli_mult>
    1242:	d2 01       	movw	r26, r4
    1244:	ed 91       	ld	r30, X+
    1246:	fc 91       	ld	r31, X
    1248:	be 01       	movw	r22, r28
    124a:	6f 5f       	subi	r22, 0xFF	; 255
    124c:	7f 4f       	sbci	r23, 0xFF	; 255
    124e:	c6 01       	movw	r24, r12
    1250:	09 95       	icall
    1252:	93 01       	movw	r18, r6
    1254:	a6 01       	movw	r20, r12
    1256:	b6 01       	movw	r22, r12
    1258:	c7 01       	movw	r24, r14
    125a:	84 dd       	rcall	.-1272   	; 0xd64 <uECC_vli_modAdd>
    125c:	93 01       	movw	r18, r6
    125e:	a7 01       	movw	r20, r14
    1260:	b6 01       	movw	r22, r12
    1262:	c6 01       	movw	r24, r12
    1264:	7f dd       	rcall	.-1282   	; 0xd64 <uECC_vli_modAdd>
    1266:	f6 01       	movw	r30, r12
    1268:	80 81       	ld	r24, Z
    126a:	80 fd       	sbrc	r24, 0
    126c:	4f c0       	rjmp	.+158    	; 0x130c <__stack+0x20d>
    126e:	61 2f       	mov	r22, r17
    1270:	c6 01       	movw	r24, r12
    1272:	b8 da       	rcall	.-2704   	; 0x7e4 <uECC_vli_rshift1>
    1274:	d5 01       	movw	r26, r10
    1276:	2c 91       	ld	r18, X
    1278:	a6 01       	movw	r20, r12
    127a:	b6 01       	movw	r22, r12
    127c:	ce 01       	movw	r24, r28
    127e:	01 96       	adiw	r24, 0x01	; 1
    1280:	c2 dc       	rcall	.-1660   	; 0xc06 <uECC_vli_mult>
    1282:	d2 01       	movw	r26, r4
    1284:	ed 91       	ld	r30, X+
    1286:	fc 91       	ld	r31, X
    1288:	be 01       	movw	r22, r28
    128a:	6f 5f       	subi	r22, 0xFF	; 255
    128c:	7f 4f       	sbci	r23, 0xFF	; 255
    128e:	c7 01       	movw	r24, r14
    1290:	09 95       	icall
    1292:	01 2f       	mov	r16, r17
    1294:	93 01       	movw	r18, r6
    1296:	ae 01       	movw	r20, r28
    1298:	4f 5b       	subi	r20, 0xBF	; 191
    129a:	5f 4f       	sbci	r21, 0xFF	; 255
    129c:	b7 01       	movw	r22, r14
    129e:	c7 01       	movw	r24, r14
    12a0:	93 dd       	rcall	.-1242   	; 0xdc8 <uECC_vli_modSub>
    12a2:	93 01       	movw	r18, r6
    12a4:	ae 01       	movw	r20, r28
    12a6:	4f 5b       	subi	r20, 0xBF	; 191
    12a8:	5f 4f       	sbci	r21, 0xFF	; 255
    12aa:	b7 01       	movw	r22, r14
    12ac:	c7 01       	movw	r24, r14
    12ae:	8c dd       	rcall	.-1256   	; 0xdc8 <uECC_vli_modSub>
    12b0:	93 01       	movw	r18, r6
    12b2:	a7 01       	movw	r20, r14
    12b4:	be 01       	movw	r22, r28
    12b6:	6f 5b       	subi	r22, 0xBF	; 191
    12b8:	7f 4f       	sbci	r23, 0xFF	; 255
    12ba:	cb 01       	movw	r24, r22
    12bc:	85 dd       	rcall	.-1270   	; 0xdc8 <uECC_vli_modSub>
    12be:	f5 01       	movw	r30, r10
    12c0:	20 81       	ld	r18, Z
    12c2:	ae 01       	movw	r20, r28
    12c4:	4f 5b       	subi	r20, 0xBF	; 191
    12c6:	5f 4f       	sbci	r21, 0xFF	; 255
    12c8:	b6 01       	movw	r22, r12
    12ca:	ce 01       	movw	r24, r28
    12cc:	01 96       	adiw	r24, 0x01	; 1
    12ce:	9b dc       	rcall	.-1738   	; 0xc06 <uECC_vli_mult>
    12d0:	d2 01       	movw	r26, r4
    12d2:	ed 91       	ld	r30, X+
    12d4:	fc 91       	ld	r31, X
    12d6:	be 01       	movw	r22, r28
    12d8:	6f 5f       	subi	r22, 0xFF	; 255
    12da:	7f 4f       	sbci	r23, 0xFF	; 255
    12dc:	c6 01       	movw	r24, r12
    12de:	09 95       	icall
    12e0:	93 01       	movw	r18, r6
    12e2:	ae 01       	movw	r20, r28
    12e4:	4f 59       	subi	r20, 0x9F	; 159
    12e6:	5f 4f       	sbci	r21, 0xFF	; 255
    12e8:	b6 01       	movw	r22, r12
    12ea:	ca 01       	movw	r24, r20
    12ec:	6d dd       	rcall	.-1318   	; 0xdc8 <uECC_vli_modSub>
    12ee:	41 2f       	mov	r20, r17
    12f0:	b7 01       	movw	r22, r14
    12f2:	c6 01       	movw	r24, r12
    12f4:	2a da       	rcall	.-2988   	; 0x74a <uECC_vli_set>
    12f6:	41 2f       	mov	r20, r17
    12f8:	b4 01       	movw	r22, r8
    12fa:	c7 01       	movw	r24, r14
    12fc:	26 da       	rcall	.-2996   	; 0x74a <uECC_vli_set>
    12fe:	41 2f       	mov	r20, r17
    1300:	be 01       	movw	r22, r28
    1302:	6f 59       	subi	r22, 0x9F	; 159
    1304:	7f 4f       	sbci	r23, 0xFF	; 255
    1306:	c4 01       	movw	r24, r8
    1308:	20 da       	rcall	.-3008   	; 0x74a <uECC_vli_set>
    130a:	0f cf       	rjmp	.-482    	; 0x112a <__stack+0x2b>
    130c:	21 2f       	mov	r18, r17
    130e:	a3 01       	movw	r20, r6
    1310:	b6 01       	movw	r22, r12
    1312:	c6 01       	movw	r24, r12
    1314:	d6 da       	rcall	.-2644   	; 0x8c2 <uECC_vli_add>
    1316:	08 2f       	mov	r16, r24
    1318:	61 2f       	mov	r22, r17
    131a:	c6 01       	movw	r24, r12
    131c:	63 da       	rcall	.-2874   	; 0x7e4 <uECC_vli_rshift1>
    131e:	e1 2f       	mov	r30, r17
    1320:	01 2e       	mov	r0, r17
    1322:	00 0c       	add	r0, r0
    1324:	ff 0b       	sbc	r31, r31
    1326:	31 97       	sbiw	r30, 0x01	; 1
    1328:	ec 0d       	add	r30, r12
    132a:	fd 1d       	adc	r31, r13
    132c:	20 e8       	ldi	r18, 0x80	; 128
    132e:	02 9f       	mul	r16, r18
    1330:	c0 01       	movw	r24, r0
    1332:	11 24       	eor	r1, r1
    1334:	00 81       	ld	r16, Z
    1336:	08 2b       	or	r16, r24
    1338:	00 83       	st	Z, r16
    133a:	9c cf       	rjmp	.-200    	; 0x1274 <__stack+0x175>

0000133c <x_side_default>:
    133c:	4f 92       	push	r4
    133e:	5f 92       	push	r5
    1340:	6f 92       	push	r6
    1342:	7f 92       	push	r7
    1344:	8f 92       	push	r8
    1346:	9f 92       	push	r9
    1348:	af 92       	push	r10
    134a:	bf 92       	push	r11
    134c:	cf 92       	push	r12
    134e:	df 92       	push	r13
    1350:	ef 92       	push	r14
    1352:	ff 92       	push	r15
    1354:	0f 93       	push	r16
    1356:	1f 93       	push	r17
    1358:	cf 93       	push	r28
    135a:	df 93       	push	r29
    135c:	cd b7       	in	r28, 0x3d	; 61
    135e:	de b7       	in	r29, 0x3e	; 62
    1360:	c0 56       	subi	r28, 0x60	; 96
    1362:	d1 09       	sbc	r29, r1
    1364:	0f b6       	in	r0, 0x3f	; 63
    1366:	f8 94       	cli
    1368:	de bf       	out	0x3e, r29	; 62
    136a:	0f be       	out	0x3f, r0	; 63
    136c:	cd bf       	out	0x3d, r28	; 61
    136e:	7c 01       	movw	r14, r24
    1370:	5b 01       	movw	r10, r22
    1372:	6a 01       	movw	r12, r20
    1374:	4e 01       	movw	r8, r28
    1376:	81 e4       	ldi	r24, 0x41	; 65
    1378:	88 0e       	add	r8, r24
    137a:	91 1c       	adc	r9, r1
    137c:	80 e2       	ldi	r24, 0x20	; 32
    137e:	d4 01       	movw	r26, r8
    1380:	1d 92       	st	X+, r1
    1382:	8a 95       	dec	r24
    1384:	e9 f7       	brne	.-6      	; 0x1380 <x_side_default+0x44>
    1386:	83 e0       	ldi	r24, 0x03	; 3
    1388:	f4 01       	movw	r30, r8
    138a:	80 83       	st	Z, r24
    138c:	da 01       	movw	r26, r20
    138e:	1c 91       	ld	r17, X
    1390:	21 2f       	mov	r18, r17
    1392:	ab 01       	movw	r20, r22
    1394:	ce 01       	movw	r24, r28
    1396:	01 96       	adiw	r24, 0x01	; 1
    1398:	36 dc       	rcall	.-1940   	; 0xc06 <uECC_vli_mult>
    139a:	26 01       	movw	r4, r12
    139c:	ba ea       	ldi	r27, 0xAA	; 170
    139e:	4b 0e       	add	r4, r27
    13a0:	51 1c       	adc	r5, r1
    13a2:	d2 01       	movw	r26, r4
    13a4:	ed 91       	ld	r30, X+
    13a6:	fc 91       	ld	r31, X
    13a8:	be 01       	movw	r22, r28
    13aa:	6f 5f       	subi	r22, 0xFF	; 255
    13ac:	7f 4f       	sbci	r23, 0xFF	; 255
    13ae:	c7 01       	movw	r24, r14
    13b0:	09 95       	icall
    13b2:	36 01       	movw	r6, r12
    13b4:	b4 e0       	ldi	r27, 0x04	; 4
    13b6:	6b 0e       	add	r6, r27
    13b8:	71 1c       	adc	r7, r1
    13ba:	01 2f       	mov	r16, r17
    13bc:	93 01       	movw	r18, r6
    13be:	a4 01       	movw	r20, r8
    13c0:	b7 01       	movw	r22, r14
    13c2:	c7 01       	movw	r24, r14
    13c4:	01 dd       	rcall	.-1534   	; 0xdc8 <uECC_vli_modSub>
    13c6:	f6 01       	movw	r30, r12
    13c8:	20 81       	ld	r18, Z
    13ca:	a5 01       	movw	r20, r10
    13cc:	b7 01       	movw	r22, r14
    13ce:	ce 01       	movw	r24, r28
    13d0:	01 96       	adiw	r24, 0x01	; 1
    13d2:	19 dc       	rcall	.-1998   	; 0xc06 <uECC_vli_mult>
    13d4:	d2 01       	movw	r26, r4
    13d6:	ed 91       	ld	r30, X+
    13d8:	fc 91       	ld	r31, X
    13da:	be 01       	movw	r22, r28
    13dc:	6f 5f       	subi	r22, 0xFF	; 255
    13de:	7f 4f       	sbci	r23, 0xFF	; 255
    13e0:	c7 01       	movw	r24, r14
    13e2:	09 95       	icall
    13e4:	a6 01       	movw	r20, r12
    13e6:	4c 57       	subi	r20, 0x7C	; 124
    13e8:	5f 4f       	sbci	r21, 0xFF	; 255
    13ea:	93 01       	movw	r18, r6
    13ec:	b7 01       	movw	r22, r14
    13ee:	c7 01       	movw	r24, r14
    13f0:	b9 dc       	rcall	.-1678   	; 0xd64 <uECC_vli_modAdd>
    13f2:	c0 5a       	subi	r28, 0xA0	; 160
    13f4:	df 4f       	sbci	r29, 0xFF	; 255
    13f6:	0f b6       	in	r0, 0x3f	; 63
    13f8:	f8 94       	cli
    13fa:	de bf       	out	0x3e, r29	; 62
    13fc:	0f be       	out	0x3f, r0	; 63
    13fe:	cd bf       	out	0x3d, r28	; 61
    1400:	df 91       	pop	r29
    1402:	cf 91       	pop	r28
    1404:	1f 91       	pop	r17
    1406:	0f 91       	pop	r16
    1408:	ff 90       	pop	r15
    140a:	ef 90       	pop	r14
    140c:	df 90       	pop	r13
    140e:	cf 90       	pop	r12
    1410:	bf 90       	pop	r11
    1412:	af 90       	pop	r10
    1414:	9f 90       	pop	r9
    1416:	8f 90       	pop	r8
    1418:	7f 90       	pop	r7
    141a:	6f 90       	pop	r6
    141c:	5f 90       	pop	r5
    141e:	4f 90       	pop	r4
    1420:	08 95       	ret

00001422 <mod_sqrt_default>:
    1422:	3f 92       	push	r3
    1424:	4f 92       	push	r4
    1426:	5f 92       	push	r5
    1428:	6f 92       	push	r6
    142a:	7f 92       	push	r7
    142c:	8f 92       	push	r8
    142e:	9f 92       	push	r9
    1430:	af 92       	push	r10
    1432:	bf 92       	push	r11
    1434:	cf 92       	push	r12
    1436:	df 92       	push	r13
    1438:	ef 92       	push	r14
    143a:	ff 92       	push	r15
    143c:	0f 93       	push	r16
    143e:	1f 93       	push	r17
    1440:	cf 93       	push	r28
    1442:	df 93       	push	r29
    1444:	cd b7       	in	r28, 0x3d	; 61
    1446:	de b7       	in	r29, 0x3e	; 62
    1448:	c0 58       	subi	r28, 0x80	; 128
    144a:	d1 09       	sbc	r29, r1
    144c:	0f b6       	in	r0, 0x3f	; 63
    144e:	f8 94       	cli
    1450:	de bf       	out	0x3e, r29	; 62
    1452:	0f be       	out	0x3f, r0	; 63
    1454:	cd bf       	out	0x3d, r28	; 61
    1456:	2c 01       	movw	r4, r24
    1458:	6b 01       	movw	r12, r22
    145a:	5e 01       	movw	r10, r28
    145c:	21 e6       	ldi	r18, 0x61	; 97
    145e:	a2 0e       	add	r10, r18
    1460:	b1 1c       	adc	r11, r1
    1462:	90 e2       	ldi	r25, 0x20	; 32
    1464:	d5 01       	movw	r26, r10
    1466:	e9 2f       	mov	r30, r25
    1468:	1d 92       	st	X+, r1
    146a:	ea 95       	dec	r30
    146c:	e9 f7       	brne	.-6      	; 0x1468 <mod_sqrt_default+0x46>
    146e:	81 e0       	ldi	r24, 0x01	; 1
    1470:	d5 01       	movw	r26, r10
    1472:	8c 93       	st	X, r24
    1474:	7e 01       	movw	r14, r28
    1476:	b1 e4       	ldi	r27, 0x41	; 65
    1478:	eb 0e       	add	r14, r27
    147a:	f1 1c       	adc	r15, r1
    147c:	f7 01       	movw	r30, r14
    147e:	11 92       	st	Z+, r1
    1480:	9a 95       	dec	r25
    1482:	e9 f7       	brne	.-6      	; 0x147e <mod_sqrt_default+0x5c>
    1484:	d7 01       	movw	r26, r14
    1486:	8c 93       	st	X, r24
    1488:	fb 01       	movw	r30, r22
    148a:	30 80       	ld	r3, Z
    148c:	6c 5f       	subi	r22, 0xFC	; 252
    148e:	7f 4f       	sbci	r23, 0xFF	; 255
    1490:	23 2d       	mov	r18, r3
    1492:	a5 01       	movw	r20, r10
    1494:	c5 01       	movw	r24, r10
    1496:	15 da       	rcall	.-3030   	; 0x8c2 <uECC_vli_add>
    1498:	63 2d       	mov	r22, r3
    149a:	c5 01       	movw	r24, r10
    149c:	f0 db       	rcall	.-2080   	; 0xc7e <uECC_vli_numBits>
    149e:	8c 01       	movw	r16, r24
    14a0:	01 50       	subi	r16, 0x01	; 1
    14a2:	11 09       	sbc	r17, r1
    14a4:	02 30       	cpi	r16, 0x02	; 2
    14a6:	11 05       	cpc	r17, r1
    14a8:	0c f4       	brge	.+2      	; 0x14ac <mod_sqrt_default+0x8a>
    14aa:	46 c0       	rjmp	.+140    	; 0x1538 <mod_sqrt_default+0x116>
    14ac:	96 01       	movw	r18, r12
    14ae:	26 55       	subi	r18, 0x56	; 86
    14b0:	3f 4f       	sbci	r19, 0xFF	; 255
    14b2:	39 01       	movw	r6, r18
    14b4:	88 24       	eor	r8, r8
    14b6:	83 94       	inc	r8
    14b8:	91 2c       	mov	r9, r1
    14ba:	05 c0       	rjmp	.+10     	; 0x14c6 <mod_sqrt_default+0xa4>
    14bc:	01 50       	subi	r16, 0x01	; 1
    14be:	11 09       	sbc	r17, r1
    14c0:	01 30       	cpi	r16, 0x01	; 1
    14c2:	11 05       	cpc	r17, r1
    14c4:	c9 f1       	breq	.+114    	; 0x1538 <mod_sqrt_default+0x116>
    14c6:	d6 01       	movw	r26, r12
    14c8:	2c 91       	ld	r18, X
    14ca:	a7 01       	movw	r20, r14
    14cc:	b7 01       	movw	r22, r14
    14ce:	ce 01       	movw	r24, r28
    14d0:	01 96       	adiw	r24, 0x01	; 1
    14d2:	99 db       	rcall	.-2254   	; 0xc06 <uECC_vli_mult>
    14d4:	d3 01       	movw	r26, r6
    14d6:	ed 91       	ld	r30, X+
    14d8:	fc 91       	ld	r31, X
    14da:	be 01       	movw	r22, r28
    14dc:	6f 5f       	subi	r22, 0xFF	; 255
    14de:	7f 4f       	sbci	r23, 0xFF	; 255
    14e0:	c7 01       	movw	r24, r14
    14e2:	09 95       	icall
    14e4:	f8 01       	movw	r30, r16
    14e6:	f5 95       	asr	r31
    14e8:	e7 95       	ror	r30
    14ea:	f5 95       	asr	r31
    14ec:	e7 95       	ror	r30
    14ee:	f5 95       	asr	r31
    14f0:	e7 95       	ror	r30
    14f2:	ea 0d       	add	r30, r10
    14f4:	fb 1d       	adc	r31, r11
    14f6:	c8 01       	movw	r24, r16
    14f8:	87 70       	andi	r24, 0x07	; 7
    14fa:	99 27       	eor	r25, r25
    14fc:	94 01       	movw	r18, r8
    14fe:	02 c0       	rjmp	.+4      	; 0x1504 <mod_sqrt_default+0xe2>
    1500:	22 0f       	add	r18, r18
    1502:	33 1f       	adc	r19, r19
    1504:	8a 95       	dec	r24
    1506:	e2 f7       	brpl	.-8      	; 0x1500 <mod_sqrt_default+0xde>
    1508:	c9 01       	movw	r24, r18
    150a:	90 81       	ld	r25, Z
    150c:	89 23       	and	r24, r25
    150e:	b1 f2       	breq	.-84     	; 0x14bc <mod_sqrt_default+0x9a>
    1510:	d6 01       	movw	r26, r12
    1512:	2c 91       	ld	r18, X
    1514:	a2 01       	movw	r20, r4
    1516:	b7 01       	movw	r22, r14
    1518:	ce 01       	movw	r24, r28
    151a:	01 96       	adiw	r24, 0x01	; 1
    151c:	74 db       	rcall	.-2328   	; 0xc06 <uECC_vli_mult>
    151e:	d3 01       	movw	r26, r6
    1520:	ed 91       	ld	r30, X+
    1522:	fc 91       	ld	r31, X
    1524:	be 01       	movw	r22, r28
    1526:	6f 5f       	subi	r22, 0xFF	; 255
    1528:	7f 4f       	sbci	r23, 0xFF	; 255
    152a:	c7 01       	movw	r24, r14
    152c:	09 95       	icall
    152e:	01 50       	subi	r16, 0x01	; 1
    1530:	11 09       	sbc	r17, r1
    1532:	01 30       	cpi	r16, 0x01	; 1
    1534:	11 05       	cpc	r17, r1
    1536:	39 f6       	brne	.-114    	; 0x14c6 <mod_sqrt_default+0xa4>
    1538:	43 2d       	mov	r20, r3
    153a:	b7 01       	movw	r22, r14
    153c:	c2 01       	movw	r24, r4
    153e:	05 d9       	rcall	.-3574   	; 0x74a <uECC_vli_set>
    1540:	c0 58       	subi	r28, 0x80	; 128
    1542:	df 4f       	sbci	r29, 0xFF	; 255
    1544:	0f b6       	in	r0, 0x3f	; 63
    1546:	f8 94       	cli
    1548:	de bf       	out	0x3e, r29	; 62
    154a:	0f be       	out	0x3f, r0	; 63
    154c:	cd bf       	out	0x3d, r28	; 61
    154e:	df 91       	pop	r29
    1550:	cf 91       	pop	r28
    1552:	1f 91       	pop	r17
    1554:	0f 91       	pop	r16
    1556:	ff 90       	pop	r15
    1558:	ef 90       	pop	r14
    155a:	df 90       	pop	r13
    155c:	cf 90       	pop	r12
    155e:	bf 90       	pop	r11
    1560:	af 90       	pop	r10
    1562:	9f 90       	pop	r9
    1564:	8f 90       	pop	r8
    1566:	7f 90       	pop	r7
    1568:	6f 90       	pop	r6
    156a:	5f 90       	pop	r5
    156c:	4f 90       	pop	r4
    156e:	3f 90       	pop	r3
    1570:	08 95       	ret

00001572 <vli_mmod_fast_secp256r1>:
    1572:	df 92       	push	r13
    1574:	ef 92       	push	r14
    1576:	ff 92       	push	r15
    1578:	0f 93       	push	r16
    157a:	1f 93       	push	r17
    157c:	cf 93       	push	r28
    157e:	df 93       	push	r29
    1580:	cd b7       	in	r28, 0x3d	; 61
    1582:	de b7       	in	r29, 0x3e	; 62
    1584:	a0 97       	sbiw	r28, 0x20	; 32
    1586:	0f b6       	in	r0, 0x3f	; 63
    1588:	f8 94       	cli
    158a:	de bf       	out	0x3e, r29	; 62
    158c:	0f be       	out	0x3f, r0	; 63
    158e:	cd bf       	out	0x3d, r28	; 61
    1590:	7c 01       	movw	r14, r24
    1592:	8b 01       	movw	r16, r22
    1594:	40 e2       	ldi	r20, 0x20	; 32
    1596:	d9 d8       	rcall	.-3662   	; 0x74a <uECC_vli_set>
    1598:	1c 82       	std	Y+4, r1	; 0x04
    159a:	1b 82       	std	Y+3, r1	; 0x03
    159c:	1a 82       	std	Y+2, r1	; 0x02
    159e:	19 82       	std	Y+1, r1	; 0x01
    15a0:	18 86       	std	Y+8, r1	; 0x08
    15a2:	1f 82       	std	Y+7, r1	; 0x07
    15a4:	1e 82       	std	Y+6, r1	; 0x06
    15a6:	1d 82       	std	Y+5, r1	; 0x05
    15a8:	1c 86       	std	Y+12, r1	; 0x0c
    15aa:	1b 86       	std	Y+11, r1	; 0x0b
    15ac:	1a 86       	std	Y+10, r1	; 0x0a
    15ae:	19 86       	std	Y+9, r1	; 0x09
    15b0:	f8 01       	movw	r30, r16
    15b2:	84 a5       	ldd	r24, Z+44	; 0x2c
    15b4:	8d 87       	std	Y+13, r24	; 0x0d
    15b6:	85 a5       	ldd	r24, Z+45	; 0x2d
    15b8:	8e 87       	std	Y+14, r24	; 0x0e
    15ba:	86 a5       	ldd	r24, Z+46	; 0x2e
    15bc:	8f 87       	std	Y+15, r24	; 0x0f
    15be:	87 a5       	ldd	r24, Z+47	; 0x2f
    15c0:	88 8b       	std	Y+16, r24	; 0x10
    15c2:	80 a9       	ldd	r24, Z+48	; 0x30
    15c4:	89 8b       	std	Y+17, r24	; 0x11
    15c6:	81 a9       	ldd	r24, Z+49	; 0x31
    15c8:	8a 8b       	std	Y+18, r24	; 0x12
    15ca:	82 a9       	ldd	r24, Z+50	; 0x32
    15cc:	8b 8b       	std	Y+19, r24	; 0x13
    15ce:	83 a9       	ldd	r24, Z+51	; 0x33
    15d0:	8c 8b       	std	Y+20, r24	; 0x14
    15d2:	84 a9       	ldd	r24, Z+52	; 0x34
    15d4:	8d 8b       	std	Y+21, r24	; 0x15
    15d6:	85 a9       	ldd	r24, Z+53	; 0x35
    15d8:	8e 8b       	std	Y+22, r24	; 0x16
    15da:	86 a9       	ldd	r24, Z+54	; 0x36
    15dc:	8f 8b       	std	Y+23, r24	; 0x17
    15de:	87 a9       	ldd	r24, Z+55	; 0x37
    15e0:	88 8f       	std	Y+24, r24	; 0x18
    15e2:	80 ad       	ldd	r24, Z+56	; 0x38
    15e4:	89 8f       	std	Y+25, r24	; 0x19
    15e6:	81 ad       	ldd	r24, Z+57	; 0x39
    15e8:	8a 8f       	std	Y+26, r24	; 0x1a
    15ea:	82 ad       	ldd	r24, Z+58	; 0x3a
    15ec:	8b 8f       	std	Y+27, r24	; 0x1b
    15ee:	83 ad       	ldd	r24, Z+59	; 0x3b
    15f0:	8c 8f       	std	Y+28, r24	; 0x1c
    15f2:	84 ad       	ldd	r24, Z+60	; 0x3c
    15f4:	8d 8f       	std	Y+29, r24	; 0x1d
    15f6:	85 ad       	ldd	r24, Z+61	; 0x3d
    15f8:	8e 8f       	std	Y+30, r24	; 0x1e
    15fa:	86 ad       	ldd	r24, Z+62	; 0x3e
    15fc:	8f 8f       	std	Y+31, r24	; 0x1f
    15fe:	87 ad       	ldd	r24, Z+63	; 0x3f
    1600:	88 a3       	std	Y+32, r24	; 0x20
    1602:	20 e2       	ldi	r18, 0x20	; 32
    1604:	ae 01       	movw	r20, r28
    1606:	4f 5f       	subi	r20, 0xFF	; 255
    1608:	5f 4f       	sbci	r21, 0xFF	; 255
    160a:	ba 01       	movw	r22, r20
    160c:	ca 01       	movw	r24, r20
    160e:	59 d9       	rcall	.-3406   	; 0x8c2 <uECC_vli_add>
    1610:	d8 2e       	mov	r13, r24
    1612:	20 e2       	ldi	r18, 0x20	; 32
    1614:	ae 01       	movw	r20, r28
    1616:	4f 5f       	subi	r20, 0xFF	; 255
    1618:	5f 4f       	sbci	r21, 0xFF	; 255
    161a:	b7 01       	movw	r22, r14
    161c:	c7 01       	movw	r24, r14
    161e:	51 d9       	rcall	.-3422   	; 0x8c2 <uECC_vli_add>
    1620:	d8 0e       	add	r13, r24
    1622:	f8 01       	movw	r30, r16
    1624:	80 a9       	ldd	r24, Z+48	; 0x30
    1626:	8d 87       	std	Y+13, r24	; 0x0d
    1628:	81 a9       	ldd	r24, Z+49	; 0x31
    162a:	8e 87       	std	Y+14, r24	; 0x0e
    162c:	82 a9       	ldd	r24, Z+50	; 0x32
    162e:	8f 87       	std	Y+15, r24	; 0x0f
    1630:	83 a9       	ldd	r24, Z+51	; 0x33
    1632:	88 8b       	std	Y+16, r24	; 0x10
    1634:	84 a9       	ldd	r24, Z+52	; 0x34
    1636:	89 8b       	std	Y+17, r24	; 0x11
    1638:	85 a9       	ldd	r24, Z+53	; 0x35
    163a:	8a 8b       	std	Y+18, r24	; 0x12
    163c:	86 a9       	ldd	r24, Z+54	; 0x36
    163e:	8b 8b       	std	Y+19, r24	; 0x13
    1640:	87 a9       	ldd	r24, Z+55	; 0x37
    1642:	8c 8b       	std	Y+20, r24	; 0x14
    1644:	80 ad       	ldd	r24, Z+56	; 0x38
    1646:	8d 8b       	std	Y+21, r24	; 0x15
    1648:	81 ad       	ldd	r24, Z+57	; 0x39
    164a:	8e 8b       	std	Y+22, r24	; 0x16
    164c:	82 ad       	ldd	r24, Z+58	; 0x3a
    164e:	8f 8b       	std	Y+23, r24	; 0x17
    1650:	83 ad       	ldd	r24, Z+59	; 0x3b
    1652:	88 8f       	std	Y+24, r24	; 0x18
    1654:	84 ad       	ldd	r24, Z+60	; 0x3c
    1656:	89 8f       	std	Y+25, r24	; 0x19
    1658:	85 ad       	ldd	r24, Z+61	; 0x3d
    165a:	8a 8f       	std	Y+26, r24	; 0x1a
    165c:	86 ad       	ldd	r24, Z+62	; 0x3e
    165e:	8b 8f       	std	Y+27, r24	; 0x1b
    1660:	87 ad       	ldd	r24, Z+63	; 0x3f
    1662:	8c 8f       	std	Y+28, r24	; 0x1c
    1664:	18 a2       	std	Y+32, r1	; 0x20
    1666:	1f 8e       	std	Y+31, r1	; 0x1f
    1668:	1e 8e       	std	Y+30, r1	; 0x1e
    166a:	1d 8e       	std	Y+29, r1	; 0x1d
    166c:	20 e2       	ldi	r18, 0x20	; 32
    166e:	ae 01       	movw	r20, r28
    1670:	4f 5f       	subi	r20, 0xFF	; 255
    1672:	5f 4f       	sbci	r21, 0xFF	; 255
    1674:	ba 01       	movw	r22, r20
    1676:	ca 01       	movw	r24, r20
    1678:	24 d9       	rcall	.-3512   	; 0x8c2 <uECC_vli_add>
    167a:	d8 0e       	add	r13, r24
    167c:	20 e2       	ldi	r18, 0x20	; 32
    167e:	ae 01       	movw	r20, r28
    1680:	4f 5f       	subi	r20, 0xFF	; 255
    1682:	5f 4f       	sbci	r21, 0xFF	; 255
    1684:	b7 01       	movw	r22, r14
    1686:	c7 01       	movw	r24, r14
    1688:	1c d9       	rcall	.-3528   	; 0x8c2 <uECC_vli_add>
    168a:	d8 0e       	add	r13, r24
    168c:	f8 01       	movw	r30, r16
    168e:	80 a1       	ldd	r24, Z+32	; 0x20
    1690:	89 83       	std	Y+1, r24	; 0x01
    1692:	81 a1       	ldd	r24, Z+33	; 0x21
    1694:	8a 83       	std	Y+2, r24	; 0x02
    1696:	82 a1       	ldd	r24, Z+34	; 0x22
    1698:	8b 83       	std	Y+3, r24	; 0x03
    169a:	83 a1       	ldd	r24, Z+35	; 0x23
    169c:	8c 83       	std	Y+4, r24	; 0x04
    169e:	84 a1       	ldd	r24, Z+36	; 0x24
    16a0:	8d 83       	std	Y+5, r24	; 0x05
    16a2:	85 a1       	ldd	r24, Z+37	; 0x25
    16a4:	8e 83       	std	Y+6, r24	; 0x06
    16a6:	86 a1       	ldd	r24, Z+38	; 0x26
    16a8:	8f 83       	std	Y+7, r24	; 0x07
    16aa:	87 a1       	ldd	r24, Z+39	; 0x27
    16ac:	88 87       	std	Y+8, r24	; 0x08
    16ae:	80 a5       	ldd	r24, Z+40	; 0x28
    16b0:	89 87       	std	Y+9, r24	; 0x09
    16b2:	81 a5       	ldd	r24, Z+41	; 0x29
    16b4:	8a 87       	std	Y+10, r24	; 0x0a
    16b6:	82 a5       	ldd	r24, Z+42	; 0x2a
    16b8:	8b 87       	std	Y+11, r24	; 0x0b
    16ba:	83 a5       	ldd	r24, Z+43	; 0x2b
    16bc:	8c 87       	std	Y+12, r24	; 0x0c
    16be:	18 8a       	std	Y+16, r1	; 0x10
    16c0:	1f 86       	std	Y+15, r1	; 0x0f
    16c2:	1e 86       	std	Y+14, r1	; 0x0e
    16c4:	1d 86       	std	Y+13, r1	; 0x0d
    16c6:	1c 8a       	std	Y+20, r1	; 0x14
    16c8:	1b 8a       	std	Y+19, r1	; 0x13
    16ca:	1a 8a       	std	Y+18, r1	; 0x12
    16cc:	19 8a       	std	Y+17, r1	; 0x11
    16ce:	18 8e       	std	Y+24, r1	; 0x18
    16d0:	1f 8a       	std	Y+23, r1	; 0x17
    16d2:	1e 8a       	std	Y+22, r1	; 0x16
    16d4:	1d 8a       	std	Y+21, r1	; 0x15
    16d6:	80 ad       	ldd	r24, Z+56	; 0x38
    16d8:	89 8f       	std	Y+25, r24	; 0x19
    16da:	81 ad       	ldd	r24, Z+57	; 0x39
    16dc:	8a 8f       	std	Y+26, r24	; 0x1a
    16de:	82 ad       	ldd	r24, Z+58	; 0x3a
    16e0:	8b 8f       	std	Y+27, r24	; 0x1b
    16e2:	83 ad       	ldd	r24, Z+59	; 0x3b
    16e4:	8c 8f       	std	Y+28, r24	; 0x1c
    16e6:	84 ad       	ldd	r24, Z+60	; 0x3c
    16e8:	8d 8f       	std	Y+29, r24	; 0x1d
    16ea:	85 ad       	ldd	r24, Z+61	; 0x3d
    16ec:	8e 8f       	std	Y+30, r24	; 0x1e
    16ee:	86 ad       	ldd	r24, Z+62	; 0x3e
    16f0:	8f 8f       	std	Y+31, r24	; 0x1f
    16f2:	87 ad       	ldd	r24, Z+63	; 0x3f
    16f4:	88 a3       	std	Y+32, r24	; 0x20
    16f6:	20 e2       	ldi	r18, 0x20	; 32
    16f8:	ae 01       	movw	r20, r28
    16fa:	4f 5f       	subi	r20, 0xFF	; 255
    16fc:	5f 4f       	sbci	r21, 0xFF	; 255
    16fe:	b7 01       	movw	r22, r14
    1700:	c7 01       	movw	r24, r14
    1702:	df d8       	rcall	.-3650   	; 0x8c2 <uECC_vli_add>
    1704:	d8 0e       	add	r13, r24
    1706:	f8 01       	movw	r30, r16
    1708:	84 a1       	ldd	r24, Z+36	; 0x24
    170a:	89 83       	std	Y+1, r24	; 0x01
    170c:	85 a1       	ldd	r24, Z+37	; 0x25
    170e:	8a 83       	std	Y+2, r24	; 0x02
    1710:	86 a1       	ldd	r24, Z+38	; 0x26
    1712:	8b 83       	std	Y+3, r24	; 0x03
    1714:	87 a1       	ldd	r24, Z+39	; 0x27
    1716:	8c 83       	std	Y+4, r24	; 0x04
    1718:	80 a5       	ldd	r24, Z+40	; 0x28
    171a:	8d 83       	std	Y+5, r24	; 0x05
    171c:	81 a5       	ldd	r24, Z+41	; 0x29
    171e:	8e 83       	std	Y+6, r24	; 0x06
    1720:	82 a5       	ldd	r24, Z+42	; 0x2a
    1722:	8f 83       	std	Y+7, r24	; 0x07
    1724:	83 a5       	ldd	r24, Z+43	; 0x2b
    1726:	88 87       	std	Y+8, r24	; 0x08
    1728:	84 a5       	ldd	r24, Z+44	; 0x2c
    172a:	89 87       	std	Y+9, r24	; 0x09
    172c:	85 a5       	ldd	r24, Z+45	; 0x2d
    172e:	8a 87       	std	Y+10, r24	; 0x0a
    1730:	86 a5       	ldd	r24, Z+46	; 0x2e
    1732:	8b 87       	std	Y+11, r24	; 0x0b
    1734:	87 a5       	ldd	r24, Z+47	; 0x2f
    1736:	8c 87       	std	Y+12, r24	; 0x0c
    1738:	34 a9       	ldd	r19, Z+52	; 0x34
    173a:	3d 87       	std	Y+13, r19	; 0x0d
    173c:	25 a9       	ldd	r18, Z+53	; 0x35
    173e:	2e 87       	std	Y+14, r18	; 0x0e
    1740:	96 a9       	ldd	r25, Z+54	; 0x36
    1742:	9f 87       	std	Y+15, r25	; 0x0f
    1744:	87 a9       	ldd	r24, Z+55	; 0x37
    1746:	88 8b       	std	Y+16, r24	; 0x10
    1748:	40 ad       	ldd	r20, Z+56	; 0x38
    174a:	49 8b       	std	Y+17, r20	; 0x11
    174c:	41 ad       	ldd	r20, Z+57	; 0x39
    174e:	4a 8b       	std	Y+18, r20	; 0x12
    1750:	42 ad       	ldd	r20, Z+58	; 0x3a
    1752:	4b 8b       	std	Y+19, r20	; 0x13
    1754:	43 ad       	ldd	r20, Z+59	; 0x3b
    1756:	4c 8b       	std	Y+20, r20	; 0x14
    1758:	44 ad       	ldd	r20, Z+60	; 0x3c
    175a:	4d 8b       	std	Y+21, r20	; 0x15
    175c:	45 ad       	ldd	r20, Z+61	; 0x3d
    175e:	4e 8b       	std	Y+22, r20	; 0x16
    1760:	46 ad       	ldd	r20, Z+62	; 0x3e
    1762:	4f 8b       	std	Y+23, r20	; 0x17
    1764:	47 ad       	ldd	r20, Z+63	; 0x3f
    1766:	48 8f       	std	Y+24, r20	; 0x18
    1768:	39 8f       	std	Y+25, r19	; 0x19
    176a:	2a 8f       	std	Y+26, r18	; 0x1a
    176c:	9b 8f       	std	Y+27, r25	; 0x1b
    176e:	8c 8f       	std	Y+28, r24	; 0x1c
    1770:	80 a1       	ldd	r24, Z+32	; 0x20
    1772:	8d 8f       	std	Y+29, r24	; 0x1d
    1774:	81 a1       	ldd	r24, Z+33	; 0x21
    1776:	8e 8f       	std	Y+30, r24	; 0x1e
    1778:	82 a1       	ldd	r24, Z+34	; 0x22
    177a:	8f 8f       	std	Y+31, r24	; 0x1f
    177c:	83 a1       	ldd	r24, Z+35	; 0x23
    177e:	88 a3       	std	Y+32, r24	; 0x20
    1780:	20 e2       	ldi	r18, 0x20	; 32
    1782:	ae 01       	movw	r20, r28
    1784:	4f 5f       	subi	r20, 0xFF	; 255
    1786:	5f 4f       	sbci	r21, 0xFF	; 255
    1788:	b7 01       	movw	r22, r14
    178a:	c7 01       	movw	r24, r14
    178c:	9a d8       	rcall	.-3788   	; 0x8c2 <uECC_vli_add>
    178e:	d8 0e       	add	r13, r24
    1790:	f8 01       	movw	r30, r16
    1792:	84 a5       	ldd	r24, Z+44	; 0x2c
    1794:	89 83       	std	Y+1, r24	; 0x01
    1796:	85 a5       	ldd	r24, Z+45	; 0x2d
    1798:	8a 83       	std	Y+2, r24	; 0x02
    179a:	86 a5       	ldd	r24, Z+46	; 0x2e
    179c:	8b 83       	std	Y+3, r24	; 0x03
    179e:	87 a5       	ldd	r24, Z+47	; 0x2f
    17a0:	8c 83       	std	Y+4, r24	; 0x04
    17a2:	80 a9       	ldd	r24, Z+48	; 0x30
    17a4:	8d 83       	std	Y+5, r24	; 0x05
    17a6:	81 a9       	ldd	r24, Z+49	; 0x31
    17a8:	8e 83       	std	Y+6, r24	; 0x06
    17aa:	82 a9       	ldd	r24, Z+50	; 0x32
    17ac:	8f 83       	std	Y+7, r24	; 0x07
    17ae:	83 a9       	ldd	r24, Z+51	; 0x33
    17b0:	88 87       	std	Y+8, r24	; 0x08
    17b2:	84 a9       	ldd	r24, Z+52	; 0x34
    17b4:	89 87       	std	Y+9, r24	; 0x09
    17b6:	85 a9       	ldd	r24, Z+53	; 0x35
    17b8:	8a 87       	std	Y+10, r24	; 0x0a
    17ba:	86 a9       	ldd	r24, Z+54	; 0x36
    17bc:	8b 87       	std	Y+11, r24	; 0x0b
    17be:	87 a9       	ldd	r24, Z+55	; 0x37
    17c0:	8c 87       	std	Y+12, r24	; 0x0c
    17c2:	18 8a       	std	Y+16, r1	; 0x10
    17c4:	1f 86       	std	Y+15, r1	; 0x0f
    17c6:	1e 86       	std	Y+14, r1	; 0x0e
    17c8:	1d 86       	std	Y+13, r1	; 0x0d
    17ca:	1c 8a       	std	Y+20, r1	; 0x14
    17cc:	1b 8a       	std	Y+19, r1	; 0x13
    17ce:	1a 8a       	std	Y+18, r1	; 0x12
    17d0:	19 8a       	std	Y+17, r1	; 0x11
    17d2:	18 8e       	std	Y+24, r1	; 0x18
    17d4:	1f 8a       	std	Y+23, r1	; 0x17
    17d6:	1e 8a       	std	Y+22, r1	; 0x16
    17d8:	1d 8a       	std	Y+21, r1	; 0x15
    17da:	80 a1       	ldd	r24, Z+32	; 0x20
    17dc:	89 8f       	std	Y+25, r24	; 0x19
    17de:	81 a1       	ldd	r24, Z+33	; 0x21
    17e0:	8a 8f       	std	Y+26, r24	; 0x1a
    17e2:	82 a1       	ldd	r24, Z+34	; 0x22
    17e4:	8b 8f       	std	Y+27, r24	; 0x1b
    17e6:	83 a1       	ldd	r24, Z+35	; 0x23
    17e8:	8c 8f       	std	Y+28, r24	; 0x1c
    17ea:	80 a5       	ldd	r24, Z+40	; 0x28
    17ec:	8d 8f       	std	Y+29, r24	; 0x1d
    17ee:	81 a5       	ldd	r24, Z+41	; 0x29
    17f0:	8e 8f       	std	Y+30, r24	; 0x1e
    17f2:	82 a5       	ldd	r24, Z+42	; 0x2a
    17f4:	8f 8f       	std	Y+31, r24	; 0x1f
    17f6:	83 a5       	ldd	r24, Z+43	; 0x2b
    17f8:	88 a3       	std	Y+32, r24	; 0x20
    17fa:	20 e2       	ldi	r18, 0x20	; 32
    17fc:	ae 01       	movw	r20, r28
    17fe:	4f 5f       	subi	r20, 0xFF	; 255
    1800:	5f 4f       	sbci	r21, 0xFF	; 255
    1802:	b7 01       	movw	r22, r14
    1804:	c7 01       	movw	r24, r14
    1806:	2e d9       	rcall	.-3492   	; 0xa64 <uECC_vli_sub>
    1808:	d8 1a       	sub	r13, r24
    180a:	f8 01       	movw	r30, r16
    180c:	80 a9       	ldd	r24, Z+48	; 0x30
    180e:	89 83       	std	Y+1, r24	; 0x01
    1810:	81 a9       	ldd	r24, Z+49	; 0x31
    1812:	8a 83       	std	Y+2, r24	; 0x02
    1814:	82 a9       	ldd	r24, Z+50	; 0x32
    1816:	8b 83       	std	Y+3, r24	; 0x03
    1818:	83 a9       	ldd	r24, Z+51	; 0x33
    181a:	8c 83       	std	Y+4, r24	; 0x04
    181c:	84 a9       	ldd	r24, Z+52	; 0x34
    181e:	8d 83       	std	Y+5, r24	; 0x05
    1820:	85 a9       	ldd	r24, Z+53	; 0x35
    1822:	8e 83       	std	Y+6, r24	; 0x06
    1824:	86 a9       	ldd	r24, Z+54	; 0x36
    1826:	8f 83       	std	Y+7, r24	; 0x07
    1828:	87 a9       	ldd	r24, Z+55	; 0x37
    182a:	88 87       	std	Y+8, r24	; 0x08
    182c:	80 ad       	ldd	r24, Z+56	; 0x38
    182e:	89 87       	std	Y+9, r24	; 0x09
    1830:	81 ad       	ldd	r24, Z+57	; 0x39
    1832:	8a 87       	std	Y+10, r24	; 0x0a
    1834:	82 ad       	ldd	r24, Z+58	; 0x3a
    1836:	8b 87       	std	Y+11, r24	; 0x0b
    1838:	83 ad       	ldd	r24, Z+59	; 0x3b
    183a:	8c 87       	std	Y+12, r24	; 0x0c
    183c:	84 ad       	ldd	r24, Z+60	; 0x3c
    183e:	8d 87       	std	Y+13, r24	; 0x0d
    1840:	85 ad       	ldd	r24, Z+61	; 0x3d
    1842:	8e 87       	std	Y+14, r24	; 0x0e
    1844:	86 ad       	ldd	r24, Z+62	; 0x3e
    1846:	8f 87       	std	Y+15, r24	; 0x0f
    1848:	87 ad       	ldd	r24, Z+63	; 0x3f
    184a:	88 8b       	std	Y+16, r24	; 0x10
    184c:	1c 8a       	std	Y+20, r1	; 0x14
    184e:	1b 8a       	std	Y+19, r1	; 0x13
    1850:	1a 8a       	std	Y+18, r1	; 0x12
    1852:	19 8a       	std	Y+17, r1	; 0x11
    1854:	18 8e       	std	Y+24, r1	; 0x18
    1856:	1f 8a       	std	Y+23, r1	; 0x17
    1858:	1e 8a       	std	Y+22, r1	; 0x16
    185a:	1d 8a       	std	Y+21, r1	; 0x15
    185c:	84 a1       	ldd	r24, Z+36	; 0x24
    185e:	89 8f       	std	Y+25, r24	; 0x19
    1860:	85 a1       	ldd	r24, Z+37	; 0x25
    1862:	8a 8f       	std	Y+26, r24	; 0x1a
    1864:	86 a1       	ldd	r24, Z+38	; 0x26
    1866:	8b 8f       	std	Y+27, r24	; 0x1b
    1868:	87 a1       	ldd	r24, Z+39	; 0x27
    186a:	8c 8f       	std	Y+28, r24	; 0x1c
    186c:	84 a5       	ldd	r24, Z+44	; 0x2c
    186e:	8d 8f       	std	Y+29, r24	; 0x1d
    1870:	85 a5       	ldd	r24, Z+45	; 0x2d
    1872:	8e 8f       	std	Y+30, r24	; 0x1e
    1874:	86 a5       	ldd	r24, Z+46	; 0x2e
    1876:	8f 8f       	std	Y+31, r24	; 0x1f
    1878:	87 a5       	ldd	r24, Z+47	; 0x2f
    187a:	88 a3       	std	Y+32, r24	; 0x20
    187c:	20 e2       	ldi	r18, 0x20	; 32
    187e:	ae 01       	movw	r20, r28
    1880:	4f 5f       	subi	r20, 0xFF	; 255
    1882:	5f 4f       	sbci	r21, 0xFF	; 255
    1884:	b7 01       	movw	r22, r14
    1886:	c7 01       	movw	r24, r14
    1888:	ed d8       	rcall	.-3622   	; 0xa64 <uECC_vli_sub>
    188a:	d8 1a       	sub	r13, r24
    188c:	f8 01       	movw	r30, r16
    188e:	84 a9       	ldd	r24, Z+52	; 0x34
    1890:	89 83       	std	Y+1, r24	; 0x01
    1892:	85 a9       	ldd	r24, Z+53	; 0x35
    1894:	8a 83       	std	Y+2, r24	; 0x02
    1896:	86 a9       	ldd	r24, Z+54	; 0x36
    1898:	8b 83       	std	Y+3, r24	; 0x03
    189a:	87 a9       	ldd	r24, Z+55	; 0x37
    189c:	8c 83       	std	Y+4, r24	; 0x04
    189e:	80 ad       	ldd	r24, Z+56	; 0x38
    18a0:	8d 83       	std	Y+5, r24	; 0x05
    18a2:	81 ad       	ldd	r24, Z+57	; 0x39
    18a4:	8e 83       	std	Y+6, r24	; 0x06
    18a6:	82 ad       	ldd	r24, Z+58	; 0x3a
    18a8:	8f 83       	std	Y+7, r24	; 0x07
    18aa:	83 ad       	ldd	r24, Z+59	; 0x3b
    18ac:	88 87       	std	Y+8, r24	; 0x08
    18ae:	84 ad       	ldd	r24, Z+60	; 0x3c
    18b0:	89 87       	std	Y+9, r24	; 0x09
    18b2:	85 ad       	ldd	r24, Z+61	; 0x3d
    18b4:	8a 87       	std	Y+10, r24	; 0x0a
    18b6:	86 ad       	ldd	r24, Z+62	; 0x3e
    18b8:	8b 87       	std	Y+11, r24	; 0x0b
    18ba:	87 ad       	ldd	r24, Z+63	; 0x3f
    18bc:	8c 87       	std	Y+12, r24	; 0x0c
    18be:	80 a1       	ldd	r24, Z+32	; 0x20
    18c0:	8d 87       	std	Y+13, r24	; 0x0d
    18c2:	81 a1       	ldd	r24, Z+33	; 0x21
    18c4:	8e 87       	std	Y+14, r24	; 0x0e
    18c6:	82 a1       	ldd	r24, Z+34	; 0x22
    18c8:	8f 87       	std	Y+15, r24	; 0x0f
    18ca:	83 a1       	ldd	r24, Z+35	; 0x23
    18cc:	88 8b       	std	Y+16, r24	; 0x10
    18ce:	84 a1       	ldd	r24, Z+36	; 0x24
    18d0:	89 8b       	std	Y+17, r24	; 0x11
    18d2:	85 a1       	ldd	r24, Z+37	; 0x25
    18d4:	8a 8b       	std	Y+18, r24	; 0x12
    18d6:	86 a1       	ldd	r24, Z+38	; 0x26
    18d8:	8b 8b       	std	Y+19, r24	; 0x13
    18da:	87 a1       	ldd	r24, Z+39	; 0x27
    18dc:	8c 8b       	std	Y+20, r24	; 0x14
    18de:	80 a5       	ldd	r24, Z+40	; 0x28
    18e0:	8d 8b       	std	Y+21, r24	; 0x15
    18e2:	81 a5       	ldd	r24, Z+41	; 0x29
    18e4:	8e 8b       	std	Y+22, r24	; 0x16
    18e6:	82 a5       	ldd	r24, Z+42	; 0x2a
    18e8:	8f 8b       	std	Y+23, r24	; 0x17
    18ea:	83 a5       	ldd	r24, Z+43	; 0x2b
    18ec:	88 8f       	std	Y+24, r24	; 0x18
    18ee:	1c 8e       	std	Y+28, r1	; 0x1c
    18f0:	1b 8e       	std	Y+27, r1	; 0x1b
    18f2:	1a 8e       	std	Y+26, r1	; 0x1a
    18f4:	19 8e       	std	Y+25, r1	; 0x19
    18f6:	80 a9       	ldd	r24, Z+48	; 0x30
    18f8:	8d 8f       	std	Y+29, r24	; 0x1d
    18fa:	81 a9       	ldd	r24, Z+49	; 0x31
    18fc:	8e 8f       	std	Y+30, r24	; 0x1e
    18fe:	82 a9       	ldd	r24, Z+50	; 0x32
    1900:	8f 8f       	std	Y+31, r24	; 0x1f
    1902:	83 a9       	ldd	r24, Z+51	; 0x33
    1904:	88 a3       	std	Y+32, r24	; 0x20
    1906:	20 e2       	ldi	r18, 0x20	; 32
    1908:	ae 01       	movw	r20, r28
    190a:	4f 5f       	subi	r20, 0xFF	; 255
    190c:	5f 4f       	sbci	r21, 0xFF	; 255
    190e:	b7 01       	movw	r22, r14
    1910:	c7 01       	movw	r24, r14
    1912:	a8 d8       	rcall	.-3760   	; 0xa64 <uECC_vli_sub>
    1914:	d8 1a       	sub	r13, r24
    1916:	f8 01       	movw	r30, r16
    1918:	80 ad       	ldd	r24, Z+56	; 0x38
    191a:	89 83       	std	Y+1, r24	; 0x01
    191c:	81 ad       	ldd	r24, Z+57	; 0x39
    191e:	8a 83       	std	Y+2, r24	; 0x02
    1920:	82 ad       	ldd	r24, Z+58	; 0x3a
    1922:	8b 83       	std	Y+3, r24	; 0x03
    1924:	83 ad       	ldd	r24, Z+59	; 0x3b
    1926:	8c 83       	std	Y+4, r24	; 0x04
    1928:	84 ad       	ldd	r24, Z+60	; 0x3c
    192a:	8d 83       	std	Y+5, r24	; 0x05
    192c:	85 ad       	ldd	r24, Z+61	; 0x3d
    192e:	8e 83       	std	Y+6, r24	; 0x06
    1930:	86 ad       	ldd	r24, Z+62	; 0x3e
    1932:	8f 83       	std	Y+7, r24	; 0x07
    1934:	87 ad       	ldd	r24, Z+63	; 0x3f
    1936:	88 87       	std	Y+8, r24	; 0x08
    1938:	1c 86       	std	Y+12, r1	; 0x0c
    193a:	1b 86       	std	Y+11, r1	; 0x0b
    193c:	1a 86       	std	Y+10, r1	; 0x0a
    193e:	19 86       	std	Y+9, r1	; 0x09
    1940:	84 a1       	ldd	r24, Z+36	; 0x24
    1942:	8d 87       	std	Y+13, r24	; 0x0d
    1944:	85 a1       	ldd	r24, Z+37	; 0x25
    1946:	8e 87       	std	Y+14, r24	; 0x0e
    1948:	86 a1       	ldd	r24, Z+38	; 0x26
    194a:	8f 87       	std	Y+15, r24	; 0x0f
    194c:	87 a1       	ldd	r24, Z+39	; 0x27
    194e:	88 8b       	std	Y+16, r24	; 0x10
    1950:	80 a5       	ldd	r24, Z+40	; 0x28
    1952:	89 8b       	std	Y+17, r24	; 0x11
    1954:	81 a5       	ldd	r24, Z+41	; 0x29
    1956:	8a 8b       	std	Y+18, r24	; 0x12
    1958:	82 a5       	ldd	r24, Z+42	; 0x2a
    195a:	8b 8b       	std	Y+19, r24	; 0x13
    195c:	83 a5       	ldd	r24, Z+43	; 0x2b
    195e:	8c 8b       	std	Y+20, r24	; 0x14
    1960:	84 a5       	ldd	r24, Z+44	; 0x2c
    1962:	8d 8b       	std	Y+21, r24	; 0x15
    1964:	85 a5       	ldd	r24, Z+45	; 0x2d
    1966:	8e 8b       	std	Y+22, r24	; 0x16
    1968:	86 a5       	ldd	r24, Z+46	; 0x2e
    196a:	8f 8b       	std	Y+23, r24	; 0x17
    196c:	87 a5       	ldd	r24, Z+47	; 0x2f
    196e:	88 8f       	std	Y+24, r24	; 0x18
    1970:	1c 8e       	std	Y+28, r1	; 0x1c
    1972:	1b 8e       	std	Y+27, r1	; 0x1b
    1974:	1a 8e       	std	Y+26, r1	; 0x1a
    1976:	19 8e       	std	Y+25, r1	; 0x19
    1978:	84 a9       	ldd	r24, Z+52	; 0x34
    197a:	8d 8f       	std	Y+29, r24	; 0x1d
    197c:	85 a9       	ldd	r24, Z+53	; 0x35
    197e:	8e 8f       	std	Y+30, r24	; 0x1e
    1980:	86 a9       	ldd	r24, Z+54	; 0x36
    1982:	8f 8f       	std	Y+31, r24	; 0x1f
    1984:	87 a9       	ldd	r24, Z+55	; 0x37
    1986:	88 a3       	std	Y+32, r24	; 0x20
    1988:	20 e2       	ldi	r18, 0x20	; 32
    198a:	ae 01       	movw	r20, r28
    198c:	4f 5f       	subi	r20, 0xFF	; 255
    198e:	5f 4f       	sbci	r21, 0xFF	; 255
    1990:	b7 01       	movw	r22, r14
    1992:	c7 01       	movw	r24, r14
    1994:	67 d8       	rcall	.-3890   	; 0xa64 <uECC_vli_sub>
    1996:	d8 1a       	sub	r13, r24
    1998:	d7 fc       	sbrc	r13, 7
    199a:	19 c0       	rjmp	.+50     	; 0x19ce <vli_mmod_fast_secp256r1+0x45c>
    199c:	87 01       	movw	r16, r14
    199e:	00 5e       	subi	r16, 0xE0	; 224
    19a0:	1f 4f       	sbci	r17, 0xFF	; 255
    19a2:	d1 10       	cpse	r13, r1
    19a4:	0c c0       	rjmp	.+24     	; 0x19be <vli_mmod_fast_secp256r1+0x44c>
    19a6:	a8 e2       	ldi	r26, 0x28	; 40
    19a8:	b1 e0       	ldi	r27, 0x01	; 1
    19aa:	f8 01       	movw	r30, r16
    19ac:	9e 91       	ld	r25, -X
    19ae:	82 91       	ld	r24, -Z
    19b0:	89 17       	cp	r24, r25
    19b2:	b8 f0       	brcs	.+46     	; 0x19e2 <vli_mmod_fast_secp256r1+0x470>
    19b4:	98 17       	cp	r25, r24
    19b6:	18 f0       	brcs	.+6      	; 0x19be <vli_mmod_fast_secp256r1+0x44c>
    19b8:	ee 15       	cp	r30, r14
    19ba:	ff 05       	cpc	r31, r15
    19bc:	b9 f7       	brne	.-18     	; 0x19ac <vli_mmod_fast_secp256r1+0x43a>
    19be:	20 e2       	ldi	r18, 0x20	; 32
    19c0:	48 e0       	ldi	r20, 0x08	; 8
    19c2:	51 e0       	ldi	r21, 0x01	; 1
    19c4:	b7 01       	movw	r22, r14
    19c6:	c7 01       	movw	r24, r14
    19c8:	4d d8       	rcall	.-3942   	; 0xa64 <uECC_vli_sub>
    19ca:	d8 1a       	sub	r13, r24
    19cc:	ea cf       	rjmp	.-44     	; 0x19a2 <vli_mmod_fast_secp256r1+0x430>
    19ce:	20 e2       	ldi	r18, 0x20	; 32
    19d0:	48 e0       	ldi	r20, 0x08	; 8
    19d2:	51 e0       	ldi	r21, 0x01	; 1
    19d4:	b7 01       	movw	r22, r14
    19d6:	c7 01       	movw	r24, r14
    19d8:	0e 94 61 04 	call	0x8c2	; 0x8c2 <uECC_vli_add>
    19dc:	d8 0e       	add	r13, r24
    19de:	d7 fc       	sbrc	r13, 7
    19e0:	f6 cf       	rjmp	.-20     	; 0x19ce <vli_mmod_fast_secp256r1+0x45c>
    19e2:	a0 96       	adiw	r28, 0x20	; 32
    19e4:	0f b6       	in	r0, 0x3f	; 63
    19e6:	f8 94       	cli
    19e8:	de bf       	out	0x3e, r29	; 62
    19ea:	0f be       	out	0x3f, r0	; 63
    19ec:	cd bf       	out	0x3d, r28	; 61
    19ee:	df 91       	pop	r29
    19f0:	cf 91       	pop	r28
    19f2:	1f 91       	pop	r17
    19f4:	0f 91       	pop	r16
    19f6:	ff 90       	pop	r15
    19f8:	ef 90       	pop	r14
    19fa:	df 90       	pop	r13
    19fc:	08 95       	ret

000019fe <apply_z>:
    19fe:	8f 92       	push	r8
    1a00:	9f 92       	push	r9
    1a02:	af 92       	push	r10
    1a04:	bf 92       	push	r11
    1a06:	cf 92       	push	r12
    1a08:	df 92       	push	r13
    1a0a:	ef 92       	push	r14
    1a0c:	ff 92       	push	r15
    1a0e:	0f 93       	push	r16
    1a10:	1f 93       	push	r17
    1a12:	cf 93       	push	r28
    1a14:	df 93       	push	r29
    1a16:	cd b7       	in	r28, 0x3d	; 61
    1a18:	de b7       	in	r29, 0x3e	; 62
    1a1a:	c0 56       	subi	r28, 0x60	; 96
    1a1c:	d1 09       	sbc	r29, r1
    1a1e:	0f b6       	in	r0, 0x3f	; 63
    1a20:	f8 94       	cli
    1a22:	de bf       	out	0x3e, r29	; 62
    1a24:	0f be       	out	0x3f, r0	; 63
    1a26:	cd bf       	out	0x3d, r28	; 61
    1a28:	4c 01       	movw	r8, r24
    1a2a:	5b 01       	movw	r10, r22
    1a2c:	6a 01       	movw	r12, r20
    1a2e:	89 01       	movw	r16, r18
    1a30:	d9 01       	movw	r26, r18
    1a32:	2c 91       	ld	r18, X
    1a34:	ba 01       	movw	r22, r20
    1a36:	ce 01       	movw	r24, r28
    1a38:	01 96       	adiw	r24, 0x01	; 1
    1a3a:	e5 d8       	rcall	.-3638   	; 0xc06 <uECC_vli_mult>
    1a3c:	78 01       	movw	r14, r16
    1a3e:	ba ea       	ldi	r27, 0xAA	; 170
    1a40:	eb 0e       	add	r14, r27
    1a42:	f1 1c       	adc	r15, r1
    1a44:	d7 01       	movw	r26, r14
    1a46:	ed 91       	ld	r30, X+
    1a48:	fc 91       	ld	r31, X
    1a4a:	be 01       	movw	r22, r28
    1a4c:	6f 5f       	subi	r22, 0xFF	; 255
    1a4e:	7f 4f       	sbci	r23, 0xFF	; 255
    1a50:	ce 01       	movw	r24, r28
    1a52:	8f 5b       	subi	r24, 0xBF	; 191
    1a54:	9f 4f       	sbci	r25, 0xFF	; 255
    1a56:	09 95       	icall
    1a58:	f8 01       	movw	r30, r16
    1a5a:	20 81       	ld	r18, Z
    1a5c:	ae 01       	movw	r20, r28
    1a5e:	4f 5b       	subi	r20, 0xBF	; 191
    1a60:	5f 4f       	sbci	r21, 0xFF	; 255
    1a62:	b4 01       	movw	r22, r8
    1a64:	ce 01       	movw	r24, r28
    1a66:	01 96       	adiw	r24, 0x01	; 1
    1a68:	ce d8       	rcall	.-3684   	; 0xc06 <uECC_vli_mult>
    1a6a:	d7 01       	movw	r26, r14
    1a6c:	ed 91       	ld	r30, X+
    1a6e:	fc 91       	ld	r31, X
    1a70:	be 01       	movw	r22, r28
    1a72:	6f 5f       	subi	r22, 0xFF	; 255
    1a74:	7f 4f       	sbci	r23, 0xFF	; 255
    1a76:	c4 01       	movw	r24, r8
    1a78:	09 95       	icall
    1a7a:	f8 01       	movw	r30, r16
    1a7c:	20 81       	ld	r18, Z
    1a7e:	a6 01       	movw	r20, r12
    1a80:	be 01       	movw	r22, r28
    1a82:	6f 5b       	subi	r22, 0xBF	; 191
    1a84:	7f 4f       	sbci	r23, 0xFF	; 255
    1a86:	ce 01       	movw	r24, r28
    1a88:	01 96       	adiw	r24, 0x01	; 1
    1a8a:	bd d8       	rcall	.-3718   	; 0xc06 <uECC_vli_mult>
    1a8c:	d7 01       	movw	r26, r14
    1a8e:	ed 91       	ld	r30, X+
    1a90:	fc 91       	ld	r31, X
    1a92:	be 01       	movw	r22, r28
    1a94:	6f 5f       	subi	r22, 0xFF	; 255
    1a96:	7f 4f       	sbci	r23, 0xFF	; 255
    1a98:	ce 01       	movw	r24, r28
    1a9a:	8f 5b       	subi	r24, 0xBF	; 191
    1a9c:	9f 4f       	sbci	r25, 0xFF	; 255
    1a9e:	09 95       	icall
    1aa0:	f8 01       	movw	r30, r16
    1aa2:	20 81       	ld	r18, Z
    1aa4:	ae 01       	movw	r20, r28
    1aa6:	4f 5b       	subi	r20, 0xBF	; 191
    1aa8:	5f 4f       	sbci	r21, 0xFF	; 255
    1aaa:	b5 01       	movw	r22, r10
    1aac:	ce 01       	movw	r24, r28
    1aae:	01 96       	adiw	r24, 0x01	; 1
    1ab0:	aa d8       	rcall	.-3756   	; 0xc06 <uECC_vli_mult>
    1ab2:	d7 01       	movw	r26, r14
    1ab4:	ed 91       	ld	r30, X+
    1ab6:	fc 91       	ld	r31, X
    1ab8:	be 01       	movw	r22, r28
    1aba:	6f 5f       	subi	r22, 0xFF	; 255
    1abc:	7f 4f       	sbci	r23, 0xFF	; 255
    1abe:	c5 01       	movw	r24, r10
    1ac0:	09 95       	icall
    1ac2:	c0 5a       	subi	r28, 0xA0	; 160
    1ac4:	df 4f       	sbci	r29, 0xFF	; 255
    1ac6:	0f b6       	in	r0, 0x3f	; 63
    1ac8:	f8 94       	cli
    1aca:	de bf       	out	0x3e, r29	; 62
    1acc:	0f be       	out	0x3f, r0	; 63
    1ace:	cd bf       	out	0x3d, r28	; 61
    1ad0:	df 91       	pop	r29
    1ad2:	cf 91       	pop	r28
    1ad4:	1f 91       	pop	r17
    1ad6:	0f 91       	pop	r16
    1ad8:	ff 90       	pop	r15
    1ada:	ef 90       	pop	r14
    1adc:	df 90       	pop	r13
    1ade:	cf 90       	pop	r12
    1ae0:	bf 90       	pop	r11
    1ae2:	af 90       	pop	r10
    1ae4:	9f 90       	pop	r9
    1ae6:	8f 90       	pop	r8
    1ae8:	08 95       	ret

00001aea <XYcZ_add>:
    1aea:	2f 92       	push	r2
    1aec:	3f 92       	push	r3
    1aee:	4f 92       	push	r4
    1af0:	5f 92       	push	r5
    1af2:	6f 92       	push	r6
    1af4:	7f 92       	push	r7
    1af6:	8f 92       	push	r8
    1af8:	9f 92       	push	r9
    1afa:	af 92       	push	r10
    1afc:	bf 92       	push	r11
    1afe:	cf 92       	push	r12
    1b00:	df 92       	push	r13
    1b02:	ef 92       	push	r14
    1b04:	ff 92       	push	r15
    1b06:	0f 93       	push	r16
    1b08:	1f 93       	push	r17
    1b0a:	cf 93       	push	r28
    1b0c:	df 93       	push	r29
    1b0e:	cd b7       	in	r28, 0x3d	; 61
    1b10:	de b7       	in	r29, 0x3e	; 62
    1b12:	c0 56       	subi	r28, 0x60	; 96
    1b14:	d1 09       	sbc	r29, r1
    1b16:	0f b6       	in	r0, 0x3f	; 63
    1b18:	f8 94       	cli
    1b1a:	de bf       	out	0x3e, r29	; 62
    1b1c:	0f be       	out	0x3f, r0	; 63
    1b1e:	cd bf       	out	0x3d, r28	; 61
    1b20:	3c 01       	movw	r6, r24
    1b22:	2b 01       	movw	r4, r22
    1b24:	7a 01       	movw	r14, r20
    1b26:	59 01       	movw	r10, r18
    1b28:	68 01       	movw	r12, r16
    1b2a:	d8 01       	movw	r26, r16
    1b2c:	1c 91       	ld	r17, X
    1b2e:	46 01       	movw	r8, r12
    1b30:	b4 e0       	ldi	r27, 0x04	; 4
    1b32:	8b 0e       	add	r8, r27
    1b34:	91 1c       	adc	r9, r1
    1b36:	01 2f       	mov	r16, r17
    1b38:	94 01       	movw	r18, r8
    1b3a:	ac 01       	movw	r20, r24
    1b3c:	b7 01       	movw	r22, r14
    1b3e:	ce 01       	movw	r24, r28
    1b40:	8f 5b       	subi	r24, 0xBF	; 191
    1b42:	9f 4f       	sbci	r25, 0xFF	; 255
    1b44:	41 d9       	rcall	.-3454   	; 0xdc8 <uECC_vli_modSub>
    1b46:	f6 01       	movw	r30, r12
    1b48:	20 81       	ld	r18, Z
    1b4a:	ae 01       	movw	r20, r28
    1b4c:	4f 5b       	subi	r20, 0xBF	; 191
    1b4e:	5f 4f       	sbci	r21, 0xFF	; 255
    1b50:	ba 01       	movw	r22, r20
    1b52:	ce 01       	movw	r24, r28
    1b54:	01 96       	adiw	r24, 0x01	; 1
    1b56:	57 d8       	rcall	.-3922   	; 0xc06 <uECC_vli_mult>
    1b58:	16 01       	movw	r2, r12
    1b5a:	fa ea       	ldi	r31, 0xAA	; 170
    1b5c:	2f 0e       	add	r2, r31
    1b5e:	31 1c       	adc	r3, r1
    1b60:	d1 01       	movw	r26, r2
    1b62:	ed 91       	ld	r30, X+
    1b64:	fc 91       	ld	r31, X
    1b66:	be 01       	movw	r22, r28
    1b68:	6f 5f       	subi	r22, 0xFF	; 255
    1b6a:	7f 4f       	sbci	r23, 0xFF	; 255
    1b6c:	ce 01       	movw	r24, r28
    1b6e:	8f 5b       	subi	r24, 0xBF	; 191
    1b70:	9f 4f       	sbci	r25, 0xFF	; 255
    1b72:	09 95       	icall
    1b74:	f6 01       	movw	r30, r12
    1b76:	20 81       	ld	r18, Z
    1b78:	ae 01       	movw	r20, r28
    1b7a:	4f 5b       	subi	r20, 0xBF	; 191
    1b7c:	5f 4f       	sbci	r21, 0xFF	; 255
    1b7e:	b3 01       	movw	r22, r6
    1b80:	ce 01       	movw	r24, r28
    1b82:	01 96       	adiw	r24, 0x01	; 1
    1b84:	40 d8       	rcall	.-3968   	; 0xc06 <uECC_vli_mult>
    1b86:	d1 01       	movw	r26, r2
    1b88:	ed 91       	ld	r30, X+
    1b8a:	fc 91       	ld	r31, X
    1b8c:	be 01       	movw	r22, r28
    1b8e:	6f 5f       	subi	r22, 0xFF	; 255
    1b90:	7f 4f       	sbci	r23, 0xFF	; 255
    1b92:	c3 01       	movw	r24, r6
    1b94:	09 95       	icall
    1b96:	f6 01       	movw	r30, r12
    1b98:	20 81       	ld	r18, Z
    1b9a:	ae 01       	movw	r20, r28
    1b9c:	4f 5b       	subi	r20, 0xBF	; 191
    1b9e:	5f 4f       	sbci	r21, 0xFF	; 255
    1ba0:	b7 01       	movw	r22, r14
    1ba2:	ce 01       	movw	r24, r28
    1ba4:	01 96       	adiw	r24, 0x01	; 1
    1ba6:	2f d8       	rcall	.-4002   	; 0xc06 <uECC_vli_mult>
    1ba8:	d1 01       	movw	r26, r2
    1baa:	ed 91       	ld	r30, X+
    1bac:	fc 91       	ld	r31, X
    1bae:	be 01       	movw	r22, r28
    1bb0:	6f 5f       	subi	r22, 0xFF	; 255
    1bb2:	7f 4f       	sbci	r23, 0xFF	; 255
    1bb4:	c7 01       	movw	r24, r14
    1bb6:	09 95       	icall
    1bb8:	94 01       	movw	r18, r8
    1bba:	a2 01       	movw	r20, r4
    1bbc:	b5 01       	movw	r22, r10
    1bbe:	c5 01       	movw	r24, r10
    1bc0:	03 d9       	rcall	.-3578   	; 0xdc8 <uECC_vli_modSub>
    1bc2:	f6 01       	movw	r30, r12
    1bc4:	20 81       	ld	r18, Z
    1bc6:	a5 01       	movw	r20, r10
    1bc8:	b5 01       	movw	r22, r10
    1bca:	ce 01       	movw	r24, r28
    1bcc:	01 96       	adiw	r24, 0x01	; 1
    1bce:	1b d8       	rcall	.-4042   	; 0xc06 <uECC_vli_mult>
    1bd0:	d1 01       	movw	r26, r2
    1bd2:	ed 91       	ld	r30, X+
    1bd4:	fc 91       	ld	r31, X
    1bd6:	be 01       	movw	r22, r28
    1bd8:	6f 5f       	subi	r22, 0xFF	; 255
    1bda:	7f 4f       	sbci	r23, 0xFF	; 255
    1bdc:	ce 01       	movw	r24, r28
    1bde:	8f 5b       	subi	r24, 0xBF	; 191
    1be0:	9f 4f       	sbci	r25, 0xFF	; 255
    1be2:	09 95       	icall
    1be4:	94 01       	movw	r18, r8
    1be6:	a3 01       	movw	r20, r6
    1be8:	be 01       	movw	r22, r28
    1bea:	6f 5b       	subi	r22, 0xBF	; 191
    1bec:	7f 4f       	sbci	r23, 0xFF	; 255
    1bee:	cb 01       	movw	r24, r22
    1bf0:	eb d8       	rcall	.-3626   	; 0xdc8 <uECC_vli_modSub>
    1bf2:	94 01       	movw	r18, r8
    1bf4:	a7 01       	movw	r20, r14
    1bf6:	be 01       	movw	r22, r28
    1bf8:	6f 5b       	subi	r22, 0xBF	; 191
    1bfa:	7f 4f       	sbci	r23, 0xFF	; 255
    1bfc:	cb 01       	movw	r24, r22
    1bfe:	e4 d8       	rcall	.-3640   	; 0xdc8 <uECC_vli_modSub>
    1c00:	94 01       	movw	r18, r8
    1c02:	a3 01       	movw	r20, r6
    1c04:	b7 01       	movw	r22, r14
    1c06:	c7 01       	movw	r24, r14
    1c08:	df d8       	rcall	.-3650   	; 0xdc8 <uECC_vli_modSub>
    1c0a:	f6 01       	movw	r30, r12
    1c0c:	20 81       	ld	r18, Z
    1c0e:	a7 01       	movw	r20, r14
    1c10:	b2 01       	movw	r22, r4
    1c12:	ce 01       	movw	r24, r28
    1c14:	01 96       	adiw	r24, 0x01	; 1
    1c16:	0e 94 03 06 	call	0xc06	; 0xc06 <uECC_vli_mult>
    1c1a:	d1 01       	movw	r26, r2
    1c1c:	ed 91       	ld	r30, X+
    1c1e:	fc 91       	ld	r31, X
    1c20:	be 01       	movw	r22, r28
    1c22:	6f 5f       	subi	r22, 0xFF	; 255
    1c24:	7f 4f       	sbci	r23, 0xFF	; 255
    1c26:	c2 01       	movw	r24, r4
    1c28:	09 95       	icall
    1c2a:	94 01       	movw	r18, r8
    1c2c:	ae 01       	movw	r20, r28
    1c2e:	4f 5b       	subi	r20, 0xBF	; 191
    1c30:	5f 4f       	sbci	r21, 0xFF	; 255
    1c32:	b3 01       	movw	r22, r6
    1c34:	c7 01       	movw	r24, r14
    1c36:	c8 d8       	rcall	.-3696   	; 0xdc8 <uECC_vli_modSub>
    1c38:	f6 01       	movw	r30, r12
    1c3a:	20 81       	ld	r18, Z
    1c3c:	a7 01       	movw	r20, r14
    1c3e:	b5 01       	movw	r22, r10
    1c40:	ce 01       	movw	r24, r28
    1c42:	01 96       	adiw	r24, 0x01	; 1
    1c44:	0e 94 03 06 	call	0xc06	; 0xc06 <uECC_vli_mult>
    1c48:	d1 01       	movw	r26, r2
    1c4a:	ed 91       	ld	r30, X+
    1c4c:	fc 91       	ld	r31, X
    1c4e:	be 01       	movw	r22, r28
    1c50:	6f 5f       	subi	r22, 0xFF	; 255
    1c52:	7f 4f       	sbci	r23, 0xFF	; 255
    1c54:	c5 01       	movw	r24, r10
    1c56:	09 95       	icall
    1c58:	94 01       	movw	r18, r8
    1c5a:	a2 01       	movw	r20, r4
    1c5c:	b5 01       	movw	r22, r10
    1c5e:	c5 01       	movw	r24, r10
    1c60:	b3 d8       	rcall	.-3738   	; 0xdc8 <uECC_vli_modSub>
    1c62:	41 2f       	mov	r20, r17
    1c64:	be 01       	movw	r22, r28
    1c66:	6f 5b       	subi	r22, 0xBF	; 191
    1c68:	7f 4f       	sbci	r23, 0xFF	; 255
    1c6a:	c7 01       	movw	r24, r14
    1c6c:	0e 94 a5 03 	call	0x74a	; 0x74a <uECC_vli_set>
    1c70:	c0 5a       	subi	r28, 0xA0	; 160
    1c72:	df 4f       	sbci	r29, 0xFF	; 255
    1c74:	0f b6       	in	r0, 0x3f	; 63
    1c76:	f8 94       	cli
    1c78:	de bf       	out	0x3e, r29	; 62
    1c7a:	0f be       	out	0x3f, r0	; 63
    1c7c:	cd bf       	out	0x3d, r28	; 61
    1c7e:	df 91       	pop	r29
    1c80:	cf 91       	pop	r28
    1c82:	1f 91       	pop	r17
    1c84:	0f 91       	pop	r16
    1c86:	ff 90       	pop	r15
    1c88:	ef 90       	pop	r14
    1c8a:	df 90       	pop	r13
    1c8c:	cf 90       	pop	r12
    1c8e:	bf 90       	pop	r11
    1c90:	af 90       	pop	r10
    1c92:	9f 90       	pop	r9
    1c94:	8f 90       	pop	r8
    1c96:	7f 90       	pop	r7
    1c98:	6f 90       	pop	r6
    1c9a:	5f 90       	pop	r5
    1c9c:	4f 90       	pop	r4
    1c9e:	3f 90       	pop	r3
    1ca0:	2f 90       	pop	r2
    1ca2:	08 95       	ret

00001ca4 <XYcZ_addC>:
    1ca4:	2f 92       	push	r2
    1ca6:	3f 92       	push	r3
    1ca8:	4f 92       	push	r4
    1caa:	5f 92       	push	r5
    1cac:	6f 92       	push	r6
    1cae:	7f 92       	push	r7
    1cb0:	8f 92       	push	r8
    1cb2:	9f 92       	push	r9
    1cb4:	af 92       	push	r10
    1cb6:	bf 92       	push	r11
    1cb8:	cf 92       	push	r12
    1cba:	df 92       	push	r13
    1cbc:	ef 92       	push	r14
    1cbe:	ff 92       	push	r15
    1cc0:	0f 93       	push	r16
    1cc2:	1f 93       	push	r17
    1cc4:	cf 93       	push	r28
    1cc6:	df 93       	push	r29
    1cc8:	cd b7       	in	r28, 0x3d	; 61
    1cca:	de b7       	in	r29, 0x3e	; 62
    1ccc:	c0 5a       	subi	r28, 0xA0	; 160
    1cce:	d1 09       	sbc	r29, r1
    1cd0:	0f b6       	in	r0, 0x3f	; 63
    1cd2:	f8 94       	cli
    1cd4:	de bf       	out	0x3e, r29	; 62
    1cd6:	0f be       	out	0x3f, r0	; 63
    1cd8:	cd bf       	out	0x3d, r28	; 61
    1cda:	4c 01       	movw	r8, r24
    1cdc:	3b 01       	movw	r6, r22
    1cde:	5a 01       	movw	r10, r20
    1ce0:	69 01       	movw	r12, r18
    1ce2:	28 01       	movw	r4, r16
    1ce4:	d8 01       	movw	r26, r16
    1ce6:	1c 91       	ld	r17, X
    1ce8:	72 01       	movw	r14, r4
    1cea:	b4 e0       	ldi	r27, 0x04	; 4
    1cec:	eb 0e       	add	r14, r27
    1cee:	f1 1c       	adc	r15, r1
    1cf0:	01 2f       	mov	r16, r17
    1cf2:	97 01       	movw	r18, r14
    1cf4:	ac 01       	movw	r20, r24
    1cf6:	b5 01       	movw	r22, r10
    1cf8:	ce 01       	movw	r24, r28
    1cfa:	8f 57       	subi	r24, 0x7F	; 127
    1cfc:	9f 4f       	sbci	r25, 0xFF	; 255
    1cfe:	64 d8       	rcall	.-3896   	; 0xdc8 <uECC_vli_modSub>
    1d00:	f2 01       	movw	r30, r4
    1d02:	20 81       	ld	r18, Z
    1d04:	ae 01       	movw	r20, r28
    1d06:	4f 57       	subi	r20, 0x7F	; 127
    1d08:	5f 4f       	sbci	r21, 0xFF	; 255
    1d0a:	ba 01       	movw	r22, r20
    1d0c:	ce 01       	movw	r24, r28
    1d0e:	01 96       	adiw	r24, 0x01	; 1
    1d10:	0e 94 03 06 	call	0xc06	; 0xc06 <uECC_vli_mult>
    1d14:	12 01       	movw	r2, r4
    1d16:	fa ea       	ldi	r31, 0xAA	; 170
    1d18:	2f 0e       	add	r2, r31
    1d1a:	31 1c       	adc	r3, r1
    1d1c:	d1 01       	movw	r26, r2
    1d1e:	ed 91       	ld	r30, X+
    1d20:	fc 91       	ld	r31, X
    1d22:	be 01       	movw	r22, r28
    1d24:	6f 5f       	subi	r22, 0xFF	; 255
    1d26:	7f 4f       	sbci	r23, 0xFF	; 255
    1d28:	ce 01       	movw	r24, r28
    1d2a:	8f 57       	subi	r24, 0x7F	; 127
    1d2c:	9f 4f       	sbci	r25, 0xFF	; 255
    1d2e:	09 95       	icall
    1d30:	f2 01       	movw	r30, r4
    1d32:	20 81       	ld	r18, Z
    1d34:	ae 01       	movw	r20, r28
    1d36:	4f 57       	subi	r20, 0x7F	; 127
    1d38:	5f 4f       	sbci	r21, 0xFF	; 255
    1d3a:	b4 01       	movw	r22, r8
    1d3c:	ce 01       	movw	r24, r28
    1d3e:	01 96       	adiw	r24, 0x01	; 1
    1d40:	0e 94 03 06 	call	0xc06	; 0xc06 <uECC_vli_mult>
    1d44:	d1 01       	movw	r26, r2
    1d46:	ed 91       	ld	r30, X+
    1d48:	fc 91       	ld	r31, X
    1d4a:	be 01       	movw	r22, r28
    1d4c:	6f 5f       	subi	r22, 0xFF	; 255
    1d4e:	7f 4f       	sbci	r23, 0xFF	; 255
    1d50:	c4 01       	movw	r24, r8
    1d52:	09 95       	icall
    1d54:	f2 01       	movw	r30, r4
    1d56:	20 81       	ld	r18, Z
    1d58:	ae 01       	movw	r20, r28
    1d5a:	4f 57       	subi	r20, 0x7F	; 127
    1d5c:	5f 4f       	sbci	r21, 0xFF	; 255
    1d5e:	b5 01       	movw	r22, r10
    1d60:	ce 01       	movw	r24, r28
    1d62:	01 96       	adiw	r24, 0x01	; 1
    1d64:	0e 94 03 06 	call	0xc06	; 0xc06 <uECC_vli_mult>
    1d68:	d1 01       	movw	r26, r2
    1d6a:	ed 91       	ld	r30, X+
    1d6c:	fc 91       	ld	r31, X
    1d6e:	be 01       	movw	r22, r28
    1d70:	6f 5f       	subi	r22, 0xFF	; 255
    1d72:	7f 4f       	sbci	r23, 0xFF	; 255
    1d74:	c5 01       	movw	r24, r10
    1d76:	09 95       	icall
    1d78:	97 01       	movw	r18, r14
    1d7a:	a3 01       	movw	r20, r6
    1d7c:	b6 01       	movw	r22, r12
    1d7e:	ce 01       	movw	r24, r28
    1d80:	8f 57       	subi	r24, 0x7F	; 127
    1d82:	9f 4f       	sbci	r25, 0xFF	; 255
    1d84:	0e 94 b2 06 	call	0xd64	; 0xd64 <uECC_vli_modAdd>
    1d88:	97 01       	movw	r18, r14
    1d8a:	a3 01       	movw	r20, r6
    1d8c:	b6 01       	movw	r22, r12
    1d8e:	c6 01       	movw	r24, r12
    1d90:	1b d8       	rcall	.-4042   	; 0xdc8 <uECC_vli_modSub>
    1d92:	97 01       	movw	r18, r14
    1d94:	a4 01       	movw	r20, r8
    1d96:	b5 01       	movw	r22, r10
    1d98:	ce 01       	movw	r24, r28
    1d9a:	8f 59       	subi	r24, 0x9F	; 159
    1d9c:	9f 4f       	sbci	r25, 0xFF	; 255
    1d9e:	14 d8       	rcall	.-4056   	; 0xdc8 <uECC_vli_modSub>
    1da0:	f2 01       	movw	r30, r4
    1da2:	20 81       	ld	r18, Z
    1da4:	ae 01       	movw	r20, r28
    1da6:	4f 59       	subi	r20, 0x9F	; 159
    1da8:	5f 4f       	sbci	r21, 0xFF	; 255
    1daa:	b3 01       	movw	r22, r6
    1dac:	ce 01       	movw	r24, r28
    1dae:	01 96       	adiw	r24, 0x01	; 1
    1db0:	0e 94 03 06 	call	0xc06	; 0xc06 <uECC_vli_mult>
    1db4:	d1 01       	movw	r26, r2
    1db6:	ed 91       	ld	r30, X+
    1db8:	fc 91       	ld	r31, X
    1dba:	be 01       	movw	r22, r28
    1dbc:	6f 5f       	subi	r22, 0xFF	; 255
    1dbe:	7f 4f       	sbci	r23, 0xFF	; 255
    1dc0:	c3 01       	movw	r24, r6
    1dc2:	09 95       	icall
    1dc4:	97 01       	movw	r18, r14
    1dc6:	a5 01       	movw	r20, r10
    1dc8:	b4 01       	movw	r22, r8
    1dca:	ce 01       	movw	r24, r28
    1dcc:	8f 59       	subi	r24, 0x9F	; 159
    1dce:	9f 4f       	sbci	r25, 0xFF	; 255
    1dd0:	0e 94 b2 06 	call	0xd64	; 0xd64 <uECC_vli_modAdd>
    1dd4:	f2 01       	movw	r30, r4
    1dd6:	20 81       	ld	r18, Z
    1dd8:	a6 01       	movw	r20, r12
    1dda:	b6 01       	movw	r22, r12
    1ddc:	ce 01       	movw	r24, r28
    1dde:	01 96       	adiw	r24, 0x01	; 1
    1de0:	0e 94 03 06 	call	0xc06	; 0xc06 <uECC_vli_mult>
    1de4:	d1 01       	movw	r26, r2
    1de6:	ed 91       	ld	r30, X+
    1de8:	fc 91       	ld	r31, X
    1dea:	be 01       	movw	r22, r28
    1dec:	6f 5f       	subi	r22, 0xFF	; 255
    1dee:	7f 4f       	sbci	r23, 0xFF	; 255
    1df0:	c5 01       	movw	r24, r10
    1df2:	09 95       	icall
    1df4:	97 01       	movw	r18, r14
    1df6:	ae 01       	movw	r20, r28
    1df8:	4f 59       	subi	r20, 0x9F	; 159
    1dfa:	5f 4f       	sbci	r21, 0xFF	; 255
    1dfc:	b5 01       	movw	r22, r10
    1dfe:	c5 01       	movw	r24, r10
    1e00:	0e 94 e4 06 	call	0xdc8	; 0xdc8 <uECC_vli_modSub>
    1e04:	97 01       	movw	r18, r14
    1e06:	a5 01       	movw	r20, r10
    1e08:	b4 01       	movw	r22, r8
    1e0a:	ce 01       	movw	r24, r28
    1e0c:	8f 5b       	subi	r24, 0xBF	; 191
    1e0e:	9f 4f       	sbci	r25, 0xFF	; 255
    1e10:	0e 94 e4 06 	call	0xdc8	; 0xdc8 <uECC_vli_modSub>
    1e14:	f2 01       	movw	r30, r4
    1e16:	20 81       	ld	r18, Z
    1e18:	ae 01       	movw	r20, r28
    1e1a:	4f 5b       	subi	r20, 0xBF	; 191
    1e1c:	5f 4f       	sbci	r21, 0xFF	; 255
    1e1e:	b6 01       	movw	r22, r12
    1e20:	ce 01       	movw	r24, r28
    1e22:	01 96       	adiw	r24, 0x01	; 1
    1e24:	0e 94 03 06 	call	0xc06	; 0xc06 <uECC_vli_mult>
    1e28:	d1 01       	movw	r26, r2
    1e2a:	ed 91       	ld	r30, X+
    1e2c:	fc 91       	ld	r31, X
    1e2e:	be 01       	movw	r22, r28
    1e30:	6f 5f       	subi	r22, 0xFF	; 255
    1e32:	7f 4f       	sbci	r23, 0xFF	; 255
    1e34:	c6 01       	movw	r24, r12
    1e36:	09 95       	icall
    1e38:	97 01       	movw	r18, r14
    1e3a:	a3 01       	movw	r20, r6
    1e3c:	b6 01       	movw	r22, r12
    1e3e:	c6 01       	movw	r24, r12
    1e40:	0e 94 e4 06 	call	0xdc8	; 0xdc8 <uECC_vli_modSub>
    1e44:	f2 01       	movw	r30, r4
    1e46:	20 81       	ld	r18, Z
    1e48:	ae 01       	movw	r20, r28
    1e4a:	4f 57       	subi	r20, 0x7F	; 127
    1e4c:	5f 4f       	sbci	r21, 0xFF	; 255
    1e4e:	ba 01       	movw	r22, r20
    1e50:	ce 01       	movw	r24, r28
    1e52:	01 96       	adiw	r24, 0x01	; 1
    1e54:	0e 94 03 06 	call	0xc06	; 0xc06 <uECC_vli_mult>
    1e58:	d1 01       	movw	r26, r2
    1e5a:	ed 91       	ld	r30, X+
    1e5c:	fc 91       	ld	r31, X
    1e5e:	be 01       	movw	r22, r28
    1e60:	6f 5f       	subi	r22, 0xFF	; 255
    1e62:	7f 4f       	sbci	r23, 0xFF	; 255
    1e64:	ce 01       	movw	r24, r28
    1e66:	8f 5b       	subi	r24, 0xBF	; 191
    1e68:	9f 4f       	sbci	r25, 0xFF	; 255
    1e6a:	09 95       	icall
    1e6c:	97 01       	movw	r18, r14
    1e6e:	ae 01       	movw	r20, r28
    1e70:	4f 59       	subi	r20, 0x9F	; 159
    1e72:	5f 4f       	sbci	r21, 0xFF	; 255
    1e74:	be 01       	movw	r22, r28
    1e76:	6f 5b       	subi	r22, 0xBF	; 191
    1e78:	7f 4f       	sbci	r23, 0xFF	; 255
    1e7a:	cb 01       	movw	r24, r22
    1e7c:	0e 94 e4 06 	call	0xdc8	; 0xdc8 <uECC_vli_modSub>
    1e80:	97 01       	movw	r18, r14
    1e82:	a4 01       	movw	r20, r8
    1e84:	be 01       	movw	r22, r28
    1e86:	6f 5b       	subi	r22, 0xBF	; 191
    1e88:	7f 4f       	sbci	r23, 0xFF	; 255
    1e8a:	ce 01       	movw	r24, r28
    1e8c:	8f 59       	subi	r24, 0x9F	; 159
    1e8e:	9f 4f       	sbci	r25, 0xFF	; 255
    1e90:	0e 94 e4 06 	call	0xdc8	; 0xdc8 <uECC_vli_modSub>
    1e94:	f2 01       	movw	r30, r4
    1e96:	20 81       	ld	r18, Z
    1e98:	ae 01       	movw	r20, r28
    1e9a:	4f 57       	subi	r20, 0x7F	; 127
    1e9c:	5f 4f       	sbci	r21, 0xFF	; 255
    1e9e:	be 01       	movw	r22, r28
    1ea0:	6f 59       	subi	r22, 0x9F	; 159
    1ea2:	7f 4f       	sbci	r23, 0xFF	; 255
    1ea4:	ce 01       	movw	r24, r28
    1ea6:	01 96       	adiw	r24, 0x01	; 1
    1ea8:	0e 94 03 06 	call	0xc06	; 0xc06 <uECC_vli_mult>
    1eac:	d1 01       	movw	r26, r2
    1eae:	ed 91       	ld	r30, X+
    1eb0:	fc 91       	ld	r31, X
    1eb2:	be 01       	movw	r22, r28
    1eb4:	6f 5f       	subi	r22, 0xFF	; 255
    1eb6:	7f 4f       	sbci	r23, 0xFF	; 255
    1eb8:	ce 01       	movw	r24, r28
    1eba:	8f 59       	subi	r24, 0x9F	; 159
    1ebc:	9f 4f       	sbci	r25, 0xFF	; 255
    1ebe:	09 95       	icall
    1ec0:	97 01       	movw	r18, r14
    1ec2:	a3 01       	movw	r20, r6
    1ec4:	be 01       	movw	r22, r28
    1ec6:	6f 59       	subi	r22, 0x9F	; 159
    1ec8:	7f 4f       	sbci	r23, 0xFF	; 255
    1eca:	c3 01       	movw	r24, r6
    1ecc:	0e 94 e4 06 	call	0xdc8	; 0xdc8 <uECC_vli_modSub>
    1ed0:	41 2f       	mov	r20, r17
    1ed2:	be 01       	movw	r22, r28
    1ed4:	6f 5b       	subi	r22, 0xBF	; 191
    1ed6:	7f 4f       	sbci	r23, 0xFF	; 255
    1ed8:	c4 01       	movw	r24, r8
    1eda:	0e 94 a5 03 	call	0x74a	; 0x74a <uECC_vli_set>
    1ede:	c0 56       	subi	r28, 0x60	; 96
    1ee0:	df 4f       	sbci	r29, 0xFF	; 255
    1ee2:	0f b6       	in	r0, 0x3f	; 63
    1ee4:	f8 94       	cli
    1ee6:	de bf       	out	0x3e, r29	; 62
    1ee8:	0f be       	out	0x3f, r0	; 63
    1eea:	cd bf       	out	0x3d, r28	; 61
    1eec:	df 91       	pop	r29
    1eee:	cf 91       	pop	r28
    1ef0:	1f 91       	pop	r17
    1ef2:	0f 91       	pop	r16
    1ef4:	ff 90       	pop	r15
    1ef6:	ef 90       	pop	r14
    1ef8:	df 90       	pop	r13
    1efa:	cf 90       	pop	r12
    1efc:	bf 90       	pop	r11
    1efe:	af 90       	pop	r10
    1f00:	9f 90       	pop	r9
    1f02:	8f 90       	pop	r8
    1f04:	7f 90       	pop	r7
    1f06:	6f 90       	pop	r6
    1f08:	5f 90       	pop	r5
    1f0a:	4f 90       	pop	r4
    1f0c:	3f 90       	pop	r3
    1f0e:	2f 90       	pop	r2
    1f10:	08 95       	ret

00001f12 <regularize_k>:
    1f12:	9f 92       	push	r9
    1f14:	af 92       	push	r10
    1f16:	bf 92       	push	r11
    1f18:	cf 92       	push	r12
    1f1a:	df 92       	push	r13
    1f1c:	ef 92       	push	r14
    1f1e:	ff 92       	push	r15
    1f20:	0f 93       	push	r16
    1f22:	1f 93       	push	r17
    1f24:	cf 93       	push	r28
    1f26:	df 93       	push	r29
    1f28:	6b 01       	movw	r12, r22
    1f2a:	5a 01       	movw	r10, r20
    1f2c:	f9 01       	movw	r30, r18
    1f2e:	e2 80       	ldd	r14, Z+2	; 0x02
    1f30:	f3 80       	ldd	r15, Z+3	; 0x03
    1f32:	e7 01       	movw	r28, r14
    1f34:	27 96       	adiw	r28, 0x07	; 7
    1f36:	d7 fd       	sbrc	r29, 7
    1f38:	47 c0       	rjmp	.+142    	; 0x1fc8 <regularize_k+0xb6>
    1f3a:	d5 95       	asr	r29
    1f3c:	c7 95       	ror	r28
    1f3e:	d5 95       	asr	r29
    1f40:	c7 95       	ror	r28
    1f42:	d5 95       	asr	r29
    1f44:	c7 95       	ror	r28
    1f46:	89 01       	movw	r16, r18
    1f48:	0c 5d       	subi	r16, 0xDC	; 220
    1f4a:	1f 4f       	sbci	r17, 0xFF	; 255
    1f4c:	2c 2f       	mov	r18, r28
    1f4e:	a8 01       	movw	r20, r16
    1f50:	bc 01       	movw	r22, r24
    1f52:	c6 01       	movw	r24, r12
    1f54:	0e 94 61 04 	call	0x8c2	; 0x8c2 <uECC_vli_add>
    1f58:	98 2e       	mov	r9, r24
    1f5a:	81 11       	cpse	r24, r1
    1f5c:	32 c0       	rjmp	.+100    	; 0x1fc2 <regularize_k+0xb0>
    1f5e:	28 e0       	ldi	r18, 0x08	; 8
    1f60:	c2 02       	muls	r28, r18
    1f62:	c0 01       	movw	r24, r0
    1f64:	11 24       	eor	r1, r1
    1f66:	e8 16       	cp	r14, r24
    1f68:	f9 06       	cpc	r15, r25
    1f6a:	c4 f4       	brge	.+48     	; 0x1f9c <regularize_k+0x8a>
    1f6c:	f7 01       	movw	r30, r14
    1f6e:	f5 95       	asr	r31
    1f70:	e7 95       	ror	r30
    1f72:	f5 95       	asr	r31
    1f74:	e7 95       	ror	r30
    1f76:	f5 95       	asr	r31
    1f78:	e7 95       	ror	r30
    1f7a:	ec 0d       	add	r30, r12
    1f7c:	fd 1d       	adc	r31, r13
    1f7e:	37 e0       	ldi	r19, 0x07	; 7
    1f80:	e3 22       	and	r14, r19
    1f82:	ff 24       	eor	r15, r15
    1f84:	81 e0       	ldi	r24, 0x01	; 1
    1f86:	90 e0       	ldi	r25, 0x00	; 0
    1f88:	01 c0       	rjmp	.+2      	; 0x1f8c <regularize_k+0x7a>
    1f8a:	88 0f       	add	r24, r24
    1f8c:	ea 94       	dec	r14
    1f8e:	ea f7       	brpl	.-6      	; 0x1f8a <regularize_k+0x78>
    1f90:	90 81       	ld	r25, Z
    1f92:	89 23       	and	r24, r25
    1f94:	99 24       	eor	r9, r9
    1f96:	93 94       	inc	r9
    1f98:	88 23       	and	r24, r24
    1f9a:	c1 f0       	breq	.+48     	; 0x1fcc <regularize_k+0xba>
    1f9c:	2c 2f       	mov	r18, r28
    1f9e:	a8 01       	movw	r20, r16
    1fa0:	b6 01       	movw	r22, r12
    1fa2:	c5 01       	movw	r24, r10
    1fa4:	0e 94 61 04 	call	0x8c2	; 0x8c2 <uECC_vli_add>
    1fa8:	89 2d       	mov	r24, r9
    1faa:	df 91       	pop	r29
    1fac:	cf 91       	pop	r28
    1fae:	1f 91       	pop	r17
    1fb0:	0f 91       	pop	r16
    1fb2:	ff 90       	pop	r15
    1fb4:	ef 90       	pop	r14
    1fb6:	df 90       	pop	r13
    1fb8:	cf 90       	pop	r12
    1fba:	bf 90       	pop	r11
    1fbc:	af 90       	pop	r10
    1fbe:	9f 90       	pop	r9
    1fc0:	08 95       	ret
    1fc2:	99 24       	eor	r9, r9
    1fc4:	93 94       	inc	r9
    1fc6:	ea cf       	rjmp	.-44     	; 0x1f9c <regularize_k+0x8a>
    1fc8:	27 96       	adiw	r28, 0x07	; 7
    1fca:	b7 cf       	rjmp	.-146    	; 0x1f3a <regularize_k+0x28>
    1fcc:	91 2c       	mov	r9, r1
    1fce:	e6 cf       	rjmp	.-52     	; 0x1f9c <regularize_k+0x8a>

00001fd0 <uECC_generate_random_int>:
    1fd0:	7f 92       	push	r7
    1fd2:	8f 92       	push	r8
    1fd4:	9f 92       	push	r9
    1fd6:	af 92       	push	r10
    1fd8:	bf 92       	push	r11
    1fda:	cf 92       	push	r12
    1fdc:	df 92       	push	r13
    1fde:	ef 92       	push	r14
    1fe0:	ff 92       	push	r15
    1fe2:	0f 93       	push	r16
    1fe4:	1f 93       	push	r17
    1fe6:	cf 93       	push	r28
    1fe8:	df 93       	push	r29
    1fea:	8c 01       	movw	r16, r24
    1fec:	5b 01       	movw	r10, r22
    1fee:	84 2e       	mov	r8, r20
    1ff0:	64 2f       	mov	r22, r20
    1ff2:	c5 01       	movw	r24, r10
    1ff4:	0e 94 3f 06 	call	0xc7e	; 0xc7e <uECC_vli_numBits>
    1ff8:	e0 91 36 02 	lds	r30, 0x0236	; 0x800236 <__data_end>
    1ffc:	f0 91 37 02 	lds	r31, 0x0237	; 0x800237 <__data_end+0x1>
    2000:	30 97       	sbiw	r30, 0x00	; 0
    2002:	09 f4       	brne	.+2      	; 0x2006 <uECC_generate_random_int+0x36>
    2004:	43 c0       	rjmp	.+134    	; 0x208c <uECC_generate_random_int+0xbc>
    2006:	c8 2c       	mov	r12, r8
    2008:	08 2c       	mov	r0, r8
    200a:	00 0c       	add	r0, r0
    200c:	dd 08       	sbc	r13, r13
    200e:	96 01       	movw	r18, r12
    2010:	22 0f       	add	r18, r18
    2012:	33 1f       	adc	r19, r19
    2014:	22 0f       	add	r18, r18
    2016:	33 1f       	adc	r19, r19
    2018:	22 0f       	add	r18, r18
    201a:	33 1f       	adc	r19, r19
    201c:	28 1b       	sub	r18, r24
    201e:	39 0b       	sbc	r19, r25
    2020:	8f ef       	ldi	r24, 0xFF	; 255
    2022:	90 e0       	ldi	r25, 0x00	; 0
    2024:	02 c0       	rjmp	.+4      	; 0x202a <uECC_generate_random_int+0x5a>
    2026:	95 95       	asr	r25
    2028:	87 95       	ror	r24
    202a:	2a 95       	dec	r18
    202c:	e2 f7       	brpl	.-8      	; 0x2026 <uECC_generate_random_int+0x56>
    202e:	78 2e       	mov	r7, r24
    2030:	50 e4       	ldi	r21, 0x40	; 64
    2032:	95 2e       	mov	r9, r21
    2034:	76 01       	movw	r14, r12
    2036:	81 e0       	ldi	r24, 0x01	; 1
    2038:	e8 1a       	sub	r14, r24
    203a:	f1 08       	sbc	r15, r1
    203c:	e0 0e       	add	r14, r16
    203e:	f1 1e       	adc	r15, r17
    2040:	cf ef       	ldi	r28, 0xFF	; 255
    2042:	c8 0d       	add	r28, r8
    2044:	d0 e0       	ldi	r29, 0x00	; 0
    2046:	21 96       	adiw	r28, 0x01	; 1
    2048:	c0 0f       	add	r28, r16
    204a:	d1 1f       	adc	r29, r17
    204c:	b6 01       	movw	r22, r12
    204e:	c8 01       	movw	r24, r16
    2050:	09 95       	icall
    2052:	89 2b       	or	r24, r25
    2054:	d9 f0       	breq	.+54     	; 0x208c <uECC_generate_random_int+0xbc>
    2056:	f7 01       	movw	r30, r14
    2058:	80 81       	ld	r24, Z
    205a:	87 21       	and	r24, r7
    205c:	80 83       	st	Z, r24
    205e:	18 14       	cp	r1, r8
    2060:	4c f4       	brge	.+18     	; 0x2074 <uECC_generate_random_int+0xa4>
    2062:	f8 01       	movw	r30, r16
    2064:	80 e0       	ldi	r24, 0x00	; 0
    2066:	91 91       	ld	r25, Z+
    2068:	89 2b       	or	r24, r25
    206a:	ec 17       	cp	r30, r28
    206c:	fd 07       	cpc	r31, r29
    206e:	d9 f7       	brne	.-10     	; 0x2066 <uECC_generate_random_int+0x96>
    2070:	81 11       	cpse	r24, r1
    2072:	1c c0       	rjmp	.+56     	; 0x20ac <uECC_generate_random_int+0xdc>
    2074:	9a 94       	dec	r9
    2076:	99 20       	and	r9, r9
    2078:	49 f0       	breq	.+18     	; 0x208c <uECC_generate_random_int+0xbc>
    207a:	e0 91 36 02 	lds	r30, 0x0236	; 0x800236 <__data_end>
    207e:	f0 91 37 02 	lds	r31, 0x0237	; 0x800237 <__data_end+0x1>
    2082:	b6 01       	movw	r22, r12
    2084:	c8 01       	movw	r24, r16
    2086:	09 95       	icall
    2088:	89 2b       	or	r24, r25
    208a:	29 f7       	brne	.-54     	; 0x2056 <uECC_generate_random_int+0x86>
    208c:	80 e0       	ldi	r24, 0x00	; 0
    208e:	90 e0       	ldi	r25, 0x00	; 0
    2090:	df 91       	pop	r29
    2092:	cf 91       	pop	r28
    2094:	1f 91       	pop	r17
    2096:	0f 91       	pop	r16
    2098:	ff 90       	pop	r15
    209a:	ef 90       	pop	r14
    209c:	df 90       	pop	r13
    209e:	cf 90       	pop	r12
    20a0:	bf 90       	pop	r11
    20a2:	af 90       	pop	r10
    20a4:	9f 90       	pop	r9
    20a6:	8f 90       	pop	r8
    20a8:	7f 90       	pop	r7
    20aa:	08 95       	ret
    20ac:	48 2d       	mov	r20, r8
    20ae:	b8 01       	movw	r22, r16
    20b0:	c5 01       	movw	r24, r10
    20b2:	0e 94 7a 06 	call	0xcf4	; 0xcf4 <uECC_vli_cmp>
    20b6:	81 30       	cpi	r24, 0x01	; 1
    20b8:	e9 f6       	brne	.-70     	; 0x2074 <uECC_generate_random_int+0xa4>
    20ba:	81 e0       	ldi	r24, 0x01	; 1
    20bc:	90 e0       	ldi	r25, 0x00	; 0
    20be:	e8 cf       	rjmp	.-48     	; 0x2090 <uECC_generate_random_int+0xc0>

000020c0 <bits2int>:
    20c0:	8f 92       	push	r8
    20c2:	9f 92       	push	r9
    20c4:	af 92       	push	r10
    20c6:	bf 92       	push	r11
    20c8:	cf 92       	push	r12
    20ca:	df 92       	push	r13
    20cc:	ef 92       	push	r14
    20ce:	ff 92       	push	r15
    20d0:	0f 93       	push	r16
    20d2:	1f 93       	push	r17
    20d4:	cf 93       	push	r28
    20d6:	df 93       	push	r29
    20d8:	8c 01       	movw	r16, r24
    20da:	4b 01       	movw	r8, r22
    20dc:	69 01       	movw	r12, r18
    20de:	f9 01       	movw	r30, r18
    20e0:	82 81       	ldd	r24, Z+2	; 0x02
    20e2:	93 81       	ldd	r25, Z+3	; 0x03
    20e4:	5c 01       	movw	r10, r24
    20e6:	f7 e0       	ldi	r31, 0x07	; 7
    20e8:	af 0e       	add	r10, r31
    20ea:	b1 1c       	adc	r11, r1
    20ec:	b7 fc       	sbrc	r11, 7
    20ee:	a5 c0       	rjmp	.+330    	; 0x223a <bits2int+0x17a>
    20f0:	b5 94       	asr	r11
    20f2:	a7 94       	ror	r10
    20f4:	b5 94       	asr	r11
    20f6:	a7 94       	ror	r10
    20f8:	b5 94       	asr	r11
    20fa:	a7 94       	ror	r10
    20fc:	ca 2d       	mov	r28, r10
    20fe:	db 2d       	mov	r29, r11
    2100:	7e 01       	movw	r14, r28
    2102:	4c 17       	cp	r20, r28
    2104:	5d 07       	cpc	r21, r29
    2106:	08 f4       	brcc	.+2      	; 0x210a <bits2int+0x4a>
    2108:	7a 01       	movw	r14, r20
    210a:	6a 2d       	mov	r22, r10
    210c:	c8 01       	movw	r24, r16
    210e:	0e 94 7e 03 	call	0x6fc	; 0x6fc <uECC_vli_clear>
    2112:	1e 14       	cp	r1, r14
    2114:	1f 04       	cpc	r1, r15
    2116:	dc f4       	brge	.+54     	; 0x214e <bits2int+0x8e>
    2118:	97 01       	movw	r18, r14
    211a:	21 50       	subi	r18, 0x01	; 1
    211c:	31 09       	sbc	r19, r1
    211e:	60 e0       	ldi	r22, 0x00	; 0
    2120:	70 e0       	ldi	r23, 0x00	; 0
    2122:	40 e0       	ldi	r20, 0x00	; 0
    2124:	80 e0       	ldi	r24, 0x00	; 0
    2126:	90 e0       	ldi	r25, 0x00	; 0
    2128:	f9 01       	movw	r30, r18
    212a:	e6 1b       	sub	r30, r22
    212c:	f7 0b       	sbc	r31, r23
    212e:	e8 0d       	add	r30, r8
    2130:	f9 1d       	adc	r31, r9
    2132:	50 81       	ld	r21, Z
    2134:	f8 01       	movw	r30, r16
    2136:	e8 0f       	add	r30, r24
    2138:	f9 1f       	adc	r31, r25
    213a:	50 83       	st	Z, r21
    213c:	4f 5f       	subi	r20, 0xFF	; 255
    213e:	84 2f       	mov	r24, r20
    2140:	04 2e       	mov	r0, r20
    2142:	00 0c       	add	r0, r0
    2144:	99 0b       	sbc	r25, r25
    2146:	bc 01       	movw	r22, r24
    2148:	8e 15       	cp	r24, r14
    214a:	9f 05       	cpc	r25, r15
    214c:	6c f3       	brlt	.-38     	; 0x2128 <bits2int+0x68>
    214e:	ee 0c       	add	r14, r14
    2150:	ff 1c       	adc	r15, r15
    2152:	ee 0c       	add	r14, r14
    2154:	ff 1c       	adc	r15, r15
    2156:	ee 0c       	add	r14, r14
    2158:	ff 1c       	adc	r15, r15
    215a:	f6 01       	movw	r30, r12
    215c:	82 81       	ldd	r24, Z+2	; 0x02
    215e:	93 81       	ldd	r25, Z+3	; 0x03
    2160:	8e 15       	cp	r24, r14
    2162:	9f 05       	cpc	r25, r15
    2164:	08 f0       	brcs	.+2      	; 0x2168 <bits2int+0xa8>
    2166:	5c c0       	rjmp	.+184    	; 0x2220 <bits2int+0x160>
    2168:	e8 1a       	sub	r14, r24
    216a:	f9 0a       	sbc	r15, r25
    216c:	c0 0f       	add	r28, r16
    216e:	d1 1f       	adc	r29, r17
    2170:	0c 17       	cp	r16, r28
    2172:	1d 07       	cpc	r17, r29
    2174:	d0 f4       	brcc	.+52     	; 0x21aa <bits2int+0xea>
    2176:	48 e0       	ldi	r20, 0x08	; 8
    2178:	50 e0       	ldi	r21, 0x00	; 0
    217a:	4e 19       	sub	r20, r14
    217c:	5f 09       	sbc	r21, r15
    217e:	60 e0       	ldi	r22, 0x00	; 0
    2180:	9a 91       	ld	r25, -Y
    2182:	89 2f       	mov	r24, r25
    2184:	90 e0       	ldi	r25, 0x00	; 0
    2186:	9c 01       	movw	r18, r24
    2188:	0e 2c       	mov	r0, r14
    218a:	02 c0       	rjmp	.+4      	; 0x2190 <bits2int+0xd0>
    218c:	35 95       	asr	r19
    218e:	27 95       	ror	r18
    2190:	0a 94       	dec	r0
    2192:	e2 f7       	brpl	.-8      	; 0x218c <bits2int+0xcc>
    2194:	26 2b       	or	r18, r22
    2196:	28 83       	st	Y, r18
    2198:	04 2e       	mov	r0, r20
    219a:	01 c0       	rjmp	.+2      	; 0x219e <bits2int+0xde>
    219c:	88 0f       	add	r24, r24
    219e:	0a 94       	dec	r0
    21a0:	ea f7       	brpl	.-6      	; 0x219c <bits2int+0xdc>
    21a2:	68 2f       	mov	r22, r24
    21a4:	c0 17       	cp	r28, r16
    21a6:	d1 07       	cpc	r29, r17
    21a8:	59 f7       	brne	.-42     	; 0x2180 <bits2int+0xc0>
    21aa:	a6 01       	movw	r20, r12
    21ac:	4c 5d       	subi	r20, 0xDC	; 220
    21ae:	5f 4f       	sbci	r21, 0xFF	; 255
    21b0:	2f ef       	ldi	r18, 0xFF	; 255
    21b2:	2a 0d       	add	r18, r10
    21b4:	27 fd       	sbrc	r18, 7
    21b6:	23 c0       	rjmp	.+70     	; 0x21fe <bits2int+0x13e>
    21b8:	82 2f       	mov	r24, r18
    21ba:	02 2e       	mov	r0, r18
    21bc:	00 0c       	add	r0, r0
    21be:	99 0b       	sbc	r25, r25
    21c0:	fa 01       	movw	r30, r20
    21c2:	e8 0f       	add	r30, r24
    21c4:	f9 1f       	adc	r31, r25
    21c6:	30 81       	ld	r19, Z
    21c8:	f8 01       	movw	r30, r16
    21ca:	e8 0f       	add	r30, r24
    21cc:	f9 1f       	adc	r31, r25
    21ce:	80 81       	ld	r24, Z
    21d0:	83 17       	cp	r24, r19
    21d2:	30 f1       	brcs	.+76     	; 0x2220 <bits2int+0x160>
    21d4:	38 17       	cp	r19, r24
    21d6:	88 f4       	brcc	.+34     	; 0x21fa <bits2int+0x13a>
    21d8:	12 c0       	rjmp	.+36     	; 0x21fe <bits2int+0x13e>
    21da:	82 2f       	mov	r24, r18
    21dc:	02 2e       	mov	r0, r18
    21de:	00 0c       	add	r0, r0
    21e0:	99 0b       	sbc	r25, r25
    21e2:	fa 01       	movw	r30, r20
    21e4:	e8 0f       	add	r30, r24
    21e6:	f9 1f       	adc	r31, r25
    21e8:	30 81       	ld	r19, Z
    21ea:	f8 01       	movw	r30, r16
    21ec:	e8 0f       	add	r30, r24
    21ee:	f9 1f       	adc	r31, r25
    21f0:	80 81       	ld	r24, Z
    21f2:	83 17       	cp	r24, r19
    21f4:	a8 f0       	brcs	.+42     	; 0x2220 <bits2int+0x160>
    21f6:	38 17       	cp	r19, r24
    21f8:	10 f0       	brcs	.+4      	; 0x21fe <bits2int+0x13e>
    21fa:	21 50       	subi	r18, 0x01	; 1
    21fc:	70 f7       	brcc	.-36     	; 0x21da <bits2int+0x11a>
    21fe:	2a 2d       	mov	r18, r10
    2200:	b8 01       	movw	r22, r16
    2202:	c8 01       	movw	r24, r16
    2204:	df 91       	pop	r29
    2206:	cf 91       	pop	r28
    2208:	1f 91       	pop	r17
    220a:	0f 91       	pop	r16
    220c:	ff 90       	pop	r15
    220e:	ef 90       	pop	r14
    2210:	df 90       	pop	r13
    2212:	cf 90       	pop	r12
    2214:	bf 90       	pop	r11
    2216:	af 90       	pop	r10
    2218:	9f 90       	pop	r9
    221a:	8f 90       	pop	r8
    221c:	0c 94 32 05 	jmp	0xa64	; 0xa64 <uECC_vli_sub>
    2220:	df 91       	pop	r29
    2222:	cf 91       	pop	r28
    2224:	1f 91       	pop	r17
    2226:	0f 91       	pop	r16
    2228:	ff 90       	pop	r15
    222a:	ef 90       	pop	r14
    222c:	df 90       	pop	r13
    222e:	cf 90       	pop	r12
    2230:	bf 90       	pop	r11
    2232:	af 90       	pop	r10
    2234:	9f 90       	pop	r9
    2236:	8f 90       	pop	r8
    2238:	08 95       	ret
    223a:	5c 01       	movw	r10, r24
    223c:	2e e0       	ldi	r18, 0x0E	; 14
    223e:	a2 0e       	add	r10, r18
    2240:	b1 1c       	adc	r11, r1
    2242:	56 cf       	rjmp	.-340    	; 0x20f0 <bits2int+0x30>

00002244 <vli_modInv_update>:
    2244:	0f 93       	push	r16
    2246:	1f 93       	push	r17
    2248:	cf 93       	push	r28
    224a:	df 93       	push	r29
    224c:	fc 01       	movw	r30, r24
    224e:	20 81       	ld	r18, Z
    2250:	20 fd       	sbrc	r18, 0
    2252:	07 c0       	rjmp	.+14     	; 0x2262 <vli_modInv_update+0x1e>
    2254:	64 2f       	mov	r22, r20
    2256:	df 91       	pop	r29
    2258:	cf 91       	pop	r28
    225a:	1f 91       	pop	r17
    225c:	0f 91       	pop	r16
    225e:	0c 94 f2 03 	jmp	0x7e4	; 0x7e4 <uECC_vli_rshift1>
    2262:	c4 2f       	mov	r28, r20
    2264:	ab 01       	movw	r20, r22
    2266:	8c 01       	movw	r16, r24
    2268:	2c 2f       	mov	r18, r28
    226a:	bc 01       	movw	r22, r24
    226c:	0e 94 61 04 	call	0x8c2	; 0x8c2 <uECC_vli_add>
    2270:	d8 2f       	mov	r29, r24
    2272:	6c 2f       	mov	r22, r28
    2274:	c8 01       	movw	r24, r16
    2276:	0e 94 f2 03 	call	0x7e4	; 0x7e4 <uECC_vli_rshift1>
    227a:	dd 23       	and	r29, r29
    227c:	49 f0       	breq	.+18     	; 0x2290 <vli_modInv_update+0x4c>
    227e:	ec 2f       	mov	r30, r28
    2280:	cc 0f       	add	r28, r28
    2282:	ff 0b       	sbc	r31, r31
    2284:	31 97       	sbiw	r30, 0x01	; 1
    2286:	e0 0f       	add	r30, r16
    2288:	f1 1f       	adc	r31, r17
    228a:	80 81       	ld	r24, Z
    228c:	80 68       	ori	r24, 0x80	; 128
    228e:	80 83       	st	Z, r24
    2290:	df 91       	pop	r29
    2292:	cf 91       	pop	r28
    2294:	1f 91       	pop	r17
    2296:	0f 91       	pop	r16
    2298:	08 95       	ret

0000229a <uECC_vli_modInv>:
    229a:	4f 92       	push	r4
    229c:	5f 92       	push	r5
    229e:	6f 92       	push	r6
    22a0:	7f 92       	push	r7
    22a2:	8f 92       	push	r8
    22a4:	9f 92       	push	r9
    22a6:	af 92       	push	r10
    22a8:	bf 92       	push	r11
    22aa:	cf 92       	push	r12
    22ac:	df 92       	push	r13
    22ae:	ef 92       	push	r14
    22b0:	ff 92       	push	r15
    22b2:	0f 93       	push	r16
    22b4:	1f 93       	push	r17
    22b6:	cf 93       	push	r28
    22b8:	df 93       	push	r29
    22ba:	cd b7       	in	r28, 0x3d	; 61
    22bc:	de b7       	in	r29, 0x3e	; 62
    22be:	c0 58       	subi	r28, 0x80	; 128
    22c0:	d1 09       	sbc	r29, r1
    22c2:	0f b6       	in	r0, 0x3f	; 63
    22c4:	f8 94       	cli
    22c6:	de bf       	out	0x3e, r29	; 62
    22c8:	0f be       	out	0x3f, r0	; 63
    22ca:	cd bf       	out	0x3d, r28	; 61
    22cc:	5c 01       	movw	r10, r24
    22ce:	8a 01       	movw	r16, r20
    22d0:	52 2e       	mov	r5, r18
    22d2:	12 16       	cp	r1, r18
    22d4:	0c f0       	brlt	.+2      	; 0x22d8 <uECC_vli_modInv+0x3e>
    22d6:	3d c1       	rjmp	.+634    	; 0x2552 <uECC_vli_modInv+0x2b8>
    22d8:	fb 01       	movw	r30, r22
    22da:	44 24       	eor	r4, r4
    22dc:	4a 94       	dec	r4
    22de:	42 0e       	add	r4, r18
    22e0:	24 2d       	mov	r18, r4
    22e2:	30 e0       	ldi	r19, 0x00	; 0
    22e4:	2f 5f       	subi	r18, 0xFF	; 255
    22e6:	3f 4f       	sbci	r19, 0xFF	; 255
    22e8:	26 0f       	add	r18, r22
    22ea:	37 1f       	adc	r19, r23
    22ec:	80 e0       	ldi	r24, 0x00	; 0
    22ee:	91 91       	ld	r25, Z+
    22f0:	89 2b       	or	r24, r25
    22f2:	2e 17       	cp	r18, r30
    22f4:	3f 07       	cpc	r19, r31
    22f6:	d9 f7       	brne	.-10     	; 0x22ee <uECC_vli_modInv+0x54>
    22f8:	88 23       	and	r24, r24
    22fa:	09 f4       	brne	.+2      	; 0x22fe <uECC_vli_modInv+0x64>
    22fc:	2a c1       	rjmp	.+596    	; 0x2552 <uECC_vli_modInv+0x2b8>
    22fe:	45 2d       	mov	r20, r5
    2300:	ce 01       	movw	r24, r28
    2302:	8f 59       	subi	r24, 0x9F	; 159
    2304:	9f 4f       	sbci	r25, 0xFF	; 255
    2306:	0e 94 a5 03 	call	0x74a	; 0x74a <uECC_vli_set>
    230a:	45 2d       	mov	r20, r5
    230c:	b8 01       	movw	r22, r16
    230e:	ce 01       	movw	r24, r28
    2310:	8f 5b       	subi	r24, 0xBF	; 191
    2312:	9f 4f       	sbci	r25, 0xFF	; 255
    2314:	0e 94 a5 03 	call	0x74a	; 0x74a <uECC_vli_set>
    2318:	65 2d       	mov	r22, r5
    231a:	ce 01       	movw	r24, r28
    231c:	81 96       	adiw	r24, 0x21	; 33
    231e:	0e 94 7e 03 	call	0x6fc	; 0x6fc <uECC_vli_clear>
    2322:	81 e0       	ldi	r24, 0x01	; 1
    2324:	89 a3       	std	Y+33, r24	; 0x21
    2326:	65 2d       	mov	r22, r5
    2328:	ce 01       	movw	r24, r28
    232a:	01 96       	adiw	r24, 0x01	; 1
    232c:	0e 94 7e 03 	call	0x6fc	; 0x6fc <uECC_vli_clear>
    2330:	64 2c       	mov	r6, r4
    2332:	04 2c       	mov	r0, r4
    2334:	00 0c       	add	r0, r0
    2336:	77 08       	sbc	r7, r7
    2338:	81 e6       	ldi	r24, 0x61	; 97
    233a:	c8 2e       	mov	r12, r24
    233c:	d1 2c       	mov	r13, r1
    233e:	cc 0e       	add	r12, r28
    2340:	dd 1e       	adc	r13, r29
    2342:	c6 0c       	add	r12, r6
    2344:	d7 1c       	adc	r13, r7
    2346:	91 e4       	ldi	r25, 0x41	; 65
    2348:	e9 2e       	mov	r14, r25
    234a:	f1 2c       	mov	r15, r1
    234c:	ec 0e       	add	r14, r28
    234e:	fd 1e       	adc	r15, r29
    2350:	e6 0c       	add	r14, r6
    2352:	f7 1c       	adc	r15, r7
    2354:	88 24       	eor	r8, r8
    2356:	83 94       	inc	r8
    2358:	91 2c       	mov	r9, r1
    235a:	8c 0e       	add	r8, r28
    235c:	9d 1e       	adc	r9, r29
    235e:	86 0c       	add	r8, r6
    2360:	97 1c       	adc	r9, r7
    2362:	81 e2       	ldi	r24, 0x21	; 33
    2364:	90 e0       	ldi	r25, 0x00	; 0
    2366:	8c 0f       	add	r24, r28
    2368:	9d 1f       	adc	r25, r29
    236a:	68 0e       	add	r6, r24
    236c:	79 1e       	adc	r7, r25
    236e:	f6 01       	movw	r30, r12
    2370:	90 81       	ld	r25, Z
    2372:	f7 01       	movw	r30, r14
    2374:	80 81       	ld	r24, Z
    2376:	89 17       	cp	r24, r25
    2378:	e8 f1       	brcs	.+122    	; 0x23f4 <uECC_vli_modInv+0x15a>
    237a:	98 17       	cp	r25, r24
    237c:	08 f4       	brcc	.+2      	; 0x2380 <uECC_vli_modInv+0xe6>
    237e:	8c c0       	rjmp	.+280    	; 0x2498 <uECC_vli_modInv+0x1fe>
    2380:	24 2d       	mov	r18, r4
    2382:	17 c0       	rjmp	.+46     	; 0x23b2 <uECC_vli_modInv+0x118>
    2384:	82 2f       	mov	r24, r18
    2386:	02 2e       	mov	r0, r18
    2388:	00 0c       	add	r0, r0
    238a:	99 0b       	sbc	r25, r25
    238c:	e1 e6       	ldi	r30, 0x61	; 97
    238e:	f0 e0       	ldi	r31, 0x00	; 0
    2390:	ec 0f       	add	r30, r28
    2392:	fd 1f       	adc	r31, r29
    2394:	e8 0f       	add	r30, r24
    2396:	f9 1f       	adc	r31, r25
    2398:	30 81       	ld	r19, Z
    239a:	e1 e4       	ldi	r30, 0x41	; 65
    239c:	f0 e0       	ldi	r31, 0x00	; 0
    239e:	ec 0f       	add	r30, r28
    23a0:	fd 1f       	adc	r31, r29
    23a2:	e8 0f       	add	r30, r24
    23a4:	f9 1f       	adc	r31, r25
    23a6:	80 81       	ld	r24, Z
    23a8:	83 17       	cp	r24, r19
    23aa:	20 f1       	brcs	.+72     	; 0x23f4 <uECC_vli_modInv+0x15a>
    23ac:	38 17       	cp	r19, r24
    23ae:	08 f4       	brcc	.+2      	; 0x23b2 <uECC_vli_modInv+0x118>
    23b0:	73 c0       	rjmp	.+230    	; 0x2498 <uECC_vli_modInv+0x1fe>
    23b2:	21 50       	subi	r18, 0x01	; 1
    23b4:	38 f7       	brcc	.-50     	; 0x2384 <uECC_vli_modInv+0xea>
    23b6:	45 2d       	mov	r20, r5
    23b8:	be 01       	movw	r22, r28
    23ba:	6f 5d       	subi	r22, 0xDF	; 223
    23bc:	7f 4f       	sbci	r23, 0xFF	; 255
    23be:	c5 01       	movw	r24, r10
    23c0:	0e 94 a5 03 	call	0x74a	; 0x74a <uECC_vli_set>
    23c4:	c0 58       	subi	r28, 0x80	; 128
    23c6:	df 4f       	sbci	r29, 0xFF	; 255
    23c8:	0f b6       	in	r0, 0x3f	; 63
    23ca:	f8 94       	cli
    23cc:	de bf       	out	0x3e, r29	; 62
    23ce:	0f be       	out	0x3f, r0	; 63
    23d0:	cd bf       	out	0x3d, r28	; 61
    23d2:	df 91       	pop	r29
    23d4:	cf 91       	pop	r28
    23d6:	1f 91       	pop	r17
    23d8:	0f 91       	pop	r16
    23da:	ff 90       	pop	r15
    23dc:	ef 90       	pop	r14
    23de:	df 90       	pop	r13
    23e0:	cf 90       	pop	r12
    23e2:	bf 90       	pop	r11
    23e4:	af 90       	pop	r10
    23e6:	9f 90       	pop	r9
    23e8:	8f 90       	pop	r8
    23ea:	7f 90       	pop	r7
    23ec:	6f 90       	pop	r6
    23ee:	5f 90       	pop	r5
    23f0:	4f 90       	pop	r4
    23f2:	08 95       	ret
    23f4:	91 e0       	ldi	r25, 0x01	; 1
    23f6:	a2 96       	adiw	r28, 0x22	; 34
    23f8:	8f ad       	ldd	r24, Y+63	; 0x3f
    23fa:	a2 97       	sbiw	r28, 0x22	; 34
    23fc:	80 ff       	sbrs	r24, 0
    23fe:	52 c0       	rjmp	.+164    	; 0x24a4 <uECC_vli_modInv+0x20a>
    2400:	22 96       	adiw	r28, 0x02	; 2
    2402:	8f ad       	ldd	r24, Y+63	; 0x3f
    2404:	22 97       	sbiw	r28, 0x02	; 2
    2406:	80 ff       	sbrs	r24, 0
    2408:	54 c0       	rjmp	.+168    	; 0x24b2 <uECC_vli_modInv+0x218>
    240a:	25 2d       	mov	r18, r5
    240c:	ae 01       	movw	r20, r28
    240e:	91 30       	cpi	r25, 0x01	; 1
    2410:	09 f0       	breq	.+2      	; 0x2414 <uECC_vli_modInv+0x17a>
    2412:	5b c0       	rjmp	.+182    	; 0x24ca <uECC_vli_modInv+0x230>
    2414:	4f 5b       	subi	r20, 0xBF	; 191
    2416:	5f 4f       	sbci	r21, 0xFF	; 255
    2418:	be 01       	movw	r22, r28
    241a:	6f 59       	subi	r22, 0x9F	; 159
    241c:	7f 4f       	sbci	r23, 0xFF	; 255
    241e:	cb 01       	movw	r24, r22
    2420:	0e 94 32 05 	call	0xa64	; 0xa64 <uECC_vli_sub>
    2424:	65 2d       	mov	r22, r5
    2426:	ce 01       	movw	r24, r28
    2428:	8f 59       	subi	r24, 0x9F	; 159
    242a:	9f 4f       	sbci	r25, 0xFF	; 255
    242c:	0e 94 f2 03 	call	0x7e4	; 0x7e4 <uECC_vli_rshift1>
    2430:	f3 01       	movw	r30, r6
    2432:	90 81       	ld	r25, Z
    2434:	f4 01       	movw	r30, r8
    2436:	80 81       	ld	r24, Z
    2438:	89 17       	cp	r24, r25
    243a:	f0 f0       	brcs	.+60     	; 0x2478 <uECC_vli_modInv+0x1de>
    243c:	98 17       	cp	r25, r24
    243e:	08 f4       	brcc	.+2      	; 0x2442 <uECC_vli_modInv+0x1a8>
    2440:	7f c0       	rjmp	.+254    	; 0x2540 <uECC_vli_modInv+0x2a6>
    2442:	24 2d       	mov	r18, r4
    2444:	17 c0       	rjmp	.+46     	; 0x2474 <uECC_vli_modInv+0x1da>
    2446:	82 2f       	mov	r24, r18
    2448:	02 2e       	mov	r0, r18
    244a:	00 0c       	add	r0, r0
    244c:	99 0b       	sbc	r25, r25
    244e:	e1 e2       	ldi	r30, 0x21	; 33
    2450:	f0 e0       	ldi	r31, 0x00	; 0
    2452:	ec 0f       	add	r30, r28
    2454:	fd 1f       	adc	r31, r29
    2456:	e8 0f       	add	r30, r24
    2458:	f9 1f       	adc	r31, r25
    245a:	30 81       	ld	r19, Z
    245c:	e1 e0       	ldi	r30, 0x01	; 1
    245e:	f0 e0       	ldi	r31, 0x00	; 0
    2460:	ec 0f       	add	r30, r28
    2462:	fd 1f       	adc	r31, r29
    2464:	e8 0f       	add	r30, r24
    2466:	f9 1f       	adc	r31, r25
    2468:	80 81       	ld	r24, Z
    246a:	83 17       	cp	r24, r19
    246c:	28 f0       	brcs	.+10     	; 0x2478 <uECC_vli_modInv+0x1de>
    246e:	38 17       	cp	r19, r24
    2470:	08 f4       	brcc	.+2      	; 0x2474 <uECC_vli_modInv+0x1da>
    2472:	66 c0       	rjmp	.+204    	; 0x2540 <uECC_vli_modInv+0x2a6>
    2474:	21 50       	subi	r18, 0x01	; 1
    2476:	38 f7       	brcc	.-50     	; 0x2446 <uECC_vli_modInv+0x1ac>
    2478:	25 2d       	mov	r18, r5
    247a:	ae 01       	movw	r20, r28
    247c:	4f 5f       	subi	r20, 0xFF	; 255
    247e:	5f 4f       	sbci	r21, 0xFF	; 255
    2480:	be 01       	movw	r22, r28
    2482:	6f 5d       	subi	r22, 0xDF	; 223
    2484:	7f 4f       	sbci	r23, 0xFF	; 255
    2486:	cb 01       	movw	r24, r22
    2488:	0e 94 32 05 	call	0xa64	; 0xa64 <uECC_vli_sub>
    248c:	45 2d       	mov	r20, r5
    248e:	b8 01       	movw	r22, r16
    2490:	ce 01       	movw	r24, r28
    2492:	81 96       	adiw	r24, 0x21	; 33
    2494:	d7 de       	rcall	.-594    	; 0x2244 <vli_modInv_update>
    2496:	6b cf       	rjmp	.-298    	; 0x236e <uECC_vli_modInv+0xd4>
    2498:	9f ef       	ldi	r25, 0xFF	; 255
    249a:	a2 96       	adiw	r28, 0x22	; 34
    249c:	8f ad       	ldd	r24, Y+63	; 0x3f
    249e:	a2 97       	sbiw	r28, 0x22	; 34
    24a0:	80 fd       	sbrc	r24, 0
    24a2:	ae cf       	rjmp	.-164    	; 0x2400 <uECC_vli_modInv+0x166>
    24a4:	65 2d       	mov	r22, r5
    24a6:	ce 01       	movw	r24, r28
    24a8:	8f 59       	subi	r24, 0x9F	; 159
    24aa:	9f 4f       	sbci	r25, 0xFF	; 255
    24ac:	0e 94 f2 03 	call	0x7e4	; 0x7e4 <uECC_vli_rshift1>
    24b0:	ed cf       	rjmp	.-38     	; 0x248c <uECC_vli_modInv+0x1f2>
    24b2:	65 2d       	mov	r22, r5
    24b4:	ce 01       	movw	r24, r28
    24b6:	8f 5b       	subi	r24, 0xBF	; 191
    24b8:	9f 4f       	sbci	r25, 0xFF	; 255
    24ba:	0e 94 f2 03 	call	0x7e4	; 0x7e4 <uECC_vli_rshift1>
    24be:	45 2d       	mov	r20, r5
    24c0:	b8 01       	movw	r22, r16
    24c2:	ce 01       	movw	r24, r28
    24c4:	01 96       	adiw	r24, 0x01	; 1
    24c6:	be de       	rcall	.-644    	; 0x2244 <vli_modInv_update>
    24c8:	52 cf       	rjmp	.-348    	; 0x236e <uECC_vli_modInv+0xd4>
    24ca:	4f 59       	subi	r20, 0x9F	; 159
    24cc:	5f 4f       	sbci	r21, 0xFF	; 255
    24ce:	be 01       	movw	r22, r28
    24d0:	6f 5b       	subi	r22, 0xBF	; 191
    24d2:	7f 4f       	sbci	r23, 0xFF	; 255
    24d4:	cb 01       	movw	r24, r22
    24d6:	0e 94 32 05 	call	0xa64	; 0xa64 <uECC_vli_sub>
    24da:	65 2d       	mov	r22, r5
    24dc:	ce 01       	movw	r24, r28
    24de:	8f 5b       	subi	r24, 0xBF	; 191
    24e0:	9f 4f       	sbci	r25, 0xFF	; 255
    24e2:	0e 94 f2 03 	call	0x7e4	; 0x7e4 <uECC_vli_rshift1>
    24e6:	f4 01       	movw	r30, r8
    24e8:	80 81       	ld	r24, Z
    24ea:	f3 01       	movw	r30, r6
    24ec:	90 81       	ld	r25, Z
    24ee:	98 17       	cp	r25, r24
    24f0:	e0 f0       	brcs	.+56     	; 0x252a <uECC_vli_modInv+0x290>
    24f2:	89 17       	cp	r24, r25
    24f4:	98 f1       	brcs	.+102    	; 0x255c <uECC_vli_modInv+0x2c2>
    24f6:	24 2d       	mov	r18, r4
    24f8:	16 c0       	rjmp	.+44     	; 0x2526 <uECC_vli_modInv+0x28c>
    24fa:	82 2f       	mov	r24, r18
    24fc:	02 2e       	mov	r0, r18
    24fe:	00 0c       	add	r0, r0
    2500:	99 0b       	sbc	r25, r25
    2502:	e1 e0       	ldi	r30, 0x01	; 1
    2504:	f0 e0       	ldi	r31, 0x00	; 0
    2506:	ec 0f       	add	r30, r28
    2508:	fd 1f       	adc	r31, r29
    250a:	e8 0f       	add	r30, r24
    250c:	f9 1f       	adc	r31, r25
    250e:	30 81       	ld	r19, Z
    2510:	e1 e2       	ldi	r30, 0x21	; 33
    2512:	f0 e0       	ldi	r31, 0x00	; 0
    2514:	ec 0f       	add	r30, r28
    2516:	fd 1f       	adc	r31, r29
    2518:	e8 0f       	add	r30, r24
    251a:	f9 1f       	adc	r31, r25
    251c:	80 81       	ld	r24, Z
    251e:	83 17       	cp	r24, r19
    2520:	20 f0       	brcs	.+8      	; 0x252a <uECC_vli_modInv+0x290>
    2522:	38 17       	cp	r19, r24
    2524:	d8 f0       	brcs	.+54     	; 0x255c <uECC_vli_modInv+0x2c2>
    2526:	21 50       	subi	r18, 0x01	; 1
    2528:	40 f7       	brcc	.-48     	; 0x24fa <uECC_vli_modInv+0x260>
    252a:	25 2d       	mov	r18, r5
    252c:	ae 01       	movw	r20, r28
    252e:	4f 5d       	subi	r20, 0xDF	; 223
    2530:	5f 4f       	sbci	r21, 0xFF	; 255
    2532:	be 01       	movw	r22, r28
    2534:	6f 5f       	subi	r22, 0xFF	; 255
    2536:	7f 4f       	sbci	r23, 0xFF	; 255
    2538:	cb 01       	movw	r24, r22
    253a:	0e 94 32 05 	call	0xa64	; 0xa64 <uECC_vli_sub>
    253e:	bf cf       	rjmp	.-130    	; 0x24be <uECC_vli_modInv+0x224>
    2540:	25 2d       	mov	r18, r5
    2542:	a8 01       	movw	r20, r16
    2544:	be 01       	movw	r22, r28
    2546:	6f 5d       	subi	r22, 0xDF	; 223
    2548:	7f 4f       	sbci	r23, 0xFF	; 255
    254a:	cb 01       	movw	r24, r22
    254c:	0e 94 61 04 	call	0x8c2	; 0x8c2 <uECC_vli_add>
    2550:	93 cf       	rjmp	.-218    	; 0x2478 <uECC_vli_modInv+0x1de>
    2552:	65 2d       	mov	r22, r5
    2554:	c5 01       	movw	r24, r10
    2556:	0e 94 7e 03 	call	0x6fc	; 0x6fc <uECC_vli_clear>
    255a:	34 cf       	rjmp	.-408    	; 0x23c4 <uECC_vli_modInv+0x12a>
    255c:	25 2d       	mov	r18, r5
    255e:	a8 01       	movw	r20, r16
    2560:	be 01       	movw	r22, r28
    2562:	6f 5f       	subi	r22, 0xFF	; 255
    2564:	7f 4f       	sbci	r23, 0xFF	; 255
    2566:	cb 01       	movw	r24, r22
    2568:	0e 94 61 04 	call	0x8c2	; 0x8c2 <uECC_vli_add>
    256c:	de cf       	rjmp	.-68     	; 0x252a <uECC_vli_modInv+0x290>

0000256e <EccPoint_mult>:
    256e:	2f 92       	push	r2
    2570:	3f 92       	push	r3
    2572:	4f 92       	push	r4
    2574:	5f 92       	push	r5
    2576:	6f 92       	push	r6
    2578:	7f 92       	push	r7
    257a:	8f 92       	push	r8
    257c:	9f 92       	push	r9
    257e:	af 92       	push	r10
    2580:	bf 92       	push	r11
    2582:	cf 92       	push	r12
    2584:	df 92       	push	r13
    2586:	ef 92       	push	r14
    2588:	ff 92       	push	r15
    258a:	0f 93       	push	r16
    258c:	1f 93       	push	r17
    258e:	cf 93       	push	r28
    2590:	df 93       	push	r29
    2592:	cd b7       	in	r28, 0x3d	; 61
    2594:	de b7       	in	r29, 0x3e	; 62
    2596:	cf 5e       	subi	r28, 0xEF	; 239
    2598:	d1 09       	sbc	r29, r1
    259a:	0f b6       	in	r0, 0x3f	; 63
    259c:	f8 94       	cli
    259e:	de bf       	out	0x3e, r29	; 62
    25a0:	0f be       	out	0x3f, r0	; 63
    25a2:	cd bf       	out	0x3d, r28	; 61
    25a4:	c2 51       	subi	r28, 0x12	; 18
    25a6:	df 4f       	sbci	r29, 0xFF	; 255
    25a8:	99 83       	std	Y+1, r25	; 0x01
    25aa:	88 83       	st	Y, r24
    25ac:	ce 5e       	subi	r28, 0xEE	; 238
    25ae:	d0 40       	sbci	r29, 0x00	; 0
    25b0:	c8 51       	subi	r28, 0x18	; 24
    25b2:	df 4f       	sbci	r29, 0xFF	; 255
    25b4:	79 83       	std	Y+1, r23	; 0x01
    25b6:	68 83       	st	Y, r22
    25b8:	c8 5e       	subi	r28, 0xE8	; 232
    25ba:	d0 40       	sbci	r29, 0x00	; 0
    25bc:	cd 51       	subi	r28, 0x1D	; 29
    25be:	df 4f       	sbci	r29, 0xFF	; 255
    25c0:	59 83       	std	Y+1, r21	; 0x01
    25c2:	48 83       	st	Y, r20
    25c4:	c3 5e       	subi	r28, 0xE3	; 227
    25c6:	d0 40       	sbci	r29, 0x00	; 0
    25c8:	69 01       	movw	r12, r18
    25ca:	17 01       	movw	r2, r14
    25cc:	d7 01       	movw	r26, r14
    25ce:	bc 91       	ld	r27, X
    25d0:	cb 51       	subi	r28, 0x1B	; 27
    25d2:	df 4f       	sbci	r29, 0xFF	; 255
    25d4:	b8 83       	st	Y, r27
    25d6:	c5 5e       	subi	r28, 0xE5	; 229
    25d8:	d0 40       	sbci	r29, 0x00	; 0
    25da:	4b 2f       	mov	r20, r27
    25dc:	81 e8       	ldi	r24, 0x81	; 129
    25de:	90 e0       	ldi	r25, 0x00	; 0
    25e0:	8c 0f       	add	r24, r28
    25e2:	9d 1f       	adc	r25, r29
    25e4:	80 96       	adiw	r24, 0x20	; 32
    25e6:	0e 94 a5 03 	call	0x74a	; 0x74a <uECC_vli_set>
    25ea:	cb 51       	subi	r28, 0x1B	; 27
    25ec:	df 4f       	sbci	r29, 0xFF	; 255
    25ee:	e8 81       	ld	r30, Y
    25f0:	c5 5e       	subi	r28, 0xE5	; 229
    25f2:	d0 40       	sbci	r29, 0x00	; 0
    25f4:	0e 2e       	mov	r0, r30
    25f6:	00 0c       	add	r0, r0
    25f8:	ff 0b       	sbc	r31, r31
    25fa:	c6 51       	subi	r28, 0x16	; 22
    25fc:	df 4f       	sbci	r29, 0xFF	; 255
    25fe:	f9 83       	std	Y+1, r31	; 0x01
    2600:	e8 83       	st	Y, r30
    2602:	ca 5e       	subi	r28, 0xEA	; 234
    2604:	d0 40       	sbci	r29, 0x00	; 0
    2606:	c8 51       	subi	r28, 0x18	; 24
    2608:	df 4f       	sbci	r29, 0xFF	; 255
    260a:	28 81       	ld	r18, Y
    260c:	39 81       	ldd	r19, Y+1	; 0x01
    260e:	c8 5e       	subi	r28, 0xE8	; 232
    2610:	d0 40       	sbci	r29, 0x00	; 0
    2612:	2e 0f       	add	r18, r30
    2614:	3f 1f       	adc	r19, r31
    2616:	c4 51       	subi	r28, 0x14	; 20
    2618:	df 4f       	sbci	r29, 0xFF	; 255
    261a:	39 83       	std	Y+1, r19	; 0x01
    261c:	28 83       	st	Y, r18
    261e:	cc 5e       	subi	r28, 0xEC	; 236
    2620:	d0 40       	sbci	r29, 0x00	; 0
    2622:	cb 51       	subi	r28, 0x1B	; 27
    2624:	df 4f       	sbci	r29, 0xFF	; 255
    2626:	48 81       	ld	r20, Y
    2628:	c5 5e       	subi	r28, 0xE5	; 229
    262a:	d0 40       	sbci	r29, 0x00	; 0
    262c:	b9 01       	movw	r22, r18
    262e:	81 e4       	ldi	r24, 0x41	; 65
    2630:	90 e0       	ldi	r25, 0x00	; 0
    2632:	8c 0f       	add	r24, r28
    2634:	9d 1f       	adc	r25, r29
    2636:	80 96       	adiw	r24, 0x20	; 32
    2638:	0e 94 a5 03 	call	0x74a	; 0x74a <uECC_vli_set>
    263c:	d7 01       	movw	r26, r14
    263e:	bc 90       	ld	r11, X
    2640:	c1 14       	cp	r12, r1
    2642:	d1 04       	cpc	r13, r1
    2644:	09 f4       	brne	.+2      	; 0x2648 <EccPoint_mult+0xda>
    2646:	fc c1       	rjmp	.+1016   	; 0x2a40 <EccPoint_mult+0x4d2>
    2648:	4b 2d       	mov	r20, r11
    264a:	b6 01       	movw	r22, r12
    264c:	fe 01       	movw	r30, r28
    264e:	31 96       	adiw	r30, 0x01	; 1
    2650:	cf 51       	subi	r28, 0x1F	; 31
    2652:	df 4f       	sbci	r29, 0xFF	; 255
    2654:	f9 83       	std	Y+1, r31	; 0x01
    2656:	e8 83       	st	Y, r30
    2658:	c1 5e       	subi	r28, 0xE1	; 225
    265a:	d0 40       	sbci	r29, 0x00	; 0
    265c:	cf 01       	movw	r24, r30
    265e:	0e 94 a5 03 	call	0x74a	; 0x74a <uECC_vli_set>
    2662:	4b 2d       	mov	r20, r11
    2664:	81 e8       	ldi	r24, 0x81	; 129
    2666:	e8 2e       	mov	r14, r24
    2668:	f1 2c       	mov	r15, r1
    266a:	ec 0e       	add	r14, r28
    266c:	fd 1e       	adc	r15, r29
    266e:	30 e2       	ldi	r19, 0x20	; 32
    2670:	e3 0e       	add	r14, r19
    2672:	f1 1c       	adc	r15, r1
    2674:	b7 01       	movw	r22, r14
    2676:	ce 01       	movw	r24, r28
    2678:	8f 57       	subi	r24, 0x7F	; 127
    267a:	9f 4f       	sbci	r25, 0xFF	; 255
    267c:	0e 94 a5 03 	call	0x74a	; 0x74a <uECC_vli_set>
    2680:	4b 2d       	mov	r20, r11
    2682:	91 e4       	ldi	r25, 0x41	; 65
    2684:	c9 2e       	mov	r12, r25
    2686:	d1 2c       	mov	r13, r1
    2688:	cc 0e       	add	r12, r28
    268a:	dd 1e       	adc	r13, r29
    268c:	80 e2       	ldi	r24, 0x20	; 32
    268e:	c8 0e       	add	r12, r24
    2690:	d1 1c       	adc	r13, r1
    2692:	b6 01       	movw	r22, r12
    2694:	ce 01       	movw	r24, r28
    2696:	8f 5b       	subi	r24, 0xBF	; 191
    2698:	9f 4f       	sbci	r25, 0xFF	; 255
    269a:	0e 94 a5 03 	call	0x74a	; 0x74a <uECC_vli_set>
    269e:	91 01       	movw	r18, r2
    26a0:	cf 51       	subi	r28, 0x1F	; 31
    26a2:	df 4f       	sbci	r29, 0xFF	; 255
    26a4:	48 81       	ld	r20, Y
    26a6:	59 81       	ldd	r21, Y+1	; 0x01
    26a8:	c1 5e       	subi	r28, 0xE1	; 225
    26aa:	d0 40       	sbci	r29, 0x00	; 0
    26ac:	b6 01       	movw	r22, r12
    26ae:	c7 01       	movw	r24, r14
    26b0:	a6 d9       	rcall	.-3252   	; 0x19fe <apply_z>
    26b2:	f1 01       	movw	r30, r2
    26b4:	ec 55       	subi	r30, 0x5C	; 92
    26b6:	ff 4f       	sbci	r31, 0xFF	; 255
    26b8:	01 90       	ld	r0, Z+
    26ba:	f0 81       	ld	r31, Z
    26bc:	e0 2d       	mov	r30, r0
    26be:	91 01       	movw	r18, r2
    26c0:	cf 51       	subi	r28, 0x1F	; 31
    26c2:	df 4f       	sbci	r29, 0xFF	; 255
    26c4:	48 81       	ld	r20, Y
    26c6:	59 81       	ldd	r21, Y+1	; 0x01
    26c8:	c1 5e       	subi	r28, 0xE1	; 225
    26ca:	d0 40       	sbci	r29, 0x00	; 0
    26cc:	b6 01       	movw	r22, r12
    26ce:	c7 01       	movw	r24, r14
    26d0:	09 95       	icall
    26d2:	91 01       	movw	r18, r2
    26d4:	cf 51       	subi	r28, 0x1F	; 31
    26d6:	df 4f       	sbci	r29, 0xFF	; 255
    26d8:	48 81       	ld	r20, Y
    26da:	59 81       	ldd	r21, Y+1	; 0x01
    26dc:	c1 5e       	subi	r28, 0xE1	; 225
    26de:	d0 40       	sbci	r29, 0x00	; 0
    26e0:	be 01       	movw	r22, r28
    26e2:	6f 5b       	subi	r22, 0xBF	; 191
    26e4:	7f 4f       	sbci	r23, 0xFF	; 255
    26e6:	ce 01       	movw	r24, r28
    26e8:	8f 57       	subi	r24, 0x7F	; 127
    26ea:	9f 4f       	sbci	r25, 0xFF	; 255
    26ec:	88 d9       	rcall	.-3312   	; 0x19fe <apply_z>
    26ee:	58 01       	movw	r10, r16
    26f0:	92 e0       	ldi	r25, 0x02	; 2
    26f2:	a9 1a       	sub	r10, r25
    26f4:	b1 08       	sbc	r11, r1
    26f6:	1a 14       	cp	r1, r10
    26f8:	1b 04       	cpc	r1, r11
    26fa:	0c f0       	brlt	.+2      	; 0x26fe <EccPoint_mult+0x190>
    26fc:	5f c0       	rjmp	.+190    	; 0x27bc <EccPoint_mult+0x24e>
    26fe:	44 24       	eor	r4, r4
    2700:	43 94       	inc	r4
    2702:	51 2c       	mov	r5, r1
    2704:	f5 01       	movw	r30, r10
    2706:	f5 95       	asr	r31
    2708:	e7 95       	ror	r30
    270a:	f5 95       	asr	r31
    270c:	e7 95       	ror	r30
    270e:	f5 95       	asr	r31
    2710:	e7 95       	ror	r30
    2712:	cd 51       	subi	r28, 0x1D	; 29
    2714:	df 4f       	sbci	r29, 0xFF	; 255
    2716:	28 81       	ld	r18, Y
    2718:	39 81       	ldd	r19, Y+1	; 0x01
    271a:	c3 5e       	subi	r28, 0xE3	; 227
    271c:	d0 40       	sbci	r29, 0x00	; 0
    271e:	e2 0f       	add	r30, r18
    2720:	f3 1f       	adc	r31, r19
    2722:	c5 01       	movw	r24, r10
    2724:	87 70       	andi	r24, 0x07	; 7
    2726:	99 27       	eor	r25, r25
    2728:	d2 01       	movw	r26, r4
    272a:	02 c0       	rjmp	.+4      	; 0x2730 <EccPoint_mult+0x1c2>
    272c:	aa 0f       	add	r26, r26
    272e:	bb 1f       	adc	r27, r27
    2730:	8a 95       	dec	r24
    2732:	e2 f7       	brpl	.-8      	; 0x272c <EccPoint_mult+0x1be>
    2734:	cd 01       	movw	r24, r26
    2736:	90 81       	ld	r25, Z
    2738:	89 23       	and	r24, r25
    273a:	21 e0       	ldi	r18, 0x01	; 1
    273c:	30 e0       	ldi	r19, 0x00	; 0
    273e:	11 f0       	breq	.+4      	; 0x2744 <EccPoint_mult+0x1d6>
    2740:	20 e0       	ldi	r18, 0x00	; 0
    2742:	30 e0       	ldi	r19, 0x00	; 0
    2744:	39 01       	movw	r6, r18
    2746:	66 0c       	add	r6, r6
    2748:	77 1c       	adc	r7, r7
    274a:	62 94       	swap	r6
    274c:	72 94       	swap	r7
    274e:	80 ef       	ldi	r24, 0xF0	; 240
    2750:	78 22       	and	r7, r24
    2752:	76 24       	eor	r7, r6
    2754:	68 22       	and	r6, r24
    2756:	76 24       	eor	r7, r6
    2758:	91 e4       	ldi	r25, 0x41	; 65
    275a:	c9 2e       	mov	r12, r25
    275c:	d1 2c       	mov	r13, r1
    275e:	cc 0e       	add	r12, r28
    2760:	dd 1e       	adc	r13, r29
    2762:	c6 0c       	add	r12, r6
    2764:	d7 1c       	adc	r13, r7
    2766:	e1 e8       	ldi	r30, 0x81	; 129
    2768:	f0 e0       	ldi	r31, 0x00	; 0
    276a:	ec 0f       	add	r30, r28
    276c:	fd 1f       	adc	r31, r29
    276e:	6e 0e       	add	r6, r30
    2770:	7f 1e       	adc	r7, r31
    2772:	72 01       	movw	r14, r4
    2774:	e2 1a       	sub	r14, r18
    2776:	f3 0a       	sbc	r15, r19
    2778:	ee 0c       	add	r14, r14
    277a:	ff 1c       	adc	r15, r15
    277c:	e2 94       	swap	r14
    277e:	f2 94       	swap	r15
    2780:	20 ef       	ldi	r18, 0xF0	; 240
    2782:	f2 22       	and	r15, r18
    2784:	fe 24       	eor	r15, r14
    2786:	e2 22       	and	r14, r18
    2788:	fe 24       	eor	r15, r14
    278a:	31 e4       	ldi	r19, 0x41	; 65
    278c:	83 2e       	mov	r8, r19
    278e:	91 2c       	mov	r9, r1
    2790:	8c 0e       	add	r8, r28
    2792:	9d 1e       	adc	r9, r29
    2794:	8e 0c       	add	r8, r14
    2796:	9f 1c       	adc	r9, r15
    2798:	ee 0e       	add	r14, r30
    279a:	ff 1e       	adc	r15, r31
    279c:	81 01       	movw	r16, r2
    279e:	96 01       	movw	r18, r12
    27a0:	a3 01       	movw	r20, r6
    27a2:	b4 01       	movw	r22, r8
    27a4:	c7 01       	movw	r24, r14
    27a6:	7e da       	rcall	.-2820   	; 0x1ca4 <XYcZ_addC>
    27a8:	94 01       	movw	r18, r8
    27aa:	a7 01       	movw	r20, r14
    27ac:	b6 01       	movw	r22, r12
    27ae:	c3 01       	movw	r24, r6
    27b0:	9c d9       	rcall	.-3272   	; 0x1aea <XYcZ_add>
    27b2:	f1 e0       	ldi	r31, 0x01	; 1
    27b4:	af 1a       	sub	r10, r31
    27b6:	b1 08       	sbc	r11, r1
    27b8:	09 f0       	breq	.+2      	; 0x27bc <EccPoint_mult+0x24e>
    27ba:	a4 cf       	rjmp	.-184    	; 0x2704 <EccPoint_mult+0x196>
    27bc:	cd 51       	subi	r28, 0x1D	; 29
    27be:	df 4f       	sbci	r29, 0xFF	; 255
    27c0:	a8 81       	ld	r26, Y
    27c2:	b9 81       	ldd	r27, Y+1	; 0x01
    27c4:	c3 5e       	subi	r28, 0xE3	; 227
    27c6:	d0 40       	sbci	r29, 0x00	; 0
    27c8:	8c 91       	ld	r24, X
    27ca:	80 95       	com	r24
    27cc:	81 70       	andi	r24, 0x01	; 1
    27ce:	ca 51       	subi	r28, 0x1A	; 26
    27d0:	df 4f       	sbci	r29, 0xFF	; 255
    27d2:	88 83       	st	Y, r24
    27d4:	c6 5e       	subi	r28, 0xE6	; 230
    27d6:	d0 40       	sbci	r29, 0x00	; 0
    27d8:	c9 51       	subi	r28, 0x19	; 25
    27da:	df 4f       	sbci	r29, 0xFF	; 255
    27dc:	18 82       	st	Y, r1
    27de:	c7 5e       	subi	r28, 0xE7	; 231
    27e0:	d0 40       	sbci	r29, 0x00	; 0
    27e2:	ca 51       	subi	r28, 0x1A	; 26
    27e4:	df 4f       	sbci	r29, 0xFF	; 255
    27e6:	48 80       	ld	r4, Y
    27e8:	59 80       	ldd	r5, Y+1	; 0x01
    27ea:	c6 5e       	subi	r28, 0xE6	; 230
    27ec:	d0 40       	sbci	r29, 0x00	; 0
    27ee:	44 0c       	add	r4, r4
    27f0:	55 1c       	adc	r5, r5
    27f2:	42 94       	swap	r4
    27f4:	52 94       	swap	r5
    27f6:	60 ef       	ldi	r22, 0xF0	; 240
    27f8:	56 22       	and	r5, r22
    27fa:	54 24       	eor	r5, r4
    27fc:	46 22       	and	r4, r22
    27fe:	54 24       	eor	r5, r4
    2800:	71 e4       	ldi	r23, 0x41	; 65
    2802:	67 2e       	mov	r6, r23
    2804:	71 2c       	mov	r7, r1
    2806:	6c 0e       	add	r6, r28
    2808:	7d 1e       	adc	r7, r29
    280a:	64 0c       	add	r6, r4
    280c:	75 1c       	adc	r7, r5
    280e:	e1 e8       	ldi	r30, 0x81	; 129
    2810:	f0 e0       	ldi	r31, 0x00	; 0
    2812:	ec 0f       	add	r30, r28
    2814:	fd 1f       	adc	r31, r29
    2816:	4e 0e       	add	r4, r30
    2818:	5f 1e       	adc	r5, r31
    281a:	81 e0       	ldi	r24, 0x01	; 1
    281c:	90 e0       	ldi	r25, 0x00	; 0
    281e:	7c 01       	movw	r14, r24
    2820:	ca 51       	subi	r28, 0x1A	; 26
    2822:	df 4f       	sbci	r29, 0xFF	; 255
    2824:	28 81       	ld	r18, Y
    2826:	39 81       	ldd	r19, Y+1	; 0x01
    2828:	c6 5e       	subi	r28, 0xE6	; 230
    282a:	d0 40       	sbci	r29, 0x00	; 0
    282c:	e2 1a       	sub	r14, r18
    282e:	f3 0a       	sbc	r15, r19
    2830:	ee 0c       	add	r14, r14
    2832:	ff 1c       	adc	r15, r15
    2834:	e2 94       	swap	r14
    2836:	f2 94       	swap	r15
    2838:	a0 ef       	ldi	r26, 0xF0	; 240
    283a:	fa 22       	and	r15, r26
    283c:	fe 24       	eor	r15, r14
    283e:	ea 22       	and	r14, r26
    2840:	fe 24       	eor	r15, r14
    2842:	b1 e4       	ldi	r27, 0x41	; 65
    2844:	cb 2e       	mov	r12, r27
    2846:	d1 2c       	mov	r13, r1
    2848:	cc 0e       	add	r12, r28
    284a:	dd 1e       	adc	r13, r29
    284c:	ce 0c       	add	r12, r14
    284e:	df 1c       	adc	r13, r15
    2850:	ee 0e       	add	r14, r30
    2852:	ff 1e       	adc	r15, r31
    2854:	81 01       	movw	r16, r2
    2856:	93 01       	movw	r18, r6
    2858:	a2 01       	movw	r20, r4
    285a:	b6 01       	movw	r22, r12
    285c:	c7 01       	movw	r24, r14
    285e:	22 da       	rcall	.-3004   	; 0x1ca4 <XYcZ_addC>
    2860:	51 01       	movw	r10, r2
    2862:	34 e0       	ldi	r19, 0x04	; 4
    2864:	a3 0e       	add	r10, r19
    2866:	b1 1c       	adc	r11, r1
    2868:	61 e8       	ldi	r22, 0x81	; 129
    286a:	70 e0       	ldi	r23, 0x00	; 0
    286c:	6c 0f       	add	r22, r28
    286e:	7d 1f       	adc	r23, r29
    2870:	60 5e       	subi	r22, 0xE0	; 224
    2872:	7f 4f       	sbci	r23, 0xFF	; 255
    2874:	cb 51       	subi	r28, 0x1B	; 27
    2876:	df 4f       	sbci	r29, 0xFF	; 255
    2878:	08 81       	ld	r16, Y
    287a:	c5 5e       	subi	r28, 0xE5	; 229
    287c:	d0 40       	sbci	r29, 0x00	; 0
    287e:	95 01       	movw	r18, r10
    2880:	ae 01       	movw	r20, r28
    2882:	4f 57       	subi	r20, 0x7F	; 127
    2884:	5f 4f       	sbci	r21, 0xFF	; 255
    2886:	ce 01       	movw	r24, r28
    2888:	8f 53       	subi	r24, 0x3F	; 63
    288a:	9f 4f       	sbci	r25, 0xFF	; 255
    288c:	0e 94 e4 06 	call	0xdc8	; 0xdc8 <uECC_vli_modSub>
    2890:	d1 01       	movw	r26, r2
    2892:	2c 91       	ld	r18, X
    2894:	a6 01       	movw	r20, r12
    2896:	be 01       	movw	r22, r28
    2898:	6f 53       	subi	r22, 0x3F	; 63
    289a:	7f 4f       	sbci	r23, 0xFF	; 255
    289c:	cf 51       	subi	r28, 0x1F	; 31
    289e:	df 4f       	sbci	r29, 0xFF	; 255
    28a0:	88 81       	ld	r24, Y
    28a2:	99 81       	ldd	r25, Y+1	; 0x01
    28a4:	c1 5e       	subi	r28, 0xE1	; 225
    28a6:	d0 40       	sbci	r29, 0x00	; 0
    28a8:	0e 94 03 06 	call	0xc06	; 0xc06 <uECC_vli_mult>
    28ac:	41 01       	movw	r8, r2
    28ae:	ba ea       	ldi	r27, 0xAA	; 170
    28b0:	8b 0e       	add	r8, r27
    28b2:	91 1c       	adc	r9, r1
    28b4:	d4 01       	movw	r26, r8
    28b6:	ed 91       	ld	r30, X+
    28b8:	fc 91       	ld	r31, X
    28ba:	cf 51       	subi	r28, 0x1F	; 31
    28bc:	df 4f       	sbci	r29, 0xFF	; 255
    28be:	68 81       	ld	r22, Y
    28c0:	79 81       	ldd	r23, Y+1	; 0x01
    28c2:	c1 5e       	subi	r28, 0xE1	; 225
    28c4:	d0 40       	sbci	r29, 0x00	; 0
    28c6:	ce 01       	movw	r24, r28
    28c8:	8f 53       	subi	r24, 0x3F	; 63
    28ca:	9f 4f       	sbci	r25, 0xFF	; 255
    28cc:	09 95       	icall
    28ce:	f1 01       	movw	r30, r2
    28d0:	20 81       	ld	r18, Z
    28d2:	c8 51       	subi	r28, 0x18	; 24
    28d4:	df 4f       	sbci	r29, 0xFF	; 255
    28d6:	48 81       	ld	r20, Y
    28d8:	59 81       	ldd	r21, Y+1	; 0x01
    28da:	c8 5e       	subi	r28, 0xE8	; 232
    28dc:	d0 40       	sbci	r29, 0x00	; 0
    28de:	be 01       	movw	r22, r28
    28e0:	6f 53       	subi	r22, 0x3F	; 63
    28e2:	7f 4f       	sbci	r23, 0xFF	; 255
    28e4:	cf 51       	subi	r28, 0x1F	; 31
    28e6:	df 4f       	sbci	r29, 0xFF	; 255
    28e8:	88 81       	ld	r24, Y
    28ea:	99 81       	ldd	r25, Y+1	; 0x01
    28ec:	c1 5e       	subi	r28, 0xE1	; 225
    28ee:	d0 40       	sbci	r29, 0x00	; 0
    28f0:	0e 94 03 06 	call	0xc06	; 0xc06 <uECC_vli_mult>
    28f4:	d4 01       	movw	r26, r8
    28f6:	ed 91       	ld	r30, X+
    28f8:	fc 91       	ld	r31, X
    28fa:	cf 51       	subi	r28, 0x1F	; 31
    28fc:	df 4f       	sbci	r29, 0xFF	; 255
    28fe:	68 81       	ld	r22, Y
    2900:	79 81       	ldd	r23, Y+1	; 0x01
    2902:	c1 5e       	subi	r28, 0xE1	; 225
    2904:	d0 40       	sbci	r29, 0x00	; 0
    2906:	ce 01       	movw	r24, r28
    2908:	8f 53       	subi	r24, 0x3F	; 63
    290a:	9f 4f       	sbci	r25, 0xFF	; 255
    290c:	09 95       	icall
    290e:	cb 51       	subi	r28, 0x1B	; 27
    2910:	df 4f       	sbci	r29, 0xFF	; 255
    2912:	28 81       	ld	r18, Y
    2914:	c5 5e       	subi	r28, 0xE5	; 229
    2916:	d0 40       	sbci	r29, 0x00	; 0
    2918:	a5 01       	movw	r20, r10
    291a:	be 01       	movw	r22, r28
    291c:	6f 53       	subi	r22, 0x3F	; 63
    291e:	7f 4f       	sbci	r23, 0xFF	; 255
    2920:	cb 01       	movw	r24, r22
    2922:	bb dc       	rcall	.-1674   	; 0x229a <uECC_vli_modInv>
    2924:	f1 01       	movw	r30, r2
    2926:	20 81       	ld	r18, Z
    2928:	c4 51       	subi	r28, 0x14	; 20
    292a:	df 4f       	sbci	r29, 0xFF	; 255
    292c:	48 81       	ld	r20, Y
    292e:	59 81       	ldd	r21, Y+1	; 0x01
    2930:	cc 5e       	subi	r28, 0xEC	; 236
    2932:	d0 40       	sbci	r29, 0x00	; 0
    2934:	be 01       	movw	r22, r28
    2936:	6f 53       	subi	r22, 0x3F	; 63
    2938:	7f 4f       	sbci	r23, 0xFF	; 255
    293a:	cf 51       	subi	r28, 0x1F	; 31
    293c:	df 4f       	sbci	r29, 0xFF	; 255
    293e:	88 81       	ld	r24, Y
    2940:	99 81       	ldd	r25, Y+1	; 0x01
    2942:	c1 5e       	subi	r28, 0xE1	; 225
    2944:	d0 40       	sbci	r29, 0x00	; 0
    2946:	0e 94 03 06 	call	0xc06	; 0xc06 <uECC_vli_mult>
    294a:	d4 01       	movw	r26, r8
    294c:	ed 91       	ld	r30, X+
    294e:	fc 91       	ld	r31, X
    2950:	cf 51       	subi	r28, 0x1F	; 31
    2952:	df 4f       	sbci	r29, 0xFF	; 255
    2954:	68 81       	ld	r22, Y
    2956:	79 81       	ldd	r23, Y+1	; 0x01
    2958:	c1 5e       	subi	r28, 0xE1	; 225
    295a:	d0 40       	sbci	r29, 0x00	; 0
    295c:	ce 01       	movw	r24, r28
    295e:	8f 53       	subi	r24, 0x3F	; 63
    2960:	9f 4f       	sbci	r25, 0xFF	; 255
    2962:	09 95       	icall
    2964:	f1 01       	movw	r30, r2
    2966:	20 81       	ld	r18, Z
    2968:	a7 01       	movw	r20, r14
    296a:	be 01       	movw	r22, r28
    296c:	6f 53       	subi	r22, 0x3F	; 63
    296e:	7f 4f       	sbci	r23, 0xFF	; 255
    2970:	cf 51       	subi	r28, 0x1F	; 31
    2972:	df 4f       	sbci	r29, 0xFF	; 255
    2974:	88 81       	ld	r24, Y
    2976:	99 81       	ldd	r25, Y+1	; 0x01
    2978:	c1 5e       	subi	r28, 0xE1	; 225
    297a:	d0 40       	sbci	r29, 0x00	; 0
    297c:	0e 94 03 06 	call	0xc06	; 0xc06 <uECC_vli_mult>
    2980:	d4 01       	movw	r26, r8
    2982:	ed 91       	ld	r30, X+
    2984:	fc 91       	ld	r31, X
    2986:	cf 51       	subi	r28, 0x1F	; 31
    2988:	df 4f       	sbci	r29, 0xFF	; 255
    298a:	68 81       	ld	r22, Y
    298c:	79 81       	ldd	r23, Y+1	; 0x01
    298e:	c1 5e       	subi	r28, 0xE1	; 225
    2990:	d0 40       	sbci	r29, 0x00	; 0
    2992:	ce 01       	movw	r24, r28
    2994:	8f 53       	subi	r24, 0x3F	; 63
    2996:	9f 4f       	sbci	r25, 0xFF	; 255
    2998:	09 95       	icall
    299a:	81 01       	movw	r16, r2
    299c:	96 01       	movw	r18, r12
    299e:	a7 01       	movw	r20, r14
    29a0:	b3 01       	movw	r22, r6
    29a2:	c2 01       	movw	r24, r4
    29a4:	a2 d8       	rcall	.-3772   	; 0x1aea <XYcZ_add>
    29a6:	91 01       	movw	r18, r2
    29a8:	ae 01       	movw	r20, r28
    29aa:	4f 53       	subi	r20, 0x3F	; 63
    29ac:	5f 4f       	sbci	r21, 0xFF	; 255
    29ae:	be 01       	movw	r22, r28
    29b0:	6f 5b       	subi	r22, 0xBF	; 191
    29b2:	7f 4f       	sbci	r23, 0xFF	; 255
    29b4:	ce 01       	movw	r24, r28
    29b6:	8f 57       	subi	r24, 0x7F	; 127
    29b8:	9f 4f       	sbci	r25, 0xFF	; 255
    29ba:	21 d8       	rcall	.-4030   	; 0x19fe <apply_z>
    29bc:	cb 51       	subi	r28, 0x1B	; 27
    29be:	df 4f       	sbci	r29, 0xFF	; 255
    29c0:	48 81       	ld	r20, Y
    29c2:	c5 5e       	subi	r28, 0xE5	; 229
    29c4:	d0 40       	sbci	r29, 0x00	; 0
    29c6:	be 01       	movw	r22, r28
    29c8:	6f 57       	subi	r22, 0x7F	; 127
    29ca:	7f 4f       	sbci	r23, 0xFF	; 255
    29cc:	c2 51       	subi	r28, 0x12	; 18
    29ce:	df 4f       	sbci	r29, 0xFF	; 255
    29d0:	88 81       	ld	r24, Y
    29d2:	99 81       	ldd	r25, Y+1	; 0x01
    29d4:	ce 5e       	subi	r28, 0xEE	; 238
    29d6:	d0 40       	sbci	r29, 0x00	; 0
    29d8:	0e 94 a5 03 	call	0x74a	; 0x74a <uECC_vli_set>
    29dc:	cb 51       	subi	r28, 0x1B	; 27
    29de:	df 4f       	sbci	r29, 0xFF	; 255
    29e0:	48 81       	ld	r20, Y
    29e2:	c5 5e       	subi	r28, 0xE5	; 229
    29e4:	d0 40       	sbci	r29, 0x00	; 0
    29e6:	be 01       	movw	r22, r28
    29e8:	6f 5b       	subi	r22, 0xBF	; 191
    29ea:	7f 4f       	sbci	r23, 0xFF	; 255
    29ec:	c2 51       	subi	r28, 0x12	; 18
    29ee:	df 4f       	sbci	r29, 0xFF	; 255
    29f0:	88 81       	ld	r24, Y
    29f2:	99 81       	ldd	r25, Y+1	; 0x01
    29f4:	ce 5e       	subi	r28, 0xEE	; 238
    29f6:	d0 40       	sbci	r29, 0x00	; 0
    29f8:	c6 51       	subi	r28, 0x16	; 22
    29fa:	df 4f       	sbci	r29, 0xFF	; 255
    29fc:	e8 81       	ld	r30, Y
    29fe:	f9 81       	ldd	r31, Y+1	; 0x01
    2a00:	ca 5e       	subi	r28, 0xEA	; 234
    2a02:	d0 40       	sbci	r29, 0x00	; 0
    2a04:	8e 0f       	add	r24, r30
    2a06:	9f 1f       	adc	r25, r31
    2a08:	0e 94 a5 03 	call	0x74a	; 0x74a <uECC_vli_set>
    2a0c:	c1 51       	subi	r28, 0x11	; 17
    2a0e:	df 4f       	sbci	r29, 0xFF	; 255
    2a10:	0f b6       	in	r0, 0x3f	; 63
    2a12:	f8 94       	cli
    2a14:	de bf       	out	0x3e, r29	; 62
    2a16:	0f be       	out	0x3f, r0	; 63
    2a18:	cd bf       	out	0x3d, r28	; 61
    2a1a:	df 91       	pop	r29
    2a1c:	cf 91       	pop	r28
    2a1e:	1f 91       	pop	r17
    2a20:	0f 91       	pop	r16
    2a22:	ff 90       	pop	r15
    2a24:	ef 90       	pop	r14
    2a26:	df 90       	pop	r13
    2a28:	cf 90       	pop	r12
    2a2a:	bf 90       	pop	r11
    2a2c:	af 90       	pop	r10
    2a2e:	9f 90       	pop	r9
    2a30:	8f 90       	pop	r8
    2a32:	7f 90       	pop	r7
    2a34:	6f 90       	pop	r6
    2a36:	5f 90       	pop	r5
    2a38:	4f 90       	pop	r4
    2a3a:	3f 90       	pop	r3
    2a3c:	2f 90       	pop	r2
    2a3e:	08 95       	ret
    2a40:	6b 2d       	mov	r22, r11
    2a42:	9e 01       	movw	r18, r28
    2a44:	2f 5f       	subi	r18, 0xFF	; 255
    2a46:	3f 4f       	sbci	r19, 0xFF	; 255
    2a48:	cf 51       	subi	r28, 0x1F	; 31
    2a4a:	df 4f       	sbci	r29, 0xFF	; 255
    2a4c:	39 83       	std	Y+1, r19	; 0x01
    2a4e:	28 83       	st	Y, r18
    2a50:	c1 5e       	subi	r28, 0xE1	; 225
    2a52:	d0 40       	sbci	r29, 0x00	; 0
    2a54:	c9 01       	movw	r24, r18
    2a56:	0e 94 7e 03 	call	0x6fc	; 0x6fc <uECC_vli_clear>
    2a5a:	81 e0       	ldi	r24, 0x01	; 1
    2a5c:	89 83       	std	Y+1, r24	; 0x01
    2a5e:	01 ce       	rjmp	.-1022   	; 0x2662 <EccPoint_mult+0xf4>

00002a60 <uECC_sign_with_k>:
    2a60:	2f 92       	push	r2
    2a62:	3f 92       	push	r3
    2a64:	4f 92       	push	r4
    2a66:	5f 92       	push	r5
    2a68:	6f 92       	push	r6
    2a6a:	7f 92       	push	r7
    2a6c:	8f 92       	push	r8
    2a6e:	9f 92       	push	r9
    2a70:	af 92       	push	r10
    2a72:	bf 92       	push	r11
    2a74:	df 92       	push	r13
    2a76:	ef 92       	push	r14
    2a78:	ff 92       	push	r15
    2a7a:	0f 93       	push	r16
    2a7c:	1f 93       	push	r17
    2a7e:	cf 93       	push	r28
    2a80:	df 93       	push	r29
    2a82:	cd b7       	in	r28, 0x3d	; 61
    2a84:	de b7       	in	r29, 0x3e	; 62
    2a86:	c2 5d       	subi	r28, 0xD2	; 210
    2a88:	d1 09       	sbc	r29, r1
    2a8a:	0f b6       	in	r0, 0x3f	; 63
    2a8c:	f8 94       	cli
    2a8e:	de bf       	out	0x3e, r29	; 62
    2a90:	0f be       	out	0x3f, r0	; 63
    2a92:	cd bf       	out	0x3d, r28	; 61
    2a94:	5e 01       	movw	r10, r28
    2a96:	e1 ea       	ldi	r30, 0xA1	; 161
    2a98:	ae 0e       	add	r10, r30
    2a9a:	b1 1c       	adc	r11, r1
    2a9c:	cf 53       	subi	r28, 0x3F	; 63
    2a9e:	df 4f       	sbci	r29, 0xFF	; 255
    2aa0:	b9 82       	std	Y+1, r11	; 0x01
    2aa2:	a8 82       	st	Y, r10
    2aa4:	c1 5c       	subi	r28, 0xC1	; 193
    2aa6:	d0 40       	sbci	r29, 0x00	; 0
    2aa8:	3e 01       	movw	r6, r28
    2aaa:	f1 e8       	ldi	r31, 0x81	; 129
    2aac:	6f 0e       	add	r6, r31
    2aae:	71 1c       	adc	r7, r1
    2ab0:	cd 53       	subi	r28, 0x3D	; 61
    2ab2:	df 4f       	sbci	r29, 0xFF	; 255
    2ab4:	79 82       	std	Y+1, r7	; 0x01
    2ab6:	68 82       	st	Y, r6
    2ab8:	c3 5c       	subi	r28, 0xC3	; 195
    2aba:	d0 40       	sbci	r29, 0x00	; 0
    2abc:	f7 01       	movw	r30, r14
    2abe:	d0 80       	ld	r13, Z
    2ac0:	1d 14       	cp	r1, r13
    2ac2:	9c f4       	brge	.+38     	; 0x2aea <uECC_sign_with_k+0x8a>
    2ac4:	af ef       	ldi	r26, 0xFF	; 255
    2ac6:	ad 0d       	add	r26, r13
    2ac8:	b0 e0       	ldi	r27, 0x00	; 0
    2aca:	2d 01       	movw	r4, r26
    2acc:	ff ef       	ldi	r31, 0xFF	; 255
    2ace:	4f 1a       	sub	r4, r31
    2ad0:	5f 0a       	sbc	r5, r31
    2ad2:	d9 01       	movw	r26, r18
    2ad4:	a4 0d       	add	r26, r4
    2ad6:	b5 1d       	adc	r27, r5
    2ad8:	91 2c       	mov	r9, r1
    2ada:	f9 01       	movw	r30, r18
    2adc:	81 90       	ld	r8, Z+
    2ade:	98 28       	or	r9, r8
    2ae0:	ea 17       	cp	r30, r26
    2ae2:	fb 07       	cpc	r31, r27
    2ae4:	d9 f7       	brne	.-10     	; 0x2adc <uECC_sign_with_k+0x7c>
    2ae6:	91 10       	cpse	r9, r1
    2ae8:	1b c0       	rjmp	.+54     	; 0x2b20 <uECC_sign_with_k+0xc0>
    2aea:	80 e0       	ldi	r24, 0x00	; 0
    2aec:	90 e0       	ldi	r25, 0x00	; 0
    2aee:	ce 52       	subi	r28, 0x2E	; 46
    2af0:	df 4f       	sbci	r29, 0xFF	; 255
    2af2:	0f b6       	in	r0, 0x3f	; 63
    2af4:	f8 94       	cli
    2af6:	de bf       	out	0x3e, r29	; 62
    2af8:	0f be       	out	0x3f, r0	; 63
    2afa:	cd bf       	out	0x3d, r28	; 61
    2afc:	df 91       	pop	r29
    2afe:	cf 91       	pop	r28
    2b00:	1f 91       	pop	r17
    2b02:	0f 91       	pop	r16
    2b04:	ff 90       	pop	r15
    2b06:	ef 90       	pop	r14
    2b08:	df 90       	pop	r13
    2b0a:	bf 90       	pop	r11
    2b0c:	af 90       	pop	r10
    2b0e:	9f 90       	pop	r9
    2b10:	8f 90       	pop	r8
    2b12:	7f 90       	pop	r7
    2b14:	6f 90       	pop	r6
    2b16:	5f 90       	pop	r5
    2b18:	4f 90       	pop	r4
    2b1a:	3f 90       	pop	r3
    2b1c:	2f 90       	pop	r2
    2b1e:	08 95       	ret
    2b20:	f7 01       	movw	r30, r14
    2b22:	02 80       	ldd	r0, Z+2	; 0x02
    2b24:	f3 81       	ldd	r31, Z+3	; 0x03
    2b26:	e0 2d       	mov	r30, r0
    2b28:	c9 53       	subi	r28, 0x39	; 57
    2b2a:	df 4f       	sbci	r29, 0xFF	; 255
    2b2c:	f9 83       	std	Y+1, r31	; 0x01
    2b2e:	e8 83       	st	Y, r30
    2b30:	c7 5c       	subi	r28, 0xC7	; 199
    2b32:	d0 40       	sbci	r29, 0x00	; 0
    2b34:	37 96       	adiw	r30, 0x07	; 7
    2b36:	f7 fd       	sbrc	r31, 7
    2b38:	d6 c1       	rjmp	.+940    	; 0x2ee6 <uECC_sign_with_k+0x486>
    2b3a:	17 01       	movw	r2, r14
    2b3c:	c5 53       	subi	r28, 0x35	; 53
    2b3e:	df 4f       	sbci	r29, 0xFF	; 255
    2b40:	19 83       	std	Y+1, r17	; 0x01
    2b42:	08 83       	st	Y, r16
    2b44:	cb 5c       	subi	r28, 0xCB	; 203
    2b46:	d0 40       	sbci	r29, 0x00	; 0
    2b48:	49 01       	movw	r8, r18
    2b4a:	cf 52       	subi	r28, 0x2F	; 47
    2b4c:	df 4f       	sbci	r29, 0xFF	; 255
    2b4e:	59 83       	std	Y+1, r21	; 0x01
    2b50:	48 83       	st	Y, r20
    2b52:	c1 5d       	subi	r28, 0xD1	; 209
    2b54:	d0 40       	sbci	r29, 0x00	; 0
    2b56:	c1 53       	subi	r28, 0x31	; 49
    2b58:	df 4f       	sbci	r29, 0xFF	; 255
    2b5a:	79 83       	std	Y+1, r23	; 0x01
    2b5c:	68 83       	st	Y, r22
    2b5e:	cf 5c       	subi	r28, 0xCF	; 207
    2b60:	d0 40       	sbci	r29, 0x00	; 0
    2b62:	c3 53       	subi	r28, 0x33	; 51
    2b64:	df 4f       	sbci	r29, 0xFF	; 255
    2b66:	99 83       	std	Y+1, r25	; 0x01
    2b68:	88 83       	st	Y, r24
    2b6a:	cd 5c       	subi	r28, 0xCD	; 205
    2b6c:	d0 40       	sbci	r29, 0x00	; 0
    2b6e:	8f 01       	movw	r16, r30
    2b70:	15 95       	asr	r17
    2b72:	07 95       	ror	r16
    2b74:	15 95       	asr	r17
    2b76:	07 95       	ror	r16
    2b78:	15 95       	asr	r17
    2b7a:	07 95       	ror	r16
    2b7c:	cb 53       	subi	r28, 0x3B	; 59
    2b7e:	df 4f       	sbci	r29, 0xFF	; 255
    2b80:	19 83       	std	Y+1, r17	; 0x01
    2b82:	08 83       	st	Y, r16
    2b84:	c5 5c       	subi	r28, 0xC5	; 197
    2b86:	d0 40       	sbci	r29, 0x00	; 0
    2b88:	c7 01       	movw	r24, r14
    2b8a:	84 96       	adiw	r24, 0x24	; 36
    2b8c:	c7 53       	subi	r28, 0x37	; 55
    2b8e:	df 4f       	sbci	r29, 0xFF	; 255
    2b90:	99 83       	std	Y+1, r25	; 0x01
    2b92:	88 83       	st	Y, r24
    2b94:	c9 5c       	subi	r28, 0xC9	; 201
    2b96:	d0 40       	sbci	r29, 0x00	; 0
    2b98:	cb 53       	subi	r28, 0x3B	; 59
    2b9a:	df 4f       	sbci	r29, 0xFF	; 255
    2b9c:	48 81       	ld	r20, Y
    2b9e:	c5 5c       	subi	r28, 0xC5	; 197
    2ba0:	d0 40       	sbci	r29, 0x00	; 0
    2ba2:	b9 01       	movw	r22, r18
    2ba4:	0e 94 7a 06 	call	0xcf4	; 0xcf4 <uECC_vli_cmp>
    2ba8:	81 30       	cpi	r24, 0x01	; 1
    2baa:	09 f0       	breq	.+2      	; 0x2bae <uECC_sign_with_k+0x14e>
    2bac:	9e cf       	rjmp	.-196    	; 0x2aea <uECC_sign_with_k+0x8a>
    2bae:	97 01       	movw	r18, r14
    2bb0:	a3 01       	movw	r20, r6
    2bb2:	b5 01       	movw	r22, r10
    2bb4:	c4 01       	movw	r24, r8
    2bb6:	ad d9       	rcall	.-3238   	; 0x1f12 <regularize_k>
    2bb8:	c9 53       	subi	r28, 0x39	; 57
    2bba:	df 4f       	sbci	r29, 0xFF	; 255
    2bbc:	08 81       	ld	r16, Y
    2bbe:	19 81       	ldd	r17, Y+1	; 0x01
    2bc0:	c7 5c       	subi	r28, 0xC7	; 199
    2bc2:	d0 40       	sbci	r29, 0x00	; 0
    2bc4:	0f 5f       	subi	r16, 0xFF	; 255
    2bc6:	1f 4f       	sbci	r17, 0xFF	; 255
    2bc8:	21 e0       	ldi	r18, 0x01	; 1
    2bca:	30 e0       	ldi	r19, 0x00	; 0
    2bcc:	81 11       	cpse	r24, r1
    2bce:	93 c1       	rjmp	.+806    	; 0x2ef6 <uECC_sign_with_k+0x496>
    2bd0:	22 0f       	add	r18, r18
    2bd2:	33 1f       	adc	r19, r19
    2bd4:	e1 ec       	ldi	r30, 0xC1	; 193
    2bd6:	f0 e0       	ldi	r31, 0x00	; 0
    2bd8:	ec 0f       	add	r30, r28
    2bda:	fd 1f       	adc	r31, r29
    2bdc:	e2 0f       	add	r30, r18
    2bde:	f3 1f       	adc	r31, r19
    2be0:	40 81       	ld	r20, Z
    2be2:	51 81       	ldd	r21, Z+1	; 0x01
    2be4:	71 01       	movw	r14, r2
    2be6:	20 e0       	ldi	r18, 0x00	; 0
    2be8:	30 e0       	ldi	r19, 0x00	; 0
    2bea:	b1 01       	movw	r22, r2
    2bec:	6c 5b       	subi	r22, 0xBC	; 188
    2bee:	7f 4f       	sbci	r23, 0xFF	; 255
    2bf0:	ce 01       	movw	r24, r28
    2bf2:	8f 5b       	subi	r24, 0xBF	; 191
    2bf4:	9f 4f       	sbci	r25, 0xFF	; 255
    2bf6:	bb dc       	rcall	.-1674   	; 0x256e <EccPoint_mult>
    2bf8:	fe 01       	movw	r30, r28
    2bfa:	ef 5b       	subi	r30, 0xBF	; 191
    2bfc:	ff 4f       	sbci	r31, 0xFF	; 255
    2bfe:	df 01       	movw	r26, r30
    2c00:	a4 0d       	add	r26, r4
    2c02:	b5 1d       	adc	r27, r5
    2c04:	80 e0       	ldi	r24, 0x00	; 0
    2c06:	91 91       	ld	r25, Z+
    2c08:	89 2b       	or	r24, r25
    2c0a:	ea 17       	cp	r30, r26
    2c0c:	fb 07       	cpc	r31, r27
    2c0e:	d9 f7       	brne	.-10     	; 0x2c06 <uECC_sign_with_k+0x1a6>
    2c10:	88 23       	and	r24, r24
    2c12:	09 f4       	brne	.+2      	; 0x2c16 <uECC_sign_with_k+0x1b6>
    2c14:	6a cf       	rjmp	.-300    	; 0x2aea <uECC_sign_with_k+0x8a>
    2c16:	80 91 36 02 	lds	r24, 0x0236	; 0x800236 <__data_end>
    2c1a:	90 91 37 02 	lds	r25, 0x0237	; 0x800237 <__data_end+0x1>
    2c1e:	89 2b       	or	r24, r25
    2c20:	09 f4       	brne	.+2      	; 0x2c24 <uECC_sign_with_k+0x1c4>
    2c22:	6f c1       	rjmp	.+734    	; 0x2f02 <uECC_sign_with_k+0x4a2>
    2c24:	cb 53       	subi	r28, 0x3B	; 59
    2c26:	df 4f       	sbci	r29, 0xFF	; 255
    2c28:	48 81       	ld	r20, Y
    2c2a:	c5 5c       	subi	r28, 0xC5	; 197
    2c2c:	d0 40       	sbci	r29, 0x00	; 0
    2c2e:	c7 53       	subi	r28, 0x37	; 55
    2c30:	df 4f       	sbci	r29, 0xFF	; 255
    2c32:	68 81       	ld	r22, Y
    2c34:	79 81       	ldd	r23, Y+1	; 0x01
    2c36:	c9 5c       	subi	r28, 0xC9	; 201
    2c38:	d0 40       	sbci	r29, 0x00	; 0
    2c3a:	c5 01       	movw	r24, r10
    2c3c:	c9 d9       	rcall	.-3182   	; 0x1fd0 <uECC_generate_random_int>
    2c3e:	89 2b       	or	r24, r25
    2c40:	09 f4       	brne	.+2      	; 0x2c44 <uECC_sign_with_k+0x1e4>
    2c42:	53 cf       	rjmp	.-346    	; 0x2aea <uECC_sign_with_k+0x8a>
    2c44:	cb 53       	subi	r28, 0x3B	; 59
    2c46:	df 4f       	sbci	r29, 0xFF	; 255
    2c48:	28 81       	ld	r18, Y
    2c4a:	c5 5c       	subi	r28, 0xC5	; 197
    2c4c:	d0 40       	sbci	r29, 0x00	; 0
    2c4e:	a5 01       	movw	r20, r10
    2c50:	b4 01       	movw	r22, r8
    2c52:	ce 01       	movw	r24, r28
    2c54:	01 96       	adiw	r24, 0x01	; 1
    2c56:	0e 94 03 06 	call	0xc06	; 0xc06 <uECC_vli_mult>
    2c5a:	cb 53       	subi	r28, 0x3B	; 59
    2c5c:	df 4f       	sbci	r29, 0xFF	; 255
    2c5e:	28 81       	ld	r18, Y
    2c60:	c5 5c       	subi	r28, 0xC5	; 197
    2c62:	d0 40       	sbci	r29, 0x00	; 0
    2c64:	c7 53       	subi	r28, 0x37	; 55
    2c66:	df 4f       	sbci	r29, 0xFF	; 255
    2c68:	48 81       	ld	r20, Y
    2c6a:	59 81       	ldd	r21, Y+1	; 0x01
    2c6c:	c9 5c       	subi	r28, 0xC9	; 201
    2c6e:	d0 40       	sbci	r29, 0x00	; 0
    2c70:	be 01       	movw	r22, r28
    2c72:	6f 5f       	subi	r22, 0xFF	; 255
    2c74:	7f 4f       	sbci	r23, 0xFF	; 255
    2c76:	c4 01       	movw	r24, r8
    2c78:	0e 94 ff 06 	call	0xdfe	; 0xdfe <uECC_vli_mmod>
    2c7c:	cb 53       	subi	r28, 0x3B	; 59
    2c7e:	df 4f       	sbci	r29, 0xFF	; 255
    2c80:	28 81       	ld	r18, Y
    2c82:	c5 5c       	subi	r28, 0xC5	; 197
    2c84:	d0 40       	sbci	r29, 0x00	; 0
    2c86:	c7 53       	subi	r28, 0x37	; 55
    2c88:	df 4f       	sbci	r29, 0xFF	; 255
    2c8a:	48 81       	ld	r20, Y
    2c8c:	59 81       	ldd	r21, Y+1	; 0x01
    2c8e:	c9 5c       	subi	r28, 0xC9	; 201
    2c90:	d0 40       	sbci	r29, 0x00	; 0
    2c92:	b4 01       	movw	r22, r8
    2c94:	c4 01       	movw	r24, r8
    2c96:	01 db       	rcall	.-2558   	; 0x229a <uECC_vli_modInv>
    2c98:	cb 53       	subi	r28, 0x3B	; 59
    2c9a:	df 4f       	sbci	r29, 0xFF	; 255
    2c9c:	28 81       	ld	r18, Y
    2c9e:	c5 5c       	subi	r28, 0xC5	; 197
    2ca0:	d0 40       	sbci	r29, 0x00	; 0
    2ca2:	a5 01       	movw	r20, r10
    2ca4:	b4 01       	movw	r22, r8
    2ca6:	ce 01       	movw	r24, r28
    2ca8:	01 96       	adiw	r24, 0x01	; 1
    2caa:	0e 94 03 06 	call	0xc06	; 0xc06 <uECC_vli_mult>
    2cae:	cb 53       	subi	r28, 0x3B	; 59
    2cb0:	df 4f       	sbci	r29, 0xFF	; 255
    2cb2:	28 81       	ld	r18, Y
    2cb4:	c5 5c       	subi	r28, 0xC5	; 197
    2cb6:	d0 40       	sbci	r29, 0x00	; 0
    2cb8:	c7 53       	subi	r28, 0x37	; 55
    2cba:	df 4f       	sbci	r29, 0xFF	; 255
    2cbc:	48 81       	ld	r20, Y
    2cbe:	59 81       	ldd	r21, Y+1	; 0x01
    2cc0:	c9 5c       	subi	r28, 0xC9	; 201
    2cc2:	d0 40       	sbci	r29, 0x00	; 0
    2cc4:	be 01       	movw	r22, r28
    2cc6:	6f 5f       	subi	r22, 0xFF	; 255
    2cc8:	7f 4f       	sbci	r23, 0xFF	; 255
    2cca:	c4 01       	movw	r24, r8
    2ccc:	0e 94 ff 06 	call	0xdfe	; 0xdfe <uECC_vli_mmod>
    2cd0:	f1 01       	movw	r30, r2
    2cd2:	21 81       	ldd	r18, Z+1	; 0x01
    2cd4:	02 2e       	mov	r0, r18
    2cd6:	00 0c       	add	r0, r0
    2cd8:	33 0b       	sbc	r19, r19
    2cda:	12 16       	cp	r1, r18
    2cdc:	13 06       	cpc	r1, r19
    2cde:	34 f5       	brge	.+76     	; 0x2d2c <uECC_sign_with_k+0x2cc>
    2ce0:	a9 01       	movw	r20, r18
    2ce2:	41 50       	subi	r20, 0x01	; 1
    2ce4:	51 09       	sbc	r21, r1
    2ce6:	e0 e0       	ldi	r30, 0x00	; 0
    2ce8:	f0 e0       	ldi	r31, 0x00	; 0
    2cea:	60 e0       	ldi	r22, 0x00	; 0
    2cec:	80 e0       	ldi	r24, 0x00	; 0
    2cee:	90 e0       	ldi	r25, 0x00	; 0
    2cf0:	c5 53       	subi	r28, 0x35	; 53
    2cf2:	df 4f       	sbci	r29, 0xFF	; 255
    2cf4:	a8 81       	ld	r26, Y
    2cf6:	b9 81       	ldd	r27, Y+1	; 0x01
    2cf8:	cb 5c       	subi	r28, 0xCB	; 203
    2cfa:	d0 40       	sbci	r29, 0x00	; 0
    2cfc:	8a 0f       	add	r24, r26
    2cfe:	9b 1f       	adc	r25, r27
    2d00:	8a 01       	movw	r16, r20
    2d02:	0e 1b       	sub	r16, r30
    2d04:	1f 0b       	sbc	r17, r31
    2d06:	f8 01       	movw	r30, r16
    2d08:	01 e4       	ldi	r16, 0x41	; 65
    2d0a:	10 e0       	ldi	r17, 0x00	; 0
    2d0c:	0c 0f       	add	r16, r28
    2d0e:	1d 1f       	adc	r17, r29
    2d10:	e0 0f       	add	r30, r16
    2d12:	f1 1f       	adc	r31, r17
    2d14:	70 81       	ld	r23, Z
    2d16:	fc 01       	movw	r30, r24
    2d18:	70 83       	st	Z, r23
    2d1a:	6f 5f       	subi	r22, 0xFF	; 255
    2d1c:	86 2f       	mov	r24, r22
    2d1e:	06 2e       	mov	r0, r22
    2d20:	00 0c       	add	r0, r0
    2d22:	99 0b       	sbc	r25, r25
    2d24:	fc 01       	movw	r30, r24
    2d26:	82 17       	cp	r24, r18
    2d28:	93 07       	cpc	r25, r19
    2d2a:	44 f3       	brlt	.-48     	; 0x2cfc <uECC_sign_with_k+0x29c>
    2d2c:	f1 01       	movw	r30, r2
    2d2e:	82 81       	ldd	r24, Z+2	; 0x02
    2d30:	93 81       	ldd	r25, Z+3	; 0x03
    2d32:	9c 01       	movw	r18, r24
    2d34:	29 5f       	subi	r18, 0xF9	; 249
    2d36:	3f 4f       	sbci	r19, 0xFF	; 255
    2d38:	37 fd       	sbrc	r19, 7
    2d3a:	e0 c0       	rjmp	.+448    	; 0x2efc <uECC_sign_with_k+0x49c>
    2d3c:	35 95       	asr	r19
    2d3e:	27 95       	ror	r18
    2d40:	35 95       	asr	r19
    2d42:	27 95       	ror	r18
    2d44:	35 95       	asr	r19
    2d46:	27 95       	ror	r18
    2d48:	12 16       	cp	r1, r18
    2d4a:	13 06       	cpc	r1, r19
    2d4c:	14 f5       	brge	.+68     	; 0x2d92 <uECC_sign_with_k+0x332>
    2d4e:	a9 01       	movw	r20, r18
    2d50:	41 50       	subi	r20, 0x01	; 1
    2d52:	51 09       	sbc	r21, r1
    2d54:	e0 e0       	ldi	r30, 0x00	; 0
    2d56:	f0 e0       	ldi	r31, 0x00	; 0
    2d58:	60 e0       	ldi	r22, 0x00	; 0
    2d5a:	80 e0       	ldi	r24, 0x00	; 0
    2d5c:	90 e0       	ldi	r25, 0x00	; 0
    2d5e:	c3 53       	subi	r28, 0x33	; 51
    2d60:	df 4f       	sbci	r29, 0xFF	; 255
    2d62:	a8 81       	ld	r26, Y
    2d64:	b9 81       	ldd	r27, Y+1	; 0x01
    2d66:	cd 5c       	subi	r28, 0xCD	; 205
    2d68:	d0 40       	sbci	r29, 0x00	; 0
    2d6a:	8a 0d       	add	r24, r10
    2d6c:	9b 1d       	adc	r25, r11
    2d6e:	8a 01       	movw	r16, r20
    2d70:	0e 1b       	sub	r16, r30
    2d72:	1f 0b       	sbc	r17, r31
    2d74:	f8 01       	movw	r30, r16
    2d76:	ea 0f       	add	r30, r26
    2d78:	fb 1f       	adc	r31, r27
    2d7a:	70 81       	ld	r23, Z
    2d7c:	fc 01       	movw	r30, r24
    2d7e:	70 83       	st	Z, r23
    2d80:	6f 5f       	subi	r22, 0xFF	; 255
    2d82:	86 2f       	mov	r24, r22
    2d84:	06 2e       	mov	r0, r22
    2d86:	00 0c       	add	r0, r0
    2d88:	99 0b       	sbc	r25, r25
    2d8a:	fc 01       	movw	r30, r24
    2d8c:	82 17       	cp	r24, r18
    2d8e:	93 07       	cpc	r25, r19
    2d90:	64 f3       	brlt	.-40     	; 0x2d6a <uECC_sign_with_k+0x30a>
    2d92:	f3 01       	movw	r30, r6
    2d94:	cb 53       	subi	r28, 0x3B	; 59
    2d96:	df 4f       	sbci	r29, 0xFF	; 255
    2d98:	08 81       	ld	r16, Y
    2d9a:	c5 5c       	subi	r28, 0xC5	; 197
    2d9c:	d0 40       	sbci	r29, 0x00	; 0
    2d9e:	e0 0f       	add	r30, r16
    2da0:	f1 1d       	adc	r31, r1
    2da2:	07 fd       	sbrc	r16, 7
    2da4:	fa 95       	dec	r31
    2da6:	31 97       	sbiw	r30, 0x01	; 1
    2da8:	10 82       	st	Z, r1
    2daa:	4d 2d       	mov	r20, r13
    2dac:	be 01       	movw	r22, r28
    2dae:	6f 5b       	subi	r22, 0xBF	; 191
    2db0:	7f 4f       	sbci	r23, 0xFF	; 255
    2db2:	c3 01       	movw	r24, r6
    2db4:	0e 94 a5 03 	call	0x74a	; 0x74a <uECC_vli_set>
    2db8:	cb 53       	subi	r28, 0x3B	; 59
    2dba:	df 4f       	sbci	r29, 0xFF	; 255
    2dbc:	28 81       	ld	r18, Y
    2dbe:	c5 5c       	subi	r28, 0xC5	; 197
    2dc0:	d0 40       	sbci	r29, 0x00	; 0
    2dc2:	a3 01       	movw	r20, r6
    2dc4:	b5 01       	movw	r22, r10
    2dc6:	ce 01       	movw	r24, r28
    2dc8:	01 96       	adiw	r24, 0x01	; 1
    2dca:	0e 94 03 06 	call	0xc06	; 0xc06 <uECC_vli_mult>
    2dce:	cb 53       	subi	r28, 0x3B	; 59
    2dd0:	df 4f       	sbci	r29, 0xFF	; 255
    2dd2:	28 81       	ld	r18, Y
    2dd4:	c5 5c       	subi	r28, 0xC5	; 197
    2dd6:	d0 40       	sbci	r29, 0x00	; 0
    2dd8:	c7 53       	subi	r28, 0x37	; 55
    2dda:	df 4f       	sbci	r29, 0xFF	; 255
    2ddc:	48 81       	ld	r20, Y
    2dde:	59 81       	ldd	r21, Y+1	; 0x01
    2de0:	c9 5c       	subi	r28, 0xC9	; 201
    2de2:	d0 40       	sbci	r29, 0x00	; 0
    2de4:	be 01       	movw	r22, r28
    2de6:	6f 5f       	subi	r22, 0xFF	; 255
    2de8:	7f 4f       	sbci	r23, 0xFF	; 255
    2dea:	c3 01       	movw	r24, r6
    2dec:	0e 94 ff 06 	call	0xdfe	; 0xdfe <uECC_vli_mmod>
    2df0:	91 01       	movw	r18, r2
    2df2:	cf 52       	subi	r28, 0x2F	; 47
    2df4:	df 4f       	sbci	r29, 0xFF	; 255
    2df6:	48 81       	ld	r20, Y
    2df8:	59 81       	ldd	r21, Y+1	; 0x01
    2dfa:	c1 5d       	subi	r28, 0xD1	; 209
    2dfc:	d0 40       	sbci	r29, 0x00	; 0
    2dfe:	c1 53       	subi	r28, 0x31	; 49
    2e00:	df 4f       	sbci	r29, 0xFF	; 255
    2e02:	68 81       	ld	r22, Y
    2e04:	79 81       	ldd	r23, Y+1	; 0x01
    2e06:	cf 5c       	subi	r28, 0xCF	; 207
    2e08:	d0 40       	sbci	r29, 0x00	; 0
    2e0a:	c5 01       	movw	r24, r10
    2e0c:	59 d9       	rcall	.-3406   	; 0x20c0 <bits2int>
    2e0e:	cb 53       	subi	r28, 0x3B	; 59
    2e10:	df 4f       	sbci	r29, 0xFF	; 255
    2e12:	08 81       	ld	r16, Y
    2e14:	c5 5c       	subi	r28, 0xC5	; 197
    2e16:	d0 40       	sbci	r29, 0x00	; 0
    2e18:	c7 53       	subi	r28, 0x37	; 55
    2e1a:	df 4f       	sbci	r29, 0xFF	; 255
    2e1c:	28 81       	ld	r18, Y
    2e1e:	39 81       	ldd	r19, Y+1	; 0x01
    2e20:	c9 5c       	subi	r28, 0xC9	; 201
    2e22:	d0 40       	sbci	r29, 0x00	; 0
    2e24:	a3 01       	movw	r20, r6
    2e26:	b5 01       	movw	r22, r10
    2e28:	c3 01       	movw	r24, r6
    2e2a:	0e 94 b2 06 	call	0xd64	; 0xd64 <uECC_vli_modAdd>
    2e2e:	cb 53       	subi	r28, 0x3B	; 59
    2e30:	df 4f       	sbci	r29, 0xFF	; 255
    2e32:	28 81       	ld	r18, Y
    2e34:	c5 5c       	subi	r28, 0xC5	; 197
    2e36:	d0 40       	sbci	r29, 0x00	; 0
    2e38:	a4 01       	movw	r20, r8
    2e3a:	b3 01       	movw	r22, r6
    2e3c:	ce 01       	movw	r24, r28
    2e3e:	01 96       	adiw	r24, 0x01	; 1
    2e40:	0e 94 03 06 	call	0xc06	; 0xc06 <uECC_vli_mult>
    2e44:	cb 53       	subi	r28, 0x3B	; 59
    2e46:	df 4f       	sbci	r29, 0xFF	; 255
    2e48:	28 81       	ld	r18, Y
    2e4a:	c5 5c       	subi	r28, 0xC5	; 197
    2e4c:	d0 40       	sbci	r29, 0x00	; 0
    2e4e:	c7 53       	subi	r28, 0x37	; 55
    2e50:	df 4f       	sbci	r29, 0xFF	; 255
    2e52:	48 81       	ld	r20, Y
    2e54:	59 81       	ldd	r21, Y+1	; 0x01
    2e56:	c9 5c       	subi	r28, 0xC9	; 201
    2e58:	d0 40       	sbci	r29, 0x00	; 0
    2e5a:	be 01       	movw	r22, r28
    2e5c:	6f 5f       	subi	r22, 0xFF	; 255
    2e5e:	7f 4f       	sbci	r23, 0xFF	; 255
    2e60:	c3 01       	movw	r24, r6
    2e62:	0e 94 ff 06 	call	0xdfe	; 0xdfe <uECC_vli_mmod>
    2e66:	cb 53       	subi	r28, 0x3B	; 59
    2e68:	df 4f       	sbci	r29, 0xFF	; 255
    2e6a:	68 81       	ld	r22, Y
    2e6c:	c5 5c       	subi	r28, 0xC5	; 197
    2e6e:	d0 40       	sbci	r29, 0x00	; 0
    2e70:	c3 01       	movw	r24, r6
    2e72:	0e 94 3f 06 	call	0xc7e	; 0xc7e <uECC_vli_numBits>
    2e76:	f1 01       	movw	r30, r2
    2e78:	61 81       	ldd	r22, Z+1	; 0x01
    2e7a:	06 2e       	mov	r0, r22
    2e7c:	00 0c       	add	r0, r0
    2e7e:	77 0b       	sbc	r23, r23
    2e80:	9b 01       	movw	r18, r22
    2e82:	22 0f       	add	r18, r18
    2e84:	33 1f       	adc	r19, r19
    2e86:	22 0f       	add	r18, r18
    2e88:	33 1f       	adc	r19, r19
    2e8a:	22 0f       	add	r18, r18
    2e8c:	33 1f       	adc	r19, r19
    2e8e:	28 17       	cp	r18, r24
    2e90:	39 07       	cpc	r19, r25
    2e92:	0c f4       	brge	.+2      	; 0x2e96 <uECC_sign_with_k+0x436>
    2e94:	2a ce       	rjmp	.-940    	; 0x2aea <uECC_sign_with_k+0x8a>
    2e96:	16 16       	cp	r1, r22
    2e98:	17 06       	cpc	r1, r23
    2e9a:	14 f5       	brge	.+68     	; 0x2ee0 <uECC_sign_with_k+0x480>
    2e9c:	db 01       	movw	r26, r22
    2e9e:	11 97       	sbiw	r26, 0x01	; 1
    2ea0:	40 e0       	ldi	r20, 0x00	; 0
    2ea2:	50 e0       	ldi	r21, 0x00	; 0
    2ea4:	20 e0       	ldi	r18, 0x00	; 0
    2ea6:	80 e0       	ldi	r24, 0x00	; 0
    2ea8:	90 e0       	ldi	r25, 0x00	; 0
    2eaa:	c5 53       	subi	r28, 0x35	; 53
    2eac:	df 4f       	sbci	r29, 0xFF	; 255
    2eae:	08 81       	ld	r16, Y
    2eb0:	19 81       	ldd	r17, Y+1	; 0x01
    2eb2:	cb 5c       	subi	r28, 0xCB	; 203
    2eb4:	d0 40       	sbci	r29, 0x00	; 0
    2eb6:	06 0f       	add	r16, r22
    2eb8:	17 1f       	adc	r17, r23
    2eba:	80 0f       	add	r24, r16
    2ebc:	91 1f       	adc	r25, r17
    2ebe:	fd 01       	movw	r30, r26
    2ec0:	e4 1b       	sub	r30, r20
    2ec2:	f5 0b       	sbc	r31, r21
    2ec4:	e6 0d       	add	r30, r6
    2ec6:	f7 1d       	adc	r31, r7
    2ec8:	30 81       	ld	r19, Z
    2eca:	fc 01       	movw	r30, r24
    2ecc:	30 83       	st	Z, r19
    2ece:	2f 5f       	subi	r18, 0xFF	; 255
    2ed0:	82 2f       	mov	r24, r18
    2ed2:	02 2e       	mov	r0, r18
    2ed4:	00 0c       	add	r0, r0
    2ed6:	99 0b       	sbc	r25, r25
    2ed8:	ac 01       	movw	r20, r24
    2eda:	86 17       	cp	r24, r22
    2edc:	97 07       	cpc	r25, r23
    2ede:	6c f3       	brlt	.-38     	; 0x2eba <uECC_sign_with_k+0x45a>
    2ee0:	81 e0       	ldi	r24, 0x01	; 1
    2ee2:	90 e0       	ldi	r25, 0x00	; 0
    2ee4:	04 ce       	rjmp	.-1016   	; 0x2aee <uECC_sign_with_k+0x8e>
    2ee6:	c9 53       	subi	r28, 0x39	; 57
    2ee8:	df 4f       	sbci	r29, 0xFF	; 255
    2eea:	e8 81       	ld	r30, Y
    2eec:	f9 81       	ldd	r31, Y+1	; 0x01
    2eee:	c7 5c       	subi	r28, 0xC7	; 199
    2ef0:	d0 40       	sbci	r29, 0x00	; 0
    2ef2:	3e 96       	adiw	r30, 0x0e	; 14
    2ef4:	22 ce       	rjmp	.-956    	; 0x2b3a <uECC_sign_with_k+0xda>
    2ef6:	20 e0       	ldi	r18, 0x00	; 0
    2ef8:	30 e0       	ldi	r19, 0x00	; 0
    2efa:	6a ce       	rjmp	.-812    	; 0x2bd0 <uECC_sign_with_k+0x170>
    2efc:	29 5f       	subi	r18, 0xF9	; 249
    2efe:	3f 4f       	sbci	r19, 0xFF	; 255
    2f00:	1d cf       	rjmp	.-454    	; 0x2d3c <uECC_sign_with_k+0x2dc>
    2f02:	cb 53       	subi	r28, 0x3B	; 59
    2f04:	df 4f       	sbci	r29, 0xFF	; 255
    2f06:	68 81       	ld	r22, Y
    2f08:	c5 5c       	subi	r28, 0xC5	; 197
    2f0a:	d0 40       	sbci	r29, 0x00	; 0
    2f0c:	c5 01       	movw	r24, r10
    2f0e:	0e 94 7e 03 	call	0x6fc	; 0x6fc <uECC_vli_clear>
    2f12:	81 e0       	ldi	r24, 0x01	; 1
    2f14:	f5 01       	movw	r30, r10
    2f16:	80 83       	st	Z, r24
    2f18:	95 ce       	rjmp	.-726    	; 0x2c44 <uECC_sign_with_k+0x1e4>

00002f1a <uECC_set_rng>:
    2f1a:	90 93 37 02 	sts	0x0237, r25	; 0x800237 <__data_end+0x1>
    2f1e:	80 93 36 02 	sts	0x0236, r24	; 0x800236 <__data_end>
    2f22:	08 95       	ret

00002f24 <uECC_secp256r1>:
    2f24:	84 e0       	ldi	r24, 0x04	; 4
    2f26:	91 e0       	ldi	r25, 0x01	; 1
    2f28:	08 95       	ret

00002f2a <uECC_sign>:

int uECC_sign(const uint8_t *private_key,
              const uint8_t *message_hash,
              unsigned hash_size,
              uint8_t *signature,
              uECC_Curve curve) {
    2f2a:	3f 92       	push	r3
    2f2c:	4f 92       	push	r4
    2f2e:	5f 92       	push	r5
    2f30:	6f 92       	push	r6
    2f32:	7f 92       	push	r7
    2f34:	8f 92       	push	r8
    2f36:	9f 92       	push	r9
    2f38:	af 92       	push	r10
    2f3a:	bf 92       	push	r11
    2f3c:	cf 92       	push	r12
    2f3e:	df 92       	push	r13
    2f40:	ef 92       	push	r14
    2f42:	ff 92       	push	r15
    2f44:	0f 93       	push	r16
    2f46:	1f 93       	push	r17
    2f48:	cf 93       	push	r28
    2f4a:	df 93       	push	r29
    2f4c:	cd b7       	in	r28, 0x3d	; 61
    2f4e:	de b7       	in	r29, 0x3e	; 62
    2f50:	a2 97       	sbiw	r28, 0x22	; 34
    2f52:	0f b6       	in	r0, 0x3f	; 63
    2f54:	f8 94       	cli
    2f56:	de bf       	out	0x3e, r29	; 62
    2f58:	0f be       	out	0x3f, r0	; 63
    2f5a:	cd bf       	out	0x3d, r28	; 61
    2f5c:	3c 01       	movw	r6, r24
    2f5e:	4b 01       	movw	r8, r22
    2f60:	5a a3       	std	Y+34, r21	; 0x22
    2f62:	49 a3       	std	Y+33, r20	; 0x21
    2f64:	29 01       	movw	r4, r18
    2f66:	68 01       	movw	r12, r16
    2f68:	58 01       	movw	r10, r16
    2f6a:	84 e2       	ldi	r24, 0x24	; 36
    2f6c:	a8 0e       	add	r10, r24
    2f6e:	b1 1c       	adc	r11, r1
    2f70:	90 e4       	ldi	r25, 0x40	; 64
    2f72:	39 2e       	mov	r3, r25
    2f74:	1b c0       	rjmp	.+54     	; 0x2fac <uECC_sign+0x82>
    uECC_word_t k[uECC_MAX_WORDS];
    uECC_word_t tries;

    for (tries = 0; tries < uECC_RNG_MAX_TRIES; ++tries) {
        if (!uECC_generate_random_int(k, curve->n, BITS_TO_WORDS(curve->num_n_bits))) {
    2f76:	55 95       	asr	r21
    2f78:	47 95       	ror	r20
    2f7a:	55 95       	asr	r21
    2f7c:	47 95       	ror	r20
    2f7e:	55 95       	asr	r21
    2f80:	47 95       	ror	r20
    2f82:	b5 01       	movw	r22, r10
    2f84:	ce 01       	movw	r24, r28
    2f86:	01 96       	adiw	r24, 0x01	; 1
    2f88:	23 d8       	rcall	.-4026   	; 0x1fd0 <uECC_generate_random_int>
    2f8a:	89 2b       	or	r24, r25
    2f8c:	d1 f0       	breq	.+52     	; 0x2fc2 <uECC_sign+0x98>
            return 0;
        }

        if (uECC_sign_with_k(private_key, message_hash, hash_size, k, signature, curve)) {
    2f8e:	76 01       	movw	r14, r12
    2f90:	82 01       	movw	r16, r4
    2f92:	9e 01       	movw	r18, r28
    2f94:	2f 5f       	subi	r18, 0xFF	; 255
    2f96:	3f 4f       	sbci	r19, 0xFF	; 255
    2f98:	49 a1       	ldd	r20, Y+33	; 0x21
    2f9a:	5a a1       	ldd	r21, Y+34	; 0x22
    2f9c:	b4 01       	movw	r22, r8
    2f9e:	c3 01       	movw	r24, r6
    2fa0:	5f dd       	rcall	.-1346   	; 0x2a60 <uECC_sign_with_k>
    2fa2:	89 2b       	or	r24, r25
    2fa4:	41 f5       	brne	.+80     	; 0x2ff6 <uECC_sign+0xcc>
    2fa6:	3a 94       	dec	r3
              uint8_t *signature,
              uECC_Curve curve) {
    uECC_word_t k[uECC_MAX_WORDS];
    uECC_word_t tries;

    for (tries = 0; tries < uECC_RNG_MAX_TRIES; ++tries) {
    2fa8:	33 20       	and	r3, r3
    2faa:	59 f0       	breq	.+22     	; 0x2fc2 <uECC_sign+0x98>
        if (!uECC_generate_random_int(k, curve->n, BITS_TO_WORDS(curve->num_n_bits))) {
    2fac:	f6 01       	movw	r30, r12
    2fae:	82 81       	ldd	r24, Z+2	; 0x02
    2fb0:	93 81       	ldd	r25, Z+3	; 0x03
    2fb2:	ac 01       	movw	r20, r24
    2fb4:	49 5f       	subi	r20, 0xF9	; 249
    2fb6:	5f 4f       	sbci	r21, 0xFF	; 255
    2fb8:	57 ff       	sbrs	r21, 7
    2fba:	dd cf       	rjmp	.-70     	; 0x2f76 <uECC_sign+0x4c>
    2fbc:	49 5f       	subi	r20, 0xF9	; 249
    2fbe:	5f 4f       	sbci	r21, 0xFF	; 255
    2fc0:	da cf       	rjmp	.-76     	; 0x2f76 <uECC_sign+0x4c>
            return 0;
    2fc2:	80 e0       	ldi	r24, 0x00	; 0
    2fc4:	90 e0       	ldi	r25, 0x00	; 0
        if (uECC_sign_with_k(private_key, message_hash, hash_size, k, signature, curve)) {
            return 1;
        }
    }
    return 0;
}
    2fc6:	a2 96       	adiw	r28, 0x22	; 34
    2fc8:	0f b6       	in	r0, 0x3f	; 63
    2fca:	f8 94       	cli
    2fcc:	de bf       	out	0x3e, r29	; 62
    2fce:	0f be       	out	0x3f, r0	; 63
    2fd0:	cd bf       	out	0x3d, r28	; 61
    2fd2:	df 91       	pop	r29
    2fd4:	cf 91       	pop	r28
    2fd6:	1f 91       	pop	r17
    2fd8:	0f 91       	pop	r16
    2fda:	ff 90       	pop	r15
    2fdc:	ef 90       	pop	r14
    2fde:	df 90       	pop	r13
    2fe0:	cf 90       	pop	r12
    2fe2:	bf 90       	pop	r11
    2fe4:	af 90       	pop	r10
    2fe6:	9f 90       	pop	r9
    2fe8:	8f 90       	pop	r8
    2fea:	7f 90       	pop	r7
    2fec:	6f 90       	pop	r6
    2fee:	5f 90       	pop	r5
    2ff0:	4f 90       	pop	r4
    2ff2:	3f 90       	pop	r3
    2ff4:	08 95       	ret
        if (!uECC_generate_random_int(k, curve->n, BITS_TO_WORDS(curve->num_n_bits))) {
            return 0;
        }

        if (uECC_sign_with_k(private_key, message_hash, hash_size, k, signature, curve)) {
            return 1;
    2ff6:	81 e0       	ldi	r24, 0x01	; 1
    2ff8:	90 e0       	ldi	r25, 0x00	; 0
    2ffa:	e5 cf       	rjmp	.-54     	; 0x2fc6 <uECC_sign+0x9c>

00002ffc <RNG>:
		
void buttons_init(){
	DDRE = 0x00;
	PORTE = 1 << PE4 | 1 << PE5 | 1 << PE6 | 1 << PE7;
	EICRB = 1 << ISC40 | 1 << ISC41 | 1 << ISC50 | 1 << ISC51 | 1 << ISC60 | 1 << ISC61 | 1 << ISC70 | 1 << ISC71; // set interrupt on falling edge.
	EIMSK = 1 << INT4 | 1 << INT5 | 1 << INT6 | 1 << INT7;
    2ffc:	0f 93       	push	r16
    2ffe:	1f 93       	push	r17
    3000:	cf 93       	push	r28
    3002:	df 93       	push	r29
    3004:	8c 01       	movw	r16, r24
    3006:	eb 01       	movw	r28, r22
    3008:	20 97       	sbiw	r28, 0x00	; 0
    300a:	39 f0       	breq	.+14     	; 0x301a <RNG+0x1e>
    300c:	0e 94 04 2b 	call	0x5608	; 0x5608 <rand>
    3010:	f8 01       	movw	r30, r16
    3012:	81 93       	st	Z+, r24
    3014:	8f 01       	movw	r16, r30
    3016:	21 97       	sbiw	r28, 0x01	; 1
    3018:	c9 f7       	brne	.-14     	; 0x300c <RNG+0x10>
    301a:	81 e0       	ldi	r24, 0x01	; 1
    301c:	90 e0       	ldi	r25, 0x00	; 0
    301e:	df 91       	pop	r29
    3020:	cf 91       	pop	r28
    3022:	1f 91       	pop	r17
    3024:	0f 91       	pop	r16
    3026:	08 95       	ret

00003028 <__vector_5>:
		--size;
	}
}
*/
	
ISR(INT4_vect){
    3028:	1f 92       	push	r1
    302a:	0f 92       	push	r0
    302c:	0f b6       	in	r0, 0x3f	; 63
    302e:	0f 92       	push	r0
    3030:	11 24       	eor	r1, r1
    3032:	0b b6       	in	r0, 0x3b	; 59
    3034:	0f 92       	push	r0
    3036:	2f 93       	push	r18
    3038:	3f 93       	push	r19
    303a:	4f 93       	push	r20
    303c:	5f 93       	push	r21
    303e:	6f 93       	push	r22
    3040:	7f 93       	push	r23
    3042:	8f 93       	push	r24
    3044:	9f 93       	push	r25
    3046:	af 93       	push	r26
    3048:	bf 93       	push	r27
    304a:	ef 93       	push	r30
    304c:	ff 93       	push	r31
	uart_puts("running scenario");
    304e:	80 eb       	ldi	r24, 0xB0	; 176
    3050:	91 e0       	ldi	r25, 0x01	; 1
    3052:	0e 94 34 2a 	call	0x5468	; 0x5468 <uart_puts>
	run_scenario = SCENARIO1;
    3056:	81 e0       	ldi	r24, 0x01	; 1
    3058:	80 93 38 02 	sts	0x0238, r24	; 0x800238 <run_scenario>
}
    305c:	ff 91       	pop	r31
    305e:	ef 91       	pop	r30
    3060:	bf 91       	pop	r27
    3062:	af 91       	pop	r26
    3064:	9f 91       	pop	r25
    3066:	8f 91       	pop	r24
    3068:	7f 91       	pop	r23
    306a:	6f 91       	pop	r22
    306c:	5f 91       	pop	r21
    306e:	4f 91       	pop	r20
    3070:	3f 91       	pop	r19
    3072:	2f 91       	pop	r18
    3074:	0f 90       	pop	r0
    3076:	0b be       	out	0x3b, r0	; 59
    3078:	0f 90       	pop	r0
    307a:	0f be       	out	0x3f, r0	; 63
    307c:	0f 90       	pop	r0
    307e:	1f 90       	pop	r1
    3080:	18 95       	reti

00003082 <__vector_6>:

ISR(INT5_vect){
    3082:	1f 92       	push	r1
    3084:	0f 92       	push	r0
    3086:	0f b6       	in	r0, 0x3f	; 63
    3088:	0f 92       	push	r0
    308a:	11 24       	eor	r1, r1
    308c:	0b b6       	in	r0, 0x3b	; 59
    308e:	0f 92       	push	r0
    3090:	2f 93       	push	r18
    3092:	3f 93       	push	r19
    3094:	4f 93       	push	r20
    3096:	5f 93       	push	r21
    3098:	6f 93       	push	r22
    309a:	7f 93       	push	r23
    309c:	8f 93       	push	r24
    309e:	9f 93       	push	r25
    30a0:	af 93       	push	r26
    30a2:	bf 93       	push	r27
    30a4:	ef 93       	push	r30
    30a6:	ff 93       	push	r31
    30a8:	cf 93       	push	r28
    30aa:	df 93       	push	r29
    30ac:	00 d0       	rcall	.+0      	; 0x30ae <__vector_6+0x2c>
    30ae:	cd b7       	in	r28, 0x3d	; 61
    30b0:	de b7       	in	r29, 0x3e	; 62
	char target[] = "5";
    30b2:	85 e3       	ldi	r24, 0x35	; 53
    30b4:	90 e0       	ldi	r25, 0x00	; 0
    30b6:	9a 83       	std	Y+2, r25	; 0x02
    30b8:	89 83       	std	Y+1, r24	; 0x01
	uart_puts(target);
    30ba:	ce 01       	movw	r24, r28
    30bc:	01 96       	adiw	r24, 0x01	; 1
    30be:	0e 94 34 2a 	call	0x5468	; 0x5468 <uart_puts>
	//SendByMOb2();
}
    30c2:	0f 90       	pop	r0
    30c4:	0f 90       	pop	r0
    30c6:	df 91       	pop	r29
    30c8:	cf 91       	pop	r28
    30ca:	ff 91       	pop	r31
    30cc:	ef 91       	pop	r30
    30ce:	bf 91       	pop	r27
    30d0:	af 91       	pop	r26
    30d2:	9f 91       	pop	r25
    30d4:	8f 91       	pop	r24
    30d6:	7f 91       	pop	r23
    30d8:	6f 91       	pop	r22
    30da:	5f 91       	pop	r21
    30dc:	4f 91       	pop	r20
    30de:	3f 91       	pop	r19
    30e0:	2f 91       	pop	r18
    30e2:	0f 90       	pop	r0
    30e4:	0b be       	out	0x3b, r0	; 59
    30e6:	0f 90       	pop	r0
    30e8:	0f be       	out	0x3f, r0	; 63
    30ea:	0f 90       	pop	r0
    30ec:	1f 90       	pop	r1
    30ee:	18 95       	reti

000030f0 <__vector_7>:

ISR(INT6_vect){
    30f0:	1f 92       	push	r1
    30f2:	0f 92       	push	r0
    30f4:	0f b6       	in	r0, 0x3f	; 63
    30f6:	0f 92       	push	r0
    30f8:	11 24       	eor	r1, r1

}
    30fa:	0f 90       	pop	r0
    30fc:	0f be       	out	0x3f, r0	; 63
    30fe:	0f 90       	pop	r0
    3100:	1f 90       	pop	r1
    3102:	18 95       	reti

00003104 <__vector_8>:

ISR(INT7_vect){
    3104:	1f 92       	push	r1
    3106:	0f 92       	push	r0
    3108:	0f b6       	in	r0, 0x3f	; 63
    310a:	0f 92       	push	r0
    310c:	11 24       	eor	r1, r1
    310e:	0b b6       	in	r0, 0x3b	; 59
    3110:	0f 92       	push	r0
    3112:	2f 93       	push	r18
    3114:	3f 93       	push	r19
    3116:	4f 93       	push	r20
    3118:	5f 93       	push	r21
    311a:	6f 93       	push	r22
    311c:	7f 93       	push	r23
    311e:	8f 93       	push	r24
    3120:	9f 93       	push	r25
    3122:	af 93       	push	r26
    3124:	bf 93       	push	r27
    3126:	ef 93       	push	r30
    3128:	ff 93       	push	r31
    312a:	cf 93       	push	r28
    312c:	df 93       	push	r29
    312e:	cd b7       	in	r28, 0x3d	; 61
    3130:	de b7       	in	r29, 0x3e	; 62
    3132:	c0 54       	subi	r28, 0x40	; 64
    3134:	d1 09       	sbc	r29, r1
    3136:	de bf       	out	0x3e, r29	; 62
    3138:	cd bf       	out	0x3d, r28	; 61
	uint8_t target[64] = {0};
    313a:	ce 01       	movw	r24, r28
    313c:	01 96       	adiw	r24, 0x01	; 1
    313e:	20 e4       	ldi	r18, 0x40	; 64
    3140:	fc 01       	movw	r30, r24
    3142:	11 92       	st	Z+, r1
    3144:	2a 95       	dec	r18
    3146:	e9 f7       	brne	.-6      	; 0x3142 <__vector_8+0x3e>
	can_send_frame_buffer(target , 8);
    3148:	68 e0       	ldi	r22, 0x08	; 8
    314a:	0e 94 f1 02 	call	0x5e2	; 0x5e2 <can_send_frame_buffer>
	//RNG(target, 64);
	//SendByMOb2();
}
    314e:	c0 5c       	subi	r28, 0xC0	; 192
    3150:	df 4f       	sbci	r29, 0xFF	; 255
    3152:	0f b6       	in	r0, 0x3f	; 63
    3154:	f8 94       	cli
    3156:	de bf       	out	0x3e, r29	; 62
    3158:	0f be       	out	0x3f, r0	; 63
    315a:	cd bf       	out	0x3d, r28	; 61
    315c:	df 91       	pop	r29
    315e:	cf 91       	pop	r28
    3160:	ff 91       	pop	r31
    3162:	ef 91       	pop	r30
    3164:	bf 91       	pop	r27
    3166:	af 91       	pop	r26
    3168:	9f 91       	pop	r25
    316a:	8f 91       	pop	r24
    316c:	7f 91       	pop	r23
    316e:	6f 91       	pop	r22
    3170:	5f 91       	pop	r21
    3172:	4f 91       	pop	r20
    3174:	3f 91       	pop	r19
    3176:	2f 91       	pop	r18
    3178:	0f 90       	pop	r0
    317a:	0b be       	out	0x3b, r0	; 59
    317c:	0f 90       	pop	r0
    317e:	0f be       	out	0x3f, r0	; 63
    3180:	0f 90       	pop	r0
    3182:	1f 90       	pop	r1
    3184:	18 95       	reti

00003186 <sign_challenge>:



int sign_challenge(uint8_t challenge[64], uint8_t signature[64]){
    3186:	cf 92       	push	r12
    3188:	df 92       	push	r13
    318a:	ef 92       	push	r14
    318c:	ff 92       	push	r15
    318e:	0f 93       	push	r16
    3190:	1f 93       	push	r17
    3192:	cf 93       	push	r28
    3194:	df 93       	push	r29
    3196:	cd b7       	in	r28, 0x3d	; 61
    3198:	de b7       	in	r29, 0x3e	; 62
    319a:	c0 54       	subi	r28, 0x40	; 64
    319c:	d1 09       	sbc	r29, r1
    319e:	0f b6       	in	r0, 0x3f	; 63
    31a0:	f8 94       	cli
    31a2:	de bf       	out	0x3e, r29	; 62
    31a4:	0f be       	out	0x3f, r0	; 63
    31a6:	cd bf       	out	0x3d, r28	; 61
    31a8:	6c 01       	movw	r12, r24
    31aa:	7b 01       	movw	r14, r22
	uECC_set_rng(&RNG);
    31ac:	8e ef       	ldi	r24, 0xFE	; 254
    31ae:	97 e1       	ldi	r25, 0x17	; 23
    31b0:	b4 de       	rcall	.-664    	; 0x2f1a <uECC_set_rng>
	const struct uECC_Curve_t *curve = uECC_secp256r1();
    31b2:	b8 de       	rcall	.-656    	; 0x2f24 <uECC_secp256r1>
    31b4:	8c 01       	movw	r16, r24
    31b6:	20 e0       	ldi	r18, 0x00	; 0
	uint8_t hash[64];
	sha512(hash, challenge, 512);
    31b8:	32 e0       	ldi	r19, 0x02	; 2
    31ba:	40 e0       	ldi	r20, 0x00	; 0
    31bc:	50 e0       	ldi	r21, 0x00	; 0
    31be:	b6 01       	movw	r22, r12
    31c0:	ce 01       	movw	r24, r28
    31c2:	01 96       	adiw	r24, 0x01	; 1
    31c4:	0e 94 94 29 	call	0x5328	; 0x5328 <sha512>
    31c8:	97 01       	movw	r18, r14

	if (!uECC_sign(private_key, hash, 64, signature, curve)) {
    31ca:	40 e4       	ldi	r20, 0x40	; 64
    31cc:	50 e0       	ldi	r21, 0x00	; 0
    31ce:	be 01       	movw	r22, r28
    31d0:	6f 5f       	subi	r22, 0xFF	; 255
    31d2:	7f 4f       	sbci	r23, 0xFF	; 255
    31d4:	86 e1       	ldi	r24, 0x16	; 22
    31d6:	92 e0       	ldi	r25, 0x02	; 2
    31d8:	a8 de       	rcall	.-688    	; 0x2f2a <uECC_sign>
    31da:	89 2b       	or	r24, r25
    31dc:	91 f0       	breq	.+36     	; 0x3202 <sign_challenge+0x7c>
    31de:	80 e0       	ldi	r24, 0x00	; 0
		uart_puts("sign failed");
		return 1;
	}
	
	return 0;
    31e0:	90 e0       	ldi	r25, 0x00	; 0
    31e2:	c0 5c       	subi	r28, 0xC0	; 192
}
    31e4:	df 4f       	sbci	r29, 0xFF	; 255
    31e6:	0f b6       	in	r0, 0x3f	; 63
    31e8:	f8 94       	cli
    31ea:	de bf       	out	0x3e, r29	; 62
    31ec:	0f be       	out	0x3f, r0	; 63
    31ee:	cd bf       	out	0x3d, r28	; 61
    31f0:	df 91       	pop	r29
    31f2:	cf 91       	pop	r28
    31f4:	1f 91       	pop	r17
    31f6:	0f 91       	pop	r16
    31f8:	ff 90       	pop	r15
    31fa:	ef 90       	pop	r14
    31fc:	df 90       	pop	r13
    31fe:	cf 90       	pop	r12
    3200:	08 95       	ret
    3202:	81 ec       	ldi	r24, 0xC1	; 193
	const struct uECC_Curve_t *curve = uECC_secp256r1();
	uint8_t hash[64];
	sha512(hash, challenge, 512);

	if (!uECC_sign(private_key, hash, 64, signature, curve)) {
		uart_puts("sign failed");
    3204:	91 e0       	ldi	r25, 0x01	; 1
    3206:	0e 94 34 2a 	call	0x5468	; 0x5468 <uart_puts>
    320a:	81 e0       	ldi	r24, 0x01	; 1
		return 1;
    320c:	90 e0       	ldi	r25, 0x00	; 0
    320e:	e9 cf       	rjmp	.-46     	; 0x31e2 <sign_challenge+0x5c>

00003210 <run_1>:
    3210:	cf 93       	push	r28
	}
	
	return 0;
}

int run_1(){
    3212:	df 93       	push	r29
    3214:	cd b7       	in	r28, 0x3d	; 61
    3216:	de b7       	in	r29, 0x3e	; 62
    3218:	c8 58       	subi	r28, 0x88	; 136
    321a:	d1 09       	sbc	r29, r1
    321c:	0f b6       	in	r0, 0x3f	; 63
    321e:	f8 94       	cli
    3220:	de bf       	out	0x3e, r29	; 62
    3222:	0f be       	out	0x3f, r0	; 63
    3224:	cd bf       	out	0x3d, r28	; 61
	uart_puts("starting authentication");
    3226:	8d ec       	ldi	r24, 0xCD	; 205
    3228:	91 e0       	ldi	r25, 0x01	; 1
    322a:	0e 94 34 2a 	call	0x5468	; 0x5468 <uart_puts>
	uint8_t challenge[64];
	//init authentication.
	can_send_message(0, 0x00, 0);
    322e:	40 e0       	ldi	r20, 0x00	; 0
    3230:	50 e0       	ldi	r21, 0x00	; 0
    3232:	60 e0       	ldi	r22, 0x00	; 0
    3234:	80 e0       	ldi	r24, 0x00	; 0
    3236:	0e 94 80 02 	call	0x500	; 0x500 <can_send_message>
	//wait for challenge.
	can_receive_frame_buffer(challenge, 8);
    323a:	68 e0       	ldi	r22, 0x08	; 8
    323c:	ce 01       	movw	r24, r28
    323e:	8f 5b       	subi	r24, 0xBF	; 191
    3240:	9f 4f       	sbci	r25, 0xFF	; 255
    3242:	0e 94 1e 03 	call	0x63c	; 0x63c <can_receive_frame_buffer>
	uart_puts("challenge received");
    3246:	85 ee       	ldi	r24, 0xE5	; 229
    3248:	91 e0       	ldi	r25, 0x01	; 1
    324a:	0e 94 34 2a 	call	0x5468	; 0x5468 <uart_puts>
	uint8_t signature[64];
	sign_challenge(challenge, signature);
    324e:	be 01       	movw	r22, r28
    3250:	6f 5f       	subi	r22, 0xFF	; 255
    3252:	7f 4f       	sbci	r23, 0xFF	; 255
    3254:	ce 01       	movw	r24, r28
    3256:	8f 5b       	subi	r24, 0xBF	; 191
    3258:	9f 4f       	sbci	r25, 0xFF	; 255
    325a:	95 df       	rcall	.-214    	; 0x3186 <sign_challenge>
	//Send signature.
	can_send_frame_buffer(signature, 8);
    325c:	68 e0       	ldi	r22, 0x08	; 8
    325e:	ce 01       	movw	r24, r28
    3260:	01 96       	adiw	r24, 0x01	; 1
    3262:	0e 94 f1 02 	call	0x5e2	; 0x5e2 <can_send_frame_buffer>
	//can_send_frame_buffer(signature, 8);
	uart_puts("signature sent");
    3266:	88 ef       	ldi	r24, 0xF8	; 248
    3268:	91 e0       	ldi	r25, 0x01	; 1
    326a:	0e 94 34 2a 	call	0x5468	; 0x5468 <uart_puts>
	uint8_t message[8];
	//Wait for authentication acknowledgement.
	can_receive_message(0, 0x00, 0x00,  message);
    326e:	9e 01       	movw	r18, r28
    3270:	2f 57       	subi	r18, 0x7F	; 127
    3272:	3f 4f       	sbci	r19, 0xFF	; 255
    3274:	40 e0       	ldi	r20, 0x00	; 0
    3276:	60 e0       	ldi	r22, 0x00	; 0
    3278:	80 e0       	ldi	r24, 0x00	; 0
    327a:	0e 94 a5 02 	call	0x54a	; 0x54a <can_receive_message>
	uart_puts("authenticated!");
    327e:	87 e0       	ldi	r24, 0x07	; 7
    3280:	92 e0       	ldi	r25, 0x02	; 2
    3282:	0e 94 34 2a 	call	0x5468	; 0x5468 <uart_puts>
	return 0;
}
    3286:	80 e0       	ldi	r24, 0x00	; 0
    3288:	90 e0       	ldi	r25, 0x00	; 0
    328a:	c8 57       	subi	r28, 0x78	; 120
    328c:	df 4f       	sbci	r29, 0xFF	; 255
    328e:	0f b6       	in	r0, 0x3f	; 63
    3290:	f8 94       	cli
    3292:	de bf       	out	0x3e, r29	; 62
    3294:	0f be       	out	0x3f, r0	; 63
    3296:	cd bf       	out	0x3d, r28	; 61
    3298:	df 91       	pop	r29
    329a:	cf 91       	pop	r28
    329c:	08 95       	ret

0000329e <main>:

 int main()
 {	
    329e:	cf 93       	push	r28
    32a0:	df 93       	push	r29
    32a2:	cd b7       	in	r28, 0x3d	; 61
    32a4:	de b7       	in	r29, 0x3e	; 62
    32a6:	68 97       	sbiw	r28, 0x18	; 24
    32a8:	0f b6       	in	r0, 0x3f	; 63
    32aa:	f8 94       	cli
    32ac:	de bf       	out	0x3e, r29	; 62
    32ae:	0f be       	out	0x3f, r0	; 63
    32b0:	cd bf       	out	0x3d, r28	; 61
	 uart_init();
    32b2:	0e 94 28 2a 	call	0x5450	; 0x5450 <uart_init>

volatile run_t run_scenario = NOTHING;
		
		
void buttons_init(){
	DDRE = 0x00;
    32b6:	1d b8       	out	0x0d, r1	; 13
	PORTE = 1 << PE4 | 1 << PE5 | 1 << PE6 | 1 << PE7;
    32b8:	80 ef       	ldi	r24, 0xF0	; 240
    32ba:	8e b9       	out	0x0e, r24	; 14
	EICRB = 1 << ISC40 | 1 << ISC41 | 1 << ISC50 | 1 << ISC51 | 1 << ISC60 | 1 << ISC61 | 1 << ISC70 | 1 << ISC71; // set interrupt on falling edge.
    32bc:	9f ef       	ldi	r25, 0xFF	; 255
    32be:	90 93 6a 00 	sts	0x006A, r25	; 0x80006a <__TEXT_REGION_LENGTH__+0x7e006a>
	EIMSK = 1 << INT4 | 1 << INT5 | 1 << INT6 | 1 << INT7;
    32c2:	8d bb       	out	0x1d, r24	; 29

 int main()
 {	
	 uart_init();
	 buttons_init();
	 can_init();
    32c4:	0e 94 5a 02 	call	0x4b4	; 0x4b4 <can_init>
	 uint8_t message[8];
	 uint8_t message2[8];
	 uint8_t message3[8];
	 hmac_sha256(message, message2, 8, message3, 8);
    32c8:	08 e0       	ldi	r16, 0x08	; 8
    32ca:	10 e0       	ldi	r17, 0x00	; 0
    32cc:	9e 01       	movw	r18, r28
    32ce:	2f 5f       	subi	r18, 0xFF	; 255
    32d0:	3f 4f       	sbci	r19, 0xFF	; 255
    32d2:	48 e0       	ldi	r20, 0x08	; 8
    32d4:	50 e0       	ldi	r21, 0x00	; 0
    32d6:	be 01       	movw	r22, r28
    32d8:	67 5f       	subi	r22, 0xF7	; 247
    32da:	7f 4f       	sbci	r23, 0xFF	; 255
    32dc:	ce 01       	movw	r24, r28
    32de:	41 96       	adiw	r24, 0x11	; 17
    32e0:	08 d0       	rcall	.+16     	; 0x32f2 <hmac_sha256>
	 
	 //private_key_hex = "92990788d66bf558052d112f5498111747b3e28c55984d43fed8c8822ad9f1a7";
	 //public_key_hex = "f0c863f8e555114bf4882cc787b95c272a7fe4dcddf1922f4f18a494e1c357a1a6c32d07beb576ab601068068f0a9e0160c3a14119f5d426a7955da3e6ed3e81";
	 
	 while(1){
		run_t runlcl = run_scenario;
    32e2:	80 91 38 02 	lds	r24, 0x0238	; 0x800238 <run_scenario>
		switch(runlcl){
    32e6:	81 30       	cpi	r24, 0x01	; 1
    32e8:	e1 f7       	brne	.-8      	; 0x32e2 <main+0x44>
			case NOTHING :
				break;
			case SCENARIO1 :
				run_scenario = NOTHING;
    32ea:	10 92 38 02 	sts	0x0238, r1	; 0x800238 <run_scenario>
				run_1();
    32ee:	90 df       	rcall	.-224    	; 0x3210 <run_1>
				break;
    32f0:	f8 cf       	rjmp	.-16     	; 0x32e2 <main+0x44>

000032f2 <hmac_sha256>:

/*
 * keylength in bits!
 * message length in bits!
 */
void hmac_sha256(void *dest, const void *key, uint16_t keylength_b, const void *msg, uint32_t msglength_b){ /* a one-shot*/
    32f2:	2f 92       	push	r2
    32f4:	3f 92       	push	r3
    32f6:	4f 92       	push	r4
    32f8:	5f 92       	push	r5
    32fa:	6f 92       	push	r6
    32fc:	7f 92       	push	r7
    32fe:	8f 92       	push	r8
    3300:	9f 92       	push	r9
    3302:	af 92       	push	r10
    3304:	bf 92       	push	r11
    3306:	cf 92       	push	r12
    3308:	df 92       	push	r13
    330a:	ef 92       	push	r14
    330c:	ff 92       	push	r15
    330e:	0f 93       	push	r16
    3310:	1f 93       	push	r17
    3312:	cf 93       	push	r28
    3314:	df 93       	push	r29
    3316:	cd b7       	in	r28, 0x3d	; 61
    3318:	de b7       	in	r29, 0x3e	; 62
    331a:	c8 56       	subi	r28, 0x68	; 104
    331c:	d1 09       	sbc	r29, r1
    331e:	0f b6       	in	r0, 0x3f	; 63
    3320:	f8 94       	cli
    3322:	de bf       	out	0x3e, r29	; 62
    3324:	0f be       	out	0x3f, r0	; 63
    3326:	cd bf       	out	0x3d, r28	; 61
    3328:	4c 01       	movw	r8, r24
    332a:	19 01       	movw	r2, r18
    332c:	a9 96       	adiw	r28, 0x29	; 41
    332e:	ec ae       	std	Y+60, r14	; 0x3c
    3330:	fd ae       	std	Y+61, r15	; 0x3d
    3332:	0e af       	std	Y+62, r16	; 0x3e
    3334:	1f af       	std	Y+63, r17	; 0x3f
    3336:	a9 97       	sbiw	r28, 0x29	; 41
	sha256_ctx_t s;
	uint8_t i;
	uint8_t buffer[HMAC_SHA256_BLOCK_BYTES];
	
	memset(buffer, 0, HMAC_SHA256_BLOCK_BYTES);
    3338:	ce 01       	movw	r24, r28
    333a:	01 96       	adiw	r24, 0x01	; 1
    333c:	7c 01       	movw	r14, r24
    333e:	80 e4       	ldi	r24, 0x40	; 64
    3340:	d7 01       	movw	r26, r14
    3342:	1d 92       	st	X+, r1
    3344:	8a 95       	dec	r24
    3346:	e9 f7       	brne	.-6      	; 0x3342 <hmac_sha256+0x50>
	
	/* if key is larger than a block we have to hash it*/
	if (keylength_b > SHA256_BLOCK_BITS){
    3348:	41 30       	cpi	r20, 0x01	; 1
    334a:	b2 e0       	ldi	r27, 0x02	; 2
    334c:	5b 07       	cpc	r21, r27
    334e:	08 f4       	brcc	.+2      	; 0x3352 <hmac_sha256+0x60>
    3350:	9d c0       	rjmp	.+314    	; 0x348c <hmac_sha256+0x19a>
		sha256((void*)buffer, key, keylength_b);
    3352:	9a 01       	movw	r18, r20
    3354:	40 e0       	ldi	r20, 0x00	; 0
    3356:	50 e0       	ldi	r21, 0x00	; 0
    3358:	c7 01       	movw	r24, r14
    335a:	b3 d0       	rcall	.+358    	; 0x34c2 <sha256>
    335c:	87 01       	movw	r16, r14
    335e:	6e 01       	movw	r12, r28
    3360:	e1 e4       	ldi	r30, 0x41	; 65
    3362:	ce 0e       	add	r12, r30
    3364:	d1 1c       	adc	r13, r1

/*
 * keylength in bits!
 * message length in bits!
 */
void hmac_sha256(void *dest, const void *key, uint16_t keylength_b, const void *msg, uint32_t msglength_b){ /* a one-shot*/
    3366:	f7 01       	movw	r30, r14
	} else {
		memcpy(buffer, key, (keylength_b+7)/8);
	}
	
	for (i=0; i<SHA256_BLOCK_BYTES; ++i){
		buffer[i] ^= IPAD;
    3368:	96 e3       	ldi	r25, 0x36	; 54
    336a:	80 81       	ld	r24, Z
    336c:	89 27       	eor	r24, r25
    336e:	81 93       	st	Z+, r24
		sha256((void*)buffer, key, keylength_b);
	} else {
		memcpy(buffer, key, (keylength_b+7)/8);
	}
	
	for (i=0; i<SHA256_BLOCK_BYTES; ++i){
    3370:	ec 15       	cp	r30, r12
    3372:	fd 05       	cpc	r31, r13
    3374:	d1 f7       	brne	.-12     	; 0x336a <hmac_sha256+0x78>
		buffer[i] ^= IPAD;
	}
	sha256_init(&s);
    3376:	c6 01       	movw	r24, r12
    3378:	95 d0       	rcall	.+298    	; 0x34a4 <sha256_init>
	sha256_nextBlock(&s, buffer);
    337a:	b7 01       	movw	r22, r14
    337c:	c6 01       	movw	r24, r12
    337e:	9d d0       	rcall	.+314    	; 0x34ba <sha256_nextBlock>
	while (msglength_b >= HMAC_SHA256_BLOCK_BITS){
    3380:	a9 96       	adiw	r28, 0x29	; 41
    3382:	8c ad       	ldd	r24, Y+60	; 0x3c
    3384:	9d ad       	ldd	r25, Y+61	; 0x3d
    3386:	ae ad       	ldd	r26, Y+62	; 0x3e
    3388:	bf ad       	ldd	r27, Y+63	; 0x3f
    338a:	a9 97       	sbiw	r28, 0x29	; 41
    338c:	81 15       	cp	r24, r1
    338e:	e2 e0       	ldi	r30, 0x02	; 2
    3390:	9e 07       	cpc	r25, r30
    3392:	a1 05       	cpc	r26, r1
    3394:	b1 05       	cpc	r27, r1
    3396:	08 f4       	brcc	.+2      	; 0x339a <hmac_sha256+0xa8>
    3398:	3e c0       	rjmp	.+124    	; 0x3416 <hmac_sha256+0x124>
    339a:	2c 01       	movw	r4, r24
    339c:	3d 01       	movw	r6, r26
		sha256_nextBlock(&s, msg);
    339e:	51 01       	movw	r10, r2
    33a0:	b5 01       	movw	r22, r10
    33a2:	c6 01       	movw	r24, r12
    33a4:	8a d0       	rcall	.+276    	; 0x34ba <sha256_nextBlock>
		msg = (uint8_t*)msg + HMAC_SHA256_BLOCK_BYTES;
    33a6:	f0 e4       	ldi	r31, 0x40	; 64
    33a8:	af 0e       	add	r10, r31
    33aa:	b1 1c       	adc	r11, r1
		msglength_b -=  HMAC_SHA256_BLOCK_BITS;
    33ac:	22 e0       	ldi	r18, 0x02	; 2
    33ae:	52 1a       	sub	r5, r18
    33b0:	61 08       	sbc	r6, r1
    33b2:	71 08       	sbc	r7, r1
	for (i=0; i<SHA256_BLOCK_BYTES; ++i){
		buffer[i] ^= IPAD;
	}
	sha256_init(&s);
	sha256_nextBlock(&s, buffer);
	while (msglength_b >= HMAC_SHA256_BLOCK_BITS){
    33b4:	41 14       	cp	r4, r1
    33b6:	82 e0       	ldi	r24, 0x02	; 2
    33b8:	58 06       	cpc	r5, r24
    33ba:	61 04       	cpc	r6, r1
    33bc:	71 04       	cpc	r7, r1
    33be:	80 f7       	brcc	.-32     	; 0x33a0 <hmac_sha256+0xae>
    33c0:	a9 96       	adiw	r28, 0x29	; 41
    33c2:	8c ad       	ldd	r24, Y+60	; 0x3c
    33c4:	9d ad       	ldd	r25, Y+61	; 0x3d
    33c6:	ae ad       	ldd	r26, Y+62	; 0x3e
    33c8:	bf ad       	ldd	r27, Y+63	; 0x3f
    33ca:	a9 97       	sbiw	r28, 0x29	; 41
    33cc:	92 50       	subi	r25, 0x02	; 2
    33ce:	a1 09       	sbc	r26, r1
    33d0:	b1 09       	sbc	r27, r1
    33d2:	29 e0       	ldi	r18, 0x09	; 9
    33d4:	b6 95       	lsr	r27
    33d6:	a7 95       	ror	r26
    33d8:	97 95       	ror	r25
    33da:	87 95       	ror	r24
    33dc:	2a 95       	dec	r18
    33de:	d1 f7       	brne	.-12     	; 0x33d4 <hmac_sha256+0xe2>
    33e0:	01 96       	adiw	r24, 0x01	; 1
    33e2:	00 24       	eor	r0, r0
    33e4:	96 95       	lsr	r25
    33e6:	87 95       	ror	r24
    33e8:	07 94       	ror	r0
    33ea:	96 95       	lsr	r25
    33ec:	87 95       	ror	r24
    33ee:	07 94       	ror	r0
    33f0:	98 2f       	mov	r25, r24
    33f2:	80 2d       	mov	r24, r0
    33f4:	28 0e       	add	r2, r24
    33f6:	39 1e       	adc	r3, r25
    33f8:	a9 96       	adiw	r28, 0x29	; 41
    33fa:	8c ad       	ldd	r24, Y+60	; 0x3c
    33fc:	9d ad       	ldd	r25, Y+61	; 0x3d
    33fe:	ae ad       	ldd	r26, Y+62	; 0x3e
    3400:	bf ad       	ldd	r27, Y+63	; 0x3f
    3402:	a9 97       	sbiw	r28, 0x29	; 41
    3404:	91 70       	andi	r25, 0x01	; 1
    3406:	aa 27       	eor	r26, r26
    3408:	bb 27       	eor	r27, r27
    340a:	a9 96       	adiw	r28, 0x29	; 41
    340c:	8c af       	std	Y+60, r24	; 0x3c
    340e:	9d af       	std	Y+61, r25	; 0x3d
    3410:	ae af       	std	Y+62, r26	; 0x3e
    3412:	bf af       	std	Y+63, r27	; 0x3f
    3414:	a9 97       	sbiw	r28, 0x29	; 41
		sha256_nextBlock(&s, msg);
		msg = (uint8_t*)msg + HMAC_SHA256_BLOCK_BYTES;
		msglength_b -=  HMAC_SHA256_BLOCK_BITS;
	}
	sha256_lastBlock(&s, msg, msglength_b);
    3416:	a7 96       	adiw	r28, 0x27	; 39
    3418:	4e ad       	ldd	r20, Y+62	; 0x3e
    341a:	5f ad       	ldd	r21, Y+63	; 0x3f
    341c:	a7 97       	sbiw	r28, 0x27	; 39
    341e:	b1 01       	movw	r22, r2
    3420:	c6 01       	movw	r24, r12
    3422:	4d d0       	rcall	.+154    	; 0x34be <sha256_lastBlock>
	/* since buffer still contains key xor ipad we can do ... */
	for (i=0; i<HMAC_SHA256_BLOCK_BYTES; ++i){
		buffer[i] ^= IPAD ^ OPAD;
    3424:	9a e6       	ldi	r25, 0x6A	; 106
    3426:	d8 01       	movw	r26, r16
    3428:	8c 91       	ld	r24, X
    342a:	89 27       	eor	r24, r25
    342c:	f8 01       	movw	r30, r16
    342e:	81 93       	st	Z+, r24
    3430:	8f 01       	movw	r16, r30
		msg = (uint8_t*)msg + HMAC_SHA256_BLOCK_BYTES;
		msglength_b -=  HMAC_SHA256_BLOCK_BITS;
	}
	sha256_lastBlock(&s, msg, msglength_b);
	/* since buffer still contains key xor ipad we can do ... */
	for (i=0; i<HMAC_SHA256_BLOCK_BYTES; ++i){
    3432:	ec 15       	cp	r30, r12
    3434:	fd 05       	cpc	r31, r13
		buffer[i] ^= IPAD ^ OPAD;
	}
	sha256_ctx2hash(dest, &s); /* save inner hash temporary to dest */
    3436:	b9 f7       	brne	.-18     	; 0x3426 <hmac_sha256+0x134>
    3438:	bf 01       	movw	r22, r30
    343a:	c4 01       	movw	r24, r8
	sha256_init(&s);
    343c:	d4 d0       	rcall	.+424    	; 0x35e6 <sha256_ctx2hash>
    343e:	c8 01       	movw	r24, r16
    3440:	31 d0       	rcall	.+98     	; 0x34a4 <sha256_init>
	sha256_nextBlock(&s, buffer);
    3442:	b7 01       	movw	r22, r14
    3444:	c8 01       	movw	r24, r16
    3446:	39 d0       	rcall	.+114    	; 0x34ba <sha256_nextBlock>
	sha256_lastBlock(&s, dest, SHA256_HASH_BITS);
    3448:	40 e0       	ldi	r20, 0x00	; 0
    344a:	51 e0       	ldi	r21, 0x01	; 1
    344c:	b4 01       	movw	r22, r8
    344e:	c8 01       	movw	r24, r16
    3450:	36 d0       	rcall	.+108    	; 0x34be <sha256_lastBlock>
    3452:	b8 01       	movw	r22, r16
	sha256_ctx2hash(dest, &s);
    3454:	c4 01       	movw	r24, r8
    3456:	c7 d0       	rcall	.+398    	; 0x35e6 <sha256_ctx2hash>
    3458:	c8 59       	subi	r28, 0x98	; 152
    345a:	df 4f       	sbci	r29, 0xFF	; 255
}
    345c:	0f b6       	in	r0, 0x3f	; 63
    345e:	f8 94       	cli
    3460:	de bf       	out	0x3e, r29	; 62
    3462:	0f be       	out	0x3f, r0	; 63
    3464:	cd bf       	out	0x3d, r28	; 61
    3466:	df 91       	pop	r29
    3468:	cf 91       	pop	r28
    346a:	1f 91       	pop	r17
    346c:	0f 91       	pop	r16
    346e:	ff 90       	pop	r15
    3470:	ef 90       	pop	r14
    3472:	df 90       	pop	r13
    3474:	cf 90       	pop	r12
    3476:	bf 90       	pop	r11
    3478:	af 90       	pop	r10
    347a:	9f 90       	pop	r9
    347c:	8f 90       	pop	r8
    347e:	7f 90       	pop	r7
    3480:	6f 90       	pop	r6
    3482:	5f 90       	pop	r5
    3484:	4f 90       	pop	r4
    3486:	3f 90       	pop	r3
    3488:	2f 90       	pop	r2
    348a:	08 95       	ret
    348c:	49 5f       	subi	r20, 0xF9	; 249
    348e:	5f 4f       	sbci	r21, 0xFF	; 255
	
	/* if key is larger than a block we have to hash it*/
	if (keylength_b > SHA256_BLOCK_BITS){
		sha256((void*)buffer, key, keylength_b);
	} else {
		memcpy(buffer, key, (keylength_b+7)/8);
    3490:	56 95       	lsr	r21
    3492:	47 95       	ror	r20
    3494:	56 95       	lsr	r21
    3496:	47 95       	ror	r20
    3498:	56 95       	lsr	r21
    349a:	47 95       	ror	r20
    349c:	c7 01       	movw	r24, r14
    349e:	0e 94 1b 2b 	call	0x5636	; 0x5636 <memcpy>
    34a2:	5c cf       	rjmp	.-328    	; 0x335c <hmac_sha256+0x6a>

000034a4 <sha256_init>:
 * \c sh256_init c initialises the given sha256 context for hashing
 * @param state pointer to a sha256 context
 * @return none
 */
void sha256_init(sha256_ctx_t *state){
	state->length=0;
    34a4:	fc 01       	movw	r30, r24
    34a6:	10 a2       	std	Z+32, r1	; 0x20
    34a8:	11 a2       	std	Z+33, r1	; 0x21
    34aa:	12 a2       	std	Z+34, r1	; 0x22
    34ac:	13 a2       	std	Z+35, r1	; 0x23
	memcpy_P(state->h, sha256_init_vector, 8*4);
    34ae:	40 e2       	ldi	r20, 0x20	; 32
    34b0:	50 e0       	ldi	r21, 0x00	; 0
    34b2:	64 e9       	ldi	r22, 0x94	; 148
    34b4:	70 e0       	ldi	r23, 0x00	; 0
    34b6:	0c 94 12 2b 	jmp	0x5624	; 0x5624 <memcpy_P>

000034ba <sha256_nextBlock>:
}

/*************************************************************************/
void sha256_nextBlock (sha256_ctx_t *state, const void *block){
	sha2_small_common_nextBlock(state, block);
    34ba:	0c 94 b0 25 	jmp	0x4b60	; 0x4b60 <sha2_small_common_nextBlock>

000034be <sha256_lastBlock>:
}

/*************************************************************************/
void sha256_lastBlock (sha256_ctx_t *state, const void *block, uint16_t length_b){
	sha2_small_common_lastBlock(state, block, length_b);
    34be:	0c 94 c7 28 	jmp	0x518e	; 0x518e <sha2_small_common_lastBlock>

000034c2 <sha256>:
/*************************************************************************/

/*
 * length in bits!
 */
void sha256(void *dest, const void *msg, uint32_t length_b){ /* length could be choosen longer but this is for C */
    34c2:	4f 92       	push	r4
    34c4:	5f 92       	push	r5
    34c6:	6f 92       	push	r6
    34c8:	7f 92       	push	r7
    34ca:	8f 92       	push	r8
    34cc:	9f 92       	push	r9
    34ce:	af 92       	push	r10
    34d0:	bf 92       	push	r11
    34d2:	cf 92       	push	r12
    34d4:	df 92       	push	r13
    34d6:	ef 92       	push	r14
    34d8:	ff 92       	push	r15
    34da:	0f 93       	push	r16
    34dc:	1f 93       	push	r17
    34de:	cf 93       	push	r28
    34e0:	df 93       	push	r29
    34e2:	cd b7       	in	r28, 0x3d	; 61
    34e4:	de b7       	in	r29, 0x3e	; 62
    34e6:	a4 97       	sbiw	r28, 0x24	; 36
    34e8:	0f b6       	in	r0, 0x3f	; 63
    34ea:	f8 94       	cli
    34ec:	de bf       	out	0x3e, r29	; 62
    34ee:	0f be       	out	0x3f, r0	; 63
    34f0:	cd bf       	out	0x3d, r28	; 61
    34f2:	8c 01       	movw	r16, r24
    34f4:	6b 01       	movw	r12, r22
    34f6:	29 01       	movw	r4, r18
    34f8:	3a 01       	movw	r6, r20
 * \c sh256_init c initialises the given sha256 context for hashing
 * @param state pointer to a sha256 context
 * @return none
 */
void sha256_init(sha256_ctx_t *state){
	state->length=0;
    34fa:	19 a2       	std	Y+33, r1	; 0x21
    34fc:	1a a2       	std	Y+34, r1	; 0x22
    34fe:	1b a2       	std	Y+35, r1	; 0x23
    3500:	1c a2       	std	Y+36, r1	; 0x24
	memcpy_P(state->h, sha256_init_vector, 8*4);
    3502:	40 e2       	ldi	r20, 0x20	; 32
    3504:	50 e0       	ldi	r21, 0x00	; 0
    3506:	64 e9       	ldi	r22, 0x94	; 148
    3508:	70 e0       	ldi	r23, 0x00	; 0
    350a:	ce 01       	movw	r24, r28
    350c:	01 96       	adiw	r24, 0x01	; 1
    350e:	0e 94 12 2b 	call	0x5624	; 0x5624 <memcpy_P>
 * length in bits!
 */
void sha256(void *dest, const void *msg, uint32_t length_b){ /* length could be choosen longer but this is for C */
	sha256_ctx_t s;
	sha256_init(&s);
	while(length_b >= SHA256_BLOCK_BITS){
    3512:	41 14       	cp	r4, r1
    3514:	82 e0       	ldi	r24, 0x02	; 2
    3516:	58 06       	cpc	r5, r24
    3518:	61 04       	cpc	r6, r1
    351a:	71 04       	cpc	r7, r1
    351c:	88 f1       	brcs	.+98     	; 0x3580 <sha256+0xbe>
    351e:	53 01       	movw	r10, r6
    3520:	42 01       	movw	r8, r4
    3522:	76 01       	movw	r14, r12
	memcpy_P(state->h, sha256_init_vector, 8*4);
}

/*************************************************************************/
void sha256_nextBlock (sha256_ctx_t *state, const void *block){
	sha2_small_common_nextBlock(state, block);
    3524:	b7 01       	movw	r22, r14
    3526:	ce 01       	movw	r24, r28
    3528:	01 96       	adiw	r24, 0x01	; 1
    352a:	0e 94 b0 25 	call	0x4b60	; 0x4b60 <sha2_small_common_nextBlock>
void sha256(void *dest, const void *msg, uint32_t length_b){ /* length could be choosen longer but this is for C */
	sha256_ctx_t s;
	sha256_init(&s);
	while(length_b >= SHA256_BLOCK_BITS){
		sha256_nextBlock(&s, msg);
		msg = (uint8_t*)msg + SHA256_BLOCK_BITS/8;
    352e:	80 e4       	ldi	r24, 0x40	; 64
    3530:	e8 0e       	add	r14, r24
    3532:	f1 1c       	adc	r15, r1
		length_b -= SHA256_BLOCK_BITS;
    3534:	82 e0       	ldi	r24, 0x02	; 2
    3536:	98 1a       	sub	r9, r24
    3538:	a1 08       	sbc	r10, r1
    353a:	b1 08       	sbc	r11, r1
 * length in bits!
 */
void sha256(void *dest, const void *msg, uint32_t length_b){ /* length could be choosen longer but this is for C */
	sha256_ctx_t s;
	sha256_init(&s);
	while(length_b >= SHA256_BLOCK_BITS){
    353c:	81 14       	cp	r8, r1
    353e:	82 e0       	ldi	r24, 0x02	; 2
    3540:	98 06       	cpc	r9, r24
    3542:	a1 04       	cpc	r10, r1
    3544:	b1 04       	cpc	r11, r1
    3546:	70 f7       	brcc	.-36     	; 0x3524 <sha256+0x62>
    3548:	d3 01       	movw	r26, r6
    354a:	c2 01       	movw	r24, r4
    354c:	92 50       	subi	r25, 0x02	; 2
    354e:	a1 09       	sbc	r26, r1
    3550:	b1 09       	sbc	r27, r1
    3552:	29 e0       	ldi	r18, 0x09	; 9
    3554:	b6 95       	lsr	r27
    3556:	a7 95       	ror	r26
    3558:	97 95       	ror	r25
    355a:	87 95       	ror	r24
    355c:	2a 95       	dec	r18
    355e:	d1 f7       	brne	.-12     	; 0x3554 <sha256+0x92>
    3560:	01 96       	adiw	r24, 0x01	; 1
    3562:	00 24       	eor	r0, r0
    3564:	96 95       	lsr	r25
    3566:	87 95       	ror	r24
    3568:	07 94       	ror	r0
    356a:	96 95       	lsr	r25
    356c:	87 95       	ror	r24
    356e:	07 94       	ror	r0
    3570:	98 2f       	mov	r25, r24
    3572:	80 2d       	mov	r24, r0
    3574:	c8 0e       	add	r12, r24
    3576:	d9 1e       	adc	r13, r25
    3578:	81 e0       	ldi	r24, 0x01	; 1
    357a:	58 22       	and	r5, r24
    357c:	66 24       	eor	r6, r6
    357e:	77 24       	eor	r7, r7
	sha2_small_common_nextBlock(state, block);
}

/*************************************************************************/
void sha256_lastBlock (sha256_ctx_t *state, const void *block, uint16_t length_b){
	sha2_small_common_lastBlock(state, block, length_b);
    3580:	a2 01       	movw	r20, r4
    3582:	b6 01       	movw	r22, r12
    3584:	ce 01       	movw	r24, r28
    3586:	01 96       	adiw	r24, 0x01	; 1
    3588:	0e 94 c7 28 	call	0x518e	; 0x518e <sha2_small_common_lastBlock>

/*************************************************************************/

void sha256_ctx2hash(void *dest, const sha256_ctx_t *state){
#if defined LITTLE_ENDIAN
	uint8_t i, j, *s=(uint8_t*)(state->h);
    358c:	9e 01       	movw	r18, r28
    358e:	2f 5f       	subi	r18, 0xFF	; 255
    3590:	3f 4f       	sbci	r19, 0xFF	; 255
    3592:	ae 01       	movw	r20, r28
    3594:	4f 5d       	subi	r20, 0xDF	; 223
    3596:	5f 4f       	sbci	r21, 0xFF	; 255
    3598:	f8 01       	movw	r30, r16
	i=8;
	do{
		j=3;
    359a:	83 e0       	ldi	r24, 0x03	; 3
		do{
			*((uint8_t*)dest) = s[j];
    359c:	d9 01       	movw	r26, r18
    359e:	a8 0f       	add	r26, r24
    35a0:	b1 1d       	adc	r27, r1
    35a2:	9c 91       	ld	r25, X
    35a4:	91 93       	st	Z+, r25
			dest = (uint8_t*)dest + 1;
		}while(j--);
    35a6:	81 50       	subi	r24, 0x01	; 1
    35a8:	c8 f7       	brcc	.-14     	; 0x359c <sha256+0xda>
    35aa:	0c 5f       	subi	r16, 0xFC	; 252
    35ac:	1f 4f       	sbci	r17, 0xFF	; 255
		s += 4;
    35ae:	2c 5f       	subi	r18, 0xFC	; 252
    35b0:	3f 4f       	sbci	r19, 0xFF	; 255
	}while(--i);
    35b2:	24 17       	cp	r18, r20
    35b4:	35 07       	cpc	r19, r21
    35b6:	81 f7       	brne	.-32     	; 0x3598 <sha256+0xd6>
		msg = (uint8_t*)msg + SHA256_BLOCK_BITS/8;
		length_b -= SHA256_BLOCK_BITS;
	}
	sha256_lastBlock(&s, msg, length_b);
	sha256_ctx2hash(dest,&s);
}
    35b8:	a4 96       	adiw	r28, 0x24	; 36
    35ba:	0f b6       	in	r0, 0x3f	; 63
    35bc:	f8 94       	cli
    35be:	de bf       	out	0x3e, r29	; 62
    35c0:	0f be       	out	0x3f, r0	; 63
    35c2:	cd bf       	out	0x3d, r28	; 61
    35c4:	df 91       	pop	r29
    35c6:	cf 91       	pop	r28
    35c8:	1f 91       	pop	r17
    35ca:	0f 91       	pop	r16
    35cc:	ff 90       	pop	r15
    35ce:	ef 90       	pop	r14
    35d0:	df 90       	pop	r13
    35d2:	cf 90       	pop	r12
    35d4:	bf 90       	pop	r11
    35d6:	af 90       	pop	r10
    35d8:	9f 90       	pop	r9
    35da:	8f 90       	pop	r8
    35dc:	7f 90       	pop	r7
    35de:	6f 90       	pop	r6
    35e0:	5f 90       	pop	r5
    35e2:	4f 90       	pop	r4
    35e4:	08 95       	ret

000035e6 <sha256_ctx2hash>:



/*************************************************************************/

void sha256_ctx2hash(void *dest, const sha256_ctx_t *state){
    35e6:	cf 93       	push	r28
    35e8:	df 93       	push	r29
    35ea:	ac 01       	movw	r20, r24
    35ec:	ec 01       	movw	r28, r24
    35ee:	a0 96       	adiw	r28, 0x20	; 32
    35f0:	fa 01       	movw	r30, r20
#if defined LITTLE_ENDIAN
	uint8_t i, j, *s=(uint8_t*)(state->h);
	i=8;
	do{
		j=3;
    35f2:	93 e0       	ldi	r25, 0x03	; 3
		do{
			*((uint8_t*)dest) = s[j];
    35f4:	db 01       	movw	r26, r22
    35f6:	a9 0f       	add	r26, r25
    35f8:	b1 1d       	adc	r27, r1
    35fa:	2c 91       	ld	r18, X
    35fc:	21 93       	st	Z+, r18
			dest = (uint8_t*)dest + 1;
		}while(j--);
    35fe:	91 50       	subi	r25, 0x01	; 1
    3600:	c8 f7       	brcc	.-14     	; 0x35f4 <sha256_ctx2hash+0xe>
    3602:	4c 5f       	subi	r20, 0xFC	; 252
    3604:	5f 4f       	sbci	r21, 0xFF	; 255
		s += 4;
    3606:	6c 5f       	subi	r22, 0xFC	; 252
    3608:	7f 4f       	sbci	r23, 0xFF	; 255
	}while(--i);
    360a:	c4 17       	cp	r28, r20
    360c:	d5 07       	cpc	r29, r21
    360e:	81 f7       	brne	.-32     	; 0x35f0 <sha256_ctx2hash+0xa>
#elif BIG_ENDIAN
	memcpy(dest, state->h, 32);
#else
# error unsupported endian type!
#endif
}
    3610:	df 91       	pop	r29
    3612:	cf 91       	pop	r28
    3614:	08 95       	ret

00003616 <sha2_large_common_nextBlock>:
#define SIGMA_0(x) (rotr64((x), 28) ^ rotl64((x), 30) ^ rotl64((x), 25))
#define SIGMA_1(x) (rotr64((x), 14) ^ rotr64((x), 18) ^ rotl64((x), 23))
#define SIGMA_a(x) (rotr64((x),  1) ^ rotr64((x),  8) ^ ((x)>>7))
#define SIGMA_b(x) (rotr64((x), 19) ^ rotl64((x),  3) ^ ((x)>>6))

void sha2_large_common_nextBlock(sha2_large_common_ctx_t *ctx, const void *block){
    3616:	2f 92       	push	r2
    3618:	3f 92       	push	r3
    361a:	4f 92       	push	r4
    361c:	5f 92       	push	r5
    361e:	6f 92       	push	r6
    3620:	7f 92       	push	r7
    3622:	8f 92       	push	r8
    3624:	9f 92       	push	r9
    3626:	af 92       	push	r10
    3628:	bf 92       	push	r11
    362a:	cf 92       	push	r12
    362c:	df 92       	push	r13
    362e:	ef 92       	push	r14
    3630:	ff 92       	push	r15
    3632:	0f 93       	push	r16
    3634:	1f 93       	push	r17
    3636:	cf 93       	push	r28
    3638:	df 93       	push	r29
    363a:	cd b7       	in	r28, 0x3d	; 61
    363c:	de b7       	in	r29, 0x3e	; 62
    363e:	c2 5f       	subi	r28, 0xF2	; 242
    3640:	d1 09       	sbc	r29, r1
    3642:	0f b6       	in	r0, 0x3f	; 63
    3644:	f8 94       	cli
    3646:	de bf       	out	0x3e, r29	; 62
    3648:	0f be       	out	0x3f, r0	; 63
    364a:	cd bf       	out	0x3d, r28	; 61
    364c:	cf 50       	subi	r28, 0x0F	; 15
    364e:	df 4f       	sbci	r29, 0xFF	; 255
    3650:	99 83       	std	Y+1, r25	; 0x01
    3652:	88 83       	st	Y, r24
    3654:	c1 5f       	subi	r28, 0xF1	; 241
    3656:	d0 40       	sbci	r29, 0x00	; 0
    3658:	c5 53       	subi	r28, 0x35	; 53
    365a:	df 4f       	sbci	r29, 0xFF	; 255
    365c:	79 83       	std	Y+1, r23	; 0x01
    365e:	68 83       	st	Y, r22
    3660:	cb 5c       	subi	r28, 0xCB	; 203
    3662:	d0 40       	sbci	r29, 0x00	; 0
    3664:	ce 01       	movw	r24, r28
    3666:	01 96       	adiw	r24, 0x01	; 1
    3668:	cb 51       	subi	r28, 0x1B	; 27
    366a:	df 4f       	sbci	r29, 0xFF	; 255
    366c:	99 83       	std	Y+1, r25	; 0x01
    366e:	88 83       	st	Y, r24
    3670:	c5 5e       	subi	r28, 0xE5	; 229
    3672:	d0 40       	sbci	r29, 0x00	; 0
    3674:	2e 01       	movw	r4, r28
    3676:	91 e8       	ldi	r25, 0x81	; 129
    3678:	49 0e       	add	r4, r25
    367a:	51 1c       	adc	r5, r1
    367c:	de 01       	movw	r26, r28
    367e:	11 96       	adiw	r26, 0x01	; 1
    3680:	c7 53       	subi	r28, 0x37	; 55
    3682:	df 4f       	sbci	r29, 0xFF	; 255
    3684:	b9 83       	std	Y+1, r27	; 0x01
    3686:	a8 83       	st	Y, r26
    3688:	c9 5c       	subi	r28, 0xC9	; 201
    368a:	d0 40       	sbci	r29, 0x00	; 0
	uint64_t t1, t2;
	const uint64_t *k=sha2_large_common_const;
	uint8_t i;
	i=16;
	do{
		w[16-i] = change_endian64(*((const uint64_t*)block));
    368c:	c5 53       	subi	r28, 0x35	; 53
    368e:	df 4f       	sbci	r29, 0xFF	; 255
    3690:	a8 81       	ld	r26, Y
    3692:	b9 81       	ldd	r27, Y+1	; 0x01
    3694:	cb 5c       	subi	r28, 0xCB	; 203
    3696:	d0 40       	sbci	r29, 0x00	; 0
    3698:	ec 91       	ld	r30, X
    369a:	11 96       	adiw	r26, 0x01	; 1
    369c:	9c 90       	ld	r9, X
    369e:	11 97       	sbiw	r26, 0x01	; 1
    36a0:	12 96       	adiw	r26, 0x02	; 2
    36a2:	ac 90       	ld	r10, X
    36a4:	12 97       	sbiw	r26, 0x02	; 2
    36a6:	13 96       	adiw	r26, 0x03	; 3
    36a8:	bc 90       	ld	r11, X
    36aa:	13 97       	sbiw	r26, 0x03	; 3
    36ac:	14 96       	adiw	r26, 0x04	; 4
    36ae:	cc 90       	ld	r12, X
    36b0:	14 97       	sbiw	r26, 0x04	; 4
    36b2:	15 96       	adiw	r26, 0x05	; 5
    36b4:	dc 90       	ld	r13, X
    36b6:	15 97       	sbiw	r26, 0x05	; 5
    36b8:	16 96       	adiw	r26, 0x06	; 6
    36ba:	2c 90       	ld	r2, X
    36bc:	16 97       	sbiw	r26, 0x06	; 6
    36be:	17 96       	adiw	r26, 0x07	; 7
    36c0:	3c 90       	ld	r3, X
    36c2:	17 97       	sbiw	r26, 0x07	; 7
    36c4:	18 96       	adiw	r26, 0x08	; 8
    36c6:	c5 53       	subi	r28, 0x35	; 53
    36c8:	df 4f       	sbci	r29, 0xFF	; 255
    36ca:	b9 83       	std	Y+1, r27	; 0x01
    36cc:	a8 83       	st	Y, r26
    36ce:	cb 5c       	subi	r28, 0xCB	; 203
    36d0:	d0 40       	sbci	r29, 0x00	; 0
    36d2:	28 e0       	ldi	r18, 0x08	; 8
    36d4:	82 2e       	mov	r8, r18
};


static const
uint64_t change_endian64(uint64_t x){
	uint64_t r=0;
    36d6:	e1 2c       	mov	r14, r1
    36d8:	f1 2c       	mov	r15, r1
    36da:	10 e0       	ldi	r17, 0x00	; 0
    36dc:	b0 e0       	ldi	r27, 0x00	; 0
    36de:	a0 e0       	ldi	r26, 0x00	; 0
    36e0:	c3 53       	subi	r28, 0x33	; 51
    36e2:	df 4f       	sbci	r29, 0xFF	; 255
    36e4:	18 82       	st	Y, r1
    36e6:	cd 5c       	subi	r28, 0xCD	; 205
    36e8:	d0 40       	sbci	r29, 0x00	; 0
    36ea:	61 2c       	mov	r6, r1
    36ec:	71 2c       	mov	r7, r1
	uint8_t i=8;
	do{
		r <<= 8;
    36ee:	97 01       	movw	r18, r14
    36f0:	41 2f       	mov	r20, r17
    36f2:	5b 2f       	mov	r21, r27
    36f4:	6a 2f       	mov	r22, r26
    36f6:	c3 53       	subi	r28, 0x33	; 51
    36f8:	df 4f       	sbci	r29, 0xFF	; 255
    36fa:	78 81       	ld	r23, Y
    36fc:	cd 5c       	subi	r28, 0xCD	; 205
    36fe:	d0 40       	sbci	r29, 0x00	; 0
    3700:	c3 01       	movw	r24, r6
    3702:	08 e0       	ldi	r16, 0x08	; 8
    3704:	0e 94 62 2a 	call	0x54c4	; 0x54c4 <__ashldi3>
		r |= 0xff&x;
    3708:	ee 2e       	mov	r14, r30
    370a:	e2 2a       	or	r14, r18
    370c:	f3 2e       	mov	r15, r19
    370e:	14 2f       	mov	r17, r20
    3710:	b5 2f       	mov	r27, r21
    3712:	a6 2f       	mov	r26, r22
    3714:	c3 53       	subi	r28, 0x33	; 51
    3716:	df 4f       	sbci	r29, 0xFF	; 255
    3718:	78 83       	st	Y, r23
    371a:	cd 5c       	subi	r28, 0xCD	; 205
    371c:	d0 40       	sbci	r29, 0x00	; 0
    371e:	3c 01       	movw	r6, r24
		x >>=8;
    3720:	2e 2f       	mov	r18, r30
    3722:	39 2d       	mov	r19, r9
    3724:	a5 01       	movw	r20, r10
    3726:	b6 01       	movw	r22, r12
    3728:	c1 01       	movw	r24, r2
    372a:	0e 94 7d 2a 	call	0x54fa	; 0x54fa <__lshrdi3>
    372e:	e2 2f       	mov	r30, r18
    3730:	93 2e       	mov	r9, r19
    3732:	5a 01       	movw	r10, r20
    3734:	6b 01       	movw	r12, r22
    3736:	1c 01       	movw	r2, r24
    3738:	8a 94       	dec	r8
	}while(--i);
    373a:	81 10       	cpse	r8, r1
    373c:	d8 cf       	rjmp	.-80     	; 0x36ee <sha2_large_common_nextBlock+0xd8>
	uint64_t t1, t2;
	const uint64_t *k=sha2_large_common_const;
	uint8_t i;
	i=16;
	do{
		w[16-i] = change_endian64(*((const uint64_t*)block));
    373e:	c7 53       	subi	r28, 0x37	; 55
    3740:	df 4f       	sbci	r29, 0xFF	; 255
    3742:	e8 81       	ld	r30, Y
    3744:	f9 81       	ldd	r31, Y+1	; 0x01
    3746:	c9 5c       	subi	r28, 0xC9	; 201
    3748:	d0 40       	sbci	r29, 0x00	; 0
    374a:	e0 82       	st	Z, r14
    374c:	f1 82       	std	Z+1, r15	; 0x01
    374e:	12 83       	std	Z+2, r17	; 0x02
    3750:	b3 83       	std	Z+3, r27	; 0x03
    3752:	a4 83       	std	Z+4, r26	; 0x04
    3754:	c3 53       	subi	r28, 0x33	; 51
    3756:	df 4f       	sbci	r29, 0xFF	; 255
    3758:	18 81       	ld	r17, Y
    375a:	cd 5c       	subi	r28, 0xCD	; 205
    375c:	d0 40       	sbci	r29, 0x00	; 0
    375e:	15 83       	std	Z+5, r17	; 0x05
    3760:	66 82       	std	Z+6, r6	; 0x06
    3762:	77 82       	std	Z+7, r7	; 0x07
    3764:	38 96       	adiw	r30, 0x08	; 8
    3766:	c7 53       	subi	r28, 0x37	; 55
    3768:	df 4f       	sbci	r29, 0xFF	; 255
    376a:	f9 83       	std	Y+1, r31	; 0x01
    376c:	e8 83       	st	Y, r30
    376e:	c9 5c       	subi	r28, 0xC9	; 201
    3770:	d0 40       	sbci	r29, 0x00	; 0
		block = (uint8_t*)block + 8;
	}while(--i);
    3772:	e4 15       	cp	r30, r4
    3774:	f5 05       	cpc	r31, r5
    3776:	09 f0       	breq	.+2      	; 0x377a <sha2_large_common_nextBlock+0x164>
    3778:	89 cf       	rjmp	.-238    	; 0x368c <sha2_large_common_nextBlock+0x76>
	memcpy(a, ctx->h, 8*8);
    377a:	80 e4       	ldi	r24, 0x40	; 64
    377c:	cf 50       	subi	r28, 0x0F	; 15
    377e:	df 4f       	sbci	r29, 0xFF	; 255
    3780:	e8 81       	ld	r30, Y
    3782:	f9 81       	ldd	r31, Y+1	; 0x01
    3784:	c1 5f       	subi	r28, 0xF1	; 241
    3786:	d0 40       	sbci	r29, 0x00	; 0
    3788:	d2 01       	movw	r26, r4
    378a:	01 90       	ld	r0, Z+
    378c:	0d 92       	st	X+, r0
    378e:	8a 95       	dec	r24
    3790:	e1 f7       	brne	.-8      	; 0x378a <sha2_large_common_nextBlock+0x174>
    3792:	d2 01       	movw	r26, r4
    3794:	90 96       	adiw	r26, 0x20	; 32
    3796:	bc 91       	ld	r27, X
    3798:	c7 53       	subi	r28, 0x37	; 55
    379a:	df 4f       	sbci	r29, 0xFF	; 255
    379c:	b8 83       	st	Y, r27
    379e:	c9 5c       	subi	r28, 0xC9	; 201
    37a0:	d0 40       	sbci	r29, 0x00	; 0
    37a2:	f2 01       	movw	r30, r4
    37a4:	f1 a1       	ldd	r31, Z+33	; 0x21
    37a6:	c5 53       	subi	r28, 0x35	; 53
    37a8:	df 4f       	sbci	r29, 0xFF	; 255
    37aa:	f8 83       	st	Y, r31
    37ac:	cb 5c       	subi	r28, 0xCB	; 203
    37ae:	d0 40       	sbci	r29, 0x00	; 0
    37b0:	d2 01       	movw	r26, r4
    37b2:	92 96       	adiw	r26, 0x22	; 34
    37b4:	bc 91       	ld	r27, X
    37b6:	c3 53       	subi	r28, 0x33	; 51
    37b8:	df 4f       	sbci	r29, 0xFF	; 255
    37ba:	b8 83       	st	Y, r27
    37bc:	cd 5c       	subi	r28, 0xCD	; 205
    37be:	d0 40       	sbci	r29, 0x00	; 0
    37c0:	f2 01       	movw	r30, r4
    37c2:	f3 a1       	ldd	r31, Z+35	; 0x23
    37c4:	c2 53       	subi	r28, 0x32	; 50
    37c6:	df 4f       	sbci	r29, 0xFF	; 255
    37c8:	f8 83       	st	Y, r31
    37ca:	ce 5c       	subi	r28, 0xCE	; 206
    37cc:	d0 40       	sbci	r29, 0x00	; 0
    37ce:	d2 01       	movw	r26, r4
    37d0:	94 96       	adiw	r26, 0x24	; 36
    37d2:	bc 91       	ld	r27, X
    37d4:	c1 53       	subi	r28, 0x31	; 49
    37d6:	df 4f       	sbci	r29, 0xFF	; 255
    37d8:	b8 83       	st	Y, r27
    37da:	cf 5c       	subi	r28, 0xCF	; 207
    37dc:	d0 40       	sbci	r29, 0x00	; 0
    37de:	f2 01       	movw	r30, r4
    37e0:	25 a0       	ldd	r2, Z+37	; 0x25
    37e2:	36 a0       	ldd	r3, Z+38	; 0x26
    37e4:	67 a0       	ldd	r6, Z+39	; 0x27
    37e6:	f0 81       	ld	r31, Z
    37e8:	c3 52       	subi	r28, 0x23	; 35
    37ea:	df 4f       	sbci	r29, 0xFF	; 255
    37ec:	f8 83       	st	Y, r31
    37ee:	cd 5d       	subi	r28, 0xDD	; 221
    37f0:	d0 40       	sbci	r29, 0x00	; 0
    37f2:	d2 01       	movw	r26, r4
    37f4:	11 96       	adiw	r26, 0x01	; 1
    37f6:	bc 91       	ld	r27, X
    37f8:	c2 52       	subi	r28, 0x22	; 34
    37fa:	df 4f       	sbci	r29, 0xFF	; 255
    37fc:	b8 83       	st	Y, r27
    37fe:	ce 5d       	subi	r28, 0xDE	; 222
    3800:	d0 40       	sbci	r29, 0x00	; 0
    3802:	f2 01       	movw	r30, r4
    3804:	f2 81       	ldd	r31, Z+2	; 0x02
    3806:	c1 52       	subi	r28, 0x21	; 33
    3808:	df 4f       	sbci	r29, 0xFF	; 255
    380a:	f8 83       	st	Y, r31
    380c:	cf 5d       	subi	r28, 0xDF	; 223
    380e:	d0 40       	sbci	r29, 0x00	; 0
    3810:	d2 01       	movw	r26, r4
    3812:	13 96       	adiw	r26, 0x03	; 3
    3814:	bc 91       	ld	r27, X
    3816:	c0 52       	subi	r28, 0x20	; 32
    3818:	df 4f       	sbci	r29, 0xFF	; 255
    381a:	b8 83       	st	Y, r27
    381c:	c0 5e       	subi	r28, 0xE0	; 224
    381e:	d0 40       	sbci	r29, 0x00	; 0
    3820:	f2 01       	movw	r30, r4
    3822:	f4 81       	ldd	r31, Z+4	; 0x04
    3824:	cf 51       	subi	r28, 0x1F	; 31
    3826:	df 4f       	sbci	r29, 0xFF	; 255
    3828:	f8 83       	st	Y, r31
    382a:	c1 5e       	subi	r28, 0xE1	; 225
    382c:	d0 40       	sbci	r29, 0x00	; 0
    382e:	d2 01       	movw	r26, r4
    3830:	15 96       	adiw	r26, 0x05	; 5
    3832:	bc 91       	ld	r27, X
    3834:	ce 51       	subi	r28, 0x1E	; 30
    3836:	df 4f       	sbci	r29, 0xFF	; 255
    3838:	b8 83       	st	Y, r27
    383a:	c2 5e       	subi	r28, 0xE2	; 226
    383c:	d0 40       	sbci	r29, 0x00	; 0
    383e:	f2 01       	movw	r30, r4
    3840:	f6 81       	ldd	r31, Z+6	; 0x06
    3842:	cd 51       	subi	r28, 0x1D	; 29
    3844:	df 4f       	sbci	r29, 0xFF	; 255
    3846:	f8 83       	st	Y, r31
    3848:	c3 5e       	subi	r28, 0xE3	; 227
    384a:	d0 40       	sbci	r29, 0x00	; 0
    384c:	d2 01       	movw	r26, r4
    384e:	17 96       	adiw	r26, 0x07	; 7
    3850:	bc 91       	ld	r27, X
    3852:	cc 51       	subi	r28, 0x1C	; 28
    3854:	df 4f       	sbci	r29, 0xFF	; 255
    3856:	b8 83       	st	Y, r27
    3858:	c4 5e       	subi	r28, 0xE4	; 228
    385a:	d0 40       	sbci	r29, 0x00	; 0
    385c:	e4 eb       	ldi	r30, 0xB4	; 180
    385e:	f0 e0       	ldi	r31, 0x00	; 0
    3860:	c8 51       	subi	r28, 0x18	; 24
    3862:	df 4f       	sbci	r29, 0xFF	; 255
    3864:	f9 83       	std	Y+1, r31	; 0x01
    3866:	e8 83       	st	Y, r30
    3868:	c8 5e       	subi	r28, 0xE8	; 232
    386a:	d0 40       	sbci	r29, 0x00	; 0
	for(i=0; i<80; ++i){
    386c:	c9 51       	subi	r28, 0x19	; 25
    386e:	df 4f       	sbci	r29, 0xFF	; 255
    3870:	18 82       	st	Y, r1
    3872:	c7 5e       	subi	r28, 0xE7	; 231
    3874:	d0 40       	sbci	r29, 0x00	; 0
			memmove(&(w[0]), &(w[1]), 15*8);
			w[15] = wx;
		}
		t1 = a[7] + SIGMA_1(a[4]) + CH(a[4], a[5], a[6]) + pgm_read_uint64_t_P(k++) + wx;
		t2 = SIGMA_0(a[0]) + MAJ(a[0], a[1], a[2]);
		memmove(&(a[1]), &(a[0]), 7*8);
    3876:	c2 01       	movw	r24, r4
    3878:	08 96       	adiw	r24, 0x08	; 8
    387a:	c1 51       	subi	r28, 0x11	; 17
    387c:	df 4f       	sbci	r29, 0xFF	; 255
    387e:	99 83       	std	Y+1, r25	; 0x01
    3880:	88 83       	st	Y, r24
    3882:	cf 5e       	subi	r28, 0xEF	; 239
    3884:	d0 40       	sbci	r29, 0x00	; 0
    3886:	c0 53       	subi	r28, 0x30	; 48
    3888:	df 4f       	sbci	r29, 0xFF	; 255
    388a:	38 82       	st	Y, r3
    388c:	c0 5d       	subi	r28, 0xD0	; 208
    388e:	d0 40       	sbci	r29, 0x00	; 0
    3890:	cf 52       	subi	r28, 0x2F	; 47
    3892:	df 4f       	sbci	r29, 0xFF	; 255
    3894:	68 82       	st	Y, r6
    3896:	c1 5d       	subi	r28, 0xD1	; 209
    3898:	d0 40       	sbci	r29, 0x00	; 0
    389a:	fa c6       	rjmp	.+3572   	; 0x4690 <sha2_large_common_nextBlock+0x107a>
	memcpy(a, ctx->h, 8*8);
	for(i=0; i<80; ++i){
		if(i<16){
			wx=w[i];
		}else{
			wx = SIGMA_b(w[14]) + w[9] + SIGMA_a(w[1]) + w[0];
    389c:	e2 96       	adiw	r28, 0x32	; 50
    389e:	3f ac       	ldd	r3, Y+63	; 0x3f
    38a0:	e2 97       	sbiw	r28, 0x32	; 50
    38a2:	e3 96       	adiw	r28, 0x33	; 51
    38a4:	6f ac       	ldd	r6, Y+63	; 0x3f
    38a6:	e3 97       	sbiw	r28, 0x33	; 51
    38a8:	e4 96       	adiw	r28, 0x34	; 52
    38aa:	7f ac       	ldd	r7, Y+63	; 0x3f
    38ac:	e4 97       	sbiw	r28, 0x34	; 52
    38ae:	e5 96       	adiw	r28, 0x35	; 53
    38b0:	8f ac       	ldd	r8, Y+63	; 0x3f
    38b2:	e5 97       	sbiw	r28, 0x35	; 53
    38b4:	e6 96       	adiw	r28, 0x36	; 54
    38b6:	9f ac       	ldd	r9, Y+63	; 0x3f
    38b8:	e6 97       	sbiw	r28, 0x36	; 54
    38ba:	e7 96       	adiw	r28, 0x37	; 55
    38bc:	bf ad       	ldd	r27, Y+63	; 0x3f
    38be:	e7 97       	sbiw	r28, 0x37	; 55
    38c0:	e8 96       	adiw	r28, 0x38	; 56
    38c2:	af ad       	ldd	r26, Y+63	; 0x3f
    38c4:	e8 97       	sbiw	r28, 0x38	; 56
    38c6:	e9 96       	adiw	r28, 0x39	; 57
    38c8:	ff ad       	ldd	r31, Y+63	; 0x3f
    38ca:	e9 97       	sbiw	r28, 0x39	; 57
    38cc:	e9 85       	ldd	r30, Y+9	; 0x09
    38ce:	ce 52       	subi	r28, 0x2E	; 46
    38d0:	df 4f       	sbci	r29, 0xFF	; 255
    38d2:	e8 83       	st	Y, r30
    38d4:	c2 5d       	subi	r28, 0xD2	; 210
    38d6:	d0 40       	sbci	r29, 0x00	; 0
    38d8:	ea 85       	ldd	r30, Y+10	; 0x0a
    38da:	cd 52       	subi	r28, 0x2D	; 45
    38dc:	df 4f       	sbci	r29, 0xFF	; 255
    38de:	e8 83       	st	Y, r30
    38e0:	c3 5d       	subi	r28, 0xD3	; 211
    38e2:	d0 40       	sbci	r29, 0x00	; 0
    38e4:	eb 85       	ldd	r30, Y+11	; 0x0b
    38e6:	cc 52       	subi	r28, 0x2C	; 44
    38e8:	df 4f       	sbci	r29, 0xFF	; 255
    38ea:	e8 83       	st	Y, r30
    38ec:	c4 5d       	subi	r28, 0xD4	; 212
    38ee:	d0 40       	sbci	r29, 0x00	; 0
    38f0:	ec 85       	ldd	r30, Y+12	; 0x0c
    38f2:	cb 52       	subi	r28, 0x2B	; 43
    38f4:	df 4f       	sbci	r29, 0xFF	; 255
    38f6:	e8 83       	st	Y, r30
    38f8:	c5 5d       	subi	r28, 0xD5	; 213
    38fa:	d0 40       	sbci	r29, 0x00	; 0
    38fc:	ed 85       	ldd	r30, Y+13	; 0x0d
    38fe:	ca 52       	subi	r28, 0x2A	; 42
    3900:	df 4f       	sbci	r29, 0xFF	; 255
    3902:	e8 83       	st	Y, r30
    3904:	c6 5d       	subi	r28, 0xD6	; 214
    3906:	d0 40       	sbci	r29, 0x00	; 0
    3908:	ee 85       	ldd	r30, Y+14	; 0x0e
    390a:	c9 52       	subi	r28, 0x29	; 41
    390c:	df 4f       	sbci	r29, 0xFF	; 255
    390e:	e8 83       	st	Y, r30
    3910:	c7 5d       	subi	r28, 0xD7	; 215
    3912:	d0 40       	sbci	r29, 0x00	; 0
    3914:	ef 85       	ldd	r30, Y+15	; 0x0f
    3916:	c8 52       	subi	r28, 0x28	; 40
    3918:	df 4f       	sbci	r29, 0xFF	; 255
    391a:	e8 83       	st	Y, r30
    391c:	c8 5d       	subi	r28, 0xD8	; 216
    391e:	d0 40       	sbci	r29, 0x00	; 0
    3920:	e8 89       	ldd	r30, Y+16	; 0x10
    3922:	c7 52       	subi	r28, 0x27	; 39
    3924:	df 4f       	sbci	r29, 0xFF	; 255
    3926:	e8 83       	st	Y, r30
    3928:	c9 5d       	subi	r28, 0xD9	; 217
    392a:	d0 40       	sbci	r29, 0x00	; 0
    392c:	2a 96       	adiw	r28, 0x0a	; 10
    392e:	2f ad       	ldd	r18, Y+63	; 0x3f
    3930:	2a 97       	sbiw	r28, 0x0a	; 10
    3932:	2b 96       	adiw	r28, 0x0b	; 11
    3934:	3f ad       	ldd	r19, Y+63	; 0x3f
    3936:	2b 97       	sbiw	r28, 0x0b	; 11
    3938:	2c 96       	adiw	r28, 0x0c	; 12
    393a:	4f ad       	ldd	r20, Y+63	; 0x3f
    393c:	2c 97       	sbiw	r28, 0x0c	; 12
    393e:	2d 96       	adiw	r28, 0x0d	; 13
    3940:	5f ad       	ldd	r21, Y+63	; 0x3f
    3942:	2d 97       	sbiw	r28, 0x0d	; 13
    3944:	2e 96       	adiw	r28, 0x0e	; 14
    3946:	6f ad       	ldd	r22, Y+63	; 0x3f
    3948:	2e 97       	sbiw	r28, 0x0e	; 14
    394a:	2f 96       	adiw	r28, 0x0f	; 15
    394c:	7f ad       	ldd	r23, Y+63	; 0x3f
    394e:	2f 97       	sbiw	r28, 0x0f	; 15
    3950:	60 96       	adiw	r28, 0x10	; 16
    3952:	8f ad       	ldd	r24, Y+63	; 0x3f
    3954:	60 97       	sbiw	r28, 0x10	; 16
    3956:	61 96       	adiw	r28, 0x11	; 17
    3958:	9f ad       	ldd	r25, Y+63	; 0x3f
    395a:	61 97       	sbiw	r28, 0x11	; 17
    395c:	a9 80       	ldd	r10, Y+1	; 0x01
    395e:	ba 80       	ldd	r11, Y+2	; 0x02
    3960:	cb 80       	ldd	r12, Y+3	; 0x03
    3962:	dc 80       	ldd	r13, Y+4	; 0x04
    3964:	ed 80       	ldd	r14, Y+5	; 0x05
    3966:	fe 80       	ldd	r15, Y+6	; 0x06
    3968:	0f 81       	ldd	r16, Y+7	; 0x07
    396a:	18 85       	ldd	r17, Y+8	; 0x08
    396c:	0e 94 b4 2a 	call	0x5568	; 0x5568 <__adddi3>
    3970:	c6 52       	subi	r28, 0x26	; 38
    3972:	df 4f       	sbci	r29, 0xFF	; 255
    3974:	28 83       	st	Y, r18
    3976:	ca 5d       	subi	r28, 0xDA	; 218
    3978:	d0 40       	sbci	r29, 0x00	; 0
    397a:	c5 52       	subi	r28, 0x25	; 37
    397c:	df 4f       	sbci	r29, 0xFF	; 255
    397e:	38 83       	st	Y, r19
    3980:	cb 5d       	subi	r28, 0xDB	; 219
    3982:	d0 40       	sbci	r29, 0x00	; 0
    3984:	c4 52       	subi	r28, 0x24	; 36
    3986:	df 4f       	sbci	r29, 0xFF	; 255
    3988:	48 83       	st	Y, r20
    398a:	cc 5d       	subi	r28, 0xDC	; 220
    398c:	d0 40       	sbci	r29, 0x00	; 0
    398e:	c6 51       	subi	r28, 0x16	; 22
    3990:	df 4f       	sbci	r29, 0xFF	; 255
    3992:	58 83       	st	Y, r21
    3994:	ca 5e       	subi	r28, 0xEA	; 234
    3996:	d0 40       	sbci	r29, 0x00	; 0
    3998:	c5 51       	subi	r28, 0x15	; 21
    399a:	df 4f       	sbci	r29, 0xFF	; 255
    399c:	68 83       	st	Y, r22
    399e:	cb 5e       	subi	r28, 0xEB	; 235
    39a0:	d0 40       	sbci	r29, 0x00	; 0
    39a2:	c4 51       	subi	r28, 0x14	; 20
    39a4:	df 4f       	sbci	r29, 0xFF	; 255
    39a6:	78 83       	st	Y, r23
    39a8:	cc 5e       	subi	r28, 0xEC	; 236
    39aa:	d0 40       	sbci	r29, 0x00	; 0
    39ac:	c3 51       	subi	r28, 0x13	; 19
    39ae:	df 4f       	sbci	r29, 0xFF	; 255
    39b0:	88 83       	st	Y, r24
    39b2:	cd 5e       	subi	r28, 0xED	; 237
    39b4:	d0 40       	sbci	r29, 0x00	; 0
    39b6:	c2 51       	subi	r28, 0x12	; 18
    39b8:	df 4f       	sbci	r29, 0xFF	; 255
    39ba:	98 83       	st	Y, r25
    39bc:	ce 5e       	subi	r28, 0xEE	; 238
    39be:	d0 40       	sbci	r29, 0x00	; 0
    39c0:	23 2d       	mov	r18, r3
    39c2:	36 2d       	mov	r19, r6
    39c4:	47 2d       	mov	r20, r7
    39c6:	58 2d       	mov	r21, r8
    39c8:	69 2d       	mov	r22, r9
    39ca:	7b 2f       	mov	r23, r27
    39cc:	8a 2f       	mov	r24, r26
    39ce:	9f 2f       	mov	r25, r31
    39d0:	03 e0       	ldi	r16, 0x03	; 3
    39d2:	0e 94 99 2a 	call	0x5532	; 0x5532 <__rotldi3>
    39d6:	59 01       	movw	r10, r18
    39d8:	6a 01       	movw	r12, r20
    39da:	7b 01       	movw	r14, r22
    39dc:	e8 2f       	mov	r30, r24
    39de:	19 2f       	mov	r17, r25
    39e0:	23 2d       	mov	r18, r3
    39e2:	36 2d       	mov	r19, r6
    39e4:	47 2d       	mov	r20, r7
    39e6:	58 2d       	mov	r21, r8
    39e8:	69 2d       	mov	r22, r9
    39ea:	7b 2f       	mov	r23, r27
    39ec:	8a 2f       	mov	r24, r26
    39ee:	9f 2f       	mov	r25, r31
    39f0:	0d e2       	ldi	r16, 0x2D	; 45
    39f2:	0e 94 99 2a 	call	0x5532	; 0x5532 <__rotldi3>
    39f6:	a2 26       	eor	r10, r18
    39f8:	b3 26       	eor	r11, r19
    39fa:	c4 26       	eor	r12, r20
    39fc:	d5 26       	eor	r13, r21
    39fe:	e6 26       	eor	r14, r22
    3a00:	f7 26       	eor	r15, r23
    3a02:	e8 27       	eor	r30, r24
    3a04:	19 27       	eor	r17, r25
    3a06:	23 2d       	mov	r18, r3
    3a08:	36 2d       	mov	r19, r6
    3a0a:	47 2d       	mov	r20, r7
    3a0c:	58 2d       	mov	r21, r8
    3a0e:	69 2d       	mov	r22, r9
    3a10:	7b 2f       	mov	r23, r27
    3a12:	8a 2f       	mov	r24, r26
    3a14:	9f 2f       	mov	r25, r31
    3a16:	06 e0       	ldi	r16, 0x06	; 6
    3a18:	0e 94 7d 2a 	call	0x54fa	; 0x54fa <__lshrdi3>
    3a1c:	a2 26       	eor	r10, r18
    3a1e:	b3 26       	eor	r11, r19
    3a20:	c4 26       	eor	r12, r20
    3a22:	d5 26       	eor	r13, r21
    3a24:	e6 26       	eor	r14, r22
    3a26:	f7 26       	eor	r15, r23
    3a28:	0e 2f       	mov	r16, r30
    3a2a:	08 27       	eor	r16, r24
    3a2c:	19 27       	eor	r17, r25
    3a2e:	c6 52       	subi	r28, 0x26	; 38
    3a30:	df 4f       	sbci	r29, 0xFF	; 255
    3a32:	28 81       	ld	r18, Y
    3a34:	ca 5d       	subi	r28, 0xDA	; 218
    3a36:	d0 40       	sbci	r29, 0x00	; 0
    3a38:	c5 52       	subi	r28, 0x25	; 37
    3a3a:	df 4f       	sbci	r29, 0xFF	; 255
    3a3c:	38 81       	ld	r19, Y
    3a3e:	cb 5d       	subi	r28, 0xDB	; 219
    3a40:	d0 40       	sbci	r29, 0x00	; 0
    3a42:	c4 52       	subi	r28, 0x24	; 36
    3a44:	df 4f       	sbci	r29, 0xFF	; 255
    3a46:	48 81       	ld	r20, Y
    3a48:	cc 5d       	subi	r28, 0xDC	; 220
    3a4a:	d0 40       	sbci	r29, 0x00	; 0
    3a4c:	c6 51       	subi	r28, 0x16	; 22
    3a4e:	df 4f       	sbci	r29, 0xFF	; 255
    3a50:	58 81       	ld	r21, Y
    3a52:	ca 5e       	subi	r28, 0xEA	; 234
    3a54:	d0 40       	sbci	r29, 0x00	; 0
    3a56:	c5 51       	subi	r28, 0x15	; 21
    3a58:	df 4f       	sbci	r29, 0xFF	; 255
    3a5a:	68 81       	ld	r22, Y
    3a5c:	cb 5e       	subi	r28, 0xEB	; 235
    3a5e:	d0 40       	sbci	r29, 0x00	; 0
    3a60:	c4 51       	subi	r28, 0x14	; 20
    3a62:	df 4f       	sbci	r29, 0xFF	; 255
    3a64:	78 81       	ld	r23, Y
    3a66:	cc 5e       	subi	r28, 0xEC	; 236
    3a68:	d0 40       	sbci	r29, 0x00	; 0
    3a6a:	c3 51       	subi	r28, 0x13	; 19
    3a6c:	df 4f       	sbci	r29, 0xFF	; 255
    3a6e:	88 81       	ld	r24, Y
    3a70:	cd 5e       	subi	r28, 0xED	; 237
    3a72:	d0 40       	sbci	r29, 0x00	; 0
    3a74:	c2 51       	subi	r28, 0x12	; 18
    3a76:	df 4f       	sbci	r29, 0xFF	; 255
    3a78:	98 81       	ld	r25, Y
    3a7a:	ce 5e       	subi	r28, 0xEE	; 238
    3a7c:	d0 40       	sbci	r29, 0x00	; 0
    3a7e:	0e 94 b4 2a 	call	0x5568	; 0x5568 <__adddi3>
    3a82:	39 01       	movw	r6, r18
    3a84:	4a 01       	movw	r8, r20
    3a86:	b6 2f       	mov	r27, r22
    3a88:	a7 2f       	mov	r26, r23
    3a8a:	f8 2f       	mov	r31, r24
    3a8c:	e9 2f       	mov	r30, r25
    3a8e:	ce 52       	subi	r28, 0x2E	; 46
    3a90:	df 4f       	sbci	r29, 0xFF	; 255
    3a92:	28 81       	ld	r18, Y
    3a94:	c2 5d       	subi	r28, 0xD2	; 210
    3a96:	d0 40       	sbci	r29, 0x00	; 0
    3a98:	cd 52       	subi	r28, 0x2D	; 45
    3a9a:	df 4f       	sbci	r29, 0xFF	; 255
    3a9c:	38 81       	ld	r19, Y
    3a9e:	c3 5d       	subi	r28, 0xD3	; 211
    3aa0:	d0 40       	sbci	r29, 0x00	; 0
    3aa2:	cc 52       	subi	r28, 0x2C	; 44
    3aa4:	df 4f       	sbci	r29, 0xFF	; 255
    3aa6:	48 81       	ld	r20, Y
    3aa8:	c4 5d       	subi	r28, 0xD4	; 212
    3aaa:	d0 40       	sbci	r29, 0x00	; 0
    3aac:	cb 52       	subi	r28, 0x2B	; 43
    3aae:	df 4f       	sbci	r29, 0xFF	; 255
    3ab0:	58 81       	ld	r21, Y
    3ab2:	c5 5d       	subi	r28, 0xD5	; 213
    3ab4:	d0 40       	sbci	r29, 0x00	; 0
    3ab6:	ca 52       	subi	r28, 0x2A	; 42
    3ab8:	df 4f       	sbci	r29, 0xFF	; 255
    3aba:	68 81       	ld	r22, Y
    3abc:	c6 5d       	subi	r28, 0xD6	; 214
    3abe:	d0 40       	sbci	r29, 0x00	; 0
    3ac0:	c9 52       	subi	r28, 0x29	; 41
    3ac2:	df 4f       	sbci	r29, 0xFF	; 255
    3ac4:	78 81       	ld	r23, Y
    3ac6:	c7 5d       	subi	r28, 0xD7	; 215
    3ac8:	d0 40       	sbci	r29, 0x00	; 0
    3aca:	c8 52       	subi	r28, 0x28	; 40
    3acc:	df 4f       	sbci	r29, 0xFF	; 255
    3ace:	88 81       	ld	r24, Y
    3ad0:	c8 5d       	subi	r28, 0xD8	; 216
    3ad2:	d0 40       	sbci	r29, 0x00	; 0
    3ad4:	c7 52       	subi	r28, 0x27	; 39
    3ad6:	df 4f       	sbci	r29, 0xFF	; 255
    3ad8:	98 81       	ld	r25, Y
    3ada:	c9 5d       	subi	r28, 0xD9	; 217
    3adc:	d0 40       	sbci	r29, 0x00	; 0
    3ade:	08 e3       	ldi	r16, 0x38	; 56
    3ae0:	0e 94 99 2a 	call	0x5532	; 0x5532 <__rotldi3>
    3ae4:	59 01       	movw	r10, r18
    3ae6:	6a 01       	movw	r12, r20
    3ae8:	7b 01       	movw	r14, r22
    3aea:	38 2e       	mov	r3, r24
    3aec:	19 2f       	mov	r17, r25
    3aee:	ce 52       	subi	r28, 0x2E	; 46
    3af0:	df 4f       	sbci	r29, 0xFF	; 255
    3af2:	28 81       	ld	r18, Y
    3af4:	c2 5d       	subi	r28, 0xD2	; 210
    3af6:	d0 40       	sbci	r29, 0x00	; 0
    3af8:	cd 52       	subi	r28, 0x2D	; 45
    3afa:	df 4f       	sbci	r29, 0xFF	; 255
    3afc:	38 81       	ld	r19, Y
    3afe:	c3 5d       	subi	r28, 0xD3	; 211
    3b00:	d0 40       	sbci	r29, 0x00	; 0
    3b02:	cc 52       	subi	r28, 0x2C	; 44
    3b04:	df 4f       	sbci	r29, 0xFF	; 255
    3b06:	48 81       	ld	r20, Y
    3b08:	c4 5d       	subi	r28, 0xD4	; 212
    3b0a:	d0 40       	sbci	r29, 0x00	; 0
    3b0c:	cb 52       	subi	r28, 0x2B	; 43
    3b0e:	df 4f       	sbci	r29, 0xFF	; 255
    3b10:	58 81       	ld	r21, Y
    3b12:	c5 5d       	subi	r28, 0xD5	; 213
    3b14:	d0 40       	sbci	r29, 0x00	; 0
    3b16:	ca 52       	subi	r28, 0x2A	; 42
    3b18:	df 4f       	sbci	r29, 0xFF	; 255
    3b1a:	68 81       	ld	r22, Y
    3b1c:	c6 5d       	subi	r28, 0xD6	; 214
    3b1e:	d0 40       	sbci	r29, 0x00	; 0
    3b20:	c9 52       	subi	r28, 0x29	; 41
    3b22:	df 4f       	sbci	r29, 0xFF	; 255
    3b24:	78 81       	ld	r23, Y
    3b26:	c7 5d       	subi	r28, 0xD7	; 215
    3b28:	d0 40       	sbci	r29, 0x00	; 0
    3b2a:	c8 52       	subi	r28, 0x28	; 40
    3b2c:	df 4f       	sbci	r29, 0xFF	; 255
    3b2e:	88 81       	ld	r24, Y
    3b30:	c8 5d       	subi	r28, 0xD8	; 216
    3b32:	d0 40       	sbci	r29, 0x00	; 0
    3b34:	c7 52       	subi	r28, 0x27	; 39
    3b36:	df 4f       	sbci	r29, 0xFF	; 255
    3b38:	98 81       	ld	r25, Y
    3b3a:	c9 5d       	subi	r28, 0xD9	; 217
    3b3c:	d0 40       	sbci	r29, 0x00	; 0
    3b3e:	0f e3       	ldi	r16, 0x3F	; 63
    3b40:	0e 94 99 2a 	call	0x5532	; 0x5532 <__rotldi3>
    3b44:	a2 26       	eor	r10, r18
    3b46:	b3 26       	eor	r11, r19
    3b48:	c4 26       	eor	r12, r20
    3b4a:	d5 26       	eor	r13, r21
    3b4c:	e6 26       	eor	r14, r22
    3b4e:	f7 26       	eor	r15, r23
    3b50:	38 26       	eor	r3, r24
    3b52:	19 27       	eor	r17, r25
    3b54:	ce 52       	subi	r28, 0x2E	; 46
    3b56:	df 4f       	sbci	r29, 0xFF	; 255
    3b58:	28 81       	ld	r18, Y
    3b5a:	c2 5d       	subi	r28, 0xD2	; 210
    3b5c:	d0 40       	sbci	r29, 0x00	; 0
    3b5e:	cd 52       	subi	r28, 0x2D	; 45
    3b60:	df 4f       	sbci	r29, 0xFF	; 255
    3b62:	38 81       	ld	r19, Y
    3b64:	c3 5d       	subi	r28, 0xD3	; 211
    3b66:	d0 40       	sbci	r29, 0x00	; 0
    3b68:	cc 52       	subi	r28, 0x2C	; 44
    3b6a:	df 4f       	sbci	r29, 0xFF	; 255
    3b6c:	48 81       	ld	r20, Y
    3b6e:	c4 5d       	subi	r28, 0xD4	; 212
    3b70:	d0 40       	sbci	r29, 0x00	; 0
    3b72:	cb 52       	subi	r28, 0x2B	; 43
    3b74:	df 4f       	sbci	r29, 0xFF	; 255
    3b76:	58 81       	ld	r21, Y
    3b78:	c5 5d       	subi	r28, 0xD5	; 213
    3b7a:	d0 40       	sbci	r29, 0x00	; 0
    3b7c:	ca 52       	subi	r28, 0x2A	; 42
    3b7e:	df 4f       	sbci	r29, 0xFF	; 255
    3b80:	68 81       	ld	r22, Y
    3b82:	c6 5d       	subi	r28, 0xD6	; 214
    3b84:	d0 40       	sbci	r29, 0x00	; 0
    3b86:	c9 52       	subi	r28, 0x29	; 41
    3b88:	df 4f       	sbci	r29, 0xFF	; 255
    3b8a:	78 81       	ld	r23, Y
    3b8c:	c7 5d       	subi	r28, 0xD7	; 215
    3b8e:	d0 40       	sbci	r29, 0x00	; 0
    3b90:	c8 52       	subi	r28, 0x28	; 40
    3b92:	df 4f       	sbci	r29, 0xFF	; 255
    3b94:	88 81       	ld	r24, Y
    3b96:	c8 5d       	subi	r28, 0xD8	; 216
    3b98:	d0 40       	sbci	r29, 0x00	; 0
    3b9a:	c7 52       	subi	r28, 0x27	; 39
    3b9c:	df 4f       	sbci	r29, 0xFF	; 255
    3b9e:	98 81       	ld	r25, Y
    3ba0:	c9 5d       	subi	r28, 0xD9	; 217
    3ba2:	d0 40       	sbci	r29, 0x00	; 0
    3ba4:	07 e0       	ldi	r16, 0x07	; 7
    3ba6:	0e 94 7d 2a 	call	0x54fa	; 0x54fa <__lshrdi3>
    3baa:	a2 26       	eor	r10, r18
    3bac:	b3 26       	eor	r11, r19
    3bae:	c4 26       	eor	r12, r20
    3bb0:	d5 26       	eor	r13, r21
    3bb2:	e6 26       	eor	r14, r22
    3bb4:	f7 26       	eor	r15, r23
    3bb6:	03 2d       	mov	r16, r3
    3bb8:	08 27       	eor	r16, r24
    3bba:	19 27       	eor	r17, r25
    3bbc:	93 01       	movw	r18, r6
    3bbe:	a4 01       	movw	r20, r8
    3bc0:	6b 2f       	mov	r22, r27
    3bc2:	7a 2f       	mov	r23, r26
    3bc4:	8f 2f       	mov	r24, r31
    3bc6:	9e 2f       	mov	r25, r30
    3bc8:	0e 94 b4 2a 	call	0x5568	; 0x5568 <__adddi3>
    3bcc:	ce 52       	subi	r28, 0x2E	; 46
    3bce:	df 4f       	sbci	r29, 0xFF	; 255
    3bd0:	28 83       	st	Y, r18
    3bd2:	c2 5d       	subi	r28, 0xD2	; 210
    3bd4:	d0 40       	sbci	r29, 0x00	; 0
    3bd6:	cd 52       	subi	r28, 0x2D	; 45
    3bd8:	df 4f       	sbci	r29, 0xFF	; 255
    3bda:	38 83       	st	Y, r19
    3bdc:	c3 5d       	subi	r28, 0xD3	; 211
    3bde:	d0 40       	sbci	r29, 0x00	; 0
    3be0:	cc 52       	subi	r28, 0x2C	; 44
    3be2:	df 4f       	sbci	r29, 0xFF	; 255
    3be4:	48 83       	st	Y, r20
    3be6:	c4 5d       	subi	r28, 0xD4	; 212
    3be8:	d0 40       	sbci	r29, 0x00	; 0
    3bea:	cb 52       	subi	r28, 0x2B	; 43
    3bec:	df 4f       	sbci	r29, 0xFF	; 255
    3bee:	58 83       	st	Y, r21
    3bf0:	c5 5d       	subi	r28, 0xD5	; 213
    3bf2:	d0 40       	sbci	r29, 0x00	; 0
    3bf4:	ca 52       	subi	r28, 0x2A	; 42
    3bf6:	df 4f       	sbci	r29, 0xFF	; 255
    3bf8:	68 83       	st	Y, r22
    3bfa:	c6 5d       	subi	r28, 0xD6	; 214
    3bfc:	d0 40       	sbci	r29, 0x00	; 0
    3bfe:	c9 52       	subi	r28, 0x29	; 41
    3c00:	df 4f       	sbci	r29, 0xFF	; 255
    3c02:	78 83       	st	Y, r23
    3c04:	c7 5d       	subi	r28, 0xD7	; 215
    3c06:	d0 40       	sbci	r29, 0x00	; 0
    3c08:	c8 52       	subi	r28, 0x28	; 40
    3c0a:	df 4f       	sbci	r29, 0xFF	; 255
    3c0c:	88 83       	st	Y, r24
    3c0e:	c8 5d       	subi	r28, 0xD8	; 216
    3c10:	d0 40       	sbci	r29, 0x00	; 0
    3c12:	c7 52       	subi	r28, 0x27	; 39
    3c14:	df 4f       	sbci	r29, 0xFF	; 255
    3c16:	98 83       	st	Y, r25
    3c18:	c9 5d       	subi	r28, 0xD9	; 217
    3c1a:	d0 40       	sbci	r29, 0x00	; 0
			memmove(&(w[0]), &(w[1]), 15*8);
    3c1c:	48 e7       	ldi	r20, 0x78	; 120
    3c1e:	50 e0       	ldi	r21, 0x00	; 0
    3c20:	be 01       	movw	r22, r28
    3c22:	67 5f       	subi	r22, 0xF7	; 247
    3c24:	7f 4f       	sbci	r23, 0xFF	; 255
    3c26:	ce 01       	movw	r24, r28
    3c28:	01 96       	adiw	r24, 0x01	; 1
    3c2a:	0e 94 24 2b 	call	0x5648	; 0x5648 <memmove>
			w[15] = wx;
    3c2e:	ce 52       	subi	r28, 0x2E	; 46
    3c30:	df 4f       	sbci	r29, 0xFF	; 255
    3c32:	f8 81       	ld	r31, Y
    3c34:	c2 5d       	subi	r28, 0xD2	; 210
    3c36:	d0 40       	sbci	r29, 0x00	; 0
    3c38:	ea 96       	adiw	r28, 0x3a	; 58
    3c3a:	ff af       	std	Y+63, r31	; 0x3f
    3c3c:	ea 97       	sbiw	r28, 0x3a	; 58
    3c3e:	cd 52       	subi	r28, 0x2D	; 45
    3c40:	df 4f       	sbci	r29, 0xFF	; 255
    3c42:	18 81       	ld	r17, Y
    3c44:	c3 5d       	subi	r28, 0xD3	; 211
    3c46:	d0 40       	sbci	r29, 0x00	; 0
    3c48:	eb 96       	adiw	r28, 0x3b	; 59
    3c4a:	1f af       	std	Y+63, r17	; 0x3f
    3c4c:	eb 97       	sbiw	r28, 0x3b	; 59
    3c4e:	cc 52       	subi	r28, 0x2C	; 44
    3c50:	df 4f       	sbci	r29, 0xFF	; 255
    3c52:	88 81       	ld	r24, Y
    3c54:	c4 5d       	subi	r28, 0xD4	; 212
    3c56:	d0 40       	sbci	r29, 0x00	; 0
    3c58:	ec 96       	adiw	r28, 0x3c	; 60
    3c5a:	8f af       	std	Y+63, r24	; 0x3f
    3c5c:	ec 97       	sbiw	r28, 0x3c	; 60
    3c5e:	cb 52       	subi	r28, 0x2B	; 43
    3c60:	df 4f       	sbci	r29, 0xFF	; 255
    3c62:	98 81       	ld	r25, Y
    3c64:	c5 5d       	subi	r28, 0xD5	; 213
    3c66:	d0 40       	sbci	r29, 0x00	; 0
    3c68:	ed 96       	adiw	r28, 0x3d	; 61
    3c6a:	9f af       	std	Y+63, r25	; 0x3f
    3c6c:	ed 97       	sbiw	r28, 0x3d	; 61
    3c6e:	ca 52       	subi	r28, 0x2A	; 42
    3c70:	df 4f       	sbci	r29, 0xFF	; 255
    3c72:	a8 81       	ld	r26, Y
    3c74:	c6 5d       	subi	r28, 0xD6	; 214
    3c76:	d0 40       	sbci	r29, 0x00	; 0
    3c78:	ee 96       	adiw	r28, 0x3e	; 62
    3c7a:	af af       	std	Y+63, r26	; 0x3f
    3c7c:	ee 97       	sbiw	r28, 0x3e	; 62
    3c7e:	c9 52       	subi	r28, 0x29	; 41
    3c80:	df 4f       	sbci	r29, 0xFF	; 255
    3c82:	b8 81       	ld	r27, Y
    3c84:	c7 5d       	subi	r28, 0xD7	; 215
    3c86:	d0 40       	sbci	r29, 0x00	; 0
    3c88:	ef 96       	adiw	r28, 0x3f	; 63
    3c8a:	bf af       	std	Y+63, r27	; 0x3f
    3c8c:	ef 97       	sbiw	r28, 0x3f	; 63
    3c8e:	c8 52       	subi	r28, 0x28	; 40
    3c90:	df 4f       	sbci	r29, 0xFF	; 255
    3c92:	e8 81       	ld	r30, Y
    3c94:	c8 5d       	subi	r28, 0xD8	; 216
    3c96:	d0 40       	sbci	r29, 0x00	; 0
    3c98:	c1 58       	subi	r28, 0x81	; 129
    3c9a:	df 4f       	sbci	r29, 0xFF	; 255
    3c9c:	e8 83       	st	Y, r30
    3c9e:	cf 57       	subi	r28, 0x7F	; 127
    3ca0:	d0 40       	sbci	r29, 0x00	; 0
    3ca2:	c7 52       	subi	r28, 0x27	; 39
    3ca4:	df 4f       	sbci	r29, 0xFF	; 255
    3ca6:	f8 81       	ld	r31, Y
    3ca8:	c9 5d       	subi	r28, 0xD9	; 217
    3caa:	d0 40       	sbci	r29, 0x00	; 0
    3cac:	c0 58       	subi	r28, 0x80	; 128
    3cae:	df 4f       	sbci	r29, 0xFF	; 255
    3cb0:	f8 83       	st	Y, r31
    3cb2:	c0 58       	subi	r28, 0x80	; 128
    3cb4:	d0 40       	sbci	r29, 0x00	; 0
		}
		t1 = a[7] + SIGMA_1(a[4]) + CH(a[4], a[5], a[6]) + pgm_read_uint64_t_P(k++) + wx;
    3cb6:	d2 01       	movw	r26, r4
    3cb8:	d8 96       	adiw	r26, 0x38	; 56
    3cba:	2c 91       	ld	r18, X
    3cbc:	d8 97       	sbiw	r26, 0x38	; 56
    3cbe:	d9 96       	adiw	r26, 0x39	; 57
    3cc0:	3c 91       	ld	r19, X
    3cc2:	d9 97       	sbiw	r26, 0x39	; 57
    3cc4:	da 96       	adiw	r26, 0x3a	; 58
    3cc6:	4c 91       	ld	r20, X
    3cc8:	da 97       	sbiw	r26, 0x3a	; 58
    3cca:	db 96       	adiw	r26, 0x3b	; 59
    3ccc:	5c 91       	ld	r21, X
    3cce:	db 97       	sbiw	r26, 0x3b	; 59
    3cd0:	dc 96       	adiw	r26, 0x3c	; 60
    3cd2:	6c 91       	ld	r22, X
    3cd4:	dc 97       	sbiw	r26, 0x3c	; 60
    3cd6:	dd 96       	adiw	r26, 0x3d	; 61
    3cd8:	7c 91       	ld	r23, X
    3cda:	dd 97       	sbiw	r26, 0x3d	; 61
    3cdc:	de 96       	adiw	r26, 0x3e	; 62
    3cde:	8c 91       	ld	r24, X
    3ce0:	de 97       	sbiw	r26, 0x3e	; 62
    3ce2:	df 96       	adiw	r26, 0x3f	; 63
    3ce4:	9c 91       	ld	r25, X
    3ce6:	c7 53       	subi	r28, 0x37	; 55
    3ce8:	df 4f       	sbci	r29, 0xFF	; 255
    3cea:	e8 80       	ld	r14, Y
    3cec:	c9 5c       	subi	r28, 0xC9	; 201
    3cee:	d0 40       	sbci	r29, 0x00	; 0
    3cf0:	e0 94       	com	r14
    3cf2:	c5 53       	subi	r28, 0x35	; 53
    3cf4:	df 4f       	sbci	r29, 0xFF	; 255
    3cf6:	f8 80       	ld	r15, Y
    3cf8:	cb 5c       	subi	r28, 0xCB	; 203
    3cfa:	d0 40       	sbci	r29, 0x00	; 0
    3cfc:	f0 94       	com	r15
    3cfe:	c3 53       	subi	r28, 0x33	; 51
    3d00:	df 4f       	sbci	r29, 0xFF	; 255
    3d02:	08 81       	ld	r16, Y
    3d04:	cd 5c       	subi	r28, 0xCD	; 205
    3d06:	d0 40       	sbci	r29, 0x00	; 0
    3d08:	00 95       	com	r16
    3d0a:	c2 53       	subi	r28, 0x32	; 50
    3d0c:	df 4f       	sbci	r29, 0xFF	; 255
    3d0e:	18 81       	ld	r17, Y
    3d10:	ce 5c       	subi	r28, 0xCE	; 206
    3d12:	d0 40       	sbci	r29, 0x00	; 0
    3d14:	10 95       	com	r17
    3d16:	c1 53       	subi	r28, 0x31	; 49
    3d18:	df 4f       	sbci	r29, 0xFF	; 255
    3d1a:	b8 81       	ld	r27, Y
    3d1c:	cf 5c       	subi	r28, 0xCF	; 207
    3d1e:	d0 40       	sbci	r29, 0x00	; 0
    3d20:	b0 95       	com	r27
    3d22:	a2 2d       	mov	r26, r2
    3d24:	a0 95       	com	r26
    3d26:	c0 53       	subi	r28, 0x30	; 48
    3d28:	df 4f       	sbci	r29, 0xFF	; 255
    3d2a:	d8 80       	ld	r13, Y
    3d2c:	c0 5d       	subi	r28, 0xD0	; 208
    3d2e:	d0 40       	sbci	r29, 0x00	; 0
    3d30:	d0 94       	com	r13
    3d32:	cf 52       	subi	r28, 0x2F	; 47
    3d34:	df 4f       	sbci	r29, 0xFF	; 255
    3d36:	b8 80       	ld	r11, Y
    3d38:	c1 5d       	subi	r28, 0xD1	; 209
    3d3a:	d0 40       	sbci	r29, 0x00	; 0
    3d3c:	b0 94       	com	r11
    3d3e:	f2 01       	movw	r30, r4
    3d40:	60 a8       	ldd	r6, Z+48	; 0x30
    3d42:	6e 20       	and	r6, r14
    3d44:	81 a8       	ldd	r8, Z+49	; 0x31
    3d46:	8f 20       	and	r8, r15
    3d48:	a2 a8       	ldd	r10, Z+50	; 0x32
    3d4a:	a0 22       	and	r10, r16
    3d4c:	c3 a8       	ldd	r12, Z+51	; 0x33
    3d4e:	c1 22       	and	r12, r17
    3d50:	e4 a8       	ldd	r14, Z+52	; 0x34
    3d52:	eb 22       	and	r14, r27
    3d54:	05 a9       	ldd	r16, Z+53	; 0x35
    3d56:	0a 23       	and	r16, r26
    3d58:	b6 a9       	ldd	r27, Z+54	; 0x36
    3d5a:	3b 2e       	mov	r3, r27
    3d5c:	3d 20       	and	r3, r13
    3d5e:	f7 a9       	ldd	r31, Z+55	; 0x37
    3d60:	fb 21       	and	r31, r11
    3d62:	c2 51       	subi	r28, 0x12	; 18
    3d64:	df 4f       	sbci	r29, 0xFF	; 255
    3d66:	f8 83       	st	Y, r31
    3d68:	ce 5e       	subi	r28, 0xEE	; 238
    3d6a:	d0 40       	sbci	r29, 0x00	; 0
    3d6c:	d2 01       	movw	r26, r4
    3d6e:	98 96       	adiw	r26, 0x28	; 40
    3d70:	7c 90       	ld	r7, X
    3d72:	c7 53       	subi	r28, 0x37	; 55
    3d74:	df 4f       	sbci	r29, 0xFF	; 255
    3d76:	b8 81       	ld	r27, Y
    3d78:	c9 5c       	subi	r28, 0xC9	; 201
    3d7a:	d0 40       	sbci	r29, 0x00	; 0
    3d7c:	7b 22       	and	r7, r27
    3d7e:	f2 01       	movw	r30, r4
    3d80:	91 a4       	ldd	r9, Z+41	; 0x29
    3d82:	c5 53       	subi	r28, 0x35	; 53
    3d84:	df 4f       	sbci	r29, 0xFF	; 255
    3d86:	f8 81       	ld	r31, Y
    3d88:	cb 5c       	subi	r28, 0xCB	; 203
    3d8a:	d0 40       	sbci	r29, 0x00	; 0
    3d8c:	9f 22       	and	r9, r31
    3d8e:	d2 01       	movw	r26, r4
    3d90:	9a 96       	adiw	r26, 0x2a	; 42
    3d92:	bc 90       	ld	r11, X
    3d94:	c3 53       	subi	r28, 0x33	; 51
    3d96:	df 4f       	sbci	r29, 0xFF	; 255
    3d98:	b8 81       	ld	r27, Y
    3d9a:	cd 5c       	subi	r28, 0xCD	; 205
    3d9c:	d0 40       	sbci	r29, 0x00	; 0
    3d9e:	bb 22       	and	r11, r27
    3da0:	f2 01       	movw	r30, r4
    3da2:	d3 a4       	ldd	r13, Z+43	; 0x2b
    3da4:	c2 53       	subi	r28, 0x32	; 50
    3da6:	df 4f       	sbci	r29, 0xFF	; 255
    3da8:	f8 81       	ld	r31, Y
    3daa:	ce 5c       	subi	r28, 0xCE	; 206
    3dac:	d0 40       	sbci	r29, 0x00	; 0
    3dae:	df 22       	and	r13, r31
    3db0:	d2 01       	movw	r26, r4
    3db2:	9c 96       	adiw	r26, 0x2c	; 44
    3db4:	fc 90       	ld	r15, X
    3db6:	c1 53       	subi	r28, 0x31	; 49
    3db8:	df 4f       	sbci	r29, 0xFF	; 255
    3dba:	b8 81       	ld	r27, Y
    3dbc:	cf 5c       	subi	r28, 0xCF	; 207
    3dbe:	d0 40       	sbci	r29, 0x00	; 0
    3dc0:	fb 22       	and	r15, r27
    3dc2:	f2 01       	movw	r30, r4
    3dc4:	15 a5       	ldd	r17, Z+45	; 0x2d
    3dc6:	12 21       	and	r17, r2
    3dc8:	a6 a5       	ldd	r26, Z+46	; 0x2e
    3dca:	c0 53       	subi	r28, 0x30	; 48
    3dcc:	df 4f       	sbci	r29, 0xFF	; 255
    3dce:	f8 81       	ld	r31, Y
    3dd0:	c0 5d       	subi	r28, 0xD0	; 208
    3dd2:	d0 40       	sbci	r29, 0x00	; 0
    3dd4:	fa 23       	and	r31, r26
    3dd6:	d2 01       	movw	r26, r4
    3dd8:	9f 96       	adiw	r26, 0x2f	; 47
    3dda:	ec 91       	ld	r30, X
    3ddc:	cf 52       	subi	r28, 0x2F	; 47
    3dde:	df 4f       	sbci	r29, 0xFF	; 255
    3de0:	b8 81       	ld	r27, Y
    3de2:	c1 5d       	subi	r28, 0xD1	; 209
    3de4:	d0 40       	sbci	r29, 0x00	; 0
    3de6:	eb 23       	and	r30, r27
    3de8:	67 24       	eor	r6, r7
    3dea:	c6 52       	subi	r28, 0x26	; 38
    3dec:	df 4f       	sbci	r29, 0xFF	; 255
    3dee:	68 82       	st	Y, r6
    3df0:	ca 5d       	subi	r28, 0xDA	; 218
    3df2:	d0 40       	sbci	r29, 0x00	; 0
    3df4:	89 24       	eor	r8, r9
    3df6:	c5 52       	subi	r28, 0x25	; 37
    3df8:	df 4f       	sbci	r29, 0xFF	; 255
    3dfa:	88 82       	st	Y, r8
    3dfc:	cb 5d       	subi	r28, 0xDB	; 219
    3dfe:	d0 40       	sbci	r29, 0x00	; 0
    3e00:	ab 24       	eor	r10, r11
    3e02:	c4 52       	subi	r28, 0x24	; 36
    3e04:	df 4f       	sbci	r29, 0xFF	; 255
    3e06:	a8 82       	st	Y, r10
    3e08:	cc 5d       	subi	r28, 0xDC	; 220
    3e0a:	d0 40       	sbci	r29, 0x00	; 0
    3e0c:	cd 24       	eor	r12, r13
    3e0e:	c6 51       	subi	r28, 0x16	; 22
    3e10:	df 4f       	sbci	r29, 0xFF	; 255
    3e12:	c8 82       	st	Y, r12
    3e14:	ca 5e       	subi	r28, 0xEA	; 234
    3e16:	d0 40       	sbci	r29, 0x00	; 0
    3e18:	ef 24       	eor	r14, r15
    3e1a:	c5 51       	subi	r28, 0x15	; 21
    3e1c:	df 4f       	sbci	r29, 0xFF	; 255
    3e1e:	e8 82       	st	Y, r14
    3e20:	cb 5e       	subi	r28, 0xEB	; 235
    3e22:	d0 40       	sbci	r29, 0x00	; 0
    3e24:	01 27       	eor	r16, r17
    3e26:	c4 51       	subi	r28, 0x14	; 20
    3e28:	df 4f       	sbci	r29, 0xFF	; 255
    3e2a:	08 83       	st	Y, r16
    3e2c:	cc 5e       	subi	r28, 0xEC	; 236
    3e2e:	d0 40       	sbci	r29, 0x00	; 0
    3e30:	f3 25       	eor	r31, r3
    3e32:	c3 51       	subi	r28, 0x13	; 19
    3e34:	df 4f       	sbci	r29, 0xFF	; 255
    3e36:	f8 83       	st	Y, r31
    3e38:	cd 5e       	subi	r28, 0xED	; 237
    3e3a:	d0 40       	sbci	r29, 0x00	; 0
    3e3c:	c2 51       	subi	r28, 0x12	; 18
    3e3e:	df 4f       	sbci	r29, 0xFF	; 255
    3e40:	a8 81       	ld	r26, Y
    3e42:	ce 5e       	subi	r28, 0xEE	; 238
    3e44:	d0 40       	sbci	r29, 0x00	; 0
    3e46:	ae 27       	eor	r26, r30
    3e48:	c2 51       	subi	r28, 0x12	; 18
    3e4a:	df 4f       	sbci	r29, 0xFF	; 255
    3e4c:	a8 83       	st	Y, r26
    3e4e:	ce 5e       	subi	r28, 0xEE	; 238
    3e50:	d0 40       	sbci	r29, 0x00	; 0
uint64_t pgm_read_uint64_t_P(const uint64_t * p){
	union {
		uint64_t v64;
		uint32_t v32[2];
	} ret;
	ret.v32[0] = pgm_read_dword(p);
    3e52:	c8 51       	subi	r28, 0x18	; 24
    3e54:	df 4f       	sbci	r29, 0xFF	; 255
    3e56:	e8 81       	ld	r30, Y
    3e58:	f9 81       	ldd	r31, Y+1	; 0x01
    3e5a:	c8 5e       	subi	r28, 0xE8	; 232
    3e5c:	d0 40       	sbci	r29, 0x00	; 0
    3e5e:	c5 90       	lpm	r12, Z+
    3e60:	d5 90       	lpm	r13, Z+
    3e62:	e5 90       	lpm	r14, Z+
    3e64:	f4 90       	lpm	r15, Z
    3e66:	ac 2c       	mov	r10, r12
    3e68:	cf 53       	subi	r28, 0x3F	; 63
    3e6a:	df 4f       	sbci	r29, 0xFF	; 255
    3e6c:	c8 82       	st	Y, r12
    3e6e:	d9 82       	std	Y+1, r13	; 0x01
    3e70:	ea 82       	std	Y+2, r14	; 0x02
    3e72:	fb 82       	std	Y+3, r15	; 0x03
    3e74:	c1 5c       	subi	r28, 0xC1	; 193
    3e76:	d0 40       	sbci	r29, 0x00	; 0
	ret.v32[1] = pgm_read_dword((uint8_t*)p + 4);
    3e78:	c8 51       	subi	r28, 0x18	; 24
    3e7a:	df 4f       	sbci	r29, 0xFF	; 255
    3e7c:	e8 81       	ld	r30, Y
    3e7e:	f9 81       	ldd	r31, Y+1	; 0x01
    3e80:	c8 5e       	subi	r28, 0xE8	; 232
    3e82:	d0 40       	sbci	r29, 0x00	; 0
    3e84:	34 96       	adiw	r30, 0x04	; 4
    3e86:	65 90       	lpm	r6, Z+
    3e88:	75 90       	lpm	r7, Z+
    3e8a:	85 90       	lpm	r8, Z+
    3e8c:	94 90       	lpm	r9, Z
    3e8e:	e6 2c       	mov	r14, r6
    3e90:	cb 53       	subi	r28, 0x3B	; 59
    3e92:	df 4f       	sbci	r29, 0xFF	; 255
    3e94:	68 82       	st	Y, r6
    3e96:	79 82       	std	Y+1, r7	; 0x01
    3e98:	8a 82       	std	Y+2, r8	; 0x02
    3e9a:	9b 82       	std	Y+3, r9	; 0x03
    3e9c:	c5 5c       	subi	r28, 0xC5	; 197
    3e9e:	d0 40       	sbci	r29, 0x00	; 0
    3ea0:	ce 53       	subi	r28, 0x3E	; 62
    3ea2:	df 4f       	sbci	r29, 0xFF	; 255
    3ea4:	b8 80       	ld	r11, Y
    3ea6:	c2 5c       	subi	r28, 0xC2	; 194
    3ea8:	d0 40       	sbci	r29, 0x00	; 0
    3eaa:	cd 53       	subi	r28, 0x3D	; 61
    3eac:	df 4f       	sbci	r29, 0xFF	; 255
    3eae:	c8 80       	ld	r12, Y
    3eb0:	c3 5c       	subi	r28, 0xC3	; 195
    3eb2:	d0 40       	sbci	r29, 0x00	; 0
    3eb4:	cc 53       	subi	r28, 0x3C	; 60
    3eb6:	df 4f       	sbci	r29, 0xFF	; 255
    3eb8:	d8 80       	ld	r13, Y
    3eba:	c4 5c       	subi	r28, 0xC4	; 196
    3ebc:	d0 40       	sbci	r29, 0x00	; 0
    3ebe:	ca 53       	subi	r28, 0x3A	; 58
    3ec0:	df 4f       	sbci	r29, 0xFF	; 255
    3ec2:	f8 80       	ld	r15, Y
    3ec4:	c6 5c       	subi	r28, 0xC6	; 198
    3ec6:	d0 40       	sbci	r29, 0x00	; 0
    3ec8:	c9 53       	subi	r28, 0x39	; 57
    3eca:	df 4f       	sbci	r29, 0xFF	; 255
    3ecc:	08 81       	ld	r16, Y
    3ece:	c7 5c       	subi	r28, 0xC7	; 199
    3ed0:	d0 40       	sbci	r29, 0x00	; 0
    3ed2:	c8 53       	subi	r28, 0x38	; 56
    3ed4:	df 4f       	sbci	r29, 0xFF	; 255
    3ed6:	18 81       	ld	r17, Y
    3ed8:	c8 5c       	subi	r28, 0xC8	; 200
    3eda:	d0 40       	sbci	r29, 0x00	; 0
    3edc:	0e 94 b4 2a 	call	0x5568	; 0x5568 <__adddi3>
    3ee0:	39 01       	movw	r6, r18
    3ee2:	4a 01       	movw	r8, r20
    3ee4:	b6 2f       	mov	r27, r22
    3ee6:	a7 2f       	mov	r26, r23
    3ee8:	f8 2f       	mov	r31, r24
    3eea:	e9 2f       	mov	r30, r25
    3eec:	c7 53       	subi	r28, 0x37	; 55
    3eee:	df 4f       	sbci	r29, 0xFF	; 255
    3ef0:	28 81       	ld	r18, Y
    3ef2:	c9 5c       	subi	r28, 0xC9	; 201
    3ef4:	d0 40       	sbci	r29, 0x00	; 0
    3ef6:	c5 53       	subi	r28, 0x35	; 53
    3ef8:	df 4f       	sbci	r29, 0xFF	; 255
    3efa:	38 81       	ld	r19, Y
    3efc:	cb 5c       	subi	r28, 0xCB	; 203
    3efe:	d0 40       	sbci	r29, 0x00	; 0
    3f00:	c3 53       	subi	r28, 0x33	; 51
    3f02:	df 4f       	sbci	r29, 0xFF	; 255
    3f04:	48 81       	ld	r20, Y
    3f06:	cd 5c       	subi	r28, 0xCD	; 205
    3f08:	d0 40       	sbci	r29, 0x00	; 0
    3f0a:	c2 53       	subi	r28, 0x32	; 50
    3f0c:	df 4f       	sbci	r29, 0xFF	; 255
    3f0e:	58 81       	ld	r21, Y
    3f10:	ce 5c       	subi	r28, 0xCE	; 206
    3f12:	d0 40       	sbci	r29, 0x00	; 0
    3f14:	c1 53       	subi	r28, 0x31	; 49
    3f16:	df 4f       	sbci	r29, 0xFF	; 255
    3f18:	68 81       	ld	r22, Y
    3f1a:	cf 5c       	subi	r28, 0xCF	; 207
    3f1c:	d0 40       	sbci	r29, 0x00	; 0
    3f1e:	72 2d       	mov	r23, r2
    3f20:	c0 53       	subi	r28, 0x30	; 48
    3f22:	df 4f       	sbci	r29, 0xFF	; 255
    3f24:	88 81       	ld	r24, Y
    3f26:	c0 5d       	subi	r28, 0xD0	; 208
    3f28:	d0 40       	sbci	r29, 0x00	; 0
    3f2a:	cf 52       	subi	r28, 0x2F	; 47
    3f2c:	df 4f       	sbci	r29, 0xFF	; 255
    3f2e:	98 81       	ld	r25, Y
    3f30:	c1 5d       	subi	r28, 0xD1	; 209
    3f32:	d0 40       	sbci	r29, 0x00	; 0
    3f34:	0e e2       	ldi	r16, 0x2E	; 46
    3f36:	0e 94 99 2a 	call	0x5532	; 0x5532 <__rotldi3>
    3f3a:	59 01       	movw	r10, r18
    3f3c:	6a 01       	movw	r12, r20
    3f3e:	7b 01       	movw	r14, r22
    3f40:	38 2e       	mov	r3, r24
    3f42:	19 2f       	mov	r17, r25
    3f44:	c7 53       	subi	r28, 0x37	; 55
    3f46:	df 4f       	sbci	r29, 0xFF	; 255
    3f48:	28 81       	ld	r18, Y
    3f4a:	c9 5c       	subi	r28, 0xC9	; 201
    3f4c:	d0 40       	sbci	r29, 0x00	; 0
    3f4e:	c5 53       	subi	r28, 0x35	; 53
    3f50:	df 4f       	sbci	r29, 0xFF	; 255
    3f52:	38 81       	ld	r19, Y
    3f54:	cb 5c       	subi	r28, 0xCB	; 203
    3f56:	d0 40       	sbci	r29, 0x00	; 0
    3f58:	c3 53       	subi	r28, 0x33	; 51
    3f5a:	df 4f       	sbci	r29, 0xFF	; 255
    3f5c:	48 81       	ld	r20, Y
    3f5e:	cd 5c       	subi	r28, 0xCD	; 205
    3f60:	d0 40       	sbci	r29, 0x00	; 0
    3f62:	c2 53       	subi	r28, 0x32	; 50
    3f64:	df 4f       	sbci	r29, 0xFF	; 255
    3f66:	58 81       	ld	r21, Y
    3f68:	ce 5c       	subi	r28, 0xCE	; 206
    3f6a:	d0 40       	sbci	r29, 0x00	; 0
    3f6c:	c1 53       	subi	r28, 0x31	; 49
    3f6e:	df 4f       	sbci	r29, 0xFF	; 255
    3f70:	68 81       	ld	r22, Y
    3f72:	cf 5c       	subi	r28, 0xCF	; 207
    3f74:	d0 40       	sbci	r29, 0x00	; 0
    3f76:	72 2d       	mov	r23, r2
    3f78:	c0 53       	subi	r28, 0x30	; 48
    3f7a:	df 4f       	sbci	r29, 0xFF	; 255
    3f7c:	88 81       	ld	r24, Y
    3f7e:	c0 5d       	subi	r28, 0xD0	; 208
    3f80:	d0 40       	sbci	r29, 0x00	; 0
    3f82:	cf 52       	subi	r28, 0x2F	; 47
    3f84:	df 4f       	sbci	r29, 0xFF	; 255
    3f86:	98 81       	ld	r25, Y
    3f88:	c1 5d       	subi	r28, 0xD1	; 209
    3f8a:	d0 40       	sbci	r29, 0x00	; 0
    3f8c:	02 e3       	ldi	r16, 0x32	; 50
    3f8e:	0e 94 99 2a 	call	0x5532	; 0x5532 <__rotldi3>
    3f92:	a2 26       	eor	r10, r18
    3f94:	b3 26       	eor	r11, r19
    3f96:	c4 26       	eor	r12, r20
    3f98:	d5 26       	eor	r13, r21
    3f9a:	e6 26       	eor	r14, r22
    3f9c:	f7 26       	eor	r15, r23
    3f9e:	38 26       	eor	r3, r24
    3fa0:	19 27       	eor	r17, r25
    3fa2:	c7 53       	subi	r28, 0x37	; 55
    3fa4:	df 4f       	sbci	r29, 0xFF	; 255
    3fa6:	28 81       	ld	r18, Y
    3fa8:	c9 5c       	subi	r28, 0xC9	; 201
    3faa:	d0 40       	sbci	r29, 0x00	; 0
    3fac:	c5 53       	subi	r28, 0x35	; 53
    3fae:	df 4f       	sbci	r29, 0xFF	; 255
    3fb0:	38 81       	ld	r19, Y
    3fb2:	cb 5c       	subi	r28, 0xCB	; 203
    3fb4:	d0 40       	sbci	r29, 0x00	; 0
    3fb6:	c3 53       	subi	r28, 0x33	; 51
    3fb8:	df 4f       	sbci	r29, 0xFF	; 255
    3fba:	48 81       	ld	r20, Y
    3fbc:	cd 5c       	subi	r28, 0xCD	; 205
    3fbe:	d0 40       	sbci	r29, 0x00	; 0
    3fc0:	c2 53       	subi	r28, 0x32	; 50
    3fc2:	df 4f       	sbci	r29, 0xFF	; 255
    3fc4:	58 81       	ld	r21, Y
    3fc6:	ce 5c       	subi	r28, 0xCE	; 206
    3fc8:	d0 40       	sbci	r29, 0x00	; 0
    3fca:	c1 53       	subi	r28, 0x31	; 49
    3fcc:	df 4f       	sbci	r29, 0xFF	; 255
    3fce:	68 81       	ld	r22, Y
    3fd0:	cf 5c       	subi	r28, 0xCF	; 207
    3fd2:	d0 40       	sbci	r29, 0x00	; 0
    3fd4:	72 2d       	mov	r23, r2
    3fd6:	c0 53       	subi	r28, 0x30	; 48
    3fd8:	df 4f       	sbci	r29, 0xFF	; 255
    3fda:	88 81       	ld	r24, Y
    3fdc:	c0 5d       	subi	r28, 0xD0	; 208
    3fde:	d0 40       	sbci	r29, 0x00	; 0
    3fe0:	cf 52       	subi	r28, 0x2F	; 47
    3fe2:	df 4f       	sbci	r29, 0xFF	; 255
    3fe4:	98 81       	ld	r25, Y
    3fe6:	c1 5d       	subi	r28, 0xD1	; 209
    3fe8:	d0 40       	sbci	r29, 0x00	; 0
    3fea:	07 e1       	ldi	r16, 0x17	; 23
    3fec:	0e 94 99 2a 	call	0x5532	; 0x5532 <__rotldi3>
    3ff0:	a2 26       	eor	r10, r18
    3ff2:	b3 26       	eor	r11, r19
    3ff4:	c4 26       	eor	r12, r20
    3ff6:	d5 26       	eor	r13, r21
    3ff8:	e6 26       	eor	r14, r22
    3ffa:	f7 26       	eor	r15, r23
    3ffc:	03 2d       	mov	r16, r3
    3ffe:	08 27       	eor	r16, r24
    4000:	19 27       	eor	r17, r25
    4002:	93 01       	movw	r18, r6
    4004:	a4 01       	movw	r20, r8
    4006:	6b 2f       	mov	r22, r27
    4008:	7a 2f       	mov	r23, r26
    400a:	8f 2f       	mov	r24, r31
    400c:	9e 2f       	mov	r25, r30
    400e:	0e 94 b4 2a 	call	0x5568	; 0x5568 <__adddi3>
    4012:	59 01       	movw	r10, r18
    4014:	6a 01       	movw	r12, r20
    4016:	7b 01       	movw	r14, r22
    4018:	8c 01       	movw	r16, r24
		}else{
			wx = SIGMA_b(w[14]) + w[9] + SIGMA_a(w[1]) + w[0];
			memmove(&(w[0]), &(w[1]), 15*8);
			w[15] = wx;
		}
		t1 = a[7] + SIGMA_1(a[4]) + CH(a[4], a[5], a[6]) + pgm_read_uint64_t_P(k++) + wx;
    401a:	c6 52       	subi	r28, 0x26	; 38
    401c:	df 4f       	sbci	r29, 0xFF	; 255
    401e:	28 81       	ld	r18, Y
    4020:	ca 5d       	subi	r28, 0xDA	; 218
    4022:	d0 40       	sbci	r29, 0x00	; 0
    4024:	c5 52       	subi	r28, 0x25	; 37
    4026:	df 4f       	sbci	r29, 0xFF	; 255
    4028:	38 81       	ld	r19, Y
    402a:	cb 5d       	subi	r28, 0xDB	; 219
    402c:	d0 40       	sbci	r29, 0x00	; 0
    402e:	c4 52       	subi	r28, 0x24	; 36
    4030:	df 4f       	sbci	r29, 0xFF	; 255
    4032:	48 81       	ld	r20, Y
    4034:	cc 5d       	subi	r28, 0xDC	; 220
    4036:	d0 40       	sbci	r29, 0x00	; 0
    4038:	c6 51       	subi	r28, 0x16	; 22
    403a:	df 4f       	sbci	r29, 0xFF	; 255
    403c:	58 81       	ld	r21, Y
    403e:	ca 5e       	subi	r28, 0xEA	; 234
    4040:	d0 40       	sbci	r29, 0x00	; 0
    4042:	c5 51       	subi	r28, 0x15	; 21
    4044:	df 4f       	sbci	r29, 0xFF	; 255
    4046:	68 81       	ld	r22, Y
    4048:	cb 5e       	subi	r28, 0xEB	; 235
    404a:	d0 40       	sbci	r29, 0x00	; 0
    404c:	c4 51       	subi	r28, 0x14	; 20
    404e:	df 4f       	sbci	r29, 0xFF	; 255
    4050:	78 81       	ld	r23, Y
    4052:	cc 5e       	subi	r28, 0xEC	; 236
    4054:	d0 40       	sbci	r29, 0x00	; 0
    4056:	c3 51       	subi	r28, 0x13	; 19
    4058:	df 4f       	sbci	r29, 0xFF	; 255
    405a:	88 81       	ld	r24, Y
    405c:	cd 5e       	subi	r28, 0xED	; 237
    405e:	d0 40       	sbci	r29, 0x00	; 0
    4060:	c2 51       	subi	r28, 0x12	; 18
    4062:	df 4f       	sbci	r29, 0xFF	; 255
    4064:	98 81       	ld	r25, Y
    4066:	ce 5e       	subi	r28, 0xEE	; 238
    4068:	d0 40       	sbci	r29, 0x00	; 0
    406a:	0e 94 b4 2a 	call	0x5568	; 0x5568 <__adddi3>
    406e:	ce 52       	subi	r28, 0x2E	; 46
    4070:	df 4f       	sbci	r29, 0xFF	; 255
    4072:	a8 80       	ld	r10, Y
    4074:	c2 5d       	subi	r28, 0xD2	; 210
    4076:	d0 40       	sbci	r29, 0x00	; 0
    4078:	cd 52       	subi	r28, 0x2D	; 45
    407a:	df 4f       	sbci	r29, 0xFF	; 255
    407c:	b8 80       	ld	r11, Y
    407e:	c3 5d       	subi	r28, 0xD3	; 211
    4080:	d0 40       	sbci	r29, 0x00	; 0
    4082:	cc 52       	subi	r28, 0x2C	; 44
    4084:	df 4f       	sbci	r29, 0xFF	; 255
    4086:	c8 80       	ld	r12, Y
    4088:	c4 5d       	subi	r28, 0xD4	; 212
    408a:	d0 40       	sbci	r29, 0x00	; 0
    408c:	cb 52       	subi	r28, 0x2B	; 43
    408e:	df 4f       	sbci	r29, 0xFF	; 255
    4090:	d8 80       	ld	r13, Y
    4092:	c5 5d       	subi	r28, 0xD5	; 213
    4094:	d0 40       	sbci	r29, 0x00	; 0
    4096:	ca 52       	subi	r28, 0x2A	; 42
    4098:	df 4f       	sbci	r29, 0xFF	; 255
    409a:	e8 80       	ld	r14, Y
    409c:	c6 5d       	subi	r28, 0xD6	; 214
    409e:	d0 40       	sbci	r29, 0x00	; 0
    40a0:	c9 52       	subi	r28, 0x29	; 41
    40a2:	df 4f       	sbci	r29, 0xFF	; 255
    40a4:	f8 80       	ld	r15, Y
    40a6:	c7 5d       	subi	r28, 0xD7	; 215
    40a8:	d0 40       	sbci	r29, 0x00	; 0
    40aa:	c8 52       	subi	r28, 0x28	; 40
    40ac:	df 4f       	sbci	r29, 0xFF	; 255
    40ae:	08 81       	ld	r16, Y
    40b0:	c8 5d       	subi	r28, 0xD8	; 216
    40b2:	d0 40       	sbci	r29, 0x00	; 0
    40b4:	c7 52       	subi	r28, 0x27	; 39
    40b6:	df 4f       	sbci	r29, 0xFF	; 255
    40b8:	18 81       	ld	r17, Y
    40ba:	c9 5d       	subi	r28, 0xD9	; 217
    40bc:	d0 40       	sbci	r29, 0x00	; 0
    40be:	0e 94 b4 2a 	call	0x5568	; 0x5568 <__adddi3>
    40c2:	92 2e       	mov	r9, r18
    40c4:	c5 53       	subi	r28, 0x35	; 53
    40c6:	df 4f       	sbci	r29, 0xFF	; 255
    40c8:	38 83       	st	Y, r19
    40ca:	cb 5c       	subi	r28, 0xCB	; 203
    40cc:	d0 40       	sbci	r29, 0x00	; 0
    40ce:	c3 53       	subi	r28, 0x33	; 51
    40d0:	df 4f       	sbci	r29, 0xFF	; 255
    40d2:	48 83       	st	Y, r20
    40d4:	cd 5c       	subi	r28, 0xCD	; 205
    40d6:	d0 40       	sbci	r29, 0x00	; 0
    40d8:	c2 53       	subi	r28, 0x32	; 50
    40da:	df 4f       	sbci	r29, 0xFF	; 255
    40dc:	58 83       	st	Y, r21
    40de:	ce 5c       	subi	r28, 0xCE	; 206
    40e0:	d0 40       	sbci	r29, 0x00	; 0
    40e2:	c1 53       	subi	r28, 0x31	; 49
    40e4:	df 4f       	sbci	r29, 0xFF	; 255
    40e6:	68 83       	st	Y, r22
    40e8:	cf 5c       	subi	r28, 0xCF	; 207
    40ea:	d0 40       	sbci	r29, 0x00	; 0
    40ec:	c0 53       	subi	r28, 0x30	; 48
    40ee:	df 4f       	sbci	r29, 0xFF	; 255
    40f0:	78 83       	st	Y, r23
    40f2:	c0 5d       	subi	r28, 0xD0	; 208
    40f4:	d0 40       	sbci	r29, 0x00	; 0
    40f6:	cf 52       	subi	r28, 0x2F	; 47
    40f8:	df 4f       	sbci	r29, 0xFF	; 255
    40fa:	88 83       	st	Y, r24
    40fc:	c1 5d       	subi	r28, 0xD1	; 209
    40fe:	d0 40       	sbci	r29, 0x00	; 0
    4100:	ce 52       	subi	r28, 0x2E	; 46
    4102:	df 4f       	sbci	r29, 0xFF	; 255
    4104:	98 83       	st	Y, r25
    4106:	c2 5d       	subi	r28, 0xD2	; 210
    4108:	d0 40       	sbci	r29, 0x00	; 0
		t2 = SIGMA_0(a[0]) + MAJ(a[0], a[1], a[2]);
    410a:	f2 01       	movw	r30, r4
    410c:	f0 85       	ldd	r31, Z+8	; 0x08
    410e:	cd 52       	subi	r28, 0x2D	; 45
    4110:	df 4f       	sbci	r29, 0xFF	; 255
    4112:	f8 83       	st	Y, r31
    4114:	c3 5d       	subi	r28, 0xD3	; 211
    4116:	d0 40       	sbci	r29, 0x00	; 0
    4118:	d2 01       	movw	r26, r4
    411a:	19 96       	adiw	r26, 0x09	; 9
    411c:	bc 91       	ld	r27, X
    411e:	c7 53       	subi	r28, 0x37	; 55
    4120:	df 4f       	sbci	r29, 0xFF	; 255
    4122:	b8 83       	st	Y, r27
    4124:	c9 5c       	subi	r28, 0xC9	; 201
    4126:	d0 40       	sbci	r29, 0x00	; 0
    4128:	f2 01       	movw	r30, r4
    412a:	f2 85       	ldd	r31, Z+10	; 0x0a
    412c:	cc 52       	subi	r28, 0x2C	; 44
    412e:	df 4f       	sbci	r29, 0xFF	; 255
    4130:	f8 83       	st	Y, r31
    4132:	c4 5d       	subi	r28, 0xD4	; 212
    4134:	d0 40       	sbci	r29, 0x00	; 0
    4136:	d2 01       	movw	r26, r4
    4138:	1b 96       	adiw	r26, 0x0b	; 11
    413a:	bc 91       	ld	r27, X
    413c:	cb 52       	subi	r28, 0x2B	; 43
    413e:	df 4f       	sbci	r29, 0xFF	; 255
    4140:	b8 83       	st	Y, r27
    4142:	c5 5d       	subi	r28, 0xD5	; 213
    4144:	d0 40       	sbci	r29, 0x00	; 0
    4146:	f2 01       	movw	r30, r4
    4148:	f4 85       	ldd	r31, Z+12	; 0x0c
    414a:	ca 52       	subi	r28, 0x2A	; 42
    414c:	df 4f       	sbci	r29, 0xFF	; 255
    414e:	f8 83       	st	Y, r31
    4150:	c6 5d       	subi	r28, 0xD6	; 214
    4152:	d0 40       	sbci	r29, 0x00	; 0
    4154:	d2 01       	movw	r26, r4
    4156:	1d 96       	adiw	r26, 0x0d	; 13
    4158:	bc 91       	ld	r27, X
    415a:	c9 52       	subi	r28, 0x29	; 41
    415c:	df 4f       	sbci	r29, 0xFF	; 255
    415e:	b8 83       	st	Y, r27
    4160:	c7 5d       	subi	r28, 0xD7	; 215
    4162:	d0 40       	sbci	r29, 0x00	; 0
    4164:	f2 01       	movw	r30, r4
    4166:	f6 85       	ldd	r31, Z+14	; 0x0e
    4168:	c8 52       	subi	r28, 0x28	; 40
    416a:	df 4f       	sbci	r29, 0xFF	; 255
    416c:	f8 83       	st	Y, r31
    416e:	c8 5d       	subi	r28, 0xD8	; 216
    4170:	d0 40       	sbci	r29, 0x00	; 0
    4172:	d2 01       	movw	r26, r4
    4174:	1f 96       	adiw	r26, 0x0f	; 15
    4176:	bc 91       	ld	r27, X
    4178:	c7 52       	subi	r28, 0x27	; 39
    417a:	df 4f       	sbci	r29, 0xFF	; 255
    417c:	b8 83       	st	Y, r27
    417e:	c9 5d       	subi	r28, 0xD9	; 217
    4180:	d0 40       	sbci	r29, 0x00	; 0
    4182:	f2 01       	movw	r30, r4
    4184:	80 88       	ldd	r8, Z+16	; 0x10
    4186:	71 88       	ldd	r7, Z+17	; 0x11
    4188:	22 88       	ldd	r2, Z+18	; 0x12
    418a:	33 88       	ldd	r3, Z+19	; 0x13
    418c:	64 88       	ldd	r6, Z+20	; 0x14
    418e:	15 89       	ldd	r17, Z+21	; 0x15
    4190:	c6 52       	subi	r28, 0x26	; 38
    4192:	df 4f       	sbci	r29, 0xFF	; 255
    4194:	18 83       	st	Y, r17
    4196:	ca 5d       	subi	r28, 0xDA	; 218
    4198:	d0 40       	sbci	r29, 0x00	; 0
    419a:	16 89       	ldd	r17, Z+22	; 0x16
    419c:	c5 52       	subi	r28, 0x25	; 37
    419e:	df 4f       	sbci	r29, 0xFF	; 255
    41a0:	18 83       	st	Y, r17
    41a2:	cb 5d       	subi	r28, 0xDB	; 219
    41a4:	d0 40       	sbci	r29, 0x00	; 0
    41a6:	17 89       	ldd	r17, Z+23	; 0x17
    41a8:	c4 52       	subi	r28, 0x24	; 36
    41aa:	df 4f       	sbci	r29, 0xFF	; 255
    41ac:	18 83       	st	Y, r17
    41ae:	cc 5d       	subi	r28, 0xDC	; 220
    41b0:	d0 40       	sbci	r29, 0x00	; 0
		memmove(&(a[1]), &(a[0]), 7*8);
    41b2:	48 e3       	ldi	r20, 0x38	; 56
    41b4:	50 e0       	ldi	r21, 0x00	; 0
    41b6:	b2 01       	movw	r22, r4
    41b8:	c1 51       	subi	r28, 0x11	; 17
    41ba:	df 4f       	sbci	r29, 0xFF	; 255
    41bc:	88 81       	ld	r24, Y
    41be:	99 81       	ldd	r25, Y+1	; 0x01
    41c0:	cf 5e       	subi	r28, 0xEF	; 239
    41c2:	d0 40       	sbci	r29, 0x00	; 0
    41c4:	0e 94 24 2b 	call	0x5648	; 0x5648 <memmove>
		a[0] = t1 + t2;
    41c8:	c3 52       	subi	r28, 0x23	; 35
    41ca:	df 4f       	sbci	r29, 0xFF	; 255
    41cc:	28 81       	ld	r18, Y
    41ce:	cd 5d       	subi	r28, 0xDD	; 221
    41d0:	d0 40       	sbci	r29, 0x00	; 0
    41d2:	c2 52       	subi	r28, 0x22	; 34
    41d4:	df 4f       	sbci	r29, 0xFF	; 255
    41d6:	38 81       	ld	r19, Y
    41d8:	ce 5d       	subi	r28, 0xDE	; 222
    41da:	d0 40       	sbci	r29, 0x00	; 0
    41dc:	c1 52       	subi	r28, 0x21	; 33
    41de:	df 4f       	sbci	r29, 0xFF	; 255
    41e0:	48 81       	ld	r20, Y
    41e2:	cf 5d       	subi	r28, 0xDF	; 223
    41e4:	d0 40       	sbci	r29, 0x00	; 0
    41e6:	c0 52       	subi	r28, 0x20	; 32
    41e8:	df 4f       	sbci	r29, 0xFF	; 255
    41ea:	58 81       	ld	r21, Y
    41ec:	c0 5e       	subi	r28, 0xE0	; 224
    41ee:	d0 40       	sbci	r29, 0x00	; 0
    41f0:	cf 51       	subi	r28, 0x1F	; 31
    41f2:	df 4f       	sbci	r29, 0xFF	; 255
    41f4:	68 81       	ld	r22, Y
    41f6:	c1 5e       	subi	r28, 0xE1	; 225
    41f8:	d0 40       	sbci	r29, 0x00	; 0
    41fa:	ce 51       	subi	r28, 0x1E	; 30
    41fc:	df 4f       	sbci	r29, 0xFF	; 255
    41fe:	78 81       	ld	r23, Y
    4200:	c2 5e       	subi	r28, 0xE2	; 226
    4202:	d0 40       	sbci	r29, 0x00	; 0
    4204:	cd 51       	subi	r28, 0x1D	; 29
    4206:	df 4f       	sbci	r29, 0xFF	; 255
    4208:	88 81       	ld	r24, Y
    420a:	c3 5e       	subi	r28, 0xE3	; 227
    420c:	d0 40       	sbci	r29, 0x00	; 0
    420e:	cc 51       	subi	r28, 0x1C	; 28
    4210:	df 4f       	sbci	r29, 0xFF	; 255
    4212:	98 81       	ld	r25, Y
    4214:	c4 5e       	subi	r28, 0xE4	; 228
    4216:	d0 40       	sbci	r29, 0x00	; 0
    4218:	0e e1       	ldi	r16, 0x1E	; 30
    421a:	0e 94 99 2a 	call	0x5532	; 0x5532 <__rotldi3>
    421e:	d2 2e       	mov	r13, r18
    4220:	e3 2e       	mov	r14, r19
    4222:	f4 2e       	mov	r15, r20
    4224:	15 2f       	mov	r17, r21
    4226:	b6 2f       	mov	r27, r22
    4228:	e7 2f       	mov	r30, r23
    422a:	a8 2f       	mov	r26, r24
    422c:	f9 2f       	mov	r31, r25
    422e:	c3 52       	subi	r28, 0x23	; 35
    4230:	df 4f       	sbci	r29, 0xFF	; 255
    4232:	28 81       	ld	r18, Y
    4234:	cd 5d       	subi	r28, 0xDD	; 221
    4236:	d0 40       	sbci	r29, 0x00	; 0
    4238:	c2 52       	subi	r28, 0x22	; 34
    423a:	df 4f       	sbci	r29, 0xFF	; 255
    423c:	38 81       	ld	r19, Y
    423e:	ce 5d       	subi	r28, 0xDE	; 222
    4240:	d0 40       	sbci	r29, 0x00	; 0
    4242:	c1 52       	subi	r28, 0x21	; 33
    4244:	df 4f       	sbci	r29, 0xFF	; 255
    4246:	48 81       	ld	r20, Y
    4248:	cf 5d       	subi	r28, 0xDF	; 223
    424a:	d0 40       	sbci	r29, 0x00	; 0
    424c:	c0 52       	subi	r28, 0x20	; 32
    424e:	df 4f       	sbci	r29, 0xFF	; 255
    4250:	58 81       	ld	r21, Y
    4252:	c0 5e       	subi	r28, 0xE0	; 224
    4254:	d0 40       	sbci	r29, 0x00	; 0
    4256:	cf 51       	subi	r28, 0x1F	; 31
    4258:	df 4f       	sbci	r29, 0xFF	; 255
    425a:	68 81       	ld	r22, Y
    425c:	c1 5e       	subi	r28, 0xE1	; 225
    425e:	d0 40       	sbci	r29, 0x00	; 0
    4260:	ce 51       	subi	r28, 0x1E	; 30
    4262:	df 4f       	sbci	r29, 0xFF	; 255
    4264:	78 81       	ld	r23, Y
    4266:	c2 5e       	subi	r28, 0xE2	; 226
    4268:	d0 40       	sbci	r29, 0x00	; 0
    426a:	cd 51       	subi	r28, 0x1D	; 29
    426c:	df 4f       	sbci	r29, 0xFF	; 255
    426e:	88 81       	ld	r24, Y
    4270:	c3 5e       	subi	r28, 0xE3	; 227
    4272:	d0 40       	sbci	r29, 0x00	; 0
    4274:	cc 51       	subi	r28, 0x1C	; 28
    4276:	df 4f       	sbci	r29, 0xFF	; 255
    4278:	98 81       	ld	r25, Y
    427a:	c4 5e       	subi	r28, 0xE4	; 228
    427c:	d0 40       	sbci	r29, 0x00	; 0
    427e:	04 e2       	ldi	r16, 0x24	; 36
    4280:	0e 94 99 2a 	call	0x5532	; 0x5532 <__rotldi3>
    4284:	d2 26       	eor	r13, r18
    4286:	e3 26       	eor	r14, r19
    4288:	f4 26       	eor	r15, r20
    428a:	15 27       	eor	r17, r21
    428c:	b6 27       	eor	r27, r22
    428e:	e7 27       	eor	r30, r23
    4290:	a8 27       	eor	r26, r24
    4292:	f9 27       	eor	r31, r25
    4294:	c3 52       	subi	r28, 0x23	; 35
    4296:	df 4f       	sbci	r29, 0xFF	; 255
    4298:	28 81       	ld	r18, Y
    429a:	cd 5d       	subi	r28, 0xDD	; 221
    429c:	d0 40       	sbci	r29, 0x00	; 0
    429e:	c2 52       	subi	r28, 0x22	; 34
    42a0:	df 4f       	sbci	r29, 0xFF	; 255
    42a2:	38 81       	ld	r19, Y
    42a4:	ce 5d       	subi	r28, 0xDE	; 222
    42a6:	d0 40       	sbci	r29, 0x00	; 0
    42a8:	c1 52       	subi	r28, 0x21	; 33
    42aa:	df 4f       	sbci	r29, 0xFF	; 255
    42ac:	48 81       	ld	r20, Y
    42ae:	cf 5d       	subi	r28, 0xDF	; 223
    42b0:	d0 40       	sbci	r29, 0x00	; 0
    42b2:	c0 52       	subi	r28, 0x20	; 32
    42b4:	df 4f       	sbci	r29, 0xFF	; 255
    42b6:	58 81       	ld	r21, Y
    42b8:	c0 5e       	subi	r28, 0xE0	; 224
    42ba:	d0 40       	sbci	r29, 0x00	; 0
    42bc:	cf 51       	subi	r28, 0x1F	; 31
    42be:	df 4f       	sbci	r29, 0xFF	; 255
    42c0:	68 81       	ld	r22, Y
    42c2:	c1 5e       	subi	r28, 0xE1	; 225
    42c4:	d0 40       	sbci	r29, 0x00	; 0
    42c6:	ce 51       	subi	r28, 0x1E	; 30
    42c8:	df 4f       	sbci	r29, 0xFF	; 255
    42ca:	78 81       	ld	r23, Y
    42cc:	c2 5e       	subi	r28, 0xE2	; 226
    42ce:	d0 40       	sbci	r29, 0x00	; 0
    42d0:	cd 51       	subi	r28, 0x1D	; 29
    42d2:	df 4f       	sbci	r29, 0xFF	; 255
    42d4:	88 81       	ld	r24, Y
    42d6:	c3 5e       	subi	r28, 0xE3	; 227
    42d8:	d0 40       	sbci	r29, 0x00	; 0
    42da:	cc 51       	subi	r28, 0x1C	; 28
    42dc:	df 4f       	sbci	r29, 0xFF	; 255
    42de:	98 81       	ld	r25, Y
    42e0:	c4 5e       	subi	r28, 0xE4	; 228
    42e2:	d0 40       	sbci	r29, 0x00	; 0
    42e4:	09 e1       	ldi	r16, 0x19	; 25
    42e6:	0e 94 99 2a 	call	0x5532	; 0x5532 <__rotldi3>
    42ea:	2d 25       	eor	r18, r13
    42ec:	3e 25       	eor	r19, r14
    42ee:	4f 25       	eor	r20, r15
    42f0:	51 27       	eor	r21, r17
    42f2:	6b 27       	eor	r22, r27
    42f4:	7e 27       	eor	r23, r30
    42f6:	cd 52       	subi	r28, 0x2D	; 45
    42f8:	df 4f       	sbci	r29, 0xFF	; 255
    42fa:	a8 80       	ld	r10, Y
    42fc:	c3 5d       	subi	r28, 0xD3	; 211
    42fe:	d0 40       	sbci	r29, 0x00	; 0
    4300:	a8 24       	eor	r10, r8
    4302:	c7 53       	subi	r28, 0x37	; 55
    4304:	df 4f       	sbci	r29, 0xFF	; 255
    4306:	b8 80       	ld	r11, Y
    4308:	c9 5c       	subi	r28, 0xC9	; 201
    430a:	d0 40       	sbci	r29, 0x00	; 0
    430c:	b7 24       	eor	r11, r7
    430e:	cc 52       	subi	r28, 0x2C	; 44
    4310:	df 4f       	sbci	r29, 0xFF	; 255
    4312:	c8 80       	ld	r12, Y
    4314:	c4 5d       	subi	r28, 0xD4	; 212
    4316:	d0 40       	sbci	r29, 0x00	; 0
    4318:	c2 24       	eor	r12, r2
    431a:	cb 52       	subi	r28, 0x2B	; 43
    431c:	df 4f       	sbci	r29, 0xFF	; 255
    431e:	d8 80       	ld	r13, Y
    4320:	c5 5d       	subi	r28, 0xD5	; 213
    4322:	d0 40       	sbci	r29, 0x00	; 0
    4324:	d3 24       	eor	r13, r3
    4326:	ca 52       	subi	r28, 0x2A	; 42
    4328:	df 4f       	sbci	r29, 0xFF	; 255
    432a:	e8 80       	ld	r14, Y
    432c:	c6 5d       	subi	r28, 0xD6	; 214
    432e:	d0 40       	sbci	r29, 0x00	; 0
    4330:	e6 24       	eor	r14, r6
    4332:	c9 52       	subi	r28, 0x29	; 41
    4334:	df 4f       	sbci	r29, 0xFF	; 255
    4336:	f8 80       	ld	r15, Y
    4338:	c7 5d       	subi	r28, 0xD7	; 215
    433a:	d0 40       	sbci	r29, 0x00	; 0
    433c:	c6 52       	subi	r28, 0x26	; 38
    433e:	df 4f       	sbci	r29, 0xFF	; 255
    4340:	18 81       	ld	r17, Y
    4342:	ca 5d       	subi	r28, 0xDA	; 218
    4344:	d0 40       	sbci	r29, 0x00	; 0
    4346:	f1 26       	eor	r15, r17
    4348:	c8 52       	subi	r28, 0x28	; 40
    434a:	df 4f       	sbci	r29, 0xFF	; 255
    434c:	08 81       	ld	r16, Y
    434e:	c8 5d       	subi	r28, 0xD8	; 216
    4350:	d0 40       	sbci	r29, 0x00	; 0
    4352:	c5 52       	subi	r28, 0x25	; 37
    4354:	df 4f       	sbci	r29, 0xFF	; 255
    4356:	18 81       	ld	r17, Y
    4358:	cb 5d       	subi	r28, 0xDB	; 219
    435a:	d0 40       	sbci	r29, 0x00	; 0
    435c:	01 27       	eor	r16, r17
    435e:	c7 52       	subi	r28, 0x27	; 39
    4360:	df 4f       	sbci	r29, 0xFF	; 255
    4362:	18 81       	ld	r17, Y
    4364:	c9 5d       	subi	r28, 0xD9	; 217
    4366:	d0 40       	sbci	r29, 0x00	; 0
    4368:	c4 52       	subi	r28, 0x24	; 36
    436a:	df 4f       	sbci	r29, 0xFF	; 255
    436c:	b8 81       	ld	r27, Y
    436e:	cc 5d       	subi	r28, 0xDC	; 220
    4370:	d0 40       	sbci	r29, 0x00	; 0
    4372:	1b 27       	eor	r17, r27
    4374:	c3 52       	subi	r28, 0x23	; 35
    4376:	df 4f       	sbci	r29, 0xFF	; 255
    4378:	e8 81       	ld	r30, Y
    437a:	cd 5d       	subi	r28, 0xDD	; 221
    437c:	d0 40       	sbci	r29, 0x00	; 0
    437e:	ae 22       	and	r10, r30
    4380:	c2 52       	subi	r28, 0x22	; 34
    4382:	df 4f       	sbci	r29, 0xFF	; 255
    4384:	b8 81       	ld	r27, Y
    4386:	ce 5d       	subi	r28, 0xDE	; 222
    4388:	d0 40       	sbci	r29, 0x00	; 0
    438a:	bb 22       	and	r11, r27
    438c:	c1 52       	subi	r28, 0x21	; 33
    438e:	df 4f       	sbci	r29, 0xFF	; 255
    4390:	e8 81       	ld	r30, Y
    4392:	cf 5d       	subi	r28, 0xDF	; 223
    4394:	d0 40       	sbci	r29, 0x00	; 0
    4396:	ce 22       	and	r12, r30
    4398:	c0 52       	subi	r28, 0x20	; 32
    439a:	df 4f       	sbci	r29, 0xFF	; 255
    439c:	b8 81       	ld	r27, Y
    439e:	c0 5e       	subi	r28, 0xE0	; 224
    43a0:	d0 40       	sbci	r29, 0x00	; 0
    43a2:	db 22       	and	r13, r27
    43a4:	cf 51       	subi	r28, 0x1F	; 31
    43a6:	df 4f       	sbci	r29, 0xFF	; 255
    43a8:	e8 81       	ld	r30, Y
    43aa:	c1 5e       	subi	r28, 0xE1	; 225
    43ac:	d0 40       	sbci	r29, 0x00	; 0
    43ae:	ee 22       	and	r14, r30
    43b0:	ce 51       	subi	r28, 0x1E	; 30
    43b2:	df 4f       	sbci	r29, 0xFF	; 255
    43b4:	b8 81       	ld	r27, Y
    43b6:	c2 5e       	subi	r28, 0xE2	; 226
    43b8:	d0 40       	sbci	r29, 0x00	; 0
    43ba:	fb 22       	and	r15, r27
    43bc:	cd 51       	subi	r28, 0x1D	; 29
    43be:	df 4f       	sbci	r29, 0xFF	; 255
    43c0:	e8 81       	ld	r30, Y
    43c2:	c3 5e       	subi	r28, 0xE3	; 227
    43c4:	d0 40       	sbci	r29, 0x00	; 0
    43c6:	0e 23       	and	r16, r30
    43c8:	cc 51       	subi	r28, 0x1C	; 28
    43ca:	df 4f       	sbci	r29, 0xFF	; 255
    43cc:	b8 81       	ld	r27, Y
    43ce:	c4 5e       	subi	r28, 0xE4	; 228
    43d0:	d0 40       	sbci	r29, 0x00	; 0
    43d2:	b1 23       	and	r27, r17
    43d4:	c3 52       	subi	r28, 0x23	; 35
    43d6:	df 4f       	sbci	r29, 0xFF	; 255
    43d8:	b8 83       	st	Y, r27
    43da:	cd 5d       	subi	r28, 0xDD	; 221
    43dc:	d0 40       	sbci	r29, 0x00	; 0
    43de:	cd 52       	subi	r28, 0x2D	; 45
    43e0:	df 4f       	sbci	r29, 0xFF	; 255
    43e2:	e8 81       	ld	r30, Y
    43e4:	c3 5d       	subi	r28, 0xD3	; 211
    43e6:	d0 40       	sbci	r29, 0x00	; 0
    43e8:	e8 21       	and	r30, r8
    43ea:	c7 53       	subi	r28, 0x37	; 55
    43ec:	df 4f       	sbci	r29, 0xFF	; 255
    43ee:	18 81       	ld	r17, Y
    43f0:	c9 5c       	subi	r28, 0xC9	; 201
    43f2:	d0 40       	sbci	r29, 0x00	; 0
    43f4:	17 21       	and	r17, r7
    43f6:	c7 53       	subi	r28, 0x37	; 55
    43f8:	df 4f       	sbci	r29, 0xFF	; 255
    43fa:	18 83       	st	Y, r17
    43fc:	c9 5c       	subi	r28, 0xC9	; 201
    43fe:	d0 40       	sbci	r29, 0x00	; 0
    4400:	cc 52       	subi	r28, 0x2C	; 44
    4402:	df 4f       	sbci	r29, 0xFF	; 255
    4404:	18 81       	ld	r17, Y
    4406:	c4 5d       	subi	r28, 0xD4	; 212
    4408:	d0 40       	sbci	r29, 0x00	; 0
    440a:	21 22       	and	r2, r17
    440c:	cb 52       	subi	r28, 0x2B	; 43
    440e:	df 4f       	sbci	r29, 0xFF	; 255
    4410:	18 81       	ld	r17, Y
    4412:	c5 5d       	subi	r28, 0xD5	; 213
    4414:	d0 40       	sbci	r29, 0x00	; 0
    4416:	31 22       	and	r3, r17
    4418:	ca 52       	subi	r28, 0x2A	; 42
    441a:	df 4f       	sbci	r29, 0xFF	; 255
    441c:	18 81       	ld	r17, Y
    441e:	c6 5d       	subi	r28, 0xD6	; 214
    4420:	d0 40       	sbci	r29, 0x00	; 0
    4422:	61 22       	and	r6, r17
    4424:	c9 52       	subi	r28, 0x29	; 41
    4426:	df 4f       	sbci	r29, 0xFF	; 255
    4428:	78 80       	ld	r7, Y
    442a:	c7 5d       	subi	r28, 0xD7	; 215
    442c:	d0 40       	sbci	r29, 0x00	; 0
    442e:	c6 52       	subi	r28, 0x26	; 38
    4430:	df 4f       	sbci	r29, 0xFF	; 255
    4432:	18 81       	ld	r17, Y
    4434:	ca 5d       	subi	r28, 0xDA	; 218
    4436:	d0 40       	sbci	r29, 0x00	; 0
    4438:	71 22       	and	r7, r17
    443a:	c8 52       	subi	r28, 0x28	; 40
    443c:	df 4f       	sbci	r29, 0xFF	; 255
    443e:	88 80       	ld	r8, Y
    4440:	c8 5d       	subi	r28, 0xD8	; 216
    4442:	d0 40       	sbci	r29, 0x00	; 0
    4444:	c5 52       	subi	r28, 0x25	; 37
    4446:	df 4f       	sbci	r29, 0xFF	; 255
    4448:	18 81       	ld	r17, Y
    444a:	cb 5d       	subi	r28, 0xDB	; 219
    444c:	d0 40       	sbci	r29, 0x00	; 0
    444e:	81 22       	and	r8, r17
    4450:	c7 52       	subi	r28, 0x27	; 39
    4452:	df 4f       	sbci	r29, 0xFF	; 255
    4454:	b8 81       	ld	r27, Y
    4456:	c9 5d       	subi	r28, 0xD9	; 217
    4458:	d0 40       	sbci	r29, 0x00	; 0
    445a:	c4 52       	subi	r28, 0x24	; 36
    445c:	df 4f       	sbci	r29, 0xFF	; 255
    445e:	18 81       	ld	r17, Y
    4460:	cc 5d       	subi	r28, 0xDC	; 220
    4462:	d0 40       	sbci	r29, 0x00	; 0
    4464:	b1 23       	and	r27, r17
    4466:	ae 26       	eor	r10, r30
    4468:	c7 53       	subi	r28, 0x37	; 55
    446a:	df 4f       	sbci	r29, 0xFF	; 255
    446c:	e8 81       	ld	r30, Y
    446e:	c9 5c       	subi	r28, 0xC9	; 201
    4470:	d0 40       	sbci	r29, 0x00	; 0
    4472:	be 26       	eor	r11, r30
    4474:	c2 24       	eor	r12, r2
    4476:	d3 24       	eor	r13, r3
    4478:	e6 24       	eor	r14, r6
    447a:	f7 24       	eor	r15, r7
    447c:	08 25       	eor	r16, r8
    447e:	c3 52       	subi	r28, 0x23	; 35
    4480:	df 4f       	sbci	r29, 0xFF	; 255
    4482:	18 81       	ld	r17, Y
    4484:	cd 5d       	subi	r28, 0xDD	; 221
    4486:	d0 40       	sbci	r29, 0x00	; 0
    4488:	1b 27       	eor	r17, r27
    448a:	8a 27       	eor	r24, r26
    448c:	9f 27       	eor	r25, r31
    448e:	0e 94 b4 2a 	call	0x5568	; 0x5568 <__adddi3>
    4492:	a9 2c       	mov	r10, r9
    4494:	c5 53       	subi	r28, 0x35	; 53
    4496:	df 4f       	sbci	r29, 0xFF	; 255
    4498:	b8 80       	ld	r11, Y
    449a:	cb 5c       	subi	r28, 0xCB	; 203
    449c:	d0 40       	sbci	r29, 0x00	; 0
    449e:	c3 53       	subi	r28, 0x33	; 51
    44a0:	df 4f       	sbci	r29, 0xFF	; 255
    44a2:	c8 80       	ld	r12, Y
    44a4:	cd 5c       	subi	r28, 0xCD	; 205
    44a6:	d0 40       	sbci	r29, 0x00	; 0
    44a8:	c2 53       	subi	r28, 0x32	; 50
    44aa:	df 4f       	sbci	r29, 0xFF	; 255
    44ac:	d8 80       	ld	r13, Y
    44ae:	ce 5c       	subi	r28, 0xCE	; 206
    44b0:	d0 40       	sbci	r29, 0x00	; 0
    44b2:	c1 53       	subi	r28, 0x31	; 49
    44b4:	df 4f       	sbci	r29, 0xFF	; 255
    44b6:	e8 80       	ld	r14, Y
    44b8:	cf 5c       	subi	r28, 0xCF	; 207
    44ba:	d0 40       	sbci	r29, 0x00	; 0
    44bc:	c0 53       	subi	r28, 0x30	; 48
    44be:	df 4f       	sbci	r29, 0xFF	; 255
    44c0:	f8 80       	ld	r15, Y
    44c2:	c0 5d       	subi	r28, 0xD0	; 208
    44c4:	d0 40       	sbci	r29, 0x00	; 0
    44c6:	cf 52       	subi	r28, 0x2F	; 47
    44c8:	df 4f       	sbci	r29, 0xFF	; 255
    44ca:	08 81       	ld	r16, Y
    44cc:	c1 5d       	subi	r28, 0xD1	; 209
    44ce:	d0 40       	sbci	r29, 0x00	; 0
    44d0:	ce 52       	subi	r28, 0x2E	; 46
    44d2:	df 4f       	sbci	r29, 0xFF	; 255
    44d4:	18 81       	ld	r17, Y
    44d6:	c2 5d       	subi	r28, 0xD2	; 210
    44d8:	d0 40       	sbci	r29, 0x00	; 0
    44da:	0e 94 b4 2a 	call	0x5568	; 0x5568 <__adddi3>
    44de:	c3 52       	subi	r28, 0x23	; 35
    44e0:	df 4f       	sbci	r29, 0xFF	; 255
    44e2:	28 83       	st	Y, r18
    44e4:	cd 5d       	subi	r28, 0xDD	; 221
    44e6:	d0 40       	sbci	r29, 0x00	; 0
    44e8:	c2 52       	subi	r28, 0x22	; 34
    44ea:	df 4f       	sbci	r29, 0xFF	; 255
    44ec:	38 83       	st	Y, r19
    44ee:	ce 5d       	subi	r28, 0xDE	; 222
    44f0:	d0 40       	sbci	r29, 0x00	; 0
    44f2:	c1 52       	subi	r28, 0x21	; 33
    44f4:	df 4f       	sbci	r29, 0xFF	; 255
    44f6:	48 83       	st	Y, r20
    44f8:	cf 5d       	subi	r28, 0xDF	; 223
    44fa:	d0 40       	sbci	r29, 0x00	; 0
    44fc:	c0 52       	subi	r28, 0x20	; 32
    44fe:	df 4f       	sbci	r29, 0xFF	; 255
    4500:	58 83       	st	Y, r21
    4502:	c0 5e       	subi	r28, 0xE0	; 224
    4504:	d0 40       	sbci	r29, 0x00	; 0
    4506:	cf 51       	subi	r28, 0x1F	; 31
    4508:	df 4f       	sbci	r29, 0xFF	; 255
    450a:	68 83       	st	Y, r22
    450c:	c1 5e       	subi	r28, 0xE1	; 225
    450e:	d0 40       	sbci	r29, 0x00	; 0
    4510:	ce 51       	subi	r28, 0x1E	; 30
    4512:	df 4f       	sbci	r29, 0xFF	; 255
    4514:	78 83       	st	Y, r23
    4516:	c2 5e       	subi	r28, 0xE2	; 226
    4518:	d0 40       	sbci	r29, 0x00	; 0
    451a:	cd 51       	subi	r28, 0x1D	; 29
    451c:	df 4f       	sbci	r29, 0xFF	; 255
    451e:	88 83       	st	Y, r24
    4520:	c3 5e       	subi	r28, 0xE3	; 227
    4522:	d0 40       	sbci	r29, 0x00	; 0
    4524:	cc 51       	subi	r28, 0x1C	; 28
    4526:	df 4f       	sbci	r29, 0xFF	; 255
    4528:	98 83       	st	Y, r25
    452a:	c4 5e       	subi	r28, 0xE4	; 228
    452c:	d0 40       	sbci	r29, 0x00	; 0
    452e:	d2 01       	movw	r26, r4
    4530:	2c 93       	st	X, r18
    4532:	11 96       	adiw	r26, 0x01	; 1
    4534:	3c 93       	st	X, r19
    4536:	11 97       	sbiw	r26, 0x01	; 1
    4538:	12 96       	adiw	r26, 0x02	; 2
    453a:	4c 93       	st	X, r20
    453c:	12 97       	sbiw	r26, 0x02	; 2
    453e:	13 96       	adiw	r26, 0x03	; 3
    4540:	5c 93       	st	X, r21
    4542:	13 97       	sbiw	r26, 0x03	; 3
    4544:	14 96       	adiw	r26, 0x04	; 4
    4546:	6c 93       	st	X, r22
    4548:	14 97       	sbiw	r26, 0x04	; 4
    454a:	15 96       	adiw	r26, 0x05	; 5
    454c:	7c 93       	st	X, r23
    454e:	15 97       	sbiw	r26, 0x05	; 5
    4550:	cd 51       	subi	r28, 0x1D	; 29
    4552:	df 4f       	sbci	r29, 0xFF	; 255
    4554:	f8 81       	ld	r31, Y
    4556:	c3 5e       	subi	r28, 0xE3	; 227
    4558:	d0 40       	sbci	r29, 0x00	; 0
    455a:	16 96       	adiw	r26, 0x06	; 6
    455c:	fc 93       	st	X, r31
    455e:	16 97       	sbiw	r26, 0x06	; 6
    4560:	cc 51       	subi	r28, 0x1C	; 28
    4562:	df 4f       	sbci	r29, 0xFF	; 255
    4564:	18 81       	ld	r17, Y
    4566:	c4 5e       	subi	r28, 0xE4	; 228
    4568:	d0 40       	sbci	r29, 0x00	; 0
    456a:	17 96       	adiw	r26, 0x07	; 7
    456c:	1c 93       	st	X, r17
    456e:	17 97       	sbiw	r26, 0x07	; 7
		a[4] += t1;
    4570:	29 2d       	mov	r18, r9
    4572:	3b 2d       	mov	r19, r11
    4574:	a6 01       	movw	r20, r12
    4576:	b7 01       	movw	r22, r14
    4578:	80 2f       	mov	r24, r16
    457a:	ce 52       	subi	r28, 0x2E	; 46
    457c:	df 4f       	sbci	r29, 0xFF	; 255
    457e:	98 81       	ld	r25, Y
    4580:	c2 5d       	subi	r28, 0xD2	; 210
    4582:	d0 40       	sbci	r29, 0x00	; 0
    4584:	90 96       	adiw	r26, 0x20	; 32
    4586:	ac 90       	ld	r10, X
    4588:	90 97       	sbiw	r26, 0x20	; 32
    458a:	91 96       	adiw	r26, 0x21	; 33
    458c:	bc 90       	ld	r11, X
    458e:	91 97       	sbiw	r26, 0x21	; 33
    4590:	92 96       	adiw	r26, 0x22	; 34
    4592:	cc 90       	ld	r12, X
    4594:	92 97       	sbiw	r26, 0x22	; 34
    4596:	93 96       	adiw	r26, 0x23	; 35
    4598:	dc 90       	ld	r13, X
    459a:	93 97       	sbiw	r26, 0x23	; 35
    459c:	94 96       	adiw	r26, 0x24	; 36
    459e:	ec 90       	ld	r14, X
    45a0:	94 97       	sbiw	r26, 0x24	; 36
    45a2:	95 96       	adiw	r26, 0x25	; 37
    45a4:	fc 90       	ld	r15, X
    45a6:	95 97       	sbiw	r26, 0x25	; 37
    45a8:	96 96       	adiw	r26, 0x26	; 38
    45aa:	0c 91       	ld	r16, X
    45ac:	96 97       	sbiw	r26, 0x26	; 38
    45ae:	97 96       	adiw	r26, 0x27	; 39
    45b0:	1c 91       	ld	r17, X
    45b2:	97 97       	sbiw	r26, 0x27	; 39
    45b4:	d9 d7       	rcall	.+4018   	; 0x5568 <__adddi3>
    45b6:	c7 53       	subi	r28, 0x37	; 55
    45b8:	df 4f       	sbci	r29, 0xFF	; 255
    45ba:	28 83       	st	Y, r18
    45bc:	c9 5c       	subi	r28, 0xC9	; 201
    45be:	d0 40       	sbci	r29, 0x00	; 0
    45c0:	c5 53       	subi	r28, 0x35	; 53
    45c2:	df 4f       	sbci	r29, 0xFF	; 255
    45c4:	38 83       	st	Y, r19
    45c6:	cb 5c       	subi	r28, 0xCB	; 203
    45c8:	d0 40       	sbci	r29, 0x00	; 0
    45ca:	c3 53       	subi	r28, 0x33	; 51
    45cc:	df 4f       	sbci	r29, 0xFF	; 255
    45ce:	48 83       	st	Y, r20
    45d0:	cd 5c       	subi	r28, 0xCD	; 205
    45d2:	d0 40       	sbci	r29, 0x00	; 0
    45d4:	c2 53       	subi	r28, 0x32	; 50
    45d6:	df 4f       	sbci	r29, 0xFF	; 255
    45d8:	58 83       	st	Y, r21
    45da:	ce 5c       	subi	r28, 0xCE	; 206
    45dc:	d0 40       	sbci	r29, 0x00	; 0
    45de:	c1 53       	subi	r28, 0x31	; 49
    45e0:	df 4f       	sbci	r29, 0xFF	; 255
    45e2:	68 83       	st	Y, r22
    45e4:	cf 5c       	subi	r28, 0xCF	; 207
    45e6:	d0 40       	sbci	r29, 0x00	; 0
    45e8:	27 2e       	mov	r2, r23
    45ea:	c0 53       	subi	r28, 0x30	; 48
    45ec:	df 4f       	sbci	r29, 0xFF	; 255
    45ee:	88 83       	st	Y, r24
    45f0:	c0 5d       	subi	r28, 0xD0	; 208
    45f2:	d0 40       	sbci	r29, 0x00	; 0
    45f4:	cf 52       	subi	r28, 0x2F	; 47
    45f6:	df 4f       	sbci	r29, 0xFF	; 255
    45f8:	98 83       	st	Y, r25
    45fa:	c1 5d       	subi	r28, 0xD1	; 209
    45fc:	d0 40       	sbci	r29, 0x00	; 0
    45fe:	90 96       	adiw	r26, 0x20	; 32
    4600:	2c 93       	st	X, r18
    4602:	90 97       	sbiw	r26, 0x20	; 32
    4604:	91 96       	adiw	r26, 0x21	; 33
    4606:	3c 93       	st	X, r19
    4608:	91 97       	sbiw	r26, 0x21	; 33
    460a:	92 96       	adiw	r26, 0x22	; 34
    460c:	4c 93       	st	X, r20
    460e:	92 97       	sbiw	r26, 0x22	; 34
    4610:	93 96       	adiw	r26, 0x23	; 35
    4612:	5c 93       	st	X, r21
    4614:	93 97       	sbiw	r26, 0x23	; 35
    4616:	94 96       	adiw	r26, 0x24	; 36
    4618:	6c 93       	st	X, r22
    461a:	94 97       	sbiw	r26, 0x24	; 36
    461c:	95 96       	adiw	r26, 0x25	; 37
    461e:	2c 92       	st	X, r2
    4620:	95 97       	sbiw	r26, 0x25	; 37
    4622:	c0 53       	subi	r28, 0x30	; 48
    4624:	df 4f       	sbci	r29, 0xFF	; 255
    4626:	88 81       	ld	r24, Y
    4628:	c0 5d       	subi	r28, 0xD0	; 208
    462a:	d0 40       	sbci	r29, 0x00	; 0
    462c:	96 96       	adiw	r26, 0x26	; 38
    462e:	8c 93       	st	X, r24
    4630:	96 97       	sbiw	r26, 0x26	; 38
    4632:	cf 52       	subi	r28, 0x2F	; 47
    4634:	df 4f       	sbci	r29, 0xFF	; 255
    4636:	98 81       	ld	r25, Y
    4638:	c1 5d       	subi	r28, 0xD1	; 209
    463a:	d0 40       	sbci	r29, 0x00	; 0
    463c:	97 96       	adiw	r26, 0x27	; 39
    463e:	9c 93       	st	X, r25
	do{
		w[16-i] = change_endian64(*((const uint64_t*)block));
		block = (uint8_t*)block + 8;
	}while(--i);
	memcpy(a, ctx->h, 8*8);
	for(i=0; i<80; ++i){
    4640:	c9 51       	subi	r28, 0x19	; 25
    4642:	df 4f       	sbci	r29, 0xFF	; 255
    4644:	a8 81       	ld	r26, Y
    4646:	c7 5e       	subi	r28, 0xE7	; 231
    4648:	d0 40       	sbci	r29, 0x00	; 0
    464a:	af 5f       	subi	r26, 0xFF	; 255
    464c:	c9 51       	subi	r28, 0x19	; 25
    464e:	df 4f       	sbci	r29, 0xFF	; 255
    4650:	a8 83       	st	Y, r26
    4652:	c7 5e       	subi	r28, 0xE7	; 231
    4654:	d0 40       	sbci	r29, 0x00	; 0
    4656:	cb 51       	subi	r28, 0x1B	; 27
    4658:	df 4f       	sbci	r29, 0xFF	; 255
    465a:	e8 81       	ld	r30, Y
    465c:	f9 81       	ldd	r31, Y+1	; 0x01
    465e:	c5 5e       	subi	r28, 0xE5	; 229
    4660:	d0 40       	sbci	r29, 0x00	; 0
    4662:	38 96       	adiw	r30, 0x08	; 8
    4664:	cb 51       	subi	r28, 0x1B	; 27
    4666:	df 4f       	sbci	r29, 0xFF	; 255
    4668:	f9 83       	std	Y+1, r31	; 0x01
    466a:	e8 83       	st	Y, r30
    466c:	c5 5e       	subi	r28, 0xE5	; 229
    466e:	d0 40       	sbci	r29, 0x00	; 0
    4670:	c8 51       	subi	r28, 0x18	; 24
    4672:	df 4f       	sbci	r29, 0xFF	; 255
    4674:	88 81       	ld	r24, Y
    4676:	99 81       	ldd	r25, Y+1	; 0x01
    4678:	c8 5e       	subi	r28, 0xE8	; 232
    467a:	d0 40       	sbci	r29, 0x00	; 0
    467c:	08 96       	adiw	r24, 0x08	; 8
    467e:	c8 51       	subi	r28, 0x18	; 24
    4680:	df 4f       	sbci	r29, 0xFF	; 255
    4682:	99 83       	std	Y+1, r25	; 0x01
    4684:	88 83       	st	Y, r24
    4686:	c8 5e       	subi	r28, 0xE8	; 232
    4688:	d0 40       	sbci	r29, 0x00	; 0
    468a:	a0 35       	cpi	r26, 0x50	; 80
    468c:	09 f4       	brne	.+2      	; 0x4690 <sha2_large_common_nextBlock+0x107a>
    468e:	6c c0       	rjmp	.+216    	; 0x4768 <sha2_large_common_nextBlock+0x1152>
		if(i<16){
    4690:	c9 51       	subi	r28, 0x19	; 25
    4692:	df 4f       	sbci	r29, 0xFF	; 255
    4694:	98 81       	ld	r25, Y
    4696:	c7 5e       	subi	r28, 0xE7	; 231
    4698:	d0 40       	sbci	r29, 0x00	; 0
    469a:	90 31       	cpi	r25, 0x10	; 16
    469c:	08 f0       	brcs	.+2      	; 0x46a0 <sha2_large_common_nextBlock+0x108a>
    469e:	fe c8       	rjmp	.-3588   	; 0x389c <sha2_large_common_nextBlock+0x286>
			wx=w[i];
    46a0:	cb 51       	subi	r28, 0x1B	; 27
    46a2:	df 4f       	sbci	r29, 0xFF	; 255
    46a4:	a8 81       	ld	r26, Y
    46a6:	b9 81       	ldd	r27, Y+1	; 0x01
    46a8:	c5 5e       	subi	r28, 0xE5	; 229
    46aa:	d0 40       	sbci	r29, 0x00	; 0
    46ac:	bc 91       	ld	r27, X
    46ae:	ce 52       	subi	r28, 0x2E	; 46
    46b0:	df 4f       	sbci	r29, 0xFF	; 255
    46b2:	b8 83       	st	Y, r27
    46b4:	c2 5d       	subi	r28, 0xD2	; 210
    46b6:	d0 40       	sbci	r29, 0x00	; 0
    46b8:	cb 51       	subi	r28, 0x1B	; 27
    46ba:	df 4f       	sbci	r29, 0xFF	; 255
    46bc:	e8 81       	ld	r30, Y
    46be:	f9 81       	ldd	r31, Y+1	; 0x01
    46c0:	c5 5e       	subi	r28, 0xE5	; 229
    46c2:	d0 40       	sbci	r29, 0x00	; 0
    46c4:	f1 81       	ldd	r31, Z+1	; 0x01
    46c6:	cd 52       	subi	r28, 0x2D	; 45
    46c8:	df 4f       	sbci	r29, 0xFF	; 255
    46ca:	f8 83       	st	Y, r31
    46cc:	c3 5d       	subi	r28, 0xD3	; 211
    46ce:	d0 40       	sbci	r29, 0x00	; 0
    46d0:	cb 51       	subi	r28, 0x1B	; 27
    46d2:	df 4f       	sbci	r29, 0xFF	; 255
    46d4:	a8 81       	ld	r26, Y
    46d6:	b9 81       	ldd	r27, Y+1	; 0x01
    46d8:	c5 5e       	subi	r28, 0xE5	; 229
    46da:	d0 40       	sbci	r29, 0x00	; 0
    46dc:	12 96       	adiw	r26, 0x02	; 2
    46de:	bc 91       	ld	r27, X
    46e0:	cc 52       	subi	r28, 0x2C	; 44
    46e2:	df 4f       	sbci	r29, 0xFF	; 255
    46e4:	b8 83       	st	Y, r27
    46e6:	c4 5d       	subi	r28, 0xD4	; 212
    46e8:	d0 40       	sbci	r29, 0x00	; 0
    46ea:	cb 51       	subi	r28, 0x1B	; 27
    46ec:	df 4f       	sbci	r29, 0xFF	; 255
    46ee:	e8 81       	ld	r30, Y
    46f0:	f9 81       	ldd	r31, Y+1	; 0x01
    46f2:	c5 5e       	subi	r28, 0xE5	; 229
    46f4:	d0 40       	sbci	r29, 0x00	; 0
    46f6:	f3 81       	ldd	r31, Z+3	; 0x03
    46f8:	cb 52       	subi	r28, 0x2B	; 43
    46fa:	df 4f       	sbci	r29, 0xFF	; 255
    46fc:	f8 83       	st	Y, r31
    46fe:	c5 5d       	subi	r28, 0xD5	; 213
    4700:	d0 40       	sbci	r29, 0x00	; 0
    4702:	cb 51       	subi	r28, 0x1B	; 27
    4704:	df 4f       	sbci	r29, 0xFF	; 255
    4706:	a8 81       	ld	r26, Y
    4708:	b9 81       	ldd	r27, Y+1	; 0x01
    470a:	c5 5e       	subi	r28, 0xE5	; 229
    470c:	d0 40       	sbci	r29, 0x00	; 0
    470e:	14 96       	adiw	r26, 0x04	; 4
    4710:	bc 91       	ld	r27, X
    4712:	ca 52       	subi	r28, 0x2A	; 42
    4714:	df 4f       	sbci	r29, 0xFF	; 255
    4716:	b8 83       	st	Y, r27
    4718:	c6 5d       	subi	r28, 0xD6	; 214
    471a:	d0 40       	sbci	r29, 0x00	; 0
    471c:	cb 51       	subi	r28, 0x1B	; 27
    471e:	df 4f       	sbci	r29, 0xFF	; 255
    4720:	e8 81       	ld	r30, Y
    4722:	f9 81       	ldd	r31, Y+1	; 0x01
    4724:	c5 5e       	subi	r28, 0xE5	; 229
    4726:	d0 40       	sbci	r29, 0x00	; 0
    4728:	f5 81       	ldd	r31, Z+5	; 0x05
    472a:	c9 52       	subi	r28, 0x29	; 41
    472c:	df 4f       	sbci	r29, 0xFF	; 255
    472e:	f8 83       	st	Y, r31
    4730:	c7 5d       	subi	r28, 0xD7	; 215
    4732:	d0 40       	sbci	r29, 0x00	; 0
    4734:	cb 51       	subi	r28, 0x1B	; 27
    4736:	df 4f       	sbci	r29, 0xFF	; 255
    4738:	a8 81       	ld	r26, Y
    473a:	b9 81       	ldd	r27, Y+1	; 0x01
    473c:	c5 5e       	subi	r28, 0xE5	; 229
    473e:	d0 40       	sbci	r29, 0x00	; 0
    4740:	16 96       	adiw	r26, 0x06	; 6
    4742:	bc 91       	ld	r27, X
    4744:	c8 52       	subi	r28, 0x28	; 40
    4746:	df 4f       	sbci	r29, 0xFF	; 255
    4748:	b8 83       	st	Y, r27
    474a:	c8 5d       	subi	r28, 0xD8	; 216
    474c:	d0 40       	sbci	r29, 0x00	; 0
    474e:	cb 51       	subi	r28, 0x1B	; 27
    4750:	df 4f       	sbci	r29, 0xFF	; 255
    4752:	e8 81       	ld	r30, Y
    4754:	f9 81       	ldd	r31, Y+1	; 0x01
    4756:	c5 5e       	subi	r28, 0xE5	; 229
    4758:	d0 40       	sbci	r29, 0x00	; 0
    475a:	f7 81       	ldd	r31, Z+7	; 0x07
    475c:	c7 52       	subi	r28, 0x27	; 39
    475e:	df 4f       	sbci	r29, 0xFF	; 255
    4760:	f8 83       	st	Y, r31
    4762:	c9 5d       	subi	r28, 0xD9	; 217
    4764:	d0 40       	sbci	r29, 0x00	; 0
    4766:	a7 ca       	rjmp	.-2738   	; 0x3cb6 <sha2_large_common_nextBlock+0x6a0>
    4768:	97 e0       	ldi	r25, 0x07	; 7
    476a:	99 2e       	mov	r9, r25
    476c:	79 2c       	mov	r7, r9
    476e:	cf 50       	subi	r28, 0x0F	; 15
    4770:	df 4f       	sbci	r29, 0xFF	; 255
    4772:	88 80       	ld	r8, Y
    4774:	99 80       	ldd	r9, Y+1	; 0x01
    4776:	c1 5f       	subi	r28, 0xF1	; 241
    4778:	d0 40       	sbci	r29, 0x00	; 0
    477a:	a7 2d       	mov	r26, r7
    477c:	b0 e0       	ldi	r27, 0x00	; 0
    477e:	aa 0f       	add	r26, r26
    4780:	bb 1f       	adc	r27, r27
    4782:	aa 0f       	add	r26, r26
    4784:	bb 1f       	adc	r27, r27
    4786:	aa 0f       	add	r26, r26
    4788:	bb 1f       	adc	r27, r27
    478a:	f4 01       	movw	r30, r8
    478c:	ea 0f       	add	r30, r26
    478e:	fb 1f       	adc	r31, r27
		a[0] = t1 + t2;
		a[4] += t1;
	}
	i=7;
	do{
		ctx->h[i] += a[i];
    4790:	a4 0d       	add	r26, r4
    4792:	b5 1d       	adc	r27, r5
    4794:	20 81       	ld	r18, Z
    4796:	31 81       	ldd	r19, Z+1	; 0x01
    4798:	42 81       	ldd	r20, Z+2	; 0x02
    479a:	53 81       	ldd	r21, Z+3	; 0x03
    479c:	64 81       	ldd	r22, Z+4	; 0x04
    479e:	75 81       	ldd	r23, Z+5	; 0x05
    47a0:	86 81       	ldd	r24, Z+6	; 0x06
    47a2:	97 81       	ldd	r25, Z+7	; 0x07
    47a4:	ac 90       	ld	r10, X
    47a6:	11 96       	adiw	r26, 0x01	; 1
    47a8:	bc 90       	ld	r11, X
    47aa:	11 97       	sbiw	r26, 0x01	; 1
    47ac:	12 96       	adiw	r26, 0x02	; 2
    47ae:	cc 90       	ld	r12, X
    47b0:	12 97       	sbiw	r26, 0x02	; 2
    47b2:	13 96       	adiw	r26, 0x03	; 3
    47b4:	dc 90       	ld	r13, X
    47b6:	13 97       	sbiw	r26, 0x03	; 3
    47b8:	14 96       	adiw	r26, 0x04	; 4
    47ba:	ec 90       	ld	r14, X
    47bc:	14 97       	sbiw	r26, 0x04	; 4
    47be:	15 96       	adiw	r26, 0x05	; 5
    47c0:	fc 90       	ld	r15, X
    47c2:	15 97       	sbiw	r26, 0x05	; 5
    47c4:	16 96       	adiw	r26, 0x06	; 6
    47c6:	0c 91       	ld	r16, X
    47c8:	16 97       	sbiw	r26, 0x06	; 6
    47ca:	17 96       	adiw	r26, 0x07	; 7
    47cc:	1c 91       	ld	r17, X
    47ce:	cc d6       	rcall	.+3480   	; 0x5568 <__adddi3>
    47d0:	20 83       	st	Z, r18
    47d2:	31 83       	std	Z+1, r19	; 0x01
    47d4:	42 83       	std	Z+2, r20	; 0x02
    47d6:	53 83       	std	Z+3, r21	; 0x03
    47d8:	64 83       	std	Z+4, r22	; 0x04
    47da:	75 83       	std	Z+5, r23	; 0x05
    47dc:	86 83       	std	Z+6, r24	; 0x06
    47de:	97 83       	std	Z+7, r25	; 0x07
	}while(i--);
    47e0:	7a 94       	dec	r7
    47e2:	9f ef       	ldi	r25, 0xFF	; 255
    47e4:	79 12       	cpse	r7, r25
    47e6:	c9 cf       	rjmp	.-110    	; 0x477a <sha2_large_common_nextBlock+0x1164>
	ctx->length += 1;
    47e8:	cf 50       	subi	r28, 0x0F	; 15
    47ea:	df 4f       	sbci	r29, 0xFF	; 255
    47ec:	e8 81       	ld	r30, Y
    47ee:	f9 81       	ldd	r31, Y+1	; 0x01
    47f0:	c1 5f       	subi	r28, 0xF1	; 241
    47f2:	d0 40       	sbci	r29, 0x00	; 0
    47f4:	e0 5c       	subi	r30, 0xC0	; 192
    47f6:	ff 4f       	sbci	r31, 0xFF	; 255
    47f8:	80 81       	ld	r24, Z
    47fa:	91 81       	ldd	r25, Z+1	; 0x01
    47fc:	a2 81       	ldd	r26, Z+2	; 0x02
    47fe:	b3 81       	ldd	r27, Z+3	; 0x03
    4800:	01 96       	adiw	r24, 0x01	; 1
    4802:	a1 1d       	adc	r26, r1
    4804:	b1 1d       	adc	r27, r1
    4806:	80 83       	st	Z, r24
    4808:	91 83       	std	Z+1, r25	; 0x01
    480a:	a2 83       	std	Z+2, r26	; 0x02
    480c:	b3 83       	std	Z+3, r27	; 0x03
}
    480e:	ce 50       	subi	r28, 0x0E	; 14
    4810:	df 4f       	sbci	r29, 0xFF	; 255
    4812:	0f b6       	in	r0, 0x3f	; 63
    4814:	f8 94       	cli
    4816:	de bf       	out	0x3e, r29	; 62
    4818:	0f be       	out	0x3f, r0	; 63
    481a:	cd bf       	out	0x3d, r28	; 61
    481c:	df 91       	pop	r29
    481e:	cf 91       	pop	r28
    4820:	1f 91       	pop	r17
    4822:	0f 91       	pop	r16
    4824:	ff 90       	pop	r15
    4826:	ef 90       	pop	r14
    4828:	df 90       	pop	r13
    482a:	cf 90       	pop	r12
    482c:	bf 90       	pop	r11
    482e:	af 90       	pop	r10
    4830:	9f 90       	pop	r9
    4832:	8f 90       	pop	r8
    4834:	7f 90       	pop	r7
    4836:	6f 90       	pop	r6
    4838:	5f 90       	pop	r5
    483a:	4f 90       	pop	r4
    483c:	3f 90       	pop	r3
    483e:	2f 90       	pop	r2
    4840:	08 95       	ret

00004842 <sha2_large_common_lastBlock>:

void sha2_large_common_lastBlock(sha2_large_common_ctx_t *ctx, const void *block, uint16_t length_b){
    4842:	2f 92       	push	r2
    4844:	3f 92       	push	r3
    4846:	4f 92       	push	r4
    4848:	5f 92       	push	r5
    484a:	6f 92       	push	r6
    484c:	7f 92       	push	r7
    484e:	8f 92       	push	r8
    4850:	9f 92       	push	r9
    4852:	af 92       	push	r10
    4854:	bf 92       	push	r11
    4856:	cf 92       	push	r12
    4858:	df 92       	push	r13
    485a:	ef 92       	push	r14
    485c:	ff 92       	push	r15
    485e:	0f 93       	push	r16
    4860:	1f 93       	push	r17
    4862:	cf 93       	push	r28
    4864:	df 93       	push	r29
    4866:	cd b7       	in	r28, 0x3d	; 61
    4868:	de b7       	in	r29, 0x3e	; 62
    486a:	cb 58       	subi	r28, 0x8B	; 139
    486c:	d1 09       	sbc	r29, r1
    486e:	0f b6       	in	r0, 0x3f	; 63
    4870:	f8 94       	cli
    4872:	de bf       	out	0x3e, r29	; 62
    4874:	0f be       	out	0x3f, r0	; 63
    4876:	cd bf       	out	0x3d, r28	; 61
    4878:	c6 57       	subi	r28, 0x76	; 118
    487a:	df 4f       	sbci	r29, 0xFF	; 255
    487c:	99 83       	std	Y+1, r25	; 0x01
    487e:	88 83       	st	Y, r24
    4880:	ca 58       	subi	r28, 0x8A	; 138
    4882:	d0 40       	sbci	r29, 0x00	; 0
    4884:	c8 57       	subi	r28, 0x78	; 120
    4886:	df 4f       	sbci	r29, 0xFF	; 255
    4888:	79 83       	std	Y+1, r23	; 0x01
    488a:	68 83       	st	Y, r22
    488c:	c8 58       	subi	r28, 0x88	; 136
    488e:	d0 40       	sbci	r29, 0x00	; 0
    4890:	ca 57       	subi	r28, 0x7A	; 122
    4892:	df 4f       	sbci	r29, 0xFF	; 255
    4894:	59 83       	std	Y+1, r21	; 0x01
    4896:	48 83       	st	Y, r20
    4898:	c6 58       	subi	r28, 0x86	; 134
    489a:	d0 40       	sbci	r29, 0x00	; 0
	while(length_b >= 1024){
    489c:	41 15       	cp	r20, r1
    489e:	24 e0       	ldi	r18, 0x04	; 4
    48a0:	52 07       	cpc	r21, r18
    48a2:	d8 f1       	brcs	.+118    	; 0x491a <sha2_large_common_lastBlock+0xd8>
    48a4:	7a 01       	movw	r14, r20
    48a6:	8b 01       	movw	r16, r22
    48a8:	6c 01       	movw	r12, r24
		sha2_large_common_nextBlock(ctx, block);
    48aa:	b8 01       	movw	r22, r16
    48ac:	c6 01       	movw	r24, r12
    48ae:	0e 94 0b 1b 	call	0x3616	; 0x3616 <sha2_large_common_nextBlock>
		block = (uint8_t*)block + 1024/8;
    48b2:	00 58       	subi	r16, 0x80	; 128
    48b4:	1f 4f       	sbci	r17, 0xFF	; 255
		length_b -= 1024;
    48b6:	34 e0       	ldi	r19, 0x04	; 4
    48b8:	f3 1a       	sub	r15, r19
	}while(i--);
	ctx->length += 1;
}

void sha2_large_common_lastBlock(sha2_large_common_ctx_t *ctx, const void *block, uint16_t length_b){
	while(length_b >= 1024){
    48ba:	e1 14       	cp	r14, r1
    48bc:	84 e0       	ldi	r24, 0x04	; 4
    48be:	f8 06       	cpc	r15, r24
    48c0:	a0 f7       	brcc	.-24     	; 0x48aa <sha2_large_common_lastBlock+0x68>
    48c2:	ca 57       	subi	r28, 0x7A	; 122
    48c4:	df 4f       	sbci	r29, 0xFF	; 255
    48c6:	88 81       	ld	r24, Y
    48c8:	99 81       	ldd	r25, Y+1	; 0x01
    48ca:	c6 58       	subi	r28, 0x86	; 134
    48cc:	d0 40       	sbci	r29, 0x00	; 0
    48ce:	94 50       	subi	r25, 0x04	; 4
    48d0:	89 2f       	mov	r24, r25
    48d2:	99 27       	eor	r25, r25
    48d4:	86 95       	lsr	r24
    48d6:	86 95       	lsr	r24
    48d8:	01 96       	adiw	r24, 0x01	; 1
    48da:	96 95       	lsr	r25
    48dc:	98 2f       	mov	r25, r24
    48de:	88 27       	eor	r24, r24
    48e0:	97 95       	ror	r25
    48e2:	87 95       	ror	r24
    48e4:	c8 57       	subi	r28, 0x78	; 120
    48e6:	df 4f       	sbci	r29, 0xFF	; 255
    48e8:	e8 81       	ld	r30, Y
    48ea:	f9 81       	ldd	r31, Y+1	; 0x01
    48ec:	c8 58       	subi	r28, 0x88	; 136
    48ee:	d0 40       	sbci	r29, 0x00	; 0
    48f0:	e8 0f       	add	r30, r24
    48f2:	f9 1f       	adc	r31, r25
    48f4:	c8 57       	subi	r28, 0x78	; 120
    48f6:	df 4f       	sbci	r29, 0xFF	; 255
    48f8:	f9 83       	std	Y+1, r31	; 0x01
    48fa:	e8 83       	st	Y, r30
    48fc:	c8 58       	subi	r28, 0x88	; 136
    48fe:	d0 40       	sbci	r29, 0x00	; 0
    4900:	ca 57       	subi	r28, 0x7A	; 122
    4902:	df 4f       	sbci	r29, 0xFF	; 255
    4904:	28 81       	ld	r18, Y
    4906:	39 81       	ldd	r19, Y+1	; 0x01
    4908:	c6 58       	subi	r28, 0x86	; 134
    490a:	d0 40       	sbci	r29, 0x00	; 0
    490c:	33 70       	andi	r19, 0x03	; 3
    490e:	ca 57       	subi	r28, 0x7A	; 122
    4910:	df 4f       	sbci	r29, 0xFF	; 255
    4912:	39 83       	std	Y+1, r19	; 0x01
    4914:	28 83       	st	Y, r18
    4916:	c6 58       	subi	r28, 0x86	; 134
    4918:	d0 40       	sbci	r29, 0x00	; 0
		block = (uint8_t*)block + 1024/8;
		length_b -= 1024;
	}
	uint8_t buffer[1024/8];
	uint64_t len;
	len = ((uint64_t)ctx->length)*1024LL + length_b;
    491a:	c6 57       	subi	r28, 0x76	; 118
    491c:	df 4f       	sbci	r29, 0xFF	; 255
    491e:	e8 81       	ld	r30, Y
    4920:	f9 81       	ldd	r31, Y+1	; 0x01
    4922:	ca 58       	subi	r28, 0x8A	; 138
    4924:	d0 40       	sbci	r29, 0x00	; 0
    4926:	e0 5c       	subi	r30, 0xC0	; 192
    4928:	ff 4f       	sbci	r31, 0xFF	; 255
    492a:	80 80       	ld	r8, Z
    492c:	91 80       	ldd	r9, Z+1	; 0x01
    492e:	a2 80       	ldd	r10, Z+2	; 0x02
    4930:	b3 80       	ldd	r11, Z+3	; 0x03
    4932:	94 01       	movw	r18, r8
    4934:	a5 01       	movw	r20, r10
    4936:	60 e0       	ldi	r22, 0x00	; 0
    4938:	70 e0       	ldi	r23, 0x00	; 0
    493a:	80 e0       	ldi	r24, 0x00	; 0
    493c:	90 e0       	ldi	r25, 0x00	; 0
    493e:	0a e0       	ldi	r16, 0x0A	; 10
    4940:	c1 d5       	rcall	.+2946   	; 0x54c4 <__ashldi3>
    4942:	ca 57       	subi	r28, 0x7A	; 122
    4944:	df 4f       	sbci	r29, 0xFF	; 255
    4946:	e8 81       	ld	r30, Y
    4948:	f9 81       	ldd	r31, Y+1	; 0x01
    494a:	c6 58       	subi	r28, 0x86	; 134
    494c:	d0 40       	sbci	r29, 0x00	; 0
    494e:	5f 01       	movw	r10, r30
    4950:	c1 2c       	mov	r12, r1
    4952:	d1 2c       	mov	r13, r1
    4954:	e1 2c       	mov	r14, r1
    4956:	f1 2c       	mov	r15, r1
    4958:	00 e0       	ldi	r16, 0x00	; 0
    495a:	10 e0       	ldi	r17, 0x00	; 0
    495c:	05 d6       	rcall	.+3082   	; 0x5568 <__adddi3>
    495e:	e2 2f       	mov	r30, r18
    4960:	cc 57       	subi	r28, 0x7C	; 124
    4962:	df 4f       	sbci	r29, 0xFF	; 255
    4964:	38 83       	st	Y, r19
    4966:	c4 58       	subi	r28, 0x84	; 132
    4968:	d0 40       	sbci	r29, 0x00	; 0
    496a:	14 2f       	mov	r17, r20
    496c:	b5 2f       	mov	r27, r21
    496e:	a6 2f       	mov	r26, r22
    4970:	cb 57       	subi	r28, 0x7B	; 123
    4972:	df 4f       	sbci	r29, 0xFF	; 255
    4974:	78 83       	st	Y, r23
    4976:	c5 58       	subi	r28, 0x85	; 133
    4978:	d0 40       	sbci	r29, 0x00	; 0
    497a:	1c 01       	movw	r2, r24
    497c:	f8 e0       	ldi	r31, 0x08	; 8
};


static const
uint64_t change_endian64(uint64_t x){
	uint64_t r=0;
    497e:	41 2c       	mov	r4, r1
    4980:	51 2c       	mov	r5, r1
    4982:	61 2c       	mov	r6, r1
    4984:	71 2c       	mov	r7, r1
    4986:	81 2c       	mov	r8, r1
    4988:	91 2c       	mov	r9, r1
    498a:	a1 2c       	mov	r10, r1
	uint8_t i=8;
	do{
		r <<= 8;
    498c:	2f 2d       	mov	r18, r15
    498e:	34 2d       	mov	r19, r4
    4990:	45 2d       	mov	r20, r5
    4992:	56 2d       	mov	r21, r6
    4994:	67 2d       	mov	r22, r7
    4996:	78 2d       	mov	r23, r8
    4998:	89 2d       	mov	r24, r9
    499a:	9a 2d       	mov	r25, r10
    499c:	08 e0       	ldi	r16, 0x08	; 8
    499e:	92 d5       	rcall	.+2852   	; 0x54c4 <__ashldi3>
    49a0:	cf 57       	subi	r28, 0x7F	; 127
    49a2:	df 4f       	sbci	r29, 0xFF	; 255
    49a4:	38 83       	st	Y, r19
    49a6:	c1 58       	subi	r28, 0x81	; 129
    49a8:	d0 40       	sbci	r29, 0x00	; 0
    49aa:	b4 2e       	mov	r11, r20
    49ac:	c5 2e       	mov	r12, r21
    49ae:	d6 2e       	mov	r13, r22
    49b0:	e7 2e       	mov	r14, r23
    49b2:	ce 57       	subi	r28, 0x7E	; 126
    49b4:	df 4f       	sbci	r29, 0xFF	; 255
    49b6:	88 83       	st	Y, r24
    49b8:	c2 58       	subi	r28, 0x82	; 130
    49ba:	d0 40       	sbci	r29, 0x00	; 0
    49bc:	cd 57       	subi	r28, 0x7D	; 125
    49be:	df 4f       	sbci	r29, 0xFF	; 255
    49c0:	98 83       	st	Y, r25
    49c2:	c3 58       	subi	r28, 0x83	; 131
    49c4:	d0 40       	sbci	r29, 0x00	; 0
		r |= 0xff&x;
    49c6:	f2 2e       	mov	r15, r18
    49c8:	fe 2a       	or	r15, r30
    49ca:	43 2e       	mov	r4, r19
    49cc:	54 2e       	mov	r5, r20
    49ce:	36 01       	movw	r6, r12
    49d0:	87 2e       	mov	r8, r23
    49d2:	98 2e       	mov	r9, r24
    49d4:	a9 2e       	mov	r10, r25
		x >>=8;
    49d6:	2e 2f       	mov	r18, r30
    49d8:	cc 57       	subi	r28, 0x7C	; 124
    49da:	df 4f       	sbci	r29, 0xFF	; 255
    49dc:	38 81       	ld	r19, Y
    49de:	c4 58       	subi	r28, 0x84	; 132
    49e0:	d0 40       	sbci	r29, 0x00	; 0
    49e2:	41 2f       	mov	r20, r17
    49e4:	5b 2f       	mov	r21, r27
    49e6:	6a 2f       	mov	r22, r26
    49e8:	cb 57       	subi	r28, 0x7B	; 123
    49ea:	df 4f       	sbci	r29, 0xFF	; 255
    49ec:	78 81       	ld	r23, Y
    49ee:	c5 58       	subi	r28, 0x85	; 133
    49f0:	d0 40       	sbci	r29, 0x00	; 0
    49f2:	c1 01       	movw	r24, r2
    49f4:	82 d5       	rcall	.+2820   	; 0x54fa <__lshrdi3>
    49f6:	e2 2f       	mov	r30, r18
    49f8:	cc 57       	subi	r28, 0x7C	; 124
    49fa:	df 4f       	sbci	r29, 0xFF	; 255
    49fc:	38 83       	st	Y, r19
    49fe:	c4 58       	subi	r28, 0x84	; 132
    4a00:	d0 40       	sbci	r29, 0x00	; 0
    4a02:	14 2f       	mov	r17, r20
    4a04:	b5 2f       	mov	r27, r21
    4a06:	a6 2f       	mov	r26, r22
    4a08:	cb 57       	subi	r28, 0x7B	; 123
    4a0a:	df 4f       	sbci	r29, 0xFF	; 255
    4a0c:	78 83       	st	Y, r23
    4a0e:	c5 58       	subi	r28, 0x85	; 133
    4a10:	d0 40       	sbci	r29, 0x00	; 0
    4a12:	1c 01       	movw	r2, r24
    4a14:	f1 50       	subi	r31, 0x01	; 1
	}while(--i);
    4a16:	09 f0       	breq	.+2      	; 0x4a1a <sha2_large_common_lastBlock+0x1d8>
    4a18:	b9 cf       	rjmp	.-142    	; 0x498c <sha2_large_common_lastBlock+0x14a>
	}
	uint8_t buffer[1024/8];
	uint64_t len;
	len = ((uint64_t)ctx->length)*1024LL + length_b;
	len = change_endian64(len);
	memset(buffer, 0, 1024/8);
    4a1a:	8e 01       	movw	r16, r28
    4a1c:	0f 5f       	subi	r16, 0xFF	; 255
    4a1e:	1f 4f       	sbci	r17, 0xFF	; 255
    4a20:	80 e8       	ldi	r24, 0x80	; 128
    4a22:	f8 01       	movw	r30, r16
    4a24:	11 92       	st	Z+, r1
    4a26:	8a 95       	dec	r24
    4a28:	e9 f7       	brne	.-6      	; 0x4a24 <sha2_large_common_lastBlock+0x1e2>
	memcpy(buffer, block, (length_b+7)/8);
    4a2a:	ca 57       	subi	r28, 0x7A	; 122
    4a2c:	df 4f       	sbci	r29, 0xFF	; 255
    4a2e:	48 81       	ld	r20, Y
    4a30:	59 81       	ldd	r21, Y+1	; 0x01
    4a32:	c6 58       	subi	r28, 0x86	; 134
    4a34:	d0 40       	sbci	r29, 0x00	; 0
    4a36:	49 5f       	subi	r20, 0xF9	; 249
    4a38:	5f 4f       	sbci	r21, 0xFF	; 255
    4a3a:	56 95       	lsr	r21
    4a3c:	47 95       	ror	r20
    4a3e:	56 95       	lsr	r21
    4a40:	47 95       	ror	r20
    4a42:	56 95       	lsr	r21
    4a44:	47 95       	ror	r20
    4a46:	c8 57       	subi	r28, 0x78	; 120
    4a48:	df 4f       	sbci	r29, 0xFF	; 255
    4a4a:	68 81       	ld	r22, Y
    4a4c:	79 81       	ldd	r23, Y+1	; 0x01
    4a4e:	c8 58       	subi	r28, 0x88	; 136
    4a50:	d0 40       	sbci	r29, 0x00	; 0
    4a52:	c8 01       	movw	r24, r16
    4a54:	f0 d5       	rcall	.+3040   	; 0x5636 <memcpy>
	buffer[length_b/8] |= 0x80>>(length_b%8);
    4a56:	ca 57       	subi	r28, 0x7A	; 122
    4a58:	df 4f       	sbci	r29, 0xFF	; 255
    4a5a:	e8 81       	ld	r30, Y
    4a5c:	f9 81       	ldd	r31, Y+1	; 0x01
    4a5e:	c6 58       	subi	r28, 0x86	; 134
    4a60:	d0 40       	sbci	r29, 0x00	; 0
    4a62:	f6 95       	lsr	r31
    4a64:	e7 95       	ror	r30
    4a66:	f6 95       	lsr	r31
    4a68:	e7 95       	ror	r30
    4a6a:	f6 95       	lsr	r31
    4a6c:	e7 95       	ror	r30
    4a6e:	e0 0f       	add	r30, r16
    4a70:	f1 1f       	adc	r31, r17
    4a72:	ca 57       	subi	r28, 0x7A	; 122
    4a74:	df 4f       	sbci	r29, 0xFF	; 255
    4a76:	28 81       	ld	r18, Y
    4a78:	39 81       	ldd	r19, Y+1	; 0x01
    4a7a:	c6 58       	subi	r28, 0x86	; 134
    4a7c:	d0 40       	sbci	r29, 0x00	; 0
    4a7e:	27 70       	andi	r18, 0x07	; 7
    4a80:	33 27       	eor	r19, r19
    4a82:	80 e8       	ldi	r24, 0x80	; 128
    4a84:	90 e0       	ldi	r25, 0x00	; 0
    4a86:	02 c0       	rjmp	.+4      	; 0x4a8c <sha2_large_common_lastBlock+0x24a>
    4a88:	95 95       	asr	r25
    4a8a:	87 95       	ror	r24
    4a8c:	2a 95       	dec	r18
    4a8e:	e2 f7       	brpl	.-8      	; 0x4a88 <sha2_large_common_lastBlock+0x246>
    4a90:	90 81       	ld	r25, Z
    4a92:	89 2b       	or	r24, r25
    4a94:	80 83       	st	Z, r24
	if(length_b>1024-128-1){
    4a96:	ca 57       	subi	r28, 0x7A	; 122
    4a98:	df 4f       	sbci	r29, 0xFF	; 255
    4a9a:	28 81       	ld	r18, Y
    4a9c:	39 81       	ldd	r19, Y+1	; 0x01
    4a9e:	c6 58       	subi	r28, 0x86	; 134
    4aa0:	d0 40       	sbci	r29, 0x00	; 0
    4aa2:	20 38       	cpi	r18, 0x80	; 128
    4aa4:	33 40       	sbci	r19, 0x03	; 3
    4aa6:	70 f0       	brcs	.+28     	; 0x4ac4 <sha2_large_common_lastBlock+0x282>
		/* length goes into the next block */
		sha2_large_common_nextBlock(ctx, buffer);
    4aa8:	b8 01       	movw	r22, r16
    4aaa:	c6 57       	subi	r28, 0x76	; 118
    4aac:	df 4f       	sbci	r29, 0xFF	; 255
    4aae:	88 81       	ld	r24, Y
    4ab0:	99 81       	ldd	r25, Y+1	; 0x01
    4ab2:	ca 58       	subi	r28, 0x8A	; 138
    4ab4:	d0 40       	sbci	r29, 0x00	; 0
    4ab6:	0e 94 0b 1b 	call	0x3616	; 0x3616 <sha2_large_common_nextBlock>
		memset(buffer, 0, 120);
    4aba:	88 e7       	ldi	r24, 0x78	; 120
    4abc:	f8 01       	movw	r30, r16
    4abe:	11 92       	st	Z+, r1
    4ac0:	8a 95       	dec	r24
    4ac2:	e9 f7       	brne	.-6      	; 0x4abe <sha2_large_common_lastBlock+0x27c>
	}
	memcpy(&(buffer[128-8]), &len, 8);
    4ac4:	ea 96       	adiw	r28, 0x3a	; 58
    4ac6:	ff ae       	std	Y+63, r15	; 0x3f
    4ac8:	ea 97       	sbiw	r28, 0x3a	; 58
    4aca:	cf 57       	subi	r28, 0x7F	; 127
    4acc:	df 4f       	sbci	r29, 0xFF	; 255
    4ace:	f8 81       	ld	r31, Y
    4ad0:	c1 58       	subi	r28, 0x81	; 129
    4ad2:	d0 40       	sbci	r29, 0x00	; 0
    4ad4:	eb 96       	adiw	r28, 0x3b	; 59
    4ad6:	ff af       	std	Y+63, r31	; 0x3f
    4ad8:	eb 97       	sbiw	r28, 0x3b	; 59
    4ada:	ec 96       	adiw	r28, 0x3c	; 60
    4adc:	bf ae       	std	Y+63, r11	; 0x3f
    4ade:	ec 97       	sbiw	r28, 0x3c	; 60
    4ae0:	ed 96       	adiw	r28, 0x3d	; 61
    4ae2:	cf ae       	std	Y+63, r12	; 0x3f
    4ae4:	ed 97       	sbiw	r28, 0x3d	; 61
    4ae6:	ee 96       	adiw	r28, 0x3e	; 62
    4ae8:	df ae       	std	Y+63, r13	; 0x3f
    4aea:	ee 97       	sbiw	r28, 0x3e	; 62
    4aec:	ef 96       	adiw	r28, 0x3f	; 63
    4aee:	ef ae       	std	Y+63, r14	; 0x3f
    4af0:	ef 97       	sbiw	r28, 0x3f	; 63
    4af2:	ce 57       	subi	r28, 0x7E	; 126
    4af4:	df 4f       	sbci	r29, 0xFF	; 255
    4af6:	28 81       	ld	r18, Y
    4af8:	c2 58       	subi	r28, 0x82	; 130
    4afa:	d0 40       	sbci	r29, 0x00	; 0
    4afc:	c1 58       	subi	r28, 0x81	; 129
    4afe:	df 4f       	sbci	r29, 0xFF	; 255
    4b00:	28 83       	st	Y, r18
    4b02:	cf 57       	subi	r28, 0x7F	; 127
    4b04:	d0 40       	sbci	r29, 0x00	; 0
    4b06:	cd 57       	subi	r28, 0x7D	; 125
    4b08:	df 4f       	sbci	r29, 0xFF	; 255
    4b0a:	38 81       	ld	r19, Y
    4b0c:	c3 58       	subi	r28, 0x83	; 131
    4b0e:	d0 40       	sbci	r29, 0x00	; 0
    4b10:	c0 58       	subi	r28, 0x80	; 128
    4b12:	df 4f       	sbci	r29, 0xFF	; 255
    4b14:	38 83       	st	Y, r19
    4b16:	c0 58       	subi	r28, 0x80	; 128
    4b18:	d0 40       	sbci	r29, 0x00	; 0
	sha2_large_common_nextBlock(ctx, buffer);
    4b1a:	b8 01       	movw	r22, r16
    4b1c:	c6 57       	subi	r28, 0x76	; 118
    4b1e:	df 4f       	sbci	r29, 0xFF	; 255
    4b20:	88 81       	ld	r24, Y
    4b22:	99 81       	ldd	r25, Y+1	; 0x01
    4b24:	ca 58       	subi	r28, 0x8A	; 138
    4b26:	d0 40       	sbci	r29, 0x00	; 0
    4b28:	0e 94 0b 1b 	call	0x3616	; 0x3616 <sha2_large_common_nextBlock>
}
    4b2c:	c5 57       	subi	r28, 0x75	; 117
    4b2e:	df 4f       	sbci	r29, 0xFF	; 255
    4b30:	0f b6       	in	r0, 0x3f	; 63
    4b32:	f8 94       	cli
    4b34:	de bf       	out	0x3e, r29	; 62
    4b36:	0f be       	out	0x3f, r0	; 63
    4b38:	cd bf       	out	0x3d, r28	; 61
    4b3a:	df 91       	pop	r29
    4b3c:	cf 91       	pop	r28
    4b3e:	1f 91       	pop	r17
    4b40:	0f 91       	pop	r16
    4b42:	ff 90       	pop	r15
    4b44:	ef 90       	pop	r14
    4b46:	df 90       	pop	r13
    4b48:	cf 90       	pop	r12
    4b4a:	bf 90       	pop	r11
    4b4c:	af 90       	pop	r10
    4b4e:	9f 90       	pop	r9
    4b50:	8f 90       	pop	r8
    4b52:	7f 90       	pop	r7
    4b54:	6f 90       	pop	r6
    4b56:	5f 90       	pop	r5
    4b58:	4f 90       	pop	r4
    4b5a:	3f 90       	pop	r3
    4b5c:	2f 90       	pop	r2
    4b5e:	08 95       	ret

00004b60 <sha2_small_common_nextBlock>:


/**
 * block must be, 512, Bit = 64, Byte, long !!!
 */
void sha2_small_common_nextBlock (sha2_small_common_ctx_t *state, const void *block){
    4b60:	2f 92       	push	r2
    4b62:	3f 92       	push	r3
    4b64:	4f 92       	push	r4
    4b66:	5f 92       	push	r5
    4b68:	6f 92       	push	r6
    4b6a:	7f 92       	push	r7
    4b6c:	8f 92       	push	r8
    4b6e:	9f 92       	push	r9
    4b70:	af 92       	push	r10
    4b72:	bf 92       	push	r11
    4b74:	cf 92       	push	r12
    4b76:	df 92       	push	r13
    4b78:	ef 92       	push	r14
    4b7a:	ff 92       	push	r15
    4b7c:	0f 93       	push	r16
    4b7e:	1f 93       	push	r17
    4b80:	cf 93       	push	r28
    4b82:	df 93       	push	r29
    4b84:	cd b7       	in	r28, 0x3d	; 61
    4b86:	de b7       	in	r29, 0x3e	; 62
    4b88:	c2 57       	subi	r28, 0x72	; 114
    4b8a:	d1 09       	sbc	r29, r1
    4b8c:	0f b6       	in	r0, 0x3f	; 63
    4b8e:	f8 94       	cli
    4b90:	de bf       	out	0x3e, r29	; 62
    4b92:	0f be       	out	0x3f, r0	; 63
    4b94:	cd bf       	out	0x3d, r28	; 61
    4b96:	e3 96       	adiw	r28, 0x33	; 51
    4b98:	9f af       	std	Y+63, r25	; 0x3f
    4b9a:	8e af       	std	Y+62, r24	; 0x3e
    4b9c:	e3 97       	sbiw	r28, 0x33	; 51
    4b9e:	db 01       	movw	r26, r22
    4ba0:	8e 01       	movw	r16, r28
    4ba2:	0f 5f       	subi	r16, 0xFF	; 255
    4ba4:	1f 4f       	sbci	r17, 0xFF	; 255
    4ba6:	af 96       	adiw	r28, 0x2f	; 47
    4ba8:	1f af       	std	Y+63, r17	; 0x3f
    4baa:	0e af       	std	Y+62, r16	; 0x3e
    4bac:	af 97       	sbiw	r28, 0x2f	; 47
    4bae:	1e 01       	movw	r2, r28
    4bb0:	11 e4       	ldi	r17, 0x41	; 65
    4bb2:	21 0e       	add	r2, r17
    4bb4:	31 1c       	adc	r3, r1
    4bb6:	fe 01       	movw	r30, r28
    4bb8:	31 96       	adiw	r30, 0x01	; 1
    4bba:	6d 91       	ld	r22, X+
    4bbc:	7d 91       	ld	r23, X+
    4bbe:	8d 91       	ld	r24, X+
    4bc0:	9d 91       	ld	r25, X+
    4bc2:	79 d4       	rcall	.+2290   	; 0x54b6 <__bswapsi2>
	uint32_t a[8],t1,t2;

	/* init w */
#if defined LITTLE_ENDIAN
	for (i=0; i<16; ++i){
		w[i]= change_endian32(((uint32_t*)block)[i]);
    4bc4:	61 93       	st	Z+, r22
    4bc6:	71 93       	st	Z+, r23
    4bc8:	81 93       	st	Z+, r24
    4bca:	91 93       	st	Z+, r25
	uint8_t  i;
	uint32_t a[8],t1,t2;

	/* init w */
#if defined LITTLE_ENDIAN
	for (i=0; i<16; ++i){
    4bcc:	e2 15       	cp	r30, r2
    4bce:	f3 05       	cpc	r31, r3
    4bd0:	a1 f7       	brne	.-24     	; 0x4bba <sha2_small_common_nextBlock+0x5a>
	for (i=16; i<64; ++i){
		w[i] = SIGMA_b(w[i-2]) + w[i-7] + SIGMA_a(w[i-15]) + w[i-16];
	}
*/
/* init working variables */
	memcpy((void*)a,(void*)(state->h), 8*4);
    4bd2:	80 e2       	ldi	r24, 0x20	; 32
    4bd4:	e3 96       	adiw	r28, 0x33	; 51
    4bd6:	ee ad       	ldd	r30, Y+62	; 0x3e
    4bd8:	ff ad       	ldd	r31, Y+63	; 0x3f
    4bda:	e3 97       	sbiw	r28, 0x33	; 51
    4bdc:	de 01       	movw	r26, r28
    4bde:	af 5b       	subi	r26, 0xBF	; 191
    4be0:	bf 4f       	sbci	r27, 0xFF	; 255
    4be2:	01 90       	ld	r0, Z+
    4be4:	0d 92       	st	X+, r0
    4be6:	8a 95       	dec	r24
    4be8:	e1 f7       	brne	.-8      	; 0x4be2 <sha2_small_common_nextBlock+0x82>
    4bea:	d1 01       	movw	r26, r2
    4bec:	50 96       	adiw	r26, 0x10	; 16
    4bee:	4d 90       	ld	r4, X+
    4bf0:	5d 90       	ld	r5, X+
    4bf2:	6d 90       	ld	r6, X+
    4bf4:	7c 90       	ld	r7, X
    4bf6:	53 97       	sbiw	r26, 0x13	; 19
    4bf8:	f1 01       	movw	r30, r2
    4bfa:	81 90       	ld	r8, Z+
    4bfc:	91 90       	ld	r9, Z+
    4bfe:	a1 90       	ld	r10, Z+
    4c00:	b1 90       	ld	r11, Z+
    4c02:	e1 96       	adiw	r28, 0x31	; 49
    4c04:	ff af       	std	Y+63, r31	; 0x3f
    4c06:	ee af       	std	Y+62, r30	; 0x3e
    4c08:	e1 97       	sbiw	r28, 0x31	; 49
    4c0a:	04 e3       	ldi	r16, 0x34	; 52
    4c0c:	13 e0       	ldi	r17, 0x03	; 3
    4c0e:	ad 96       	adiw	r28, 0x2d	; 45
    4c10:	1f af       	std	Y+63, r17	; 0x3f
    4c12:	0e af       	std	Y+62, r16	; 0x3e
    4c14:	ad 97       	sbiw	r28, 0x2d	; 45
    4c16:	ab 96       	adiw	r28, 0x2b	; 43
    4c18:	1f ae       	std	Y+63, r1	; 0x3f
    4c1a:	1e ae       	std	Y+62, r1	; 0x3e
    4c1c:	ab 97       	sbiw	r28, 0x2b	; 43
    4c1e:	53 c2       	rjmp	.+1190   	; 0x50c6 <sha2_small_common_nextBlock+0x566>
/* do the, fun stuff, */
	for (i=0; i<64; ++i){
		if(i<16){
			wx = w[i];
		}else{
			wx = SIGMA_b(w[14]) + w[9] + SIGMA_a(w[1]) + w[0];
    4c20:	49 ad       	ldd	r20, Y+57	; 0x39
    4c22:	5a ad       	ldd	r21, Y+58	; 0x3a
    4c24:	6b ad       	ldd	r22, Y+59	; 0x3b
    4c26:	7c ad       	ldd	r23, Y+60	; 0x3c
    4c28:	8d 81       	ldd	r24, Y+5	; 0x05
    4c2a:	9e 81       	ldd	r25, Y+6	; 0x06
    4c2c:	af 81       	ldd	r26, Y+7	; 0x07
    4c2e:	b8 85       	ldd	r27, Y+8	; 0x08
    4c30:	6a 01       	movw	r12, r20
    4c32:	7b 01       	movw	r14, r22
    4c34:	fd e0       	ldi	r31, 0x0D	; 13
    4c36:	cc 0c       	add	r12, r12
    4c38:	dd 1c       	adc	r13, r13
    4c3a:	ee 1c       	adc	r14, r14
    4c3c:	ff 1c       	adc	r15, r15
    4c3e:	fa 95       	dec	r31
    4c40:	d1 f7       	brne	.-12     	; 0x4c36 <sha2_small_common_nextBlock+0xd6>
    4c42:	8a 01       	movw	r16, r20
    4c44:	9b 01       	movw	r18, r22
    4c46:	e3 e1       	ldi	r30, 0x13	; 19
    4c48:	36 95       	lsr	r19
    4c4a:	27 95       	ror	r18
    4c4c:	17 95       	ror	r17
    4c4e:	07 95       	ror	r16
    4c50:	ea 95       	dec	r30
    4c52:	d1 f7       	brne	.-12     	; 0x4c48 <sha2_small_common_nextBlock+0xe8>
    4c54:	c0 2a       	or	r12, r16
    4c56:	d1 2a       	or	r13, r17
    4c58:	e2 2a       	or	r14, r18
    4c5a:	f3 2a       	or	r15, r19
    4c5c:	a9 96       	adiw	r28, 0x29	; 41
    4c5e:	cc ae       	std	Y+60, r12	; 0x3c
    4c60:	dd ae       	std	Y+61, r13	; 0x3d
    4c62:	ee ae       	std	Y+62, r14	; 0x3e
    4c64:	ff ae       	std	Y+63, r15	; 0x3f
    4c66:	a9 97       	sbiw	r28, 0x29	; 41
    4c68:	7a 01       	movw	r14, r20
    4c6a:	8b 01       	movw	r16, r22
    4c6c:	ff e0       	ldi	r31, 0x0F	; 15
    4c6e:	ee 0c       	add	r14, r14
    4c70:	ff 1c       	adc	r15, r15
    4c72:	00 1f       	adc	r16, r16
    4c74:	11 1f       	adc	r17, r17
    4c76:	fa 95       	dec	r31
    4c78:	d1 f7       	brne	.-12     	; 0x4c6e <sha2_small_common_nextBlock+0x10e>
    4c7a:	a5 96       	adiw	r28, 0x25	; 37
    4c7c:	ec ae       	std	Y+60, r14	; 0x3c
    4c7e:	fd ae       	std	Y+61, r15	; 0x3d
    4c80:	0e af       	std	Y+62, r16	; 0x3e
    4c82:	1f af       	std	Y+63, r17	; 0x3f
    4c84:	a5 97       	sbiw	r28, 0x25	; 37
    4c86:	8a 01       	movw	r16, r20
    4c88:	9b 01       	movw	r18, r22
    4c8a:	e1 e1       	ldi	r30, 0x11	; 17
    4c8c:	36 95       	lsr	r19
    4c8e:	27 95       	ror	r18
    4c90:	17 95       	ror	r17
    4c92:	07 95       	ror	r16
    4c94:	ea 95       	dec	r30
    4c96:	d1 f7       	brne	.-12     	; 0x4c8c <sha2_small_common_nextBlock+0x12c>
    4c98:	a5 96       	adiw	r28, 0x25	; 37
    4c9a:	cc ac       	ldd	r12, Y+60	; 0x3c
    4c9c:	dd ac       	ldd	r13, Y+61	; 0x3d
    4c9e:	ee ac       	ldd	r14, Y+62	; 0x3e
    4ca0:	ff ac       	ldd	r15, Y+63	; 0x3f
    4ca2:	a5 97       	sbiw	r28, 0x25	; 37
    4ca4:	0c 29       	or	r16, r12
    4ca6:	1d 29       	or	r17, r13
    4ca8:	2e 29       	or	r18, r14
    4caa:	3f 29       	or	r19, r15
    4cac:	a9 96       	adiw	r28, 0x29	; 41
    4cae:	cc ac       	ldd	r12, Y+60	; 0x3c
    4cb0:	dd ac       	ldd	r13, Y+61	; 0x3d
    4cb2:	ee ac       	ldd	r14, Y+62	; 0x3e
    4cb4:	ff ac       	ldd	r15, Y+63	; 0x3f
    4cb6:	a9 97       	sbiw	r28, 0x29	; 41
    4cb8:	0c 25       	eor	r16, r12
    4cba:	1d 25       	eor	r17, r13
    4cbc:	2e 25       	eor	r18, r14
    4cbe:	3f 25       	eor	r19, r15
    4cc0:	fa e0       	ldi	r31, 0x0A	; 10
    4cc2:	76 95       	lsr	r23
    4cc4:	67 95       	ror	r22
    4cc6:	57 95       	ror	r21
    4cc8:	47 95       	ror	r20
    4cca:	fa 95       	dec	r31
    4ccc:	d1 f7       	brne	.-12     	; 0x4cc2 <sha2_small_common_nextBlock+0x162>
    4cce:	40 27       	eor	r20, r16
    4cd0:	51 27       	eor	r21, r17
    4cd2:	62 27       	eor	r22, r18
    4cd4:	73 27       	eor	r23, r19
    4cd6:	cd a0       	ldd	r12, Y+37	; 0x25
    4cd8:	de a0       	ldd	r13, Y+38	; 0x26
    4cda:	ef a0       	ldd	r14, Y+39	; 0x27
    4cdc:	f8 a4       	ldd	r15, Y+40	; 0x28
    4cde:	09 81       	ldd	r16, Y+1	; 0x01
    4ce0:	1a 81       	ldd	r17, Y+2	; 0x02
    4ce2:	2b 81       	ldd	r18, Y+3	; 0x03
    4ce4:	3c 81       	ldd	r19, Y+4	; 0x04
    4ce6:	c0 0e       	add	r12, r16
    4ce8:	d1 1e       	adc	r13, r17
    4cea:	e2 1e       	adc	r14, r18
    4cec:	f3 1e       	adc	r15, r19
    4cee:	c4 0e       	add	r12, r20
    4cf0:	d5 1e       	adc	r13, r21
    4cf2:	e6 1e       	adc	r14, r22
    4cf4:	f7 1e       	adc	r15, r23
    4cf6:	8c 01       	movw	r16, r24
    4cf8:	9d 01       	movw	r18, r26
    4cfa:	4e e0       	ldi	r20, 0x0E	; 14
    4cfc:	00 0f       	add	r16, r16
    4cfe:	11 1f       	adc	r17, r17
    4d00:	22 1f       	adc	r18, r18
    4d02:	33 1f       	adc	r19, r19
    4d04:	4a 95       	dec	r20
    4d06:	d1 f7       	brne	.-12     	; 0x4cfc <sha2_small_common_nextBlock+0x19c>
    4d08:	ac 01       	movw	r20, r24
    4d0a:	bd 01       	movw	r22, r26
    4d0c:	e2 e1       	ldi	r30, 0x12	; 18
    4d0e:	76 95       	lsr	r23
    4d10:	67 95       	ror	r22
    4d12:	57 95       	ror	r21
    4d14:	47 95       	ror	r20
    4d16:	ea 95       	dec	r30
    4d18:	d1 f7       	brne	.-12     	; 0x4d0e <sha2_small_common_nextBlock+0x1ae>
    4d1a:	04 2b       	or	r16, r20
    4d1c:	15 2b       	or	r17, r21
    4d1e:	26 2b       	or	r18, r22
    4d20:	37 2b       	or	r19, r23
    4d22:	a5 96       	adiw	r28, 0x25	; 37
    4d24:	0c af       	std	Y+60, r16	; 0x3c
    4d26:	1d af       	std	Y+61, r17	; 0x3d
    4d28:	2e af       	std	Y+62, r18	; 0x3e
    4d2a:	3f af       	std	Y+63, r19	; 0x3f
    4d2c:	a5 97       	sbiw	r28, 0x25	; 37
    4d2e:	ac 01       	movw	r20, r24
    4d30:	bd 01       	movw	r22, r26
    4d32:	f7 e0       	ldi	r31, 0x07	; 7
    4d34:	76 95       	lsr	r23
    4d36:	67 95       	ror	r22
    4d38:	57 95       	ror	r21
    4d3a:	47 95       	ror	r20
    4d3c:	fa 95       	dec	r31
    4d3e:	d1 f7       	brne	.-12     	; 0x4d34 <sha2_small_common_nextBlock+0x1d4>
    4d40:	8c 01       	movw	r16, r24
    4d42:	9d 01       	movw	r18, r26
    4d44:	e9 e1       	ldi	r30, 0x19	; 25
    4d46:	00 0f       	add	r16, r16
    4d48:	11 1f       	adc	r17, r17
    4d4a:	22 1f       	adc	r18, r18
    4d4c:	33 1f       	adc	r19, r19
    4d4e:	ea 95       	dec	r30
    4d50:	d1 f7       	brne	.-12     	; 0x4d46 <sha2_small_common_nextBlock+0x1e6>
    4d52:	04 2b       	or	r16, r20
    4d54:	15 2b       	or	r17, r21
    4d56:	26 2b       	or	r18, r22
    4d58:	37 2b       	or	r19, r23
    4d5a:	a5 96       	adiw	r28, 0x25	; 37
    4d5c:	4c ad       	ldd	r20, Y+60	; 0x3c
    4d5e:	5d ad       	ldd	r21, Y+61	; 0x3d
    4d60:	6e ad       	ldd	r22, Y+62	; 0x3e
    4d62:	7f ad       	ldd	r23, Y+63	; 0x3f
    4d64:	a5 97       	sbiw	r28, 0x25	; 37
    4d66:	04 27       	eor	r16, r20
    4d68:	15 27       	eor	r17, r21
    4d6a:	26 27       	eor	r18, r22
    4d6c:	37 27       	eor	r19, r23
    4d6e:	f3 e0       	ldi	r31, 0x03	; 3
    4d70:	b6 95       	lsr	r27
    4d72:	a7 95       	ror	r26
    4d74:	97 95       	ror	r25
    4d76:	87 95       	ror	r24
    4d78:	fa 95       	dec	r31
    4d7a:	d1 f7       	brne	.-12     	; 0x4d70 <sha2_small_common_nextBlock+0x210>
    4d7c:	08 27       	eor	r16, r24
    4d7e:	19 27       	eor	r17, r25
    4d80:	2a 27       	eor	r18, r26
    4d82:	3b 27       	eor	r19, r27
    4d84:	c7 01       	movw	r24, r14
    4d86:	b6 01       	movw	r22, r12
    4d88:	60 0f       	add	r22, r16
    4d8a:	71 1f       	adc	r23, r17
    4d8c:	82 1f       	adc	r24, r18
    4d8e:	93 1f       	adc	r25, r19
    4d90:	a9 96       	adiw	r28, 0x29	; 41
    4d92:	6c af       	std	Y+60, r22	; 0x3c
    4d94:	7d af       	std	Y+61, r23	; 0x3d
    4d96:	8e af       	std	Y+62, r24	; 0x3e
    4d98:	9f af       	std	Y+63, r25	; 0x3f
    4d9a:	a9 97       	sbiw	r28, 0x29	; 41
			memmove(&(w[0]), &(w[1]), 15*4);
    4d9c:	4c e3       	ldi	r20, 0x3C	; 60
    4d9e:	50 e0       	ldi	r21, 0x00	; 0
    4da0:	be 01       	movw	r22, r28
    4da2:	6b 5f       	subi	r22, 0xFB	; 251
    4da4:	7f 4f       	sbci	r23, 0xFF	; 255
    4da6:	ce 01       	movw	r24, r28
    4da8:	01 96       	adiw	r24, 0x01	; 1
    4daa:	4e d4       	rcall	.+2204   	; 0x5648 <memmove>
			w[15] = wx;
    4dac:	a9 96       	adiw	r28, 0x29	; 41
    4dae:	cc ac       	ldd	r12, Y+60	; 0x3c
    4db0:	dd ac       	ldd	r13, Y+61	; 0x3d
    4db2:	ee ac       	ldd	r14, Y+62	; 0x3e
    4db4:	ff ac       	ldd	r15, Y+63	; 0x3f
    4db6:	a9 97       	sbiw	r28, 0x29	; 41
    4db8:	21 96       	adiw	r28, 0x01	; 1
    4dba:	cc ae       	std	Y+60, r12	; 0x3c
    4dbc:	dd ae       	std	Y+61, r13	; 0x3d
    4dbe:	ee ae       	std	Y+62, r14	; 0x3e
    4dc0:	ff ae       	std	Y+63, r15	; 0x3f
    4dc2:	21 97       	sbiw	r28, 0x01	; 1
		}
		t1 = a[7] + SIGMA_1(a[4]) + CH(a[4],a[5],a[6]) + pgm_read_dword(&k[i]) + wx;
    4dc4:	ad 96       	adiw	r28, 0x2d	; 45
    4dc6:	ee ad       	ldd	r30, Y+62	; 0x3e
    4dc8:	ff ad       	ldd	r31, Y+63	; 0x3f
    4dca:	ad 97       	sbiw	r28, 0x2d	; 45
    4dcc:	e5 90       	lpm	r14, Z+
    4dce:	f5 90       	lpm	r15, Z+
    4dd0:	05 91       	lpm	r16, Z+
    4dd2:	14 91       	lpm	r17, Z
    4dd4:	a5 96       	adiw	r28, 0x25	; 37
    4dd6:	ec ae       	std	Y+60, r14	; 0x3c
    4dd8:	fd ae       	std	Y+61, r15	; 0x3d
    4dda:	0e af       	std	Y+62, r16	; 0x3e
    4ddc:	1f af       	std	Y+63, r17	; 0x3f
    4dde:	a5 97       	sbiw	r28, 0x25	; 37
    4de0:	b3 01       	movw	r22, r6
    4de2:	a2 01       	movw	r20, r4
    4de4:	40 95       	com	r20
    4de6:	50 95       	com	r21
    4de8:	60 95       	com	r22
    4dea:	70 95       	com	r23
    4dec:	f1 01       	movw	r30, r2
    4dee:	80 8d       	ldd	r24, Z+24	; 0x18
    4df0:	91 8d       	ldd	r25, Z+25	; 0x19
    4df2:	a2 8d       	ldd	r26, Z+26	; 0x1a
    4df4:	b3 8d       	ldd	r27, Z+27	; 0x1b
    4df6:	6a 01       	movw	r12, r20
    4df8:	7b 01       	movw	r14, r22
    4dfa:	c8 22       	and	r12, r24
    4dfc:	d9 22       	and	r13, r25
    4dfe:	ea 22       	and	r14, r26
    4e00:	fb 22       	and	r15, r27
    4e02:	44 89       	ldd	r20, Z+20	; 0x14
    4e04:	55 89       	ldd	r21, Z+21	; 0x15
    4e06:	66 89       	ldd	r22, Z+22	; 0x16
    4e08:	77 89       	ldd	r23, Z+23	; 0x17
    4e0a:	d3 01       	movw	r26, r6
    4e0c:	c2 01       	movw	r24, r4
    4e0e:	84 23       	and	r24, r20
    4e10:	95 23       	and	r25, r21
    4e12:	a6 23       	and	r26, r22
    4e14:	b7 23       	and	r27, r23
    4e16:	b7 01       	movw	r22, r14
    4e18:	a6 01       	movw	r20, r12
    4e1a:	48 27       	eor	r20, r24
    4e1c:	59 27       	eor	r21, r25
    4e1e:	6a 27       	eor	r22, r26
    4e20:	7b 27       	eor	r23, r27
    4e22:	93 01       	movw	r18, r6
    4e24:	82 01       	movw	r16, r4
    4e26:	8b e0       	ldi	r24, 0x0B	; 11
    4e28:	36 95       	lsr	r19
    4e2a:	27 95       	ror	r18
    4e2c:	17 95       	ror	r17
    4e2e:	07 95       	ror	r16
    4e30:	8a 95       	dec	r24
    4e32:	d1 f7       	brne	.-12     	; 0x4e28 <sha2_small_common_nextBlock+0x2c8>
    4e34:	d3 01       	movw	r26, r6
    4e36:	c2 01       	movw	r24, r4
    4e38:	07 2e       	mov	r0, r23
    4e3a:	75 e1       	ldi	r23, 0x15	; 21
    4e3c:	88 0f       	add	r24, r24
    4e3e:	99 1f       	adc	r25, r25
    4e40:	aa 1f       	adc	r26, r26
    4e42:	bb 1f       	adc	r27, r27
    4e44:	7a 95       	dec	r23
    4e46:	d1 f7       	brne	.-12     	; 0x4e3c <sha2_small_common_nextBlock+0x2dc>
    4e48:	70 2d       	mov	r23, r0
    4e4a:	08 2b       	or	r16, r24
    4e4c:	19 2b       	or	r17, r25
    4e4e:	2a 2b       	or	r18, r26
    4e50:	3b 2b       	or	r19, r27
    4e52:	73 01       	movw	r14, r6
    4e54:	62 01       	movw	r12, r4
    4e56:	86 e0       	ldi	r24, 0x06	; 6
    4e58:	f6 94       	lsr	r15
    4e5a:	e7 94       	ror	r14
    4e5c:	d7 94       	ror	r13
    4e5e:	c7 94       	ror	r12
    4e60:	8a 95       	dec	r24
    4e62:	d1 f7       	brne	.-12     	; 0x4e58 <sha2_small_common_nextBlock+0x2f8>
    4e64:	d3 01       	movw	r26, r6
    4e66:	c2 01       	movw	r24, r4
    4e68:	07 2e       	mov	r0, r23
    4e6a:	7a e1       	ldi	r23, 0x1A	; 26
    4e6c:	88 0f       	add	r24, r24
    4e6e:	99 1f       	adc	r25, r25
    4e70:	aa 1f       	adc	r26, r26
    4e72:	bb 1f       	adc	r27, r27
    4e74:	7a 95       	dec	r23
    4e76:	d1 f7       	brne	.-12     	; 0x4e6c <sha2_small_common_nextBlock+0x30c>
    4e78:	70 2d       	mov	r23, r0
    4e7a:	8c 29       	or	r24, r12
    4e7c:	9d 29       	or	r25, r13
    4e7e:	ae 29       	or	r26, r14
    4e80:	bf 29       	or	r27, r15
    4e82:	80 27       	eor	r24, r16
    4e84:	91 27       	eor	r25, r17
    4e86:	a2 27       	eor	r26, r18
    4e88:	b3 27       	eor	r27, r19
    4e8a:	93 01       	movw	r18, r6
    4e8c:	82 01       	movw	r16, r4
    4e8e:	00 0f       	add	r16, r16
    4e90:	11 1f       	adc	r17, r17
    4e92:	22 1f       	adc	r18, r18
    4e94:	33 1f       	adc	r19, r19
    4e96:	00 0f       	add	r16, r16
    4e98:	11 1f       	adc	r17, r17
    4e9a:	22 1f       	adc	r18, r18
    4e9c:	33 1f       	adc	r19, r19
    4e9e:	00 0f       	add	r16, r16
    4ea0:	11 1f       	adc	r17, r17
    4ea2:	22 1f       	adc	r18, r18
    4ea4:	33 1f       	adc	r19, r19
    4ea6:	00 0f       	add	r16, r16
    4ea8:	11 1f       	adc	r17, r17
    4eaa:	22 1f       	adc	r18, r18
    4eac:	33 1f       	adc	r19, r19
    4eae:	00 0f       	add	r16, r16
    4eb0:	11 1f       	adc	r17, r17
    4eb2:	22 1f       	adc	r18, r18
    4eb4:	33 1f       	adc	r19, r19
    4eb6:	00 0f       	add	r16, r16
    4eb8:	11 1f       	adc	r17, r17
    4eba:	22 1f       	adc	r18, r18
    4ebc:	33 1f       	adc	r19, r19
    4ebe:	00 0f       	add	r16, r16
    4ec0:	11 1f       	adc	r17, r17
    4ec2:	22 1f       	adc	r18, r18
    4ec4:	33 1f       	adc	r19, r19
    4ec6:	03 2e       	mov	r0, r19
    4ec8:	39 e1       	ldi	r19, 0x19	; 25
    4eca:	76 94       	lsr	r7
    4ecc:	67 94       	ror	r6
    4ece:	57 94       	ror	r5
    4ed0:	47 94       	ror	r4
    4ed2:	3a 95       	dec	r19
    4ed4:	d1 f7       	brne	.-12     	; 0x4eca <sha2_small_common_nextBlock+0x36a>
    4ed6:	30 2d       	mov	r19, r0
    4ed8:	04 29       	or	r16, r4
    4eda:	15 29       	or	r17, r5
    4edc:	26 29       	or	r18, r6
    4ede:	37 29       	or	r19, r7
    4ee0:	80 27       	eor	r24, r16
    4ee2:	91 27       	eor	r25, r17
    4ee4:	a2 27       	eor	r26, r18
    4ee6:	b3 27       	eor	r27, r19
    4ee8:	48 0f       	add	r20, r24
    4eea:	59 1f       	adc	r21, r25
    4eec:	6a 1f       	adc	r22, r26
    4eee:	7b 1f       	adc	r23, r27
    4ef0:	84 8d       	ldd	r24, Z+28	; 0x1c
    4ef2:	95 8d       	ldd	r25, Z+29	; 0x1d
    4ef4:	a6 8d       	ldd	r26, Z+30	; 0x1e
    4ef6:	b7 8d       	ldd	r27, Z+31	; 0x1f
    4ef8:	48 0f       	add	r20, r24
    4efa:	59 1f       	adc	r21, r25
    4efc:	6a 1f       	adc	r22, r26
    4efe:	7b 1f       	adc	r23, r27
    4f00:	a9 96       	adiw	r28, 0x29	; 41
    4f02:	cc ac       	ldd	r12, Y+60	; 0x3c
    4f04:	dd ac       	ldd	r13, Y+61	; 0x3d
    4f06:	ee ac       	ldd	r14, Y+62	; 0x3e
    4f08:	ff ac       	ldd	r15, Y+63	; 0x3f
    4f0a:	a9 97       	sbiw	r28, 0x29	; 41
    4f0c:	c4 0e       	add	r12, r20
    4f0e:	d5 1e       	adc	r13, r21
    4f10:	e6 1e       	adc	r14, r22
    4f12:	f7 1e       	adc	r15, r23
    4f14:	a5 96       	adiw	r28, 0x25	; 37
    4f16:	0c ad       	ldd	r16, Y+60	; 0x3c
    4f18:	1d ad       	ldd	r17, Y+61	; 0x3d
    4f1a:	2e ad       	ldd	r18, Y+62	; 0x3e
    4f1c:	3f ad       	ldd	r19, Y+63	; 0x3f
    4f1e:	a5 97       	sbiw	r28, 0x25	; 37
    4f20:	0c 0d       	add	r16, r12
    4f22:	1d 1d       	adc	r17, r13
    4f24:	2e 1d       	adc	r18, r14
    4f26:	3f 1d       	adc	r19, r15
    4f28:	a5 96       	adiw	r28, 0x25	; 37
    4f2a:	0c af       	std	Y+60, r16	; 0x3c
    4f2c:	1d af       	std	Y+61, r17	; 0x3d
    4f2e:	2e af       	std	Y+62, r18	; 0x3e
    4f30:	3f af       	std	Y+63, r19	; 0x3f
    4f32:	a5 97       	sbiw	r28, 0x25	; 37
		t2 = SIGMA_0(a[0]) + MAJ(a[0],a[1],a[2]);
    4f34:	c4 80       	ldd	r12, Z+4	; 0x04
    4f36:	d5 80       	ldd	r13, Z+5	; 0x05
    4f38:	e6 80       	ldd	r14, Z+6	; 0x06
    4f3a:	f7 80       	ldd	r15, Z+7	; 0x07
    4f3c:	a9 96       	adiw	r28, 0x29	; 41
    4f3e:	cc ae       	std	Y+60, r12	; 0x3c
    4f40:	dd ae       	std	Y+61, r13	; 0x3d
    4f42:	ee ae       	std	Y+62, r14	; 0x3e
    4f44:	ff ae       	std	Y+63, r15	; 0x3f
    4f46:	a9 97       	sbiw	r28, 0x29	; 41
    4f48:	c0 84       	ldd	r12, Z+8	; 0x08
    4f4a:	d1 84       	ldd	r13, Z+9	; 0x09
    4f4c:	e2 84       	ldd	r14, Z+10	; 0x0a
    4f4e:	f3 84       	ldd	r15, Z+11	; 0x0b
		memmove(&(a[1]), &(a[0]), 7*4); 	/* a[7]=a[6]; a[6]=a[5]; a[5]=a[4]; a[4]=a[3]; a[3]=a[2]; a[2]=a[1]; a[1]=a[0]; */
    4f50:	4c e1       	ldi	r20, 0x1C	; 28
    4f52:	50 e0       	ldi	r21, 0x00	; 0
    4f54:	b1 01       	movw	r22, r2
    4f56:	e1 96       	adiw	r28, 0x31	; 49
    4f58:	8e ad       	ldd	r24, Y+62	; 0x3e
    4f5a:	9f ad       	ldd	r25, Y+63	; 0x3f
    4f5c:	e1 97       	sbiw	r28, 0x31	; 49
    4f5e:	74 d3       	rcall	.+1768   	; 0x5648 <memmove>
		a[4] += t1;
    4f60:	f1 01       	movw	r30, r2
    4f62:	40 88       	ldd	r4, Z+16	; 0x10
    4f64:	51 88       	ldd	r5, Z+17	; 0x11
    4f66:	62 88       	ldd	r6, Z+18	; 0x12
    4f68:	73 88       	ldd	r7, Z+19	; 0x13
    4f6a:	a5 96       	adiw	r28, 0x25	; 37
    4f6c:	0c ad       	ldd	r16, Y+60	; 0x3c
    4f6e:	1d ad       	ldd	r17, Y+61	; 0x3d
    4f70:	2e ad       	ldd	r18, Y+62	; 0x3e
    4f72:	3f ad       	ldd	r19, Y+63	; 0x3f
    4f74:	a5 97       	sbiw	r28, 0x25	; 37
    4f76:	40 0e       	add	r4, r16
    4f78:	51 1e       	adc	r5, r17
    4f7a:	62 1e       	adc	r6, r18
    4f7c:	73 1e       	adc	r7, r19
    4f7e:	40 8a       	std	Z+16, r4	; 0x10
    4f80:	51 8a       	std	Z+17, r5	; 0x11
    4f82:	62 8a       	std	Z+18, r6	; 0x12
    4f84:	73 8a       	std	Z+19, r7	; 0x13
		a[0] = t1 + t2;
    4f86:	b5 01       	movw	r22, r10
    4f88:	a4 01       	movw	r20, r8
    4f8a:	8d e0       	ldi	r24, 0x0D	; 13
    4f8c:	76 95       	lsr	r23
    4f8e:	67 95       	ror	r22
    4f90:	57 95       	ror	r21
    4f92:	47 95       	ror	r20
    4f94:	8a 95       	dec	r24
    4f96:	d1 f7       	brne	.-12     	; 0x4f8c <sha2_small_common_nextBlock+0x42c>
    4f98:	d5 01       	movw	r26, r10
    4f9a:	c4 01       	movw	r24, r8
    4f9c:	23 e1       	ldi	r18, 0x13	; 19
    4f9e:	88 0f       	add	r24, r24
    4fa0:	99 1f       	adc	r25, r25
    4fa2:	aa 1f       	adc	r26, r26
    4fa4:	bb 1f       	adc	r27, r27
    4fa6:	2a 95       	dec	r18
    4fa8:	d1 f7       	brne	.-12     	; 0x4f9e <sha2_small_common_nextBlock+0x43e>
    4faa:	84 2b       	or	r24, r20
    4fac:	95 2b       	or	r25, r21
    4fae:	a6 2b       	or	r26, r22
    4fb0:	b7 2b       	or	r27, r23
    4fb2:	b5 01       	movw	r22, r10
    4fb4:	a4 01       	movw	r20, r8
    4fb6:	76 95       	lsr	r23
    4fb8:	67 95       	ror	r22
    4fba:	57 95       	ror	r21
    4fbc:	47 95       	ror	r20
    4fbe:	76 95       	lsr	r23
    4fc0:	67 95       	ror	r22
    4fc2:	57 95       	ror	r21
    4fc4:	47 95       	ror	r20
    4fc6:	95 01       	movw	r18, r10
    4fc8:	84 01       	movw	r16, r8
    4fca:	ee e1       	ldi	r30, 0x1E	; 30
    4fcc:	00 0f       	add	r16, r16
    4fce:	11 1f       	adc	r17, r17
    4fd0:	22 1f       	adc	r18, r18
    4fd2:	33 1f       	adc	r19, r19
    4fd4:	ea 95       	dec	r30
    4fd6:	d1 f7       	brne	.-12     	; 0x4fcc <sha2_small_common_nextBlock+0x46c>
    4fd8:	40 2b       	or	r20, r16
    4fda:	51 2b       	or	r21, r17
    4fdc:	62 2b       	or	r22, r18
    4fde:	73 2b       	or	r23, r19
    4fe0:	48 27       	eor	r20, r24
    4fe2:	59 27       	eor	r21, r25
    4fe4:	6a 27       	eor	r22, r26
    4fe6:	7b 27       	eor	r23, r27
    4fe8:	95 01       	movw	r18, r10
    4fea:	84 01       	movw	r16, r8
    4fec:	fa e0       	ldi	r31, 0x0A	; 10
    4fee:	00 0f       	add	r16, r16
    4ff0:	11 1f       	adc	r17, r17
    4ff2:	22 1f       	adc	r18, r18
    4ff4:	33 1f       	adc	r19, r19
    4ff6:	fa 95       	dec	r31
    4ff8:	d1 f7       	brne	.-12     	; 0x4fee <sha2_small_common_nextBlock+0x48e>
    4ffa:	d5 01       	movw	r26, r10
    4ffc:	c4 01       	movw	r24, r8
    4ffe:	e6 e1       	ldi	r30, 0x16	; 22
    5000:	b6 95       	lsr	r27
    5002:	a7 95       	ror	r26
    5004:	97 95       	ror	r25
    5006:	87 95       	ror	r24
    5008:	ea 95       	dec	r30
    500a:	d1 f7       	brne	.-12     	; 0x5000 <sha2_small_common_nextBlock+0x4a0>
    500c:	80 2b       	or	r24, r16
    500e:	91 2b       	or	r25, r17
    5010:	a2 2b       	or	r26, r18
    5012:	b3 2b       	or	r27, r19
    5014:	48 27       	eor	r20, r24
    5016:	59 27       	eor	r21, r25
    5018:	6a 27       	eor	r22, r26
    501a:	7b 27       	eor	r23, r27
    501c:	a9 96       	adiw	r28, 0x29	; 41
    501e:	8c ad       	ldd	r24, Y+60	; 0x3c
    5020:	9d ad       	ldd	r25, Y+61	; 0x3d
    5022:	ae ad       	ldd	r26, Y+62	; 0x3e
    5024:	bf ad       	ldd	r27, Y+63	; 0x3f
    5026:	a9 97       	sbiw	r28, 0x29	; 41
    5028:	8c 25       	eor	r24, r12
    502a:	9d 25       	eor	r25, r13
    502c:	ae 25       	eor	r26, r14
    502e:	bf 25       	eor	r27, r15
    5030:	88 21       	and	r24, r8
    5032:	99 21       	and	r25, r9
    5034:	aa 21       	and	r26, r10
    5036:	bb 21       	and	r27, r11
    5038:	a9 96       	adiw	r28, 0x29	; 41
    503a:	0c ad       	ldd	r16, Y+60	; 0x3c
    503c:	1d ad       	ldd	r17, Y+61	; 0x3d
    503e:	2e ad       	ldd	r18, Y+62	; 0x3e
    5040:	3f ad       	ldd	r19, Y+63	; 0x3f
    5042:	a9 97       	sbiw	r28, 0x29	; 41
    5044:	c0 22       	and	r12, r16
    5046:	d1 22       	and	r13, r17
    5048:	e2 22       	and	r14, r18
    504a:	f3 22       	and	r15, r19
    504c:	c8 26       	eor	r12, r24
    504e:	d9 26       	eor	r13, r25
    5050:	ea 26       	eor	r14, r26
    5052:	fb 26       	eor	r15, r27
    5054:	4c 0d       	add	r20, r12
    5056:	5d 1d       	adc	r21, r13
    5058:	6e 1d       	adc	r22, r14
    505a:	7f 1d       	adc	r23, r15
    505c:	a5 96       	adiw	r28, 0x25	; 37
    505e:	8c ac       	ldd	r8, Y+60	; 0x3c
    5060:	9d ac       	ldd	r9, Y+61	; 0x3d
    5062:	ae ac       	ldd	r10, Y+62	; 0x3e
    5064:	bf ac       	ldd	r11, Y+63	; 0x3f
    5066:	a5 97       	sbiw	r28, 0x25	; 37
    5068:	84 0e       	add	r8, r20
    506a:	95 1e       	adc	r9, r21
    506c:	a6 1e       	adc	r10, r22
    506e:	b7 1e       	adc	r11, r23
    5070:	d1 01       	movw	r26, r2
    5072:	8d 92       	st	X+, r8
    5074:	9d 92       	st	X+, r9
    5076:	ad 92       	st	X+, r10
    5078:	bc 92       	st	X, r11
    507a:	13 97       	sbiw	r26, 0x03	; 3
    507c:	ab 96       	adiw	r28, 0x2b	; 43
    507e:	0e ad       	ldd	r16, Y+62	; 0x3e
    5080:	1f ad       	ldd	r17, Y+63	; 0x3f
    5082:	ab 97       	sbiw	r28, 0x2b	; 43
    5084:	0f 5f       	subi	r16, 0xFF	; 255
    5086:	1f 4f       	sbci	r17, 0xFF	; 255
    5088:	ab 96       	adiw	r28, 0x2b	; 43
    508a:	1f af       	std	Y+63, r17	; 0x3f
    508c:	0e af       	std	Y+62, r16	; 0x3e
    508e:	ab 97       	sbiw	r28, 0x2b	; 43
    5090:	ad 96       	adiw	r28, 0x2d	; 45
    5092:	0e ad       	ldd	r16, Y+62	; 0x3e
    5094:	1f ad       	ldd	r17, Y+63	; 0x3f
    5096:	ad 97       	sbiw	r28, 0x2d	; 45
    5098:	0c 5f       	subi	r16, 0xFC	; 252
    509a:	1f 4f       	sbci	r17, 0xFF	; 255
    509c:	ad 96       	adiw	r28, 0x2d	; 45
    509e:	1f af       	std	Y+63, r17	; 0x3f
    50a0:	0e af       	std	Y+62, r16	; 0x3e
    50a2:	ad 97       	sbiw	r28, 0x2d	; 45
    50a4:	af 96       	adiw	r28, 0x2f	; 47
    50a6:	0e ad       	ldd	r16, Y+62	; 0x3e
    50a8:	1f ad       	ldd	r17, Y+63	; 0x3f
    50aa:	af 97       	sbiw	r28, 0x2f	; 47
    50ac:	0c 5f       	subi	r16, 0xFC	; 252
    50ae:	1f 4f       	sbci	r17, 0xFF	; 255
    50b0:	af 96       	adiw	r28, 0x2f	; 47
    50b2:	1f af       	std	Y+63, r17	; 0x3f
    50b4:	0e af       	std	Y+62, r16	; 0x3e
    50b6:	af 97       	sbiw	r28, 0x2f	; 47
*/
/* init working variables */
	memcpy((void*)a,(void*)(state->h), 8*4);

/* do the, fun stuff, */
	for (i=0; i<64; ++i){
    50b8:	ab 96       	adiw	r28, 0x2b	; 43
    50ba:	0e ad       	ldd	r16, Y+62	; 0x3e
    50bc:	1f ad       	ldd	r17, Y+63	; 0x3f
    50be:	ab 97       	sbiw	r28, 0x2b	; 43
    50c0:	00 34       	cpi	r16, 0x40	; 64
    50c2:	11 05       	cpc	r17, r1
    50c4:	a9 f0       	breq	.+42     	; 0x50f0 <sha2_small_common_nextBlock+0x590>
		if(i<16){
    50c6:	aa 96       	adiw	r28, 0x2a	; 42
    50c8:	1f ad       	ldd	r17, Y+63	; 0x3f
    50ca:	aa 97       	sbiw	r28, 0x2a	; 42
    50cc:	10 31       	cpi	r17, 0x10	; 16
    50ce:	08 f0       	brcs	.+2      	; 0x50d2 <sha2_small_common_nextBlock+0x572>
    50d0:	a7 cd       	rjmp	.-1202   	; 0x4c20 <sha2_small_common_nextBlock+0xc0>
			wx = w[i];
    50d2:	af 96       	adiw	r28, 0x2f	; 47
    50d4:	ae ad       	ldd	r26, Y+62	; 0x3e
    50d6:	bf ad       	ldd	r27, Y+63	; 0x3f
    50d8:	af 97       	sbiw	r28, 0x2f	; 47
    50da:	cd 90       	ld	r12, X+
    50dc:	dd 90       	ld	r13, X+
    50de:	ed 90       	ld	r14, X+
    50e0:	fc 90       	ld	r15, X
    50e2:	a9 96       	adiw	r28, 0x29	; 41
    50e4:	cc ae       	std	Y+60, r12	; 0x3c
    50e6:	dd ae       	std	Y+61, r13	; 0x3d
    50e8:	ee ae       	std	Y+62, r14	; 0x3e
    50ea:	ff ae       	std	Y+63, r15	; 0x3f
    50ec:	a9 97       	sbiw	r28, 0x29	; 41
    50ee:	6a ce       	rjmp	.-812    	; 0x4dc4 <sha2_small_common_nextBlock+0x264>
    50f0:	e3 96       	adiw	r28, 0x33	; 51
    50f2:	ee ad       	ldd	r30, Y+62	; 0x3e
    50f4:	ff ad       	ldd	r31, Y+63	; 0x3f
    50f6:	e3 97       	sbiw	r28, 0x33	; 51
    50f8:	e1 96       	adiw	r28, 0x31	; 49
    50fa:	2e ad       	ldd	r18, Y+62	; 0x3e
    50fc:	3f ad       	ldd	r19, Y+63	; 0x3f
    50fe:	e1 97       	sbiw	r28, 0x31	; 49
    5100:	10 e2       	ldi	r17, 0x20	; 32
    5102:	21 0e       	add	r2, r17
    5104:	31 1c       	adc	r3, r1
    5106:	8f 01       	movw	r16, r30
    5108:	d5 01       	movw	r26, r10
    510a:	c4 01       	movw	r24, r8
    510c:	06 c0       	rjmp	.+12     	; 0x511a <sha2_small_common_nextBlock+0x5ba>
    510e:	f9 01       	movw	r30, r18
    5110:	81 91       	ld	r24, Z+
    5112:	91 91       	ld	r25, Z+
    5114:	a1 91       	ld	r26, Z+
    5116:	b1 91       	ld	r27, Z+
    5118:	9f 01       	movw	r18, r30
		a[0] = t1 + t2;
	}

/* update, the, state, */
	for (i=0; i<8; ++i){
		state->h[i] += a[i];
    511a:	f8 01       	movw	r30, r16
    511c:	40 81       	ld	r20, Z
    511e:	51 81       	ldd	r21, Z+1	; 0x01
    5120:	62 81       	ldd	r22, Z+2	; 0x02
    5122:	73 81       	ldd	r23, Z+3	; 0x03
    5124:	84 0f       	add	r24, r20
    5126:	95 1f       	adc	r25, r21
    5128:	a6 1f       	adc	r26, r22
    512a:	b7 1f       	adc	r27, r23
    512c:	81 93       	st	Z+, r24
    512e:	91 93       	st	Z+, r25
    5130:	a1 93       	st	Z+, r26
    5132:	b1 93       	st	Z+, r27
    5134:	8f 01       	movw	r16, r30
		a[4] += t1;
		a[0] = t1 + t2;
	}

/* update, the, state, */
	for (i=0; i<8; ++i){
    5136:	22 16       	cp	r2, r18
    5138:	33 06       	cpc	r3, r19
    513a:	49 f7       	brne	.-46     	; 0x510e <sha2_small_common_nextBlock+0x5ae>
		state->h[i] += a[i];
	}
	state->length += 1;
    513c:	e3 96       	adiw	r28, 0x33	; 51
    513e:	ee ad       	ldd	r30, Y+62	; 0x3e
    5140:	ff ad       	ldd	r31, Y+63	; 0x3f
    5142:	e3 97       	sbiw	r28, 0x33	; 51
    5144:	80 a1       	ldd	r24, Z+32	; 0x20
    5146:	91 a1       	ldd	r25, Z+33	; 0x21
    5148:	a2 a1       	ldd	r26, Z+34	; 0x22
    514a:	b3 a1       	ldd	r27, Z+35	; 0x23
    514c:	01 96       	adiw	r24, 0x01	; 1
    514e:	a1 1d       	adc	r26, r1
    5150:	b1 1d       	adc	r27, r1
    5152:	80 a3       	std	Z+32, r24	; 0x20
    5154:	91 a3       	std	Z+33, r25	; 0x21
    5156:	a2 a3       	std	Z+34, r26	; 0x22
    5158:	b3 a3       	std	Z+35, r27	; 0x23
}
    515a:	ce 58       	subi	r28, 0x8E	; 142
    515c:	df 4f       	sbci	r29, 0xFF	; 255
    515e:	0f b6       	in	r0, 0x3f	; 63
    5160:	f8 94       	cli
    5162:	de bf       	out	0x3e, r29	; 62
    5164:	0f be       	out	0x3f, r0	; 63
    5166:	cd bf       	out	0x3d, r28	; 61
    5168:	df 91       	pop	r29
    516a:	cf 91       	pop	r28
    516c:	1f 91       	pop	r17
    516e:	0f 91       	pop	r16
    5170:	ff 90       	pop	r15
    5172:	ef 90       	pop	r14
    5174:	df 90       	pop	r13
    5176:	cf 90       	pop	r12
    5178:	bf 90       	pop	r11
    517a:	af 90       	pop	r10
    517c:	9f 90       	pop	r9
    517e:	8f 90       	pop	r8
    5180:	7f 90       	pop	r7
    5182:	6f 90       	pop	r6
    5184:	5f 90       	pop	r5
    5186:	4f 90       	pop	r4
    5188:	3f 90       	pop	r3
    518a:	2f 90       	pop	r2
    518c:	08 95       	ret

0000518e <sha2_small_common_lastBlock>:


void sha2_small_common_lastBlock(sha2_small_common_ctx_t *state, const void *block, uint16_t length_b){
    518e:	8f 92       	push	r8
    5190:	9f 92       	push	r9
    5192:	af 92       	push	r10
    5194:	bf 92       	push	r11
    5196:	cf 92       	push	r12
    5198:	df 92       	push	r13
    519a:	ef 92       	push	r14
    519c:	ff 92       	push	r15
    519e:	0f 93       	push	r16
    51a0:	1f 93       	push	r17
    51a2:	cf 93       	push	r28
    51a4:	df 93       	push	r29
    51a6:	cd b7       	in	r28, 0x3d	; 61
    51a8:	de b7       	in	r29, 0x3e	; 62
    51aa:	c8 54       	subi	r28, 0x48	; 72
    51ac:	d1 09       	sbc	r29, r1
    51ae:	0f b6       	in	r0, 0x3f	; 63
    51b0:	f8 94       	cli
    51b2:	de bf       	out	0x3e, r29	; 62
    51b4:	0f be       	out	0x3f, r0	; 63
    51b6:	cd bf       	out	0x3d, r28	; 61
    51b8:	8c 01       	movw	r16, r24
    51ba:	5b 01       	movw	r10, r22
    51bc:	4a 01       	movw	r8, r20
	uint8_t lb[512/8]; /* local block */
	uint64_t len;
	while(length_b>=512){
    51be:	6a 01       	movw	r12, r20
    51c0:	41 15       	cp	r20, r1
    51c2:	52 40       	sbci	r21, 0x02	; 2
    51c4:	18 f1       	brcs	.+70     	; 0x520c <sha2_small_common_lastBlock+0x7e>
    51c6:	7b 01       	movw	r14, r22
		sha2_small_common_nextBlock(state, block);
    51c8:	b7 01       	movw	r22, r14
    51ca:	c8 01       	movw	r24, r16
    51cc:	c9 dc       	rcall	.-1646   	; 0x4b60 <sha2_small_common_nextBlock>
		length_b -= 512;
    51ce:	92 e0       	ldi	r25, 0x02	; 2
    51d0:	d9 1a       	sub	r13, r25
		block = (uint8_t*)block+64;
    51d2:	e0 e4       	ldi	r30, 0x40	; 64
    51d4:	ee 0e       	add	r14, r30
    51d6:	f1 1c       	adc	r15, r1


void sha2_small_common_lastBlock(sha2_small_common_ctx_t *state, const void *block, uint16_t length_b){
	uint8_t lb[512/8]; /* local block */
	uint64_t len;
	while(length_b>=512){
    51d8:	c1 14       	cp	r12, r1
    51da:	f2 e0       	ldi	r31, 0x02	; 2
    51dc:	df 06       	cpc	r13, r31
    51de:	a0 f7       	brcc	.-24     	; 0x51c8 <sha2_small_common_lastBlock+0x3a>
    51e0:	64 01       	movw	r12, r8
    51e2:	81 e0       	ldi	r24, 0x01	; 1
    51e4:	d8 22       	and	r13, r24
    51e6:	92 e0       	ldi	r25, 0x02	; 2
    51e8:	99 1a       	sub	r9, r25
    51ea:	89 2c       	mov	r8, r9
    51ec:	99 24       	eor	r9, r9
    51ee:	86 94       	lsr	r8
    51f0:	ef ef       	ldi	r30, 0xFF	; 255
    51f2:	8e 1a       	sub	r8, r30
    51f4:	9e 0a       	sbc	r9, r30
    51f6:	00 24       	eor	r0, r0
    51f8:	96 94       	lsr	r9
    51fa:	87 94       	ror	r8
    51fc:	07 94       	ror	r0
    51fe:	96 94       	lsr	r9
    5200:	87 94       	ror	r8
    5202:	07 94       	ror	r0
    5204:	98 2c       	mov	r9, r8
    5206:	80 2c       	mov	r8, r0
    5208:	a8 0c       	add	r10, r8
    520a:	b9 1c       	adc	r11, r9
		sha2_small_common_nextBlock(state, block);
		length_b -= 512;
		block = (uint8_t*)block+64;
	}
	len = state->length*512 + length_b;
    520c:	f8 01       	movw	r30, r16
    520e:	80 a1       	ldd	r24, Z+32	; 0x20
    5210:	91 a1       	ldd	r25, Z+33	; 0x21
    5212:	a2 a1       	ldd	r26, Z+34	; 0x22
    5214:	b3 a1       	ldd	r27, Z+35	; 0x23
    5216:	29 e0       	ldi	r18, 0x09	; 9
    5218:	88 0f       	add	r24, r24
    521a:	99 1f       	adc	r25, r25
    521c:	aa 1f       	adc	r26, r26
    521e:	bb 1f       	adc	r27, r27
    5220:	2a 95       	dec	r18
    5222:	d1 f7       	brne	.-12     	; 0x5218 <sha2_small_common_lastBlock+0x8a>
    5224:	8c 0d       	add	r24, r12
    5226:	9d 1d       	adc	r25, r13
    5228:	a1 1d       	adc	r26, r1
    522a:	b1 1d       	adc	r27, r1
    522c:	9c 01       	movw	r18, r24
    522e:	ad 01       	movw	r20, r26
    5230:	22 96       	adiw	r28, 0x02	; 2
    5232:	8f af       	std	Y+63, r24	; 0x3f
    5234:	22 97       	sbiw	r28, 0x02	; 2
    5236:	23 96       	adiw	r28, 0x03	; 3
    5238:	3f af       	std	Y+63, r19	; 0x3f
    523a:	23 97       	sbiw	r28, 0x03	; 3
    523c:	24 96       	adiw	r28, 0x04	; 4
    523e:	4f af       	std	Y+63, r20	; 0x3f
    5240:	24 97       	sbiw	r28, 0x04	; 4
    5242:	25 96       	adiw	r28, 0x05	; 5
    5244:	5f af       	std	Y+63, r21	; 0x3f
    5246:	25 97       	sbiw	r28, 0x05	; 5
    5248:	26 96       	adiw	r28, 0x06	; 6
    524a:	1f ae       	std	Y+63, r1	; 0x3f
    524c:	26 97       	sbiw	r28, 0x06	; 6
    524e:	27 96       	adiw	r28, 0x07	; 7
    5250:	1f ae       	std	Y+63, r1	; 0x3f
    5252:	27 97       	sbiw	r28, 0x07	; 7
    5254:	28 96       	adiw	r28, 0x08	; 8
    5256:	1f ae       	std	Y+63, r1	; 0x3f
    5258:	28 97       	sbiw	r28, 0x08	; 8
    525a:	29 96       	adiw	r28, 0x09	; 9
    525c:	1f ae       	std	Y+63, r1	; 0x3f
    525e:	29 97       	sbiw	r28, 0x09	; 9
	memset(lb, 0, 64);
    5260:	30 e4       	ldi	r19, 0x40	; 64
    5262:	93 2e       	mov	r9, r19
    5264:	ce 01       	movw	r24, r28
    5266:	01 96       	adiw	r24, 0x01	; 1
    5268:	7c 01       	movw	r14, r24
    526a:	fc 01       	movw	r30, r24
    526c:	89 2d       	mov	r24, r9
    526e:	11 92       	st	Z+, r1
    5270:	8a 95       	dec	r24
    5272:	e9 f7       	brne	.-6      	; 0x526e <sha2_small_common_lastBlock+0xe0>
	memcpy(lb, block, (length_b+7)/8);
    5274:	a6 01       	movw	r20, r12
    5276:	49 5f       	subi	r20, 0xF9	; 249
    5278:	5f 4f       	sbci	r21, 0xFF	; 255
    527a:	56 95       	lsr	r21
    527c:	47 95       	ror	r20
    527e:	56 95       	lsr	r21
    5280:	47 95       	ror	r20
    5282:	56 95       	lsr	r21
    5284:	47 95       	ror	r20
    5286:	b5 01       	movw	r22, r10
    5288:	c7 01       	movw	r24, r14
    528a:	d5 d1       	rcall	.+938    	; 0x5636 <memcpy>

	/* set the final one bit */
	lb[length_b/8] |= 0x80>>(length_b & 0x7);
    528c:	f6 01       	movw	r30, r12
    528e:	f6 95       	lsr	r31
    5290:	e7 95       	ror	r30
    5292:	f6 95       	lsr	r31
    5294:	e7 95       	ror	r30
    5296:	f6 95       	lsr	r31
    5298:	e7 95       	ror	r30
    529a:	ee 0d       	add	r30, r14
    529c:	ff 1d       	adc	r31, r15
    529e:	96 01       	movw	r18, r12
    52a0:	27 70       	andi	r18, 0x07	; 7
    52a2:	33 27       	eor	r19, r19
    52a4:	80 e8       	ldi	r24, 0x80	; 128
    52a6:	90 e0       	ldi	r25, 0x00	; 0
    52a8:	02 c0       	rjmp	.+4      	; 0x52ae <sha2_small_common_lastBlock+0x120>
    52aa:	95 95       	asr	r25
    52ac:	87 95       	ror	r24
    52ae:	2a 95       	dec	r18
    52b0:	e2 f7       	brpl	.-8      	; 0x52aa <sha2_small_common_lastBlock+0x11c>
    52b2:	90 81       	ld	r25, Z
    52b4:	89 2b       	or	r24, r25
    52b6:	80 83       	st	Z, r24
	/* pad with zeros */
	if (length_b>=512-64){ /* not enouth space for 64bit length value */
    52b8:	90 ec       	ldi	r25, 0xC0	; 192
    52ba:	c9 16       	cp	r12, r25
    52bc:	91 e0       	ldi	r25, 0x01	; 1
    52be:	d9 06       	cpc	r13, r25
    52c0:	58 f5       	brcc	.+86     	; 0x5318 <sha2_small_common_lastBlock+0x18a>


void sha2_small_common_lastBlock(sha2_small_common_ctx_t *state, const void *block, uint16_t length_b){
	uint8_t lb[512/8]; /* local block */
	uint64_t len;
	while(length_b>=512){
    52c2:	27 e0       	ldi	r18, 0x07	; 7
#if defined LITTLE_ENDIAN
	 	/* this is now rolled up */
	uint8_t i;
	i=7;
	do{
		lb[63-i] = ((uint8_t*)&len)[i];
    52c4:	4f e3       	ldi	r20, 0x3F	; 63
    52c6:	50 e0       	ldi	r21, 0x00	; 0
    52c8:	82 2f       	mov	r24, r18
    52ca:	90 e0       	ldi	r25, 0x00	; 0
    52cc:	fa 01       	movw	r30, r20
    52ce:	e8 1b       	sub	r30, r24
    52d0:	f9 0b       	sbc	r31, r25
    52d2:	ee 0d       	add	r30, r14
    52d4:	ff 1d       	adc	r31, r15
    52d6:	a1 e4       	ldi	r26, 0x41	; 65
    52d8:	b0 e0       	ldi	r27, 0x00	; 0
    52da:	ac 0f       	add	r26, r28
    52dc:	bd 1f       	adc	r27, r29
    52de:	a8 0f       	add	r26, r24
    52e0:	b9 1f       	adc	r27, r25
    52e2:	8c 91       	ld	r24, X
    52e4:	80 83       	st	Z, r24
	}while(i--);
    52e6:	21 50       	subi	r18, 0x01	; 1
    52e8:	78 f7       	brcc	.-34     	; 0x52c8 <sha2_small_common_lastBlock+0x13a>
#elif defined BIG_ENDIAN
	*((uint64_t)&(lb[56])) = len;
#endif
	sha2_small_common_nextBlock(state, lb);
    52ea:	b7 01       	movw	r22, r14
    52ec:	c8 01       	movw	r24, r16
    52ee:	38 dc       	rcall	.-1936   	; 0x4b60 <sha2_small_common_nextBlock>
}
    52f0:	c8 5b       	subi	r28, 0xB8	; 184
    52f2:	df 4f       	sbci	r29, 0xFF	; 255
    52f4:	0f b6       	in	r0, 0x3f	; 63
    52f6:	f8 94       	cli
    52f8:	de bf       	out	0x3e, r29	; 62
    52fa:	0f be       	out	0x3f, r0	; 63
    52fc:	cd bf       	out	0x3d, r28	; 61
    52fe:	df 91       	pop	r29
    5300:	cf 91       	pop	r28
    5302:	1f 91       	pop	r17
    5304:	0f 91       	pop	r16
    5306:	ff 90       	pop	r15
    5308:	ef 90       	pop	r14
    530a:	df 90       	pop	r13
    530c:	cf 90       	pop	r12
    530e:	bf 90       	pop	r11
    5310:	af 90       	pop	r10
    5312:	9f 90       	pop	r9
    5314:	8f 90       	pop	r8

	/* set the final one bit */
	lb[length_b/8] |= 0x80>>(length_b & 0x7);
	/* pad with zeros */
	if (length_b>=512-64){ /* not enouth space for 64bit length value */
		sha2_small_common_nextBlock(state, lb);
    5316:	08 95       	ret
    5318:	b7 01       	movw	r22, r14
    531a:	c8 01       	movw	r24, r16
    531c:	21 dc       	rcall	.-1982   	; 0x4b60 <sha2_small_common_nextBlock>
		memset(lb, 0, 64);
    531e:	f7 01       	movw	r30, r14
    5320:	11 92       	st	Z+, r1
    5322:	9a 94       	dec	r9
    5324:	e9 f7       	brne	.-6      	; 0x5320 <sha2_small_common_lastBlock+0x192>
    5326:	cd cf       	rjmp	.-102    	; 0x52c2 <sha2_small_common_lastBlock+0x134>

00005328 <sha512>:
		s += 8;
	}while(--i);
}


void sha512(void *dest, const void *msg, uint32_t length_b){
    5328:	2f 92       	push	r2
    532a:	3f 92       	push	r3
    532c:	4f 92       	push	r4
    532e:	5f 92       	push	r5
    5330:	6f 92       	push	r6
    5332:	7f 92       	push	r7
    5334:	8f 92       	push	r8
    5336:	9f 92       	push	r9
    5338:	af 92       	push	r10
    533a:	bf 92       	push	r11
    533c:	cf 92       	push	r12
    533e:	df 92       	push	r13
    5340:	ef 92       	push	r14
    5342:	ff 92       	push	r15
    5344:	0f 93       	push	r16
    5346:	1f 93       	push	r17
    5348:	cf 93       	push	r28
    534a:	df 93       	push	r29
    534c:	cd b7       	in	r28, 0x3d	; 61
    534e:	de b7       	in	r29, 0x3e	; 62
    5350:	c4 54       	subi	r28, 0x44	; 68
    5352:	d1 09       	sbc	r29, r1
    5354:	0f b6       	in	r0, 0x3f	; 63
    5356:	f8 94       	cli
    5358:	de bf       	out	0x3e, r29	; 62
    535a:	0f be       	out	0x3f, r0	; 63
    535c:	cd bf       	out	0x3d, r28	; 61
    535e:	4c 01       	movw	r8, r24
    5360:	1b 01       	movw	r2, r22
    5362:	29 01       	movw	r4, r18
    5364:	3a 01       	movw	r6, r20
0x510e527fade682d1LL, 0x9b05688c2b3e6c1fLL, 0x1f83d9abfb41bd6bLL, 0x5be0cd19137e2179LL
};


void sha512_init(sha512_ctx_t *ctx){
	ctx->length = 0;
    5366:	5e 01       	movw	r10, r28
    5368:	81 e4       	ldi	r24, 0x41	; 65
    536a:	a8 0e       	add	r10, r24
    536c:	b1 1c       	adc	r11, r1
    536e:	f5 01       	movw	r30, r10
    5370:	10 82       	st	Z, r1
    5372:	11 82       	std	Z+1, r1	; 0x01
    5374:	12 82       	std	Z+2, r1	; 0x02
    5376:	13 82       	std	Z+3, r1	; 0x03
	memcpy_P(ctx->h, sha512_init_values, 8*8);
    5378:	40 e4       	ldi	r20, 0x40	; 64
    537a:	50 e0       	ldi	r21, 0x00	; 0
    537c:	64 e3       	ldi	r22, 0x34	; 52
    537e:	74 e0       	ldi	r23, 0x04	; 4
    5380:	ce 01       	movw	r24, r28
    5382:	01 96       	adiw	r24, 0x01	; 1
    5384:	4f d1       	rcall	.+670    	; 0x5624 <memcpy_P>


void sha512(void *dest, const void *msg, uint32_t length_b){
	sha512_ctx_t ctx;
	sha512_init(&ctx);
	while(length_b >= 1024){
    5386:	41 14       	cp	r4, r1
    5388:	f4 e0       	ldi	r31, 0x04	; 4
    538a:	5f 06       	cpc	r5, r31
    538c:	61 04       	cpc	r6, r1
    538e:	71 04       	cpc	r7, r1
    5390:	60 f1       	brcs	.+88     	; 0x53ea <sha512+0xc2>
    5392:	73 01       	movw	r14, r6
    5394:	62 01       	movw	r12, r4
    5396:	81 01       	movw	r16, r2
#include "sha2_large_common.h"
#include "sha512.h"


void sha512_nextBlock (sha512_ctx_t *ctx, const void *block){
	sha2_large_common_nextBlock(ctx, block);
    5398:	b8 01       	movw	r22, r16
    539a:	ce 01       	movw	r24, r28
    539c:	01 96       	adiw	r24, 0x01	; 1
    539e:	0e 94 0b 1b 	call	0x3616	; 0x3616 <sha2_large_common_nextBlock>
void sha512(void *dest, const void *msg, uint32_t length_b){
	sha512_ctx_t ctx;
	sha512_init(&ctx);
	while(length_b >= 1024){
		sha512_nextBlock(&ctx, msg);
		msg = (uint8_t*)msg + 1024/8;
    53a2:	00 58       	subi	r16, 0x80	; 128
    53a4:	1f 4f       	sbci	r17, 0xFF	; 255
		length_b -= 1024;
    53a6:	84 e0       	ldi	r24, 0x04	; 4
    53a8:	d8 1a       	sub	r13, r24
    53aa:	e1 08       	sbc	r14, r1
    53ac:	f1 08       	sbc	r15, r1


void sha512(void *dest, const void *msg, uint32_t length_b){
	sha512_ctx_t ctx;
	sha512_init(&ctx);
	while(length_b >= 1024){
    53ae:	c1 14       	cp	r12, r1
    53b0:	e4 e0       	ldi	r30, 0x04	; 4
    53b2:	de 06       	cpc	r13, r30
    53b4:	e1 04       	cpc	r14, r1
    53b6:	f1 04       	cpc	r15, r1
    53b8:	78 f7       	brcc	.-34     	; 0x5398 <sha512+0x70>
    53ba:	d3 01       	movw	r26, r6
    53bc:	c2 01       	movw	r24, r4
    53be:	94 50       	subi	r25, 0x04	; 4
    53c0:	a1 09       	sbc	r26, r1
    53c2:	b1 09       	sbc	r27, r1
    53c4:	2a e0       	ldi	r18, 0x0A	; 10
    53c6:	b6 95       	lsr	r27
    53c8:	a7 95       	ror	r26
    53ca:	97 95       	ror	r25
    53cc:	87 95       	ror	r24
    53ce:	2a 95       	dec	r18
    53d0:	d1 f7       	brne	.-12     	; 0x53c6 <sha512+0x9e>
    53d2:	01 96       	adiw	r24, 0x01	; 1
    53d4:	96 95       	lsr	r25
    53d6:	98 2f       	mov	r25, r24
    53d8:	88 27       	eor	r24, r24
    53da:	97 95       	ror	r25
    53dc:	87 95       	ror	r24
    53de:	28 0e       	add	r2, r24
    53e0:	39 1e       	adc	r3, r25
    53e2:	f3 e0       	ldi	r31, 0x03	; 3
    53e4:	5f 22       	and	r5, r31
    53e6:	66 24       	eor	r6, r6
    53e8:	77 24       	eor	r7, r7
void sha512_nextBlock (sha512_ctx_t *ctx, const void *block){
	sha2_large_common_nextBlock(ctx, block);
}

void sha512_lastBlock(sha512_ctx_t *ctx, const void *block, uint16_t length_b){
	sha2_large_common_lastBlock(ctx, block, length_b);
    53ea:	a2 01       	movw	r20, r4
    53ec:	b1 01       	movw	r22, r2
    53ee:	ce 01       	movw	r24, r28
    53f0:	01 96       	adiw	r24, 0x01	; 1
    53f2:	27 da       	rcall	.-2994   	; 0x4842 <sha2_large_common_lastBlock>
	ctx->length = 0;
	memcpy_P(ctx->h, sha512_init_values, 8*8);
}

void sha512_ctx2hash(void *dest, const sha512_ctx_t *ctx){
	uint8_t i=8, j, *s = (uint8_t*)(ctx->h);
    53f4:	9e 01       	movw	r18, r28
    53f6:	2f 5f       	subi	r18, 0xFF	; 255
    53f8:	3f 4f       	sbci	r19, 0xFF	; 255
    53fa:	f4 01       	movw	r30, r8
	do{
		j=7;
    53fc:	87 e0       	ldi	r24, 0x07	; 7
		do{
			*((uint8_t*)dest) = s[j];
    53fe:	d9 01       	movw	r26, r18
    5400:	a8 0f       	add	r26, r24
    5402:	b1 1d       	adc	r27, r1
    5404:	9c 91       	ld	r25, X
    5406:	91 93       	st	Z+, r25
			dest = (uint8_t*)dest + 1;
		}while(j--);
    5408:	81 50       	subi	r24, 0x01	; 1
    540a:	c8 f7       	brcc	.-14     	; 0x53fe <sha512+0xd6>
    540c:	88 e0       	ldi	r24, 0x08	; 8
    540e:	88 0e       	add	r8, r24
    5410:	91 1c       	adc	r9, r1
		s += 8;
    5412:	28 5f       	subi	r18, 0xF8	; 248
    5414:	3f 4f       	sbci	r19, 0xFF	; 255
	}while(--i);
    5416:	2a 15       	cp	r18, r10
    5418:	3b 05       	cpc	r19, r11
    541a:	79 f7       	brne	.-34     	; 0x53fa <sha512+0xd2>
		msg = (uint8_t*)msg + 1024/8;
		length_b -= 1024;
	}
	sha512_lastBlock(&ctx, msg, length_b);
	sha512_ctx2hash(dest, &ctx);
}
    541c:	cc 5b       	subi	r28, 0xBC	; 188
    541e:	df 4f       	sbci	r29, 0xFF	; 255
    5420:	0f b6       	in	r0, 0x3f	; 63
    5422:	f8 94       	cli
    5424:	de bf       	out	0x3e, r29	; 62
    5426:	0f be       	out	0x3f, r0	; 63
    5428:	cd bf       	out	0x3d, r28	; 61
    542a:	df 91       	pop	r29
    542c:	cf 91       	pop	r28
    542e:	1f 91       	pop	r17
    5430:	0f 91       	pop	r16
    5432:	ff 90       	pop	r15
    5434:	ef 90       	pop	r14
    5436:	df 90       	pop	r13
    5438:	cf 90       	pop	r12
    543a:	bf 90       	pop	r11
    543c:	af 90       	pop	r10
    543e:	9f 90       	pop	r9
    5440:	8f 90       	pop	r8
    5442:	7f 90       	pop	r7
    5444:	6f 90       	pop	r6
    5446:	5f 90       	pop	r5
    5448:	4f 90       	pop	r4
    544a:	3f 90       	pop	r3
    544c:	2f 90       	pop	r2
    544e:	08 95       	ret

00005450 <uart_init>:

#include <avr/io.h>
#include "uart_f.h"

void uart_init(){
	UBRR0H = (BAUD_PRESCALE >> 8); // Load upper 8-bits of the baud rate value into the high byte of the UBRR register
    5450:	10 92 c5 00 	sts	0x00C5, r1	; 0x8000c5 <__TEXT_REGION_LENGTH__+0x7e00c5>
	UBRR0L = BAUD_PRESCALE; // Load lower 8-bits of the baud rate value into the low byte of the UBRR register
    5454:	83 e3       	ldi	r24, 0x33	; 51
    5456:	80 93 c4 00 	sts	0x00C4, r24	; 0x8000c4 <__TEXT_REGION_LENGTH__+0x7e00c4>
	UCSR0C = (0<<UMSEL0) | (0<<UPM0) | (1<<USBS0) | (3<<UCSZ0);
    545a:	8e e0       	ldi	r24, 0x0E	; 14
    545c:	80 93 c2 00 	sts	0x00C2, r24	; 0x8000c2 <__TEXT_REGION_LENGTH__+0x7e00c2>
	UCSR0B = (1<<RXEN0) | (1<<TXEN0);
    5460:	88 e1       	ldi	r24, 0x18	; 24
    5462:	80 93 c1 00 	sts	0x00C1, r24	; 0x8000c1 <__TEXT_REGION_LENGTH__+0x7e00c1>
    5466:	08 95       	ret

00005468 <uart_puts>:
}

void uart_puts(char* s){
	int i;
	int len = strlen(s);
    5468:	fc 01       	movw	r30, r24
    546a:	01 90       	ld	r0, Z+
    546c:	00 20       	and	r0, r0
    546e:	e9 f7       	brne	.-6      	; 0x546a <uart_puts+0x2>
    5470:	31 97       	sbiw	r30, 0x01	; 1
    5472:	9f 01       	movw	r18, r30
    5474:	28 1b       	sub	r18, r24
    5476:	39 0b       	sbc	r19, r25
	for (i = 0; i < len; i++){
    5478:	12 16       	cp	r1, r18
    547a:	13 06       	cpc	r1, r19
    547c:	6c f4       	brge	.+26     	; 0x5498 <uart_puts+0x30>
    547e:	fc 01       	movw	r30, r24
    5480:	28 0f       	add	r18, r24
    5482:	39 1f       	adc	r19, r25
		while(!( UCSR0A & 0X20));
    5484:	90 91 c0 00 	lds	r25, 0x00C0	; 0x8000c0 <__TEXT_REGION_LENGTH__+0x7e00c0>
    5488:	95 ff       	sbrs	r25, 5
    548a:	fc cf       	rjmp	.-8      	; 0x5484 <uart_puts+0x1c>
		UDR0=s[i];
    548c:	81 91       	ld	r24, Z+
    548e:	80 93 c6 00 	sts	0x00C6, r24	; 0x8000c6 <__TEXT_REGION_LENGTH__+0x7e00c6>
}

void uart_puts(char* s){
	int i;
	int len = strlen(s);
	for (i = 0; i < len; i++){
    5492:	e2 17       	cp	r30, r18
    5494:	f3 07       	cpc	r31, r19
    5496:	b1 f7       	brne	.-20     	; 0x5484 <uart_puts+0x1c>
		while(!( UCSR0A & 0X20));
		UDR0=s[i];
	}
	while(!( UCSR0A & 0X20)); 
    5498:	80 91 c0 00 	lds	r24, 0x00C0	; 0x8000c0 <__TEXT_REGION_LENGTH__+0x7e00c0>
    549c:	85 ff       	sbrs	r24, 5
    549e:	fc cf       	rjmp	.-8      	; 0x5498 <uart_puts+0x30>
	UDR0 = 13;
    54a0:	8d e0       	ldi	r24, 0x0D	; 13
    54a2:	80 93 c6 00 	sts	0x00C6, r24	; 0x8000c6 <__TEXT_REGION_LENGTH__+0x7e00c6>
	while(!( UCSR0A & 0X20));
    54a6:	80 91 c0 00 	lds	r24, 0x00C0	; 0x8000c0 <__TEXT_REGION_LENGTH__+0x7e00c0>
    54aa:	85 ff       	sbrs	r24, 5
    54ac:	fc cf       	rjmp	.-8      	; 0x54a6 <uart_puts+0x3e>
	UDR0 = 10;
    54ae:	8a e0       	ldi	r24, 0x0A	; 10
    54b0:	80 93 c6 00 	sts	0x00C6, r24	; 0x8000c6 <__TEXT_REGION_LENGTH__+0x7e00c6>
    54b4:	08 95       	ret

000054b6 <__bswapsi2>:
    54b6:	69 27       	eor	r22, r25
    54b8:	96 27       	eor	r25, r22
    54ba:	69 27       	eor	r22, r25
    54bc:	78 27       	eor	r23, r24
    54be:	87 27       	eor	r24, r23
    54c0:	78 27       	eor	r23, r24
    54c2:	08 95       	ret

000054c4 <__ashldi3>:
    54c4:	0f 93       	push	r16
    54c6:	08 30       	cpi	r16, 0x08	; 8
    54c8:	90 f0       	brcs	.+36     	; 0x54ee <__ashldi3+0x2a>
    54ca:	98 2f       	mov	r25, r24
    54cc:	87 2f       	mov	r24, r23
    54ce:	76 2f       	mov	r23, r22
    54d0:	65 2f       	mov	r22, r21
    54d2:	54 2f       	mov	r21, r20
    54d4:	43 2f       	mov	r20, r19
    54d6:	32 2f       	mov	r19, r18
    54d8:	22 27       	eor	r18, r18
    54da:	08 50       	subi	r16, 0x08	; 8
    54dc:	f4 cf       	rjmp	.-24     	; 0x54c6 <__ashldi3+0x2>
    54de:	22 0f       	add	r18, r18
    54e0:	33 1f       	adc	r19, r19
    54e2:	44 1f       	adc	r20, r20
    54e4:	55 1f       	adc	r21, r21
    54e6:	66 1f       	adc	r22, r22
    54e8:	77 1f       	adc	r23, r23
    54ea:	88 1f       	adc	r24, r24
    54ec:	99 1f       	adc	r25, r25
    54ee:	0a 95       	dec	r16
    54f0:	b2 f7       	brpl	.-20     	; 0x54de <__ashldi3+0x1a>
    54f2:	0f 91       	pop	r16
    54f4:	08 95       	ret

000054f6 <__ashrdi3>:
    54f6:	97 fb       	bst	r25, 7
    54f8:	10 f8       	bld	r1, 0

000054fa <__lshrdi3>:
    54fa:	16 94       	lsr	r1
    54fc:	00 08       	sbc	r0, r0
    54fe:	0f 93       	push	r16
    5500:	08 30       	cpi	r16, 0x08	; 8
    5502:	98 f0       	brcs	.+38     	; 0x552a <__lshrdi3+0x30>
    5504:	08 50       	subi	r16, 0x08	; 8
    5506:	23 2f       	mov	r18, r19
    5508:	34 2f       	mov	r19, r20
    550a:	45 2f       	mov	r20, r21
    550c:	56 2f       	mov	r21, r22
    550e:	67 2f       	mov	r22, r23
    5510:	78 2f       	mov	r23, r24
    5512:	89 2f       	mov	r24, r25
    5514:	90 2d       	mov	r25, r0
    5516:	f4 cf       	rjmp	.-24     	; 0x5500 <__lshrdi3+0x6>
    5518:	05 94       	asr	r0
    551a:	97 95       	ror	r25
    551c:	87 95       	ror	r24
    551e:	77 95       	ror	r23
    5520:	67 95       	ror	r22
    5522:	57 95       	ror	r21
    5524:	47 95       	ror	r20
    5526:	37 95       	ror	r19
    5528:	27 95       	ror	r18
    552a:	0a 95       	dec	r16
    552c:	aa f7       	brpl	.-22     	; 0x5518 <__lshrdi3+0x1e>
    552e:	0f 91       	pop	r16
    5530:	08 95       	ret

00005532 <__rotldi3>:
    5532:	0f 93       	push	r16
    5534:	08 30       	cpi	r16, 0x08	; 8
    5536:	a0 f0       	brcs	.+40     	; 0x5560 <__rotldi3+0x2e>
    5538:	08 50       	subi	r16, 0x08	; 8
    553a:	09 2e       	mov	r0, r25
    553c:	98 2f       	mov	r25, r24
    553e:	87 2f       	mov	r24, r23
    5540:	76 2f       	mov	r23, r22
    5542:	65 2f       	mov	r22, r21
    5544:	54 2f       	mov	r21, r20
    5546:	43 2f       	mov	r20, r19
    5548:	32 2f       	mov	r19, r18
    554a:	20 2d       	mov	r18, r0
    554c:	f3 cf       	rjmp	.-26     	; 0x5534 <__rotldi3+0x2>
    554e:	22 0f       	add	r18, r18
    5550:	33 1f       	adc	r19, r19
    5552:	44 1f       	adc	r20, r20
    5554:	55 1f       	adc	r21, r21
    5556:	66 1f       	adc	r22, r22
    5558:	77 1f       	adc	r23, r23
    555a:	88 1f       	adc	r24, r24
    555c:	99 1f       	adc	r25, r25
    555e:	21 1d       	adc	r18, r1
    5560:	0a 95       	dec	r16
    5562:	aa f7       	brpl	.-22     	; 0x554e <__rotldi3+0x1c>
    5564:	0f 91       	pop	r16
    5566:	08 95       	ret

00005568 <__adddi3>:
    5568:	2a 0d       	add	r18, r10
    556a:	3b 1d       	adc	r19, r11
    556c:	4c 1d       	adc	r20, r12
    556e:	5d 1d       	adc	r21, r13
    5570:	6e 1d       	adc	r22, r14
    5572:	7f 1d       	adc	r23, r15
    5574:	80 1f       	adc	r24, r16
    5576:	91 1f       	adc	r25, r17
    5578:	08 95       	ret

0000557a <do_rand>:
    557a:	8f 92       	push	r8
    557c:	9f 92       	push	r9
    557e:	af 92       	push	r10
    5580:	bf 92       	push	r11
    5582:	cf 92       	push	r12
    5584:	df 92       	push	r13
    5586:	ef 92       	push	r14
    5588:	ff 92       	push	r15
    558a:	cf 93       	push	r28
    558c:	df 93       	push	r29
    558e:	ec 01       	movw	r28, r24
    5590:	68 81       	ld	r22, Y
    5592:	79 81       	ldd	r23, Y+1	; 0x01
    5594:	8a 81       	ldd	r24, Y+2	; 0x02
    5596:	9b 81       	ldd	r25, Y+3	; 0x03
    5598:	61 15       	cp	r22, r1
    559a:	71 05       	cpc	r23, r1
    559c:	81 05       	cpc	r24, r1
    559e:	91 05       	cpc	r25, r1
    55a0:	21 f4       	brne	.+8      	; 0x55aa <do_rand+0x30>
    55a2:	64 e2       	ldi	r22, 0x24	; 36
    55a4:	79 ed       	ldi	r23, 0xD9	; 217
    55a6:	8b e5       	ldi	r24, 0x5B	; 91
    55a8:	97 e0       	ldi	r25, 0x07	; 7
    55aa:	2d e1       	ldi	r18, 0x1D	; 29
    55ac:	33 ef       	ldi	r19, 0xF3	; 243
    55ae:	41 e0       	ldi	r20, 0x01	; 1
    55b0:	50 e0       	ldi	r21, 0x00	; 0
    55b2:	5b d0       	rcall	.+182    	; 0x566a <__divmodsi4>
    55b4:	49 01       	movw	r8, r18
    55b6:	5a 01       	movw	r10, r20
    55b8:	9b 01       	movw	r18, r22
    55ba:	ac 01       	movw	r20, r24
    55bc:	a7 ea       	ldi	r26, 0xA7	; 167
    55be:	b1 e4       	ldi	r27, 0x41	; 65
    55c0:	70 d0       	rcall	.+224    	; 0x56a2 <__muluhisi3>
    55c2:	6b 01       	movw	r12, r22
    55c4:	7c 01       	movw	r14, r24
    55c6:	ac ee       	ldi	r26, 0xEC	; 236
    55c8:	b4 ef       	ldi	r27, 0xF4	; 244
    55ca:	a5 01       	movw	r20, r10
    55cc:	94 01       	movw	r18, r8
    55ce:	75 d0       	rcall	.+234    	; 0x56ba <__mulohisi3>
    55d0:	dc 01       	movw	r26, r24
    55d2:	cb 01       	movw	r24, r22
    55d4:	8c 0d       	add	r24, r12
    55d6:	9d 1d       	adc	r25, r13
    55d8:	ae 1d       	adc	r26, r14
    55da:	bf 1d       	adc	r27, r15
    55dc:	b7 ff       	sbrs	r27, 7
    55de:	03 c0       	rjmp	.+6      	; 0x55e6 <do_rand+0x6c>
    55e0:	01 97       	sbiw	r24, 0x01	; 1
    55e2:	a1 09       	sbc	r26, r1
    55e4:	b0 48       	sbci	r27, 0x80	; 128
    55e6:	88 83       	st	Y, r24
    55e8:	99 83       	std	Y+1, r25	; 0x01
    55ea:	aa 83       	std	Y+2, r26	; 0x02
    55ec:	bb 83       	std	Y+3, r27	; 0x03
    55ee:	9f 77       	andi	r25, 0x7F	; 127
    55f0:	df 91       	pop	r29
    55f2:	cf 91       	pop	r28
    55f4:	ff 90       	pop	r15
    55f6:	ef 90       	pop	r14
    55f8:	df 90       	pop	r13
    55fa:	cf 90       	pop	r12
    55fc:	bf 90       	pop	r11
    55fe:	af 90       	pop	r10
    5600:	9f 90       	pop	r9
    5602:	8f 90       	pop	r8
    5604:	08 95       	ret

00005606 <rand_r>:
    5606:	b9 cf       	rjmp	.-142    	; 0x557a <do_rand>

00005608 <rand>:
    5608:	80 e0       	ldi	r24, 0x00	; 0
    560a:	91 e0       	ldi	r25, 0x01	; 1
    560c:	b6 cf       	rjmp	.-148    	; 0x557a <do_rand>

0000560e <srand>:
    560e:	a0 e0       	ldi	r26, 0x00	; 0
    5610:	b0 e0       	ldi	r27, 0x00	; 0
    5612:	80 93 00 01 	sts	0x0100, r24	; 0x800100 <__data_start>
    5616:	90 93 01 01 	sts	0x0101, r25	; 0x800101 <__data_start+0x1>
    561a:	a0 93 02 01 	sts	0x0102, r26	; 0x800102 <__data_start+0x2>
    561e:	b0 93 03 01 	sts	0x0103, r27	; 0x800103 <__data_start+0x3>
    5622:	08 95       	ret

00005624 <memcpy_P>:
    5624:	fb 01       	movw	r30, r22
    5626:	dc 01       	movw	r26, r24
    5628:	02 c0       	rjmp	.+4      	; 0x562e <memcpy_P+0xa>
    562a:	05 90       	lpm	r0, Z+
    562c:	0d 92       	st	X+, r0
    562e:	41 50       	subi	r20, 0x01	; 1
    5630:	50 40       	sbci	r21, 0x00	; 0
    5632:	d8 f7       	brcc	.-10     	; 0x562a <memcpy_P+0x6>
    5634:	08 95       	ret

00005636 <memcpy>:
    5636:	fb 01       	movw	r30, r22
    5638:	dc 01       	movw	r26, r24
    563a:	02 c0       	rjmp	.+4      	; 0x5640 <memcpy+0xa>
    563c:	01 90       	ld	r0, Z+
    563e:	0d 92       	st	X+, r0
    5640:	41 50       	subi	r20, 0x01	; 1
    5642:	50 40       	sbci	r21, 0x00	; 0
    5644:	d8 f7       	brcc	.-10     	; 0x563c <memcpy+0x6>
    5646:	08 95       	ret

00005648 <memmove>:
    5648:	68 17       	cp	r22, r24
    564a:	79 07       	cpc	r23, r25
    564c:	68 f4       	brcc	.+26     	; 0x5668 <memmove+0x20>
    564e:	fb 01       	movw	r30, r22
    5650:	dc 01       	movw	r26, r24
    5652:	e4 0f       	add	r30, r20
    5654:	f5 1f       	adc	r31, r21
    5656:	a4 0f       	add	r26, r20
    5658:	b5 1f       	adc	r27, r21
    565a:	02 c0       	rjmp	.+4      	; 0x5660 <memmove+0x18>
    565c:	02 90       	ld	r0, -Z
    565e:	0e 92       	st	-X, r0
    5660:	41 50       	subi	r20, 0x01	; 1
    5662:	50 40       	sbci	r21, 0x00	; 0
    5664:	d8 f7       	brcc	.-10     	; 0x565c <memmove+0x14>
    5666:	08 95       	ret
    5668:	e6 cf       	rjmp	.-52     	; 0x5636 <memcpy>

0000566a <__divmodsi4>:
    566a:	05 2e       	mov	r0, r21
    566c:	97 fb       	bst	r25, 7
    566e:	16 f4       	brtc	.+4      	; 0x5674 <__divmodsi4+0xa>
    5670:	00 94       	com	r0
    5672:	0f d0       	rcall	.+30     	; 0x5692 <__negsi2>
    5674:	57 fd       	sbrc	r21, 7
    5676:	05 d0       	rcall	.+10     	; 0x5682 <__divmodsi4_neg2>
    5678:	24 d0       	rcall	.+72     	; 0x56c2 <__udivmodsi4>
    567a:	07 fc       	sbrc	r0, 7
    567c:	02 d0       	rcall	.+4      	; 0x5682 <__divmodsi4_neg2>
    567e:	46 f4       	brtc	.+16     	; 0x5690 <__divmodsi4_exit>
    5680:	08 c0       	rjmp	.+16     	; 0x5692 <__negsi2>

00005682 <__divmodsi4_neg2>:
    5682:	50 95       	com	r21
    5684:	40 95       	com	r20
    5686:	30 95       	com	r19
    5688:	21 95       	neg	r18
    568a:	3f 4f       	sbci	r19, 0xFF	; 255
    568c:	4f 4f       	sbci	r20, 0xFF	; 255
    568e:	5f 4f       	sbci	r21, 0xFF	; 255

00005690 <__divmodsi4_exit>:
    5690:	08 95       	ret

00005692 <__negsi2>:
    5692:	90 95       	com	r25
    5694:	80 95       	com	r24
    5696:	70 95       	com	r23
    5698:	61 95       	neg	r22
    569a:	7f 4f       	sbci	r23, 0xFF	; 255
    569c:	8f 4f       	sbci	r24, 0xFF	; 255
    569e:	9f 4f       	sbci	r25, 0xFF	; 255
    56a0:	08 95       	ret

000056a2 <__muluhisi3>:
    56a2:	31 d0       	rcall	.+98     	; 0x5706 <__umulhisi3>
    56a4:	a5 9f       	mul	r26, r21
    56a6:	90 0d       	add	r25, r0
    56a8:	b4 9f       	mul	r27, r20
    56aa:	90 0d       	add	r25, r0
    56ac:	a4 9f       	mul	r26, r20
    56ae:	80 0d       	add	r24, r0
    56b0:	91 1d       	adc	r25, r1
    56b2:	11 24       	eor	r1, r1
    56b4:	08 95       	ret

000056b6 <__mulshisi3>:
    56b6:	b7 ff       	sbrs	r27, 7
    56b8:	f4 cf       	rjmp	.-24     	; 0x56a2 <__muluhisi3>

000056ba <__mulohisi3>:
    56ba:	f3 df       	rcall	.-26     	; 0x56a2 <__muluhisi3>
    56bc:	82 1b       	sub	r24, r18
    56be:	93 0b       	sbc	r25, r19
    56c0:	08 95       	ret

000056c2 <__udivmodsi4>:
    56c2:	a1 e2       	ldi	r26, 0x21	; 33
    56c4:	1a 2e       	mov	r1, r26
    56c6:	aa 1b       	sub	r26, r26
    56c8:	bb 1b       	sub	r27, r27
    56ca:	fd 01       	movw	r30, r26
    56cc:	0d c0       	rjmp	.+26     	; 0x56e8 <__udivmodsi4_ep>

000056ce <__udivmodsi4_loop>:
    56ce:	aa 1f       	adc	r26, r26
    56d0:	bb 1f       	adc	r27, r27
    56d2:	ee 1f       	adc	r30, r30
    56d4:	ff 1f       	adc	r31, r31
    56d6:	a2 17       	cp	r26, r18
    56d8:	b3 07       	cpc	r27, r19
    56da:	e4 07       	cpc	r30, r20
    56dc:	f5 07       	cpc	r31, r21
    56de:	20 f0       	brcs	.+8      	; 0x56e8 <__udivmodsi4_ep>
    56e0:	a2 1b       	sub	r26, r18
    56e2:	b3 0b       	sbc	r27, r19
    56e4:	e4 0b       	sbc	r30, r20
    56e6:	f5 0b       	sbc	r31, r21

000056e8 <__udivmodsi4_ep>:
    56e8:	66 1f       	adc	r22, r22
    56ea:	77 1f       	adc	r23, r23
    56ec:	88 1f       	adc	r24, r24
    56ee:	99 1f       	adc	r25, r25
    56f0:	1a 94       	dec	r1
    56f2:	69 f7       	brne	.-38     	; 0x56ce <__udivmodsi4_loop>
    56f4:	60 95       	com	r22
    56f6:	70 95       	com	r23
    56f8:	80 95       	com	r24
    56fa:	90 95       	com	r25
    56fc:	9b 01       	movw	r18, r22
    56fe:	ac 01       	movw	r20, r24
    5700:	bd 01       	movw	r22, r26
    5702:	cf 01       	movw	r24, r30
    5704:	08 95       	ret

00005706 <__umulhisi3>:
    5706:	a2 9f       	mul	r26, r18
    5708:	b0 01       	movw	r22, r0
    570a:	b3 9f       	mul	r27, r19
    570c:	c0 01       	movw	r24, r0
    570e:	a3 9f       	mul	r26, r19
    5710:	70 0d       	add	r23, r0
    5712:	81 1d       	adc	r24, r1
    5714:	11 24       	eor	r1, r1
    5716:	91 1d       	adc	r25, r1
    5718:	b2 9f       	mul	r27, r18
    571a:	70 0d       	add	r23, r0
    571c:	81 1d       	adc	r24, r1
    571e:	11 24       	eor	r1, r1
    5720:	91 1d       	adc	r25, r1
    5722:	08 95       	ret

00005724 <_exit>:
    5724:	f8 94       	cli

00005726 <__stop_program>:
    5726:	ff cf       	rjmp	.-2      	; 0x5726 <__stop_program>
