
Tester.elf:     file format elf32-avr

Sections:
Idx Name          Size      VMA       LMA       File off  Algn
  0 .data         00000228  00800100  000042cc  00004360  2**0
                  CONTENTS, ALLOC, LOAD, DATA
  1 .text         000042cc  00000000  00000000  00000094  2**1
                  CONTENTS, ALLOC, LOAD, READONLY, CODE
  2 .bss          00000003  00800328  00800328  00004588  2**0
                  ALLOC
  3 .comment      00000030  00000000  00000000  00004588  2**0
                  CONTENTS, READONLY
  4 .note.gnu.avr.deviceinfo 00000040  00000000  00000000  000045b8  2**2
                  CONTENTS, READONLY
  5 .debug_aranges 000003b0  00000000  00000000  000045f8  2**0
                  CONTENTS, READONLY, DEBUGGING
  6 .debug_info   00009885  00000000  00000000  000049a8  2**0
                  CONTENTS, READONLY, DEBUGGING
  7 .debug_abbrev 0000173f  00000000  00000000  0000e22d  2**0
                  CONTENTS, READONLY, DEBUGGING
  8 .debug_line   00002984  00000000  00000000  0000f96c  2**0
                  CONTENTS, READONLY, DEBUGGING
  9 .debug_frame  000013d8  00000000  00000000  000122f0  2**2
                  CONTENTS, READONLY, DEBUGGING
 10 .debug_str    00001085  00000000  00000000  000136c8  2**0
                  CONTENTS, READONLY, DEBUGGING
 11 .debug_loc    000070de  00000000  00000000  0001474d  2**0
                  CONTENTS, READONLY, DEBUGGING
 12 .debug_ranges 000003b8  00000000  00000000  0001b82b  2**0
                  CONTENTS, READONLY, DEBUGGING

Disassembly of section .text:

00000000 <__vectors>:
       0:	a9 c1       	rjmp	.+850    	; 0x354 <__ctors_end>
       2:	00 00       	nop
       4:	c6 c1       	rjmp	.+908    	; 0x392 <__bad_interrupt>
       6:	00 00       	nop
       8:	c4 c1       	rjmp	.+904    	; 0x392 <__bad_interrupt>
       a:	00 00       	nop
       c:	c2 c1       	rjmp	.+900    	; 0x392 <__bad_interrupt>
       e:	00 00       	nop
      10:	c0 c1       	rjmp	.+896    	; 0x392 <__bad_interrupt>
      12:	00 00       	nop
      14:	0c 94 1d 14 	jmp	0x283a	; 0x283a <__vector_5>
      18:	0c 94 4a 14 	jmp	0x2894	; 0x2894 <__vector_6>
      1c:	0c 94 11 15 	jmp	0x2a22	; 0x2a22 <__vector_7>
      20:	0c 94 81 14 	jmp	0x2902	; 0x2902 <__vector_8>
      24:	b6 c1       	rjmp	.+876    	; 0x392 <__bad_interrupt>
      26:	00 00       	nop
      28:	b4 c1       	rjmp	.+872    	; 0x392 <__bad_interrupt>
      2a:	00 00       	nop
      2c:	b2 c1       	rjmp	.+868    	; 0x392 <__bad_interrupt>
      2e:	00 00       	nop
      30:	b0 c1       	rjmp	.+864    	; 0x392 <__bad_interrupt>
      32:	00 00       	nop
      34:	ae c1       	rjmp	.+860    	; 0x392 <__bad_interrupt>
      36:	00 00       	nop
      38:	ac c1       	rjmp	.+856    	; 0x392 <__bad_interrupt>
      3a:	00 00       	nop
      3c:	aa c1       	rjmp	.+852    	; 0x392 <__bad_interrupt>
      3e:	00 00       	nop
      40:	a8 c1       	rjmp	.+848    	; 0x392 <__bad_interrupt>
      42:	00 00       	nop
      44:	a6 c1       	rjmp	.+844    	; 0x392 <__bad_interrupt>
      46:	00 00       	nop
      48:	a4 c1       	rjmp	.+840    	; 0x392 <__bad_interrupt>
      4a:	00 00       	nop
      4c:	a2 c1       	rjmp	.+836    	; 0x392 <__bad_interrupt>
      4e:	00 00       	nop
      50:	a0 c1       	rjmp	.+832    	; 0x392 <__bad_interrupt>
      52:	00 00       	nop
      54:	9e c1       	rjmp	.+828    	; 0x392 <__bad_interrupt>
      56:	00 00       	nop
      58:	9c c1       	rjmp	.+824    	; 0x392 <__bad_interrupt>
      5a:	00 00       	nop
      5c:	9a c1       	rjmp	.+820    	; 0x392 <__bad_interrupt>
      5e:	00 00       	nop
      60:	98 c1       	rjmp	.+816    	; 0x392 <__bad_interrupt>
      62:	00 00       	nop
      64:	96 c1       	rjmp	.+812    	; 0x392 <__bad_interrupt>
      66:	00 00       	nop
      68:	94 c1       	rjmp	.+808    	; 0x392 <__bad_interrupt>
      6a:	00 00       	nop
      6c:	92 c1       	rjmp	.+804    	; 0x392 <__bad_interrupt>
      6e:	00 00       	nop
      70:	90 c1       	rjmp	.+800    	; 0x392 <__bad_interrupt>
      72:	00 00       	nop
      74:	8e c1       	rjmp	.+796    	; 0x392 <__bad_interrupt>
      76:	00 00       	nop
      78:	8c c1       	rjmp	.+792    	; 0x392 <__bad_interrupt>
      7a:	00 00       	nop
      7c:	8a c1       	rjmp	.+788    	; 0x392 <__bad_interrupt>
      7e:	00 00       	nop
      80:	88 c1       	rjmp	.+784    	; 0x392 <__bad_interrupt>
      82:	00 00       	nop
      84:	86 c1       	rjmp	.+780    	; 0x392 <__bad_interrupt>
      86:	00 00       	nop
      88:	84 c1       	rjmp	.+776    	; 0x392 <__bad_interrupt>
      8a:	00 00       	nop
      8c:	82 c1       	rjmp	.+772    	; 0x392 <__bad_interrupt>
      8e:	00 00       	nop
      90:	80 c1       	rjmp	.+768    	; 0x392 <__bad_interrupt>
	...

00000094 <__trampolines_end>:
      94:	22 ae       	std	Z+58, r2	; 0x3a
      96:	28 d7       	rcall	.+3664   	; 0xee8 <uECC_vli_modMult+0x194>
      98:	98 2f       	mov	r25, r24
      9a:	8a 42       	sbci	r24, 0x2A	; 42
      9c:	cd 65       	ori	r28, 0x5D	; 93
      9e:	ef 23       	and	r30, r31
      a0:	91 44       	sbci	r25, 0x41	; 65
      a2:	37 71       	andi	r19, 0x17	; 23
      a4:	2f 3b       	cpi	r18, 0xBF	; 191
      a6:	4d ec       	ldi	r20, 0xCD	; 205
      a8:	cf fb       	.word	0xfbcf	; ????
      aa:	c0 b5       	in	r28, 0x20	; 32
      ac:	bc db       	rcall	.-2184   	; 0xfffff826 <__eeprom_end+0xff7ef826>
      ae:	89 81       	ldd	r24, Y+1	; 0x01
      b0:	a5 db       	rcall	.-2230   	; 0xfffff7fc <__eeprom_end+0xff7ef7fc>
      b2:	b5 e9       	ldi	r27, 0x95	; 149
      b4:	38 b5       	in	r19, 0x28	; 40
      b6:	48 f3       	brcs	.-46     	; 0x8a <__SREG__+0x4b>
      b8:	5b c2       	rjmp	.+1206   	; 0x570 <can_receive_frame_buffer+0x2e>
      ba:	56 39       	cpi	r21, 0x96	; 150
      bc:	19 d0       	rcall	.+50     	; 0xf0 <__trampolines_end+0x5c>
      be:	05 b6       	in	r0, 0x35	; 53
      c0:	f1 11       	cpse	r31, r1
      c2:	f1 59       	subi	r31, 0x91	; 145
      c4:	9b 4f       	sbci	r25, 0xFB	; 251
      c6:	19 af       	std	Y+57, r17	; 0x39
      c8:	a4 82       	std	Z+4, r10	; 0x04
      ca:	3f 92       	push	r3
      cc:	18 81       	ld	r17, Y
      ce:	6d da       	rcall	.-2854   	; 0xfffff5aa <__eeprom_end+0xff7ef5aa>
      d0:	d5 5e       	subi	r29, 0xE5	; 229
      d2:	1c ab       	std	Y+52, r17	; 0x34
      d4:	42 02       	muls	r20, r18
      d6:	03 a3       	std	Z+35, r16	; 0x23
      d8:	98 aa       	std	Y+48, r9	; 0x30
      da:	07 d8       	rcall	.-4082   	; 0xfffff0ea <__eeprom_end+0xff7ef0ea>
      dc:	be 6f       	ori	r27, 0xFE	; 254
      de:	70 45       	sbci	r23, 0x50	; 80
      e0:	01 5b       	subi	r16, 0xB1	; 177
      e2:	83 12       	cpse	r8, r19
      e4:	8c b2       	in	r8, 0x1c	; 28
      e6:	e4 4e       	sbci	r30, 0xE4	; 228
      e8:	be 85       	ldd	r27, Y+14	; 0x0e
      ea:	31 24       	eor	r3, r1
      ec:	e2 b4       	in	r14, 0x22	; 34
      ee:	ff d5       	rcall	.+3070   	; 0xcee <uECC_vli_cmp+0x58>
      f0:	c3 7d       	andi	r28, 0xD3	; 211
      f2:	0c 55       	subi	r16, 0x5C	; 92
      f4:	6f 89       	ldd	r22, Y+23	; 0x17
      f6:	7b f2       	brvs	.-98     	; 0x96 <__trampolines_end+0x2>
      f8:	74 5d       	subi	r23, 0xD4	; 212
      fa:	be 72       	andi	r27, 0x2E	; 46
      fc:	b1 96       	adiw	r30, 0x21	; 33
      fe:	16 3b       	cpi	r17, 0xB6	; 182
     100:	fe b1       	in	r31, 0x0e	; 14
     102:	de 80       	ldd	r13, Y+6	; 0x06
     104:	35 12       	cpse	r3, r21
     106:	c7 25       	eor	r28, r7
     108:	a7 06       	cpc	r10, r23
     10a:	dc 9b       	sbis	0x1b, 4	; 27
     10c:	94 26       	eor	r9, r20
     10e:	69 cf       	rjmp	.-302    	; 0xffffffe2 <__eeprom_end+0xff7effe2>
     110:	74 f1       	brlt	.+92     	; 0x16e <__trampolines_end+0xda>
     112:	9b c1       	rjmp	.+822    	; 0x44a <can_init_id+0x1a>
     114:	d2 4a       	sbci	r29, 0xA2	; 162
     116:	f1 9e       	mul	r15, r17
     118:	c1 69       	ori	r28, 0x91	; 145
     11a:	9b e4       	ldi	r25, 0x4B	; 75
     11c:	e3 25       	eor	r30, r3
     11e:	4f 38       	cpi	r20, 0x8F	; 143
     120:	86 47       	sbci	r24, 0x76	; 118
     122:	be ef       	ldi	r27, 0xFE	; 254
     124:	b5 d5       	rcall	.+2922   	; 0xc90 <uECC_vli_cmp_unsafe+0x5e>
     126:	8c 8b       	std	Y+20, r24	; 0x14
     128:	c6 9d       	mul	r28, r6
     12a:	c1 0f       	add	r28, r17
     12c:	65 9c       	mul	r6, r5
     12e:	ac 77       	andi	r26, 0x7C	; 124
     130:	cc a1       	ldd	r28, Y+36	; 0x24
     132:	0c 24       	eor	r0, r12
     134:	75 02       	muls	r23, r21
     136:	2b 59       	subi	r18, 0x9B	; 155
     138:	6f 2c       	mov	r6, r15
     13a:	e9 2d       	mov	r30, r9
     13c:	83 e4       	ldi	r24, 0x43	; 67
     13e:	a6 6e       	ori	r26, 0xE6	; 230
     140:	aa 84       	ldd	r10, Y+10	; 0x0a
     142:	74 4a       	sbci	r23, 0xA4	; 164
     144:	d4 fb       	bst	r29, 4
     146:	41 bd       	out	0x21, r20	; 33
     148:	dc a9       	ldd	r29, Y+52	; 0x34
     14a:	b0 5c       	subi	r27, 0xC0	; 192
     14c:	b5 53       	subi	r27, 0x35	; 53
     14e:	11 83       	std	Z+1, r17	; 0x01
     150:	da 88       	ldd	r13, Y+18	; 0x12
     152:	f9 76       	andi	r31, 0x69	; 105
     154:	ab df       	rcall	.-170    	; 0xac <__trampolines_end+0x18>
     156:	66 ee       	ldi	r22, 0xE6	; 230
     158:	52 51       	subi	r21, 0x12	; 18
     15a:	3e 98       	cbi	0x07, 6	; 7
     15c:	10 32       	cpi	r17, 0x20	; 32
     15e:	b4 2d       	mov	r27, r4
     160:	6d c6       	rjmp	.+3290   	; 0xe3c <uECC_vli_modMult+0xe8>
     162:	31 a8       	ldd	r3, Z+49	; 0x31
     164:	3f 21       	and	r19, r15
     166:	fb 98       	cbi	0x1f, 3	; 31
     168:	c8 27       	eor	r28, r24
     16a:	03 b0       	in	r0, 0x03	; 3
     16c:	e4 0e       	add	r14, r20
     16e:	ef be       	out	0x3f, r14	; 63
     170:	c7 7f       	andi	r28, 0xF7	; 247
     172:	59 bf       	out	0x39, r21	; 57
     174:	c2 8f       	std	Z+26, r28	; 0x1a
     176:	a8 3d       	cpi	r26, 0xD8	; 216
     178:	f3 0b       	sbc	r31, r19
     17a:	e0 c6       	rjmp	.+3520   	; 0xf3c <uECC_vli_modMult+0x1e8>
     17c:	25 a7       	std	Z+45, r18	; 0x2d
     17e:	0a 93       	st	-Y, r16
     180:	47 91       	elpm	r20, Z+
     182:	a7 d5       	rcall	.+2894   	; 0xcd2 <uECC_vli_cmp+0x3c>
     184:	6f 82       	std	Y+7, r6	; 0x07
     186:	03 e0       	ldi	r16, 0x03	; 3
     188:	51 63       	ori	r21, 0x31	; 49
     18a:	ca 06       	cpc	r12, r26
     18c:	70 6e       	ori	r23, 0xE0	; 224
     18e:	0e 0a       	sbc	r0, r30
     190:	67 29       	or	r22, r7
     192:	29 14       	cp	r2, r9
     194:	fc 2f       	mov	r31, r28
     196:	d2 46       	sbci	r29, 0x62	; 98
     198:	85 0a       	sbc	r8, r21
     19a:	b7 27       	eor	r27, r23
     19c:	26 c9       	rjmp	.-3508   	; 0xfffff3ea <__eeprom_end+0xff7ef3ea>
     19e:	26 5c       	subi	r18, 0xC6	; 198
     1a0:	38 21       	and	r19, r8
     1a2:	1b 2e       	mov	r1, r27
     1a4:	ed 2a       	or	r14, r29
     1a6:	c4 5a       	subi	r28, 0xA4	; 164
     1a8:	fc 6d       	ori	r31, 0xDC	; 220
     1aa:	2c 4d       	sbci	r18, 0xDC	; 220
     1ac:	df b3       	in	r29, 0x1f	; 31
     1ae:	95 9d       	mul	r25, r5
     1b0:	13 0d       	add	r17, r3
     1b2:	38 53       	subi	r19, 0x38	; 56
     1b4:	de 63       	ori	r29, 0x3E	; 62
     1b6:	af 8b       	std	Y+23, r26	; 0x17
     1b8:	54 73       	andi	r21, 0x34	; 52
     1ba:	0a 65       	ori	r16, 0x5A	; 90
     1bc:	a8 b2       	in	r10, 0x18	; 24
     1be:	77 3c       	cpi	r23, 0xC7	; 199
     1c0:	bb 0a       	sbc	r11, r27
     1c2:	6a 76       	andi	r22, 0x6A	; 106
     1c4:	e6 ae       	std	Z+62, r14	; 0x3e
     1c6:	ed 47       	sbci	r30, 0x7D	; 125
     1c8:	2e c9       	rjmp	.-3492   	; 0xfffff426 <__eeprom_end+0xff7ef426>
     1ca:	c2 81       	ldd	r28, Z+2	; 0x02
     1cc:	3b 35       	cpi	r19, 0x5B	; 91
     1ce:	82 14       	cp	r8, r2
     1d0:	85 2c       	mov	r8, r5
     1d2:	72 92       	st	-Z, r7
     1d4:	64 03       	mulsu	r22, r20
     1d6:	f1 4c       	sbci	r31, 0xC1	; 193
     1d8:	a1 e8       	ldi	r26, 0x81	; 129
     1da:	bf a2       	std	Y+39, r11	; 0x27
     1dc:	01 30       	cpi	r16, 0x01	; 1
     1de:	42 bc       	out	0x22, r4	; 34
     1e0:	4b 66       	ori	r20, 0x6B	; 107
     1e2:	1a a8       	ldd	r1, Y+50	; 0x32
     1e4:	91 97       	sbiw	r26, 0x21	; 33
     1e6:	f8 d0       	rcall	.+496    	; 0x3d8 <can_init+0x44>
     1e8:	70 8b       	std	Z+16, r23	; 0x10
     1ea:	4b c2       	rjmp	.+1174   	; 0x682 <uECC_vli_set+0x50>
     1ec:	30 be       	out	0x30, r3	; 48
     1ee:	54 06       	cpc	r5, r20
     1f0:	a3 51       	subi	r26, 0x13	; 19
     1f2:	6c c7       	rjmp	.+3800   	; 0x10cc <vli_modInv_update+0x8>
     1f4:	18 52       	subi	r17, 0x28	; 40
     1f6:	ef d6       	rcall	.+3550   	; 0xfd6 <uECC_vli_modMult+0x282>
     1f8:	19 e8       	ldi	r17, 0x89	; 137
     1fa:	92 d1       	rcall	.+804    	; 0x520 <can_send_frame_buffer+0x6>
     1fc:	10 a9       	ldd	r17, Z+48	; 0x30
     1fe:	65 55       	subi	r22, 0x55	; 85
     200:	24 06       	cpc	r2, r20
     202:	99 d6       	rcall	.+3378   	; 0xf36 <uECC_vli_modMult+0x1e2>
     204:	2a 20       	and	r2, r10
     206:	71 57       	subi	r23, 0x71	; 113
     208:	85 35       	cpi	r24, 0x55	; 85
     20a:	0e f4       	brtc	.+2      	; 0x20e <__trampolines_end+0x17a>
     20c:	b8 d1       	rcall	.+880    	; 0x57e <can_receive_frame_buffer+0x3c>
     20e:	bb 32       	cpi	r27, 0x2B	; 43
     210:	70 a0       	ldd	r7, Z+32	; 0x20
     212:	6a 10       	cpse	r6, r10
     214:	c8 d0       	rcall	.+400    	; 0x3a6 <can_init+0x12>
     216:	d2 b8       	out	0x02, r13	; 2
     218:	16 c1       	rjmp	.+556    	; 0x446 <can_init_id+0x16>
     21a:	a4 19       	sub	r26, r4
     21c:	53 ab       	std	Z+51, r21	; 0x33
     21e:	41 51       	subi	r20, 0x11	; 17
     220:	08 6c       	ori	r16, 0xC8	; 200
     222:	37 1e       	adc	r3, r23
     224:	99 eb       	ldi	r25, 0xB9	; 185
     226:	8e df       	rcall	.-228    	; 0x144 <__trampolines_end+0xb0>
     228:	4c 77       	andi	r20, 0x7C	; 124
     22a:	48 27       	eor	r20, r24
     22c:	a8 48       	sbci	r26, 0x88	; 136
     22e:	9b e1       	ldi	r25, 0x1B	; 27
     230:	b5 bc       	out	0x25, r11	; 37
     232:	b0 34       	cpi	r27, 0x40	; 64
     234:	63 5a       	subi	r22, 0xA3	; 163
     236:	c9 c5       	rjmp	.+2962   	; 0xdca <uECC_vli_modMult+0x76>
     238:	b3 0c       	add	r11, r3
     23a:	1c 39       	cpi	r17, 0x9C	; 156
     23c:	cb 8a       	std	Y+19, r12	; 0x13
     23e:	41 e3       	ldi	r20, 0x31	; 49
     240:	4a aa       	std	Y+50, r4	; 0x32
     242:	d8 4e       	sbci	r29, 0xE8	; 232
     244:	73 e3       	ldi	r23, 0x33	; 51
     246:	63 77       	andi	r22, 0x73	; 115
     248:	4f ca       	rjmp	.-2914   	; 0xfffff6e8 <__eeprom_end+0xff7ef6e8>
     24a:	9c 5b       	subi	r25, 0xBC	; 188
     24c:	a3 b8       	out	0x03, r10	; 3
     24e:	b2 d6       	rcall	.+3428   	; 0xfb4 <uECC_vli_modMult+0x260>
     250:	f3 6f       	ori	r31, 0xF3	; 243
     252:	2e 68       	ori	r18, 0x8E	; 142
     254:	fc b2       	in	r15, 0x1c	; 28
     256:	ef 5d       	subi	r30, 0xDF	; 223
     258:	ee 82       	std	Y+6, r14	; 0x06
     25a:	8f 74       	andi	r24, 0x4F	; 79
     25c:	60 2f       	mov	r22, r16
     25e:	17 43       	sbci	r17, 0x37	; 55
     260:	6f 63       	ori	r22, 0x3F	; 63
     262:	a5 78       	andi	r26, 0x85	; 133
     264:	72 ab       	std	Z+50, r23	; 0x32
     266:	f0 a1       	ldd	r31, Z+32	; 0x20
     268:	14 78       	andi	r17, 0x84	; 132
     26a:	c8 84       	ldd	r12, Y+8	; 0x08
     26c:	ec 39       	cpi	r30, 0x9C	; 156
     26e:	64 1a       	sub	r6, r20
     270:	08 02       	muls	r16, r24
     272:	c7 8c       	ldd	r12, Z+31	; 0x1f
     274:	28 1e       	adc	r2, r24
     276:	63 23       	and	r22, r19
     278:	fa ff       	.word	0xfffa	; ????
     27a:	be 90       	ld	r11, -X
     27c:	e9 bd       	out	0x29, r30	; 41
     27e:	82 de       	rcall	.-764    	; 0xffffff84 <__eeprom_end+0xff7eff84>
     280:	eb 6c       	ori	r30, 0xCB	; 203
     282:	50 a4       	ldd	r5, Z+40	; 0x28
     284:	15 79       	andi	r17, 0x95	; 149
     286:	c6 b2       	in	r12, 0x16	; 22
     288:	f7 a3       	std	Z+39, r31	; 0x27
     28a:	f9 be       	out	0x39, r15	; 57
     28c:	2b 53       	subi	r18, 0x3B	; 59
     28e:	72 e3       	ldi	r23, 0x32	; 50
     290:	f2 78       	andi	r31, 0x82	; 130
     292:	71 c6       	rjmp	.+3298   	; 0xf76 <uECC_vli_modMult+0x222>
     294:	9c 61       	ori	r25, 0x1C	; 28
     296:	26 ea       	ldi	r18, 0xA6	; 166
     298:	ce 3e       	cpi	r28, 0xEE	; 238
     29a:	27 ca       	rjmp	.-2994   	; 0xfffff6ea <__eeprom_end+0xff7ef6ea>
     29c:	07 c2       	rjmp	.+1038   	; 0x6ac <uECC_vli_set+0x7a>
     29e:	c0 21       	and	r28, r0
     2a0:	c7 b8       	out	0x07, r12	; 7
     2a2:	86 d1       	rcall	.+780    	; 0x5b0 <can_receive_frame_buffer+0x6e>
     2a4:	1e eb       	ldi	r17, 0xBE	; 190
     2a6:	e0 cd       	rjmp	.-1088   	; 0xfffffe68 <__eeprom_end+0xff7efe68>
     2a8:	d6 7d       	andi	r29, 0xD6	; 214
     2aa:	da ea       	ldi	r29, 0xAA	; 170
     2ac:	78 d1       	rcall	.+752    	; 0x59e <can_receive_frame_buffer+0x5c>
     2ae:	6e ee       	ldi	r22, 0xEE	; 238
     2b0:	7f 4f       	sbci	r23, 0xFF	; 255
     2b2:	7d f5       	brhc	.+94     	; 0x312 <__trampolines_end+0x27e>
     2b4:	ba 6f       	ori	r27, 0xFA	; 250
     2b6:	17 72       	andi	r17, 0x27	; 39
     2b8:	aa 67       	ori	r26, 0x7A	; 122
     2ba:	f0 06       	cpc	r15, r16
     2bc:	a6 98       	cbi	0x14, 6	; 20
     2be:	c8 a2       	std	Y+32, r12	; 0x20
     2c0:	c5 7d       	andi	r28, 0xD5	; 213
     2c2:	63 0a       	sbc	r6, r19
     2c4:	ae 0d       	add	r26, r14
     2c6:	f9 be       	out	0x39, r15	; 57
     2c8:	04 98       	cbi	0x00, 4	; 0
     2ca:	3f 11       	cpse	r19, r15
     2cc:	1b 47       	sbci	r17, 0x7B	; 123
     2ce:	1c 13       	cpse	r17, r28
     2d0:	35 0b       	sbc	r19, r21
     2d2:	71 1b       	sub	r23, r17
     2d4:	84 7d       	andi	r24, 0xD4	; 212
     2d6:	04 23       	and	r16, r20
     2d8:	f5 77       	andi	r31, 0x75	; 117
     2da:	db 28       	or	r13, r11
     2dc:	93 24       	eor	r9, r3
     2de:	c7 40       	sbci	r28, 0x07	; 7
     2e0:	7b ab       	std	Y+51, r23	; 0x33
     2e2:	ca 32       	cpi	r28, 0x2A	; 42
     2e4:	bc be       	out	0x3c, r11	; 60
     2e6:	c9 15       	cp	r28, r9
     2e8:	0a be       	out	0x3a, r0	; 58
     2ea:	9e 3c       	cpi	r25, 0xCE	; 206
     2ec:	4c 0d       	add	r20, r12
     2ee:	10 9c       	mul	r1, r0
     2f0:	c4 67       	ori	r28, 0x74	; 116
     2f2:	1d 43       	sbci	r17, 0x3D	; 61
     2f4:	b6 42       	sbci	r27, 0x26	; 38
     2f6:	3e cb       	rjmp	.-2436   	; 0xfffff974 <__eeprom_end+0xff7ef974>
     2f8:	be d4       	rcall	.+2428   	; 0xc76 <uECC_vli_cmp_unsafe+0x44>
     2fa:	c5 4c       	sbci	r28, 0xC5	; 197
     2fc:	2a 7e       	andi	r18, 0xEA	; 234
     2fe:	65 fc       	sbrc	r6, 5
     300:	9c 29       	or	r25, r12
     302:	7f 59       	subi	r23, 0x9F	; 159
     304:	ec fa       	.word	0xfaec	; ????
     306:	d6 3a       	cpi	r29, 0xA6	; 166
     308:	ab 6f       	ori	r26, 0xFB	; 251
     30a:	cb 5f       	subi	r28, 0xFB	; 251
     30c:	17 58       	subi	r17, 0x87	; 135
     30e:	47 4a       	sbci	r20, 0xA7	; 167
     310:	8c 19       	sub	r24, r12
     312:	44 6c       	ori	r20, 0xC4	; 196

00000314 <sha512_init_values>:
     314:	08 c9 bc f3 67 e6 09 6a 3b a7 ca 84 85 ae 67 bb     ....g..j;.....g.
     324:	2b f8 94 fe 72 f3 6e 3c f1 36 1d 5f 3a f5 4f a5     +...r.n<.6._:.O.
     334:	d1 82 e6 ad 7f 52 0e 51 1f 6c 3e 2b 8c 68 05 9b     .....R.Q.l>+.h..
     344:	6b bd 41 fb ab d9 83 1f 79 21 7e 13 19 cd e0 5b     k.A.....y!~....[

00000354 <__ctors_end>:
     354:	11 24       	eor	r1, r1
     356:	1f be       	out	0x3f, r1	; 63
     358:	cf ef       	ldi	r28, 0xFF	; 255
     35a:	d0 e1       	ldi	r29, 0x10	; 16
     35c:	de bf       	out	0x3e, r29	; 62
     35e:	cd bf       	out	0x3d, r28	; 61

00000360 <__do_copy_data>:
     360:	13 e0       	ldi	r17, 0x03	; 3
     362:	a0 e0       	ldi	r26, 0x00	; 0
     364:	b1 e0       	ldi	r27, 0x01	; 1
     366:	ec ec       	ldi	r30, 0xCC	; 204
     368:	f2 e4       	ldi	r31, 0x42	; 66
     36a:	00 e0       	ldi	r16, 0x00	; 0
     36c:	0b bf       	out	0x3b, r16	; 59
     36e:	02 c0       	rjmp	.+4      	; 0x374 <__do_copy_data+0x14>
     370:	07 90       	elpm	r0, Z+
     372:	0d 92       	st	X+, r0
     374:	a8 32       	cpi	r26, 0x28	; 40
     376:	b1 07       	cpc	r27, r17
     378:	d9 f7       	brne	.-10     	; 0x370 <__do_copy_data+0x10>

0000037a <__do_clear_bss>:
     37a:	23 e0       	ldi	r18, 0x03	; 3
     37c:	a8 e2       	ldi	r26, 0x28	; 40
     37e:	b3 e0       	ldi	r27, 0x03	; 3
     380:	01 c0       	rjmp	.+2      	; 0x384 <.do_clear_bss_start>

00000382 <.do_clear_bss_loop>:
     382:	1d 92       	st	X+, r1

00000384 <.do_clear_bss_start>:
     384:	ab 32       	cpi	r26, 0x2B	; 43
     386:	b2 07       	cpc	r27, r18
     388:	e1 f7       	brne	.-8      	; 0x382 <.do_clear_bss_loop>
     38a:	0e 94 93 15 	call	0x2b26	; 0x2b26 <main>
     38e:	0c 94 64 21 	jmp	0x42c8	; 0x42c8 <_exit>

00000392 <__bad_interrupt>:
     392:	36 ce       	rjmp	.-916    	; 0x0 <__vectors>

00000394 <can_init>:
void can_init_mask (uint8_t mask){
	CANIDM1 = mask << 5;
	CANIDM2 = mask >> 3;
	// RTRMSK = 0 : We don't use remote frames ever.
	// IDEMSK = 0 : we don't use the extended format.
	CANIDM4 = (0 << RTRMSK) | (0 << IDEMSK);
     394:	cf 93       	push	r28
     396:	df 93       	push	r29
     398:	f8 94       	cli
     39a:	81 e0       	ldi	r24, 0x01	; 1
     39c:	80 93 d8 00 	sts	0x00D8, r24	; 0x8000d8 <__TEXT_REGION_LENGTH__+0x7e00d8>
     3a0:	84 e3       	ldi	r24, 0x34	; 52
     3a2:	80 93 db 00 	sts	0x00DB, r24	; 0x8000db <__TEXT_REGION_LENGTH__+0x7e00db>
     3a6:	10 92 da 00 	sts	0x00DA, r1	; 0x8000da <__TEXT_REGION_LENGTH__+0x7e00da>
     3aa:	80 e0       	ldi	r24, 0x00	; 0
     3ac:	cd ee       	ldi	r28, 0xED	; 237
     3ae:	d0 e0       	ldi	r29, 0x00	; 0
     3b0:	af ee       	ldi	r26, 0xEF	; 239
     3b2:	b0 e0       	ldi	r27, 0x00	; 0
     3b4:	ee ee       	ldi	r30, 0xEE	; 238
     3b6:	f0 e0       	ldi	r31, 0x00	; 0
     3b8:	98 2f       	mov	r25, r24
     3ba:	92 95       	swap	r25
     3bc:	90 7f       	andi	r25, 0xF0	; 240
     3be:	98 83       	st	Y, r25
     3c0:	1c 92       	st	X, r1
     3c2:	10 82       	st	Z, r1
     3c4:	8f 5f       	subi	r24, 0xFF	; 255
     3c6:	8f 30       	cpi	r24, 0x0F	; 15
     3c8:	b9 f7       	brne	.-18     	; 0x3b8 <can_init+0x24>
     3ca:	86 e0       	ldi	r24, 0x06	; 6
     3cc:	80 93 e2 00 	sts	0x00E2, r24	; 0x8000e2 <__TEXT_REGION_LENGTH__+0x7e00e2>
     3d0:	8c e0       	ldi	r24, 0x0C	; 12
     3d2:	80 93 e3 00 	sts	0x00E3, r24	; 0x8000e3 <__TEXT_REGION_LENGTH__+0x7e00e3>
     3d6:	87 e3       	ldi	r24, 0x37	; 55
     3d8:	80 93 e4 00 	sts	0x00E4, r24	; 0x8000e4 <__TEXT_REGION_LENGTH__+0x7e00e4>
     3dc:	10 92 e5 00 	sts	0x00E5, r1	; 0x8000e5 <__TEXT_REGION_LENGTH__+0x7e00e5>
     3e0:	82 e0       	ldi	r24, 0x02	; 2
     3e2:	80 93 d8 00 	sts	0x00D8, r24	; 0x8000d8 <__TEXT_REGION_LENGTH__+0x7e00d8>
     3e6:	78 94       	sei
     3e8:	df 91       	pop	r29
     3ea:	cf 91       	pop	r28
     3ec:	08 95       	ret

000003ee <can_get_message>:
     3ee:	fb 01       	movw	r30, r22
     3f0:	82 95       	swap	r24
     3f2:	80 7f       	andi	r24, 0xF0	; 240
     3f4:	80 93 ed 00 	sts	0x00ED, r24	; 0x8000ed <__TEXT_REGION_LENGTH__+0x7e00ed>
     3f8:	9b 01       	movw	r18, r22
     3fa:	28 5f       	subi	r18, 0xF8	; 248
     3fc:	3f 4f       	sbci	r19, 0xFF	; 255
     3fe:	aa ef       	ldi	r26, 0xFA	; 250
     400:	b0 e0       	ldi	r27, 0x00	; 0
     402:	8c 91       	ld	r24, X
     404:	81 93       	st	Z+, r24
     406:	2e 17       	cp	r18, r30
     408:	3f 07       	cpc	r19, r31
     40a:	d9 f7       	brne	.-10     	; 0x402 <__LOCK_REGION_LENGTH__+0x2>
     40c:	08 95       	ret

0000040e <can_get_frame_buffer>:
     40e:	0f 93       	push	r16
     410:	1f 93       	push	r17
     412:	cf 93       	push	r28
     414:	8c 01       	movw	r16, r24
     416:	c0 e0       	ldi	r28, 0x00	; 0
     418:	b8 01       	movw	r22, r16
     41a:	8c 2f       	mov	r24, r28
     41c:	e8 df       	rcall	.-48     	; 0x3ee <can_get_message>
     41e:	08 5f       	subi	r16, 0xF8	; 248
     420:	1f 4f       	sbci	r17, 0xFF	; 255
     422:	cf 5f       	subi	r28, 0xFF	; 255
     424:	c8 30       	cpi	r28, 0x08	; 8
     426:	c1 f7       	brne	.-16     	; 0x418 <can_get_frame_buffer+0xa>
     428:	cf 91       	pop	r28
     42a:	1f 91       	pop	r17
     42c:	0f 91       	pop	r16
     42e:	08 95       	ret

00000430 <can_init_id>:
     430:	98 2f       	mov	r25, r24
     432:	92 95       	swap	r25
     434:	99 0f       	add	r25, r25
     436:	90 7e       	andi	r25, 0xE0	; 224
     438:	90 93 f2 00 	sts	0x00F2, r25	; 0x8000f2 <__TEXT_REGION_LENGTH__+0x7e00f2>
     43c:	86 95       	lsr	r24
     43e:	86 95       	lsr	r24
     440:	86 95       	lsr	r24
     442:	80 93 f3 00 	sts	0x00F3, r24	; 0x8000f3 <__TEXT_REGION_LENGTH__+0x7e00f3>
     446:	10 92 f0 00 	sts	0x00F0, r1	; 0x8000f0 <__TEXT_REGION_LENGTH__+0x7e00f0>
     44a:	08 95       	ret

0000044c <can_init_mask_def>:
     44c:	8f ef       	ldi	r24, 0xFF	; 255
     44e:	80 93 f7 00 	sts	0x00F7, r24	; 0x8000f7 <__TEXT_REGION_LENGTH__+0x7e00f7>
     452:	80 93 f6 00 	sts	0x00F6, r24	; 0x8000f6 <__TEXT_REGION_LENGTH__+0x7e00f6>
     456:	10 92 f4 00 	sts	0x00F4, r1	; 0x8000f4 <__TEXT_REGION_LENGTH__+0x7e00f4>
     45a:	08 95       	ret

0000045c <can_init_message>:
}

void can_init_message( uint8_t *message ){
     45c:	fc 01       	movw	r30, r24
     45e:	9c 01       	movw	r18, r24
     460:	28 5f       	subi	r18, 0xF8	; 248
     462:	3f 4f       	sbci	r19, 0xFF	; 255
	uint8_t j;
	for(j=0; j<8; j++){
		CANMSG = *message;
     464:	aa ef       	ldi	r26, 0xFA	; 250
     466:	b0 e0       	ldi	r27, 0x00	; 0
     468:	81 91       	ld	r24, Z+
     46a:	8c 93       	st	X, r24
	CANIDM4 = (0 << RTRMSK) | (0 << IDEMSK);
}

void can_init_message( uint8_t *message ){
	uint8_t j;
	for(j=0; j<8; j++){
     46c:	2e 17       	cp	r18, r30
     46e:	3f 07       	cpc	r19, r31
     470:	d9 f7       	brne	.-10     	; 0x468 <can_init_message+0xc>
		CANMSG = *message;
		message++;
	}
}
     472:	08 95       	ret

00000474 <can_send_message>:

int can_send_message( uint8_t mobnr , uint8_t id, uint8_t *message ){
     474:	cf 93       	push	r28
     476:	df 93       	push	r29
     478:	ea 01       	movw	r28, r20
	//select mob.
	CANPAGE = (mobnr << 4);
     47a:	82 95       	swap	r24
     47c:	80 7f       	andi	r24, 0xF0	; 240
     47e:	80 93 ed 00 	sts	0x00ED, r24	; 0x8000ed <__TEXT_REGION_LENGTH__+0x7e00ed>
	//copy ID.
	can_init_id(id);
     482:	86 2f       	mov	r24, r22
     484:	d5 df       	rcall	.-86     	; 0x430 <can_init_id>
	//copy message.
	can_init_message(message);
     486:	ce 01       	movw	r24, r28
     488:	e9 df       	rcall	.-46     	; 0x45c <can_init_message>
	//enable transmission
	CANCDMOB = (1 << CONMOB0) | (1 << DLC3);
     48a:	88 e4       	ldi	r24, 0x48	; 72
     48c:	80 93 ef 00 	sts	0x00EF, r24	; 0x8000ef <__TEXT_REGION_LENGTH__+0x7e00ef>
	
	return 0;
}
     490:	80 e0       	ldi	r24, 0x00	; 0
     492:	90 e0       	ldi	r25, 0x00	; 0
     494:	df 91       	pop	r29
     496:	cf 91       	pop	r28
     498:	08 95       	ret

0000049a <can_receive_message>:

int can_receive_message( uint8_t mobnr, uint8_t id, uint8_t mask, uint8_t *message){
     49a:	ef 92       	push	r14
     49c:	ff 92       	push	r15
     49e:	0f 93       	push	r16
     4a0:	1f 93       	push	r17
     4a2:	cf 93       	push	r28
     4a4:	df 93       	push	r29
     4a6:	08 2f       	mov	r16, r24
     4a8:	86 2f       	mov	r24, r22
     4aa:	79 01       	movw	r14, r18
	CANPAGE = (mobnr << 4);
     4ac:	10 2f       	mov	r17, r16
     4ae:	12 95       	swap	r17
     4b0:	10 7f       	andi	r17, 0xF0	; 240
     4b2:	cd ee       	ldi	r28, 0xED	; 237
     4b4:	d0 e0       	ldi	r29, 0x00	; 0
     4b6:	18 83       	st	Y, r17
	CANIE2 = (1 << mobnr);
     4b8:	21 e0       	ldi	r18, 0x01	; 1
     4ba:	30 e0       	ldi	r19, 0x00	; 0
     4bc:	00 2e       	mov	r0, r16
     4be:	02 c0       	rjmp	.+4      	; 0x4c4 <can_receive_message+0x2a>
     4c0:	22 0f       	add	r18, r18
     4c2:	33 1f       	adc	r19, r19
     4c4:	0a 94       	dec	r0
     4c6:	e2 f7       	brpl	.-8      	; 0x4c0 <can_receive_message+0x26>
     4c8:	20 93 de 00 	sts	0x00DE, r18	; 0x8000de <__TEXT_REGION_LENGTH__+0x7e00de>
	can_init_id(id);
     4cc:	b1 df       	rcall	.-158    	; 0x430 <can_init_id>
	can_init_mask_def();
     4ce:	be df       	rcall	.-132    	; 0x44c <can_init_mask_def>
     4d0:	88 e8       	ldi	r24, 0x88	; 136
	//CAN standard rev 2.0 A (identifiers length = 11 bits)
	CANCDMOB = (1 << CONMOB1) | (1 << DLC3); //enable reception and data length code = 8 bytes
     4d2:	80 93 ef 00 	sts	0x00EF, r24	; 0x8000ef <__TEXT_REGION_LENGTH__+0x7e00ef>
     4d6:	18 83       	st	Y, r17
	
	CANPAGE = (mobnr << 4);
     4d8:	18 83       	st	Y, r17
	CANPAGE = (mobnr << 4);
     4da:	ea ed       	ldi	r30, 0xDA	; 218
	//wait for interrupt
	while((CANGIT & INTR_MASK) != (1 << CANIT));
     4dc:	f0 e0       	ldi	r31, 0x00	; 0
     4de:	80 81       	ld	r24, Z
     4e0:	88 23       	and	r24, r24
     4e2:	ec f7       	brge	.-6      	; 0x4de <can_receive_message+0x44>
     4e4:	80 91 ee 00 	lds	r24, 0x00EE	; 0x8000ee <__TEXT_REGION_LENGTH__+0x7e00ee>
	//check if it is the right interrupt.
	if((CANSTMOB & RXOK_MASK) != (1 << RXOK)) return 1;
     4e8:	85 ff       	sbrs	r24, 5
     4ea:	0e c0       	rjmp	.+28     	; 0x508 <can_receive_message+0x6e>
     4ec:	10 92 ee 00 	sts	0x00EE, r1	; 0x8000ee <__TEXT_REGION_LENGTH__+0x7e00ee>
	//reset mob RXOK flag.
	CANSTMOB = 0x00;
     4f0:	10 92 de 00 	sts	0x00DE, r1	; 0x8000de <__TEXT_REGION_LENGTH__+0x7e00de>
	//reset interrupt enable
	CANIE2 = 0x00;
     4f4:	ea ed       	ldi	r30, 0xDA	; 218
	//reset interrupt register.
	CANGIT = CANGIT;
     4f6:	f0 e0       	ldi	r31, 0x00	; 0
     4f8:	80 81       	ld	r24, Z
     4fa:	80 83       	st	Z, r24
     4fc:	b7 01       	movw	r22, r14
	//retrieve message.
	can_get_message(mobnr, message);
     4fe:	80 2f       	mov	r24, r16
     500:	76 df       	rcall	.-276    	; 0x3ee <can_get_message>
     502:	80 e0       	ldi	r24, 0x00	; 0
	return 0;
     504:	90 e0       	ldi	r25, 0x00	; 0
     506:	02 c0       	rjmp	.+4      	; 0x50c <can_receive_message+0x72>
     508:	81 e0       	ldi	r24, 0x01	; 1
	CANPAGE = (mobnr << 4);
	CANPAGE = (mobnr << 4);
	//wait for interrupt
	while((CANGIT & INTR_MASK) != (1 << CANIT));
	//check if it is the right interrupt.
	if((CANSTMOB & RXOK_MASK) != (1 << RXOK)) return 1;
     50a:	90 e0       	ldi	r25, 0x00	; 0
     50c:	df 91       	pop	r29
	//reset interrupt register.
	CANGIT = CANGIT;
	//retrieve message.
	can_get_message(mobnr, message);
	return 0;
}
     50e:	cf 91       	pop	r28
     510:	1f 91       	pop	r17
     512:	0f 91       	pop	r16
     514:	ff 90       	pop	r15
     516:	ef 90       	pop	r14
     518:	08 95       	ret

0000051a <can_send_frame_buffer>:
     51a:	0f 93       	push	r16

int can_send_frame_buffer( uint8_t *message ){
     51c:	1f 93       	push	r17
     51e:	cf 93       	push	r28
     520:	8c 01       	movw	r16, r24
	uint8_t j;
	for(j=0; j<8; j++){
     522:	c0 e0       	ldi	r28, 0x00	; 0
		can_send_message(j,j,message);
     524:	a8 01       	movw	r20, r16
     526:	6c 2f       	mov	r22, r28
     528:	8c 2f       	mov	r24, r28
     52a:	a4 df       	rcall	.-184    	; 0x474 <can_send_message>
		message = message + 8;
     52c:	08 5f       	subi	r16, 0xF8	; 248
     52e:	1f 4f       	sbci	r17, 0xFF	; 255
	return 0;
}

int can_send_frame_buffer( uint8_t *message ){
	uint8_t j;
	for(j=0; j<8; j++){
     530:	cf 5f       	subi	r28, 0xFF	; 255
     532:	c8 30       	cpi	r28, 0x08	; 8
     534:	b9 f7       	brne	.-18     	; 0x524 <can_send_frame_buffer+0xa>
		can_send_message(j,j,message);
		message = message + 8;
	}
	return 0;
}
     536:	80 e0       	ldi	r24, 0x00	; 0
     538:	90 e0       	ldi	r25, 0x00	; 0
     53a:	cf 91       	pop	r28
     53c:	1f 91       	pop	r17
     53e:	0f 91       	pop	r16
     540:	08 95       	ret

00000542 <can_receive_frame_buffer>:

int can_receive_frame_buffer( uint8_t *message ){
     542:	cf 92       	push	r12
     544:	df 92       	push	r13
     546:	ef 92       	push	r14
     548:	ff 92       	push	r15
     54a:	0f 93       	push	r16
     54c:	1f 93       	push	r17
     54e:	cf 93       	push	r28
     550:	df 93       	push	r29
     552:	7c 01       	movw	r14, r24
	//Enable buffer receive interrupt.
	CANGIE |= 1 << ENBX ;
     554:	eb ed       	ldi	r30, 0xDB	; 219
     556:	f0 e0       	ldi	r31, 0x00	; 0
     558:	80 81       	ld	r24, Z
     55a:	84 60       	ori	r24, 0x04	; 4
     55c:	80 83       	st	Z, r24
	uint8_t j;
	for(j=0; j<8; j++){
     55e:	c0 e0       	ldi	r28, 0x00	; 0
		CANPAGE = (j << 4);
     560:	0f 2e       	mov	r0, r31
     562:	fd ee       	ldi	r31, 0xED	; 237
     564:	cf 2e       	mov	r12, r31
     566:	d1 2c       	mov	r13, r1
     568:	f0 2d       	mov	r31, r0
		can_init_id(j);
		// Mask = 255
		can_init_mask_def();
		//set mob in buffer receive mode.
		CANCDMOB = (1 << CONMOB0) | (1 << CONMOB1) | (1 << DLC3);
     56a:	0f ee       	ldi	r16, 0xEF	; 239
     56c:	10 e0       	ldi	r17, 0x00	; 0
     56e:	d8 ec       	ldi	r29, 0xC8	; 200
int can_receive_frame_buffer( uint8_t *message ){
	//Enable buffer receive interrupt.
	CANGIE |= 1 << ENBX ;
	uint8_t j;
	for(j=0; j<8; j++){
		CANPAGE = (j << 4);
     570:	8c 2f       	mov	r24, r28
     572:	82 95       	swap	r24
     574:	80 7f       	andi	r24, 0xF0	; 240
     576:	f6 01       	movw	r30, r12
     578:	80 83       	st	Z, r24
		can_init_id(j);
     57a:	8c 2f       	mov	r24, r28
     57c:	59 df       	rcall	.-334    	; 0x430 <can_init_id>
		// Mask = 255
		can_init_mask_def();
     57e:	66 df       	rcall	.-308    	; 0x44c <can_init_mask_def>
     580:	f8 01       	movw	r30, r16
		//set mob in buffer receive mode.
		CANCDMOB = (1 << CONMOB0) | (1 << CONMOB1) | (1 << DLC3);
     582:	d0 83       	st	Z, r29
     584:	cf 5f       	subi	r28, 0xFF	; 255

int can_receive_frame_buffer( uint8_t *message ){
	//Enable buffer receive interrupt.
	CANGIE |= 1 << ENBX ;
	uint8_t j;
	for(j=0; j<8; j++){
     586:	c8 30       	cpi	r28, 0x08	; 8
     588:	99 f7       	brne	.-26     	; 0x570 <can_receive_frame_buffer+0x2e>
     58a:	ea ed       	ldi	r30, 0xDA	; 218
		can_init_mask_def();
		//set mob in buffer receive mode.
		CANCDMOB = (1 << CONMOB0) | (1 << CONMOB1) | (1 << DLC3);
	}
	//wait for interrupt.
	while((CANGIT & INTR_MASK) != (1 << CANIT));
     58c:	f0 e0       	ldi	r31, 0x00	; 0
     58e:	80 81       	ld	r24, Z
     590:	88 23       	and	r24, r24
     592:	ec f7       	brge	.-6      	; 0x58e <can_receive_frame_buffer+0x4c>
     594:	80 91 da 00 	lds	r24, 0x00DA	; 0x8000da <__TEXT_REGION_LENGTH__+0x7e00da>
	//Check if interrupt is the right one (BXOK).
	if((CANGIT & BXOK_MASK) != (1 << BXOK)) return 1;
     598:	84 ff       	sbrs	r24, 4
     59a:	19 c0       	rjmp	.+50     	; 0x5ce <can_receive_frame_buffer+0x8c>
     59c:	80 e0       	ldi	r24, 0x00	; 0
     59e:	cd ee       	ldi	r28, 0xED	; 237
	//reset mob RXOK flags
	for(j=0; j<8; j++){
		CANPAGE = (j << 4);
     5a0:	d0 e0       	ldi	r29, 0x00	; 0
     5a2:	af ee       	ldi	r26, 0xEF	; 239
		CANCDMOB = 0x00;
     5a4:	b0 e0       	ldi	r27, 0x00	; 0
     5a6:	ee ee       	ldi	r30, 0xEE	; 238
		CANSTMOB = 0x00;
     5a8:	f0 e0       	ldi	r31, 0x00	; 0
     5aa:	98 2f       	mov	r25, r24
	while((CANGIT & INTR_MASK) != (1 << CANIT));
	//Check if interrupt is the right one (BXOK).
	if((CANGIT & BXOK_MASK) != (1 << BXOK)) return 1;
	//reset mob RXOK flags
	for(j=0; j<8; j++){
		CANPAGE = (j << 4);
     5ac:	92 95       	swap	r25
     5ae:	90 7f       	andi	r25, 0xF0	; 240
     5b0:	98 83       	st	Y, r25
     5b2:	1c 92       	st	X, r1
		CANCDMOB = 0x00;
     5b4:	10 82       	st	Z, r1
		CANSTMOB = 0x00;
     5b6:	8f 5f       	subi	r24, 0xFF	; 255
	//wait for interrupt.
	while((CANGIT & INTR_MASK) != (1 << CANIT));
	//Check if interrupt is the right one (BXOK).
	if((CANGIT & BXOK_MASK) != (1 << BXOK)) return 1;
	//reset mob RXOK flags
	for(j=0; j<8; j++){
     5b8:	88 30       	cpi	r24, 0x08	; 8
     5ba:	b9 f7       	brne	.-18     	; 0x5aa <can_receive_frame_buffer+0x68>
     5bc:	ea ed       	ldi	r30, 0xDA	; 218
		CANPAGE = (j << 4);
		CANCDMOB = 0x00;
		CANSTMOB = 0x00;
	}
	//Reset interrupt register.
	CANGIT = CANGIT;
     5be:	f0 e0       	ldi	r31, 0x00	; 0
     5c0:	80 81       	ld	r24, Z
     5c2:	80 83       	st	Z, r24
	//retrieve message.
	can_get_frame_buffer(message);
     5c4:	c7 01       	movw	r24, r14
     5c6:	23 df       	rcall	.-442    	; 0x40e <can_get_frame_buffer>
     5c8:	80 e0       	ldi	r24, 0x00	; 0
	return 0;
     5ca:	90 e0       	ldi	r25, 0x00	; 0
     5cc:	02 c0       	rjmp	.+4      	; 0x5d2 <can_receive_frame_buffer+0x90>
     5ce:	81 e0       	ldi	r24, 0x01	; 1
		CANCDMOB = (1 << CONMOB0) | (1 << CONMOB1) | (1 << DLC3);
	}
	//wait for interrupt.
	while((CANGIT & INTR_MASK) != (1 << CANIT));
	//Check if interrupt is the right one (BXOK).
	if((CANGIT & BXOK_MASK) != (1 << BXOK)) return 1;
     5d0:	90 e0       	ldi	r25, 0x00	; 0
     5d2:	df 91       	pop	r29
	//Reset interrupt register.
	CANGIT = CANGIT;
	//retrieve message.
	can_get_frame_buffer(message);
	return 0;
}
     5d4:	cf 91       	pop	r28
     5d6:	1f 91       	pop	r17
     5d8:	0f 91       	pop	r16
     5da:	ff 90       	pop	r15
     5dc:	ef 90       	pop	r14
     5de:	df 90       	pop	r13
     5e0:	cf 90       	pop	r12
     5e2:	08 95       	ret

000005e4 <uECC_vli_clear>:
     5e4:	dc 01       	movw	r26, r24
    uECC_vli_nativeToBytes(public_key, curve->num_bytes, _public);
    uECC_vli_nativeToBytes(
        public_key + curve->num_bytes, curve->num_bytes, _public + curve->num_words);
#endif
    return 1;
}
     5e6:	e8 e1       	ldi	r30, 0x18	; 24
     5e8:	f3 e0       	ldi	r31, 0x03	; 3
     5ea:	e6 1b       	sub	r30, r22
     5ec:	f1 09       	sbc	r31, r1
     5ee:	09 94       	ijmp
     5f0:	1d 92       	st	X+, r1
     5f2:	1d 92       	st	X+, r1
     5f4:	1d 92       	st	X+, r1
     5f6:	1d 92       	st	X+, r1
     5f8:	1d 92       	st	X+, r1
     5fa:	1d 92       	st	X+, r1
     5fc:	1d 92       	st	X+, r1
     5fe:	1d 92       	st	X+, r1
     600:	1d 92       	st	X+, r1
     602:	1d 92       	st	X+, r1
     604:	1d 92       	st	X+, r1
     606:	1d 92       	st	X+, r1
     608:	1d 92       	st	X+, r1
     60a:	1d 92       	st	X+, r1
     60c:	1d 92       	st	X+, r1
     60e:	1d 92       	st	X+, r1
     610:	1d 92       	st	X+, r1
     612:	1d 92       	st	X+, r1
     614:	1d 92       	st	X+, r1
     616:	1d 92       	st	X+, r1
     618:	1d 92       	st	X+, r1
     61a:	1d 92       	st	X+, r1
     61c:	1d 92       	st	X+, r1
     61e:	1d 92       	st	X+, r1
     620:	1d 92       	st	X+, r1
     622:	1d 92       	st	X+, r1
     624:	1d 92       	st	X+, r1
     626:	1d 92       	st	X+, r1
     628:	1d 92       	st	X+, r1
     62a:	1d 92       	st	X+, r1
     62c:	1d 92       	st	X+, r1
     62e:	1d 92       	st	X+, r1
     630:	08 95       	ret

00000632 <uECC_vli_set>:
     632:	cf 93       	push	r28
     634:	df 93       	push	r29
     636:	44 0f       	add	r20, r20
     638:	eb 01       	movw	r28, r22
     63a:	dc 01       	movw	r26, r24
     63c:	e3 e6       	ldi	r30, 0x63	; 99
     63e:	f3 e0       	ldi	r31, 0x03	; 3
     640:	e4 1b       	sub	r30, r20
     642:	f1 09       	sbc	r31, r1
     644:	09 94       	ijmp
     646:	09 90       	ld	r0, Y+
     648:	0d 92       	st	X+, r0
     64a:	09 90       	ld	r0, Y+
     64c:	0d 92       	st	X+, r0
     64e:	09 90       	ld	r0, Y+
     650:	0d 92       	st	X+, r0
     652:	09 90       	ld	r0, Y+
     654:	0d 92       	st	X+, r0
     656:	09 90       	ld	r0, Y+
     658:	0d 92       	st	X+, r0
     65a:	09 90       	ld	r0, Y+
     65c:	0d 92       	st	X+, r0
     65e:	09 90       	ld	r0, Y+
     660:	0d 92       	st	X+, r0
     662:	09 90       	ld	r0, Y+
     664:	0d 92       	st	X+, r0
     666:	09 90       	ld	r0, Y+
     668:	0d 92       	st	X+, r0
     66a:	09 90       	ld	r0, Y+
     66c:	0d 92       	st	X+, r0
     66e:	09 90       	ld	r0, Y+
     670:	0d 92       	st	X+, r0
     672:	09 90       	ld	r0, Y+
     674:	0d 92       	st	X+, r0
     676:	09 90       	ld	r0, Y+
     678:	0d 92       	st	X+, r0
     67a:	09 90       	ld	r0, Y+
     67c:	0d 92       	st	X+, r0
     67e:	09 90       	ld	r0, Y+
     680:	0d 92       	st	X+, r0
     682:	09 90       	ld	r0, Y+
     684:	0d 92       	st	X+, r0
     686:	09 90       	ld	r0, Y+
     688:	0d 92       	st	X+, r0
     68a:	09 90       	ld	r0, Y+
     68c:	0d 92       	st	X+, r0
     68e:	09 90       	ld	r0, Y+
     690:	0d 92       	st	X+, r0
     692:	09 90       	ld	r0, Y+
     694:	0d 92       	st	X+, r0
     696:	09 90       	ld	r0, Y+
     698:	0d 92       	st	X+, r0
     69a:	09 90       	ld	r0, Y+
     69c:	0d 92       	st	X+, r0
     69e:	09 90       	ld	r0, Y+
     6a0:	0d 92       	st	X+, r0
     6a2:	09 90       	ld	r0, Y+
     6a4:	0d 92       	st	X+, r0
     6a6:	09 90       	ld	r0, Y+
     6a8:	0d 92       	st	X+, r0
     6aa:	09 90       	ld	r0, Y+
     6ac:	0d 92       	st	X+, r0
     6ae:	09 90       	ld	r0, Y+
     6b0:	0d 92       	st	X+, r0
     6b2:	09 90       	ld	r0, Y+
     6b4:	0d 92       	st	X+, r0
     6b6:	09 90       	ld	r0, Y+
     6b8:	0d 92       	st	X+, r0
     6ba:	09 90       	ld	r0, Y+
     6bc:	0d 92       	st	X+, r0
     6be:	09 90       	ld	r0, Y+
     6c0:	0d 92       	st	X+, r0
     6c2:	09 90       	ld	r0, Y+
     6c4:	0d 92       	st	X+, r0
     6c6:	df 91       	pop	r29
     6c8:	cf 91       	pop	r28
     6ca:	08 95       	ret

000006cc <uECC_vli_rshift1>:
     6cc:	26 2f       	mov	r18, r22
     6ce:	06 2e       	mov	r0, r22
     6d0:	00 0c       	add	r0, r0
     6d2:	33 0b       	sbc	r19, r19
     6d4:	21 50       	subi	r18, 0x01	; 1
     6d6:	31 09       	sbc	r19, r1
     6d8:	32 2f       	mov	r19, r18
     6da:	33 0f       	add	r19, r19
     6dc:	23 0f       	add	r18, r19
     6de:	dc 01       	movw	r26, r24
     6e0:	e7 ed       	ldi	r30, 0xD7	; 215
     6e2:	f3 e0       	ldi	r31, 0x03	; 3
     6e4:	e2 1b       	sub	r30, r18
     6e6:	f1 09       	sbc	r31, r1
     6e8:	a6 0f       	add	r26, r22
     6ea:	b1 1d       	adc	r27, r1
     6ec:	0e 90       	ld	r0, -X
     6ee:	06 94       	lsr	r0
     6f0:	0c 92       	st	X, r0
     6f2:	09 94       	ijmp
     6f4:	0e 90       	ld	r0, -X
     6f6:	07 94       	ror	r0
     6f8:	0c 92       	st	X, r0
     6fa:	0e 90       	ld	r0, -X
     6fc:	07 94       	ror	r0
     6fe:	0c 92       	st	X, r0
     700:	0e 90       	ld	r0, -X
     702:	07 94       	ror	r0
     704:	0c 92       	st	X, r0
     706:	0e 90       	ld	r0, -X
     708:	07 94       	ror	r0
     70a:	0c 92       	st	X, r0
     70c:	0e 90       	ld	r0, -X
     70e:	07 94       	ror	r0
     710:	0c 92       	st	X, r0
     712:	0e 90       	ld	r0, -X
     714:	07 94       	ror	r0
     716:	0c 92       	st	X, r0
     718:	0e 90       	ld	r0, -X
     71a:	07 94       	ror	r0
     71c:	0c 92       	st	X, r0
     71e:	0e 90       	ld	r0, -X
     720:	07 94       	ror	r0
     722:	0c 92       	st	X, r0
     724:	0e 90       	ld	r0, -X
     726:	07 94       	ror	r0
     728:	0c 92       	st	X, r0
     72a:	0e 90       	ld	r0, -X
     72c:	07 94       	ror	r0
     72e:	0c 92       	st	X, r0
     730:	0e 90       	ld	r0, -X
     732:	07 94       	ror	r0
     734:	0c 92       	st	X, r0
     736:	0e 90       	ld	r0, -X
     738:	07 94       	ror	r0
     73a:	0c 92       	st	X, r0
     73c:	0e 90       	ld	r0, -X
     73e:	07 94       	ror	r0
     740:	0c 92       	st	X, r0
     742:	0e 90       	ld	r0, -X
     744:	07 94       	ror	r0
     746:	0c 92       	st	X, r0
     748:	0e 90       	ld	r0, -X
     74a:	07 94       	ror	r0
     74c:	0c 92       	st	X, r0
     74e:	0e 90       	ld	r0, -X
     750:	07 94       	ror	r0
     752:	0c 92       	st	X, r0
     754:	0e 90       	ld	r0, -X
     756:	07 94       	ror	r0
     758:	0c 92       	st	X, r0
     75a:	0e 90       	ld	r0, -X
     75c:	07 94       	ror	r0
     75e:	0c 92       	st	X, r0
     760:	0e 90       	ld	r0, -X
     762:	07 94       	ror	r0
     764:	0c 92       	st	X, r0
     766:	0e 90       	ld	r0, -X
     768:	07 94       	ror	r0
     76a:	0c 92       	st	X, r0
     76c:	0e 90       	ld	r0, -X
     76e:	07 94       	ror	r0
     770:	0c 92       	st	X, r0
     772:	0e 90       	ld	r0, -X
     774:	07 94       	ror	r0
     776:	0c 92       	st	X, r0
     778:	0e 90       	ld	r0, -X
     77a:	07 94       	ror	r0
     77c:	0c 92       	st	X, r0
     77e:	0e 90       	ld	r0, -X
     780:	07 94       	ror	r0
     782:	0c 92       	st	X, r0
     784:	0e 90       	ld	r0, -X
     786:	07 94       	ror	r0
     788:	0c 92       	st	X, r0
     78a:	0e 90       	ld	r0, -X
     78c:	07 94       	ror	r0
     78e:	0c 92       	st	X, r0
     790:	0e 90       	ld	r0, -X
     792:	07 94       	ror	r0
     794:	0c 92       	st	X, r0
     796:	0e 90       	ld	r0, -X
     798:	07 94       	ror	r0
     79a:	0c 92       	st	X, r0
     79c:	0e 90       	ld	r0, -X
     79e:	07 94       	ror	r0
     7a0:	0c 92       	st	X, r0
     7a2:	0e 90       	ld	r0, -X
     7a4:	07 94       	ror	r0
     7a6:	0c 92       	st	X, r0
     7a8:	0e 90       	ld	r0, -X
     7aa:	07 94       	ror	r0
     7ac:	0c 92       	st	X, r0
     7ae:	08 95       	ret

000007b0 <uECC_vli_add>:
     7b0:	cf 93       	push	r28
     7b2:	df 93       	push	r29
     7b4:	22 0f       	add	r18, r18
     7b6:	db 01       	movw	r26, r22
     7b8:	ea 01       	movw	r28, r20
     7ba:	ac 01       	movw	r20, r24
     7bc:	e4 e2       	ldi	r30, 0x24	; 36
     7be:	f4 e0       	ldi	r31, 0x04	; 4
     7c0:	e2 1b       	sub	r30, r18
     7c2:	f1 09       	sbc	r31, r1
     7c4:	88 94       	clc
     7c6:	09 94       	ijmp
     7c8:	fa 01       	movw	r30, r20
     7ca:	3e c0       	rjmp	.+124    	; 0x848 <add_89_32>
     7cc:	fa 01       	movw	r30, r20
     7ce:	40 c0       	rjmp	.+128    	; 0x850 <add_89_31>
     7d0:	fa 01       	movw	r30, r20
     7d2:	42 c0       	rjmp	.+132    	; 0x858 <add_89_30>
     7d4:	fa 01       	movw	r30, r20
     7d6:	44 c0       	rjmp	.+136    	; 0x860 <add_89_29>
     7d8:	fa 01       	movw	r30, r20
     7da:	46 c0       	rjmp	.+140    	; 0x868 <add_89_28>
     7dc:	fa 01       	movw	r30, r20
     7de:	48 c0       	rjmp	.+144    	; 0x870 <add_89_27>
     7e0:	fa 01       	movw	r30, r20
     7e2:	4a c0       	rjmp	.+148    	; 0x878 <add_89_26>
     7e4:	fa 01       	movw	r30, r20
     7e6:	4c c0       	rjmp	.+152    	; 0x880 <add_89_25>
     7e8:	fa 01       	movw	r30, r20
     7ea:	4e c0       	rjmp	.+156    	; 0x888 <add_89_24>
     7ec:	fa 01       	movw	r30, r20
     7ee:	50 c0       	rjmp	.+160    	; 0x890 <add_89_23>
     7f0:	fa 01       	movw	r30, r20
     7f2:	52 c0       	rjmp	.+164    	; 0x898 <add_89_22>
     7f4:	fa 01       	movw	r30, r20
     7f6:	54 c0       	rjmp	.+168    	; 0x8a0 <add_89_21>
     7f8:	fa 01       	movw	r30, r20
     7fa:	56 c0       	rjmp	.+172    	; 0x8a8 <add_89_20>
     7fc:	fa 01       	movw	r30, r20
     7fe:	58 c0       	rjmp	.+176    	; 0x8b0 <add_89_19>
     800:	fa 01       	movw	r30, r20
     802:	5a c0       	rjmp	.+180    	; 0x8b8 <add_89_18>
     804:	fa 01       	movw	r30, r20
     806:	5c c0       	rjmp	.+184    	; 0x8c0 <add_89_17>
     808:	fa 01       	movw	r30, r20
     80a:	5e c0       	rjmp	.+188    	; 0x8c8 <add_89_16>
     80c:	fa 01       	movw	r30, r20
     80e:	60 c0       	rjmp	.+192    	; 0x8d0 <add_89_15>
     810:	fa 01       	movw	r30, r20
     812:	62 c0       	rjmp	.+196    	; 0x8d8 <add_89_14>
     814:	fa 01       	movw	r30, r20
     816:	64 c0       	rjmp	.+200    	; 0x8e0 <add_89_13>
     818:	fa 01       	movw	r30, r20
     81a:	66 c0       	rjmp	.+204    	; 0x8e8 <add_89_12>
     81c:	fa 01       	movw	r30, r20
     81e:	68 c0       	rjmp	.+208    	; 0x8f0 <add_89_11>
     820:	fa 01       	movw	r30, r20
     822:	6a c0       	rjmp	.+212    	; 0x8f8 <add_89_10>
     824:	fa 01       	movw	r30, r20
     826:	6c c0       	rjmp	.+216    	; 0x900 <add_89_9>
     828:	fa 01       	movw	r30, r20
     82a:	6e c0       	rjmp	.+220    	; 0x908 <add_89_8>
     82c:	fa 01       	movw	r30, r20
     82e:	70 c0       	rjmp	.+224    	; 0x910 <add_89_7>
     830:	fa 01       	movw	r30, r20
     832:	72 c0       	rjmp	.+228    	; 0x918 <add_89_6>
     834:	fa 01       	movw	r30, r20
     836:	74 c0       	rjmp	.+232    	; 0x920 <add_89_5>
     838:	fa 01       	movw	r30, r20
     83a:	76 c0       	rjmp	.+236    	; 0x928 <add_89_4>
     83c:	fa 01       	movw	r30, r20
     83e:	78 c0       	rjmp	.+240    	; 0x930 <add_89_3>
     840:	fa 01       	movw	r30, r20
     842:	7a c0       	rjmp	.+244    	; 0x938 <add_89_2>
     844:	fa 01       	movw	r30, r20
     846:	7c c0       	rjmp	.+248    	; 0x940 <add_89_1>

00000848 <add_89_32>:
     848:	8d 91       	ld	r24, X+
     84a:	99 91       	ld	r25, Y+
     84c:	89 1f       	adc	r24, r25
     84e:	81 93       	st	Z+, r24

00000850 <add_89_31>:
     850:	8d 91       	ld	r24, X+
     852:	99 91       	ld	r25, Y+
     854:	89 1f       	adc	r24, r25
     856:	81 93       	st	Z+, r24

00000858 <add_89_30>:
     858:	8d 91       	ld	r24, X+
     85a:	99 91       	ld	r25, Y+
     85c:	89 1f       	adc	r24, r25
     85e:	81 93       	st	Z+, r24

00000860 <add_89_29>:
     860:	8d 91       	ld	r24, X+
     862:	99 91       	ld	r25, Y+
     864:	89 1f       	adc	r24, r25
     866:	81 93       	st	Z+, r24

00000868 <add_89_28>:
     868:	8d 91       	ld	r24, X+
     86a:	99 91       	ld	r25, Y+
     86c:	89 1f       	adc	r24, r25
     86e:	81 93       	st	Z+, r24

00000870 <add_89_27>:
     870:	8d 91       	ld	r24, X+
     872:	99 91       	ld	r25, Y+
     874:	89 1f       	adc	r24, r25
     876:	81 93       	st	Z+, r24

00000878 <add_89_26>:
     878:	8d 91       	ld	r24, X+
     87a:	99 91       	ld	r25, Y+
     87c:	89 1f       	adc	r24, r25
     87e:	81 93       	st	Z+, r24

00000880 <add_89_25>:
     880:	8d 91       	ld	r24, X+
     882:	99 91       	ld	r25, Y+
     884:	89 1f       	adc	r24, r25
     886:	81 93       	st	Z+, r24

00000888 <add_89_24>:
     888:	8d 91       	ld	r24, X+
     88a:	99 91       	ld	r25, Y+
     88c:	89 1f       	adc	r24, r25
     88e:	81 93       	st	Z+, r24

00000890 <add_89_23>:
     890:	8d 91       	ld	r24, X+
     892:	99 91       	ld	r25, Y+
     894:	89 1f       	adc	r24, r25
     896:	81 93       	st	Z+, r24

00000898 <add_89_22>:
     898:	8d 91       	ld	r24, X+
     89a:	99 91       	ld	r25, Y+
     89c:	89 1f       	adc	r24, r25
     89e:	81 93       	st	Z+, r24

000008a0 <add_89_21>:
     8a0:	8d 91       	ld	r24, X+
     8a2:	99 91       	ld	r25, Y+
     8a4:	89 1f       	adc	r24, r25
     8a6:	81 93       	st	Z+, r24

000008a8 <add_89_20>:
     8a8:	8d 91       	ld	r24, X+
     8aa:	99 91       	ld	r25, Y+
     8ac:	89 1f       	adc	r24, r25
     8ae:	81 93       	st	Z+, r24

000008b0 <add_89_19>:
     8b0:	8d 91       	ld	r24, X+
     8b2:	99 91       	ld	r25, Y+
     8b4:	89 1f       	adc	r24, r25
     8b6:	81 93       	st	Z+, r24

000008b8 <add_89_18>:
     8b8:	8d 91       	ld	r24, X+
     8ba:	99 91       	ld	r25, Y+
     8bc:	89 1f       	adc	r24, r25
     8be:	81 93       	st	Z+, r24

000008c0 <add_89_17>:
     8c0:	8d 91       	ld	r24, X+
     8c2:	99 91       	ld	r25, Y+
     8c4:	89 1f       	adc	r24, r25
     8c6:	81 93       	st	Z+, r24

000008c8 <add_89_16>:
     8c8:	8d 91       	ld	r24, X+
     8ca:	99 91       	ld	r25, Y+
     8cc:	89 1f       	adc	r24, r25
     8ce:	81 93       	st	Z+, r24

000008d0 <add_89_15>:
     8d0:	8d 91       	ld	r24, X+
     8d2:	99 91       	ld	r25, Y+
     8d4:	89 1f       	adc	r24, r25
     8d6:	81 93       	st	Z+, r24

000008d8 <add_89_14>:
     8d8:	8d 91       	ld	r24, X+
     8da:	99 91       	ld	r25, Y+
     8dc:	89 1f       	adc	r24, r25
     8de:	81 93       	st	Z+, r24

000008e0 <add_89_13>:
     8e0:	8d 91       	ld	r24, X+
     8e2:	99 91       	ld	r25, Y+
     8e4:	89 1f       	adc	r24, r25
     8e6:	81 93       	st	Z+, r24

000008e8 <add_89_12>:
     8e8:	8d 91       	ld	r24, X+
     8ea:	99 91       	ld	r25, Y+
     8ec:	89 1f       	adc	r24, r25
     8ee:	81 93       	st	Z+, r24

000008f0 <add_89_11>:
     8f0:	8d 91       	ld	r24, X+
     8f2:	99 91       	ld	r25, Y+
     8f4:	89 1f       	adc	r24, r25
     8f6:	81 93       	st	Z+, r24

000008f8 <add_89_10>:
     8f8:	8d 91       	ld	r24, X+
     8fa:	99 91       	ld	r25, Y+
     8fc:	89 1f       	adc	r24, r25
     8fe:	81 93       	st	Z+, r24

00000900 <add_89_9>:
     900:	8d 91       	ld	r24, X+
     902:	99 91       	ld	r25, Y+
     904:	89 1f       	adc	r24, r25
     906:	81 93       	st	Z+, r24

00000908 <add_89_8>:
     908:	8d 91       	ld	r24, X+
     90a:	99 91       	ld	r25, Y+
     90c:	89 1f       	adc	r24, r25
     90e:	81 93       	st	Z+, r24

00000910 <add_89_7>:
     910:	8d 91       	ld	r24, X+
     912:	99 91       	ld	r25, Y+
     914:	89 1f       	adc	r24, r25
     916:	81 93       	st	Z+, r24

00000918 <add_89_6>:
     918:	8d 91       	ld	r24, X+
     91a:	99 91       	ld	r25, Y+
     91c:	89 1f       	adc	r24, r25
     91e:	81 93       	st	Z+, r24

00000920 <add_89_5>:
     920:	8d 91       	ld	r24, X+
     922:	99 91       	ld	r25, Y+
     924:	89 1f       	adc	r24, r25
     926:	81 93       	st	Z+, r24

00000928 <add_89_4>:
     928:	8d 91       	ld	r24, X+
     92a:	99 91       	ld	r25, Y+
     92c:	89 1f       	adc	r24, r25
     92e:	81 93       	st	Z+, r24

00000930 <add_89_3>:
     930:	8d 91       	ld	r24, X+
     932:	99 91       	ld	r25, Y+
     934:	89 1f       	adc	r24, r25
     936:	81 93       	st	Z+, r24

00000938 <add_89_2>:
     938:	8d 91       	ld	r24, X+
     93a:	99 91       	ld	r25, Y+
     93c:	89 1f       	adc	r24, r25
     93e:	81 93       	st	Z+, r24

00000940 <add_89_1>:
     940:	8d 91       	ld	r24, X+
     942:	99 91       	ld	r25, Y+
     944:	89 1f       	adc	r24, r25
     946:	81 93       	st	Z+, r24
     948:	81 2d       	mov	r24, r1
     94a:	88 1f       	adc	r24, r24
     94c:	df 91       	pop	r29
     94e:	cf 91       	pop	r28
     950:	08 95       	ret

00000952 <uECC_vli_sub>:
     952:	cf 93       	push	r28
     954:	df 93       	push	r29
     956:	22 0f       	add	r18, r18
     958:	db 01       	movw	r26, r22
     95a:	ea 01       	movw	r28, r20
     95c:	ac 01       	movw	r20, r24
     95e:	e5 ef       	ldi	r30, 0xF5	; 245
     960:	f4 e0       	ldi	r31, 0x04	; 4
     962:	e2 1b       	sub	r30, r18
     964:	f1 09       	sbc	r31, r1
     966:	88 94       	clc
     968:	09 94       	ijmp
     96a:	fa 01       	movw	r30, r20
     96c:	3e c0       	rjmp	.+124    	; 0x9ea <sub_129_32>
     96e:	fa 01       	movw	r30, r20
     970:	40 c0       	rjmp	.+128    	; 0x9f2 <sub_129_31>
     972:	fa 01       	movw	r30, r20
     974:	42 c0       	rjmp	.+132    	; 0x9fa <sub_129_30>
     976:	fa 01       	movw	r30, r20
     978:	44 c0       	rjmp	.+136    	; 0xa02 <sub_129_29>
     97a:	fa 01       	movw	r30, r20
     97c:	46 c0       	rjmp	.+140    	; 0xa0a <sub_129_28>
     97e:	fa 01       	movw	r30, r20
     980:	48 c0       	rjmp	.+144    	; 0xa12 <sub_129_27>
     982:	fa 01       	movw	r30, r20
     984:	4a c0       	rjmp	.+148    	; 0xa1a <sub_129_26>
     986:	fa 01       	movw	r30, r20
     988:	4c c0       	rjmp	.+152    	; 0xa22 <sub_129_25>
     98a:	fa 01       	movw	r30, r20
     98c:	4e c0       	rjmp	.+156    	; 0xa2a <sub_129_24>
     98e:	fa 01       	movw	r30, r20
     990:	50 c0       	rjmp	.+160    	; 0xa32 <sub_129_23>
     992:	fa 01       	movw	r30, r20
     994:	52 c0       	rjmp	.+164    	; 0xa3a <sub_129_22>
     996:	fa 01       	movw	r30, r20
     998:	54 c0       	rjmp	.+168    	; 0xa42 <sub_129_21>
     99a:	fa 01       	movw	r30, r20
     99c:	56 c0       	rjmp	.+172    	; 0xa4a <sub_129_20>
     99e:	fa 01       	movw	r30, r20
     9a0:	58 c0       	rjmp	.+176    	; 0xa52 <sub_129_19>
     9a2:	fa 01       	movw	r30, r20
     9a4:	5a c0       	rjmp	.+180    	; 0xa5a <sub_129_18>
     9a6:	fa 01       	movw	r30, r20
     9a8:	5c c0       	rjmp	.+184    	; 0xa62 <sub_129_17>
     9aa:	fa 01       	movw	r30, r20
     9ac:	5e c0       	rjmp	.+188    	; 0xa6a <sub_129_16>
     9ae:	fa 01       	movw	r30, r20
     9b0:	60 c0       	rjmp	.+192    	; 0xa72 <sub_129_15>
     9b2:	fa 01       	movw	r30, r20
     9b4:	62 c0       	rjmp	.+196    	; 0xa7a <sub_129_14>
     9b6:	fa 01       	movw	r30, r20
     9b8:	64 c0       	rjmp	.+200    	; 0xa82 <sub_129_13>
     9ba:	fa 01       	movw	r30, r20
     9bc:	66 c0       	rjmp	.+204    	; 0xa8a <sub_129_12>
     9be:	fa 01       	movw	r30, r20
     9c0:	68 c0       	rjmp	.+208    	; 0xa92 <sub_129_11>
     9c2:	fa 01       	movw	r30, r20
     9c4:	6a c0       	rjmp	.+212    	; 0xa9a <sub_129_10>
     9c6:	fa 01       	movw	r30, r20
     9c8:	6c c0       	rjmp	.+216    	; 0xaa2 <sub_129_9>
     9ca:	fa 01       	movw	r30, r20
     9cc:	6e c0       	rjmp	.+220    	; 0xaaa <sub_129_8>
     9ce:	fa 01       	movw	r30, r20
     9d0:	70 c0       	rjmp	.+224    	; 0xab2 <sub_129_7>
     9d2:	fa 01       	movw	r30, r20
     9d4:	72 c0       	rjmp	.+228    	; 0xaba <sub_129_6>
     9d6:	fa 01       	movw	r30, r20
     9d8:	74 c0       	rjmp	.+232    	; 0xac2 <sub_129_5>
     9da:	fa 01       	movw	r30, r20
     9dc:	76 c0       	rjmp	.+236    	; 0xaca <sub_129_4>
     9de:	fa 01       	movw	r30, r20
     9e0:	78 c0       	rjmp	.+240    	; 0xad2 <sub_129_3>
     9e2:	fa 01       	movw	r30, r20
     9e4:	7a c0       	rjmp	.+244    	; 0xada <sub_129_2>
     9e6:	fa 01       	movw	r30, r20
     9e8:	7c c0       	rjmp	.+248    	; 0xae2 <sub_129_1>

000009ea <sub_129_32>:
     9ea:	8d 91       	ld	r24, X+
     9ec:	99 91       	ld	r25, Y+
     9ee:	89 0b       	sbc	r24, r25
     9f0:	81 93       	st	Z+, r24

000009f2 <sub_129_31>:
     9f2:	8d 91       	ld	r24, X+
     9f4:	99 91       	ld	r25, Y+
     9f6:	89 0b       	sbc	r24, r25
     9f8:	81 93       	st	Z+, r24

000009fa <sub_129_30>:
     9fa:	8d 91       	ld	r24, X+
     9fc:	99 91       	ld	r25, Y+
     9fe:	89 0b       	sbc	r24, r25
     a00:	81 93       	st	Z+, r24

00000a02 <sub_129_29>:
     a02:	8d 91       	ld	r24, X+
     a04:	99 91       	ld	r25, Y+
     a06:	89 0b       	sbc	r24, r25
     a08:	81 93       	st	Z+, r24

00000a0a <sub_129_28>:
     a0a:	8d 91       	ld	r24, X+
     a0c:	99 91       	ld	r25, Y+
     a0e:	89 0b       	sbc	r24, r25
     a10:	81 93       	st	Z+, r24

00000a12 <sub_129_27>:
     a12:	8d 91       	ld	r24, X+
     a14:	99 91       	ld	r25, Y+
     a16:	89 0b       	sbc	r24, r25
     a18:	81 93       	st	Z+, r24

00000a1a <sub_129_26>:
     a1a:	8d 91       	ld	r24, X+
     a1c:	99 91       	ld	r25, Y+
     a1e:	89 0b       	sbc	r24, r25
     a20:	81 93       	st	Z+, r24

00000a22 <sub_129_25>:
     a22:	8d 91       	ld	r24, X+
     a24:	99 91       	ld	r25, Y+
     a26:	89 0b       	sbc	r24, r25
     a28:	81 93       	st	Z+, r24

00000a2a <sub_129_24>:
     a2a:	8d 91       	ld	r24, X+
     a2c:	99 91       	ld	r25, Y+
     a2e:	89 0b       	sbc	r24, r25
     a30:	81 93       	st	Z+, r24

00000a32 <sub_129_23>:
     a32:	8d 91       	ld	r24, X+
     a34:	99 91       	ld	r25, Y+
     a36:	89 0b       	sbc	r24, r25
     a38:	81 93       	st	Z+, r24

00000a3a <sub_129_22>:
     a3a:	8d 91       	ld	r24, X+
     a3c:	99 91       	ld	r25, Y+
     a3e:	89 0b       	sbc	r24, r25
     a40:	81 93       	st	Z+, r24

00000a42 <sub_129_21>:
     a42:	8d 91       	ld	r24, X+
     a44:	99 91       	ld	r25, Y+
     a46:	89 0b       	sbc	r24, r25
     a48:	81 93       	st	Z+, r24

00000a4a <sub_129_20>:
     a4a:	8d 91       	ld	r24, X+
     a4c:	99 91       	ld	r25, Y+
     a4e:	89 0b       	sbc	r24, r25
     a50:	81 93       	st	Z+, r24

00000a52 <sub_129_19>:
     a52:	8d 91       	ld	r24, X+
     a54:	99 91       	ld	r25, Y+
     a56:	89 0b       	sbc	r24, r25
     a58:	81 93       	st	Z+, r24

00000a5a <sub_129_18>:
     a5a:	8d 91       	ld	r24, X+
     a5c:	99 91       	ld	r25, Y+
     a5e:	89 0b       	sbc	r24, r25
     a60:	81 93       	st	Z+, r24

00000a62 <sub_129_17>:
     a62:	8d 91       	ld	r24, X+
     a64:	99 91       	ld	r25, Y+
     a66:	89 0b       	sbc	r24, r25
     a68:	81 93       	st	Z+, r24

00000a6a <sub_129_16>:
     a6a:	8d 91       	ld	r24, X+
     a6c:	99 91       	ld	r25, Y+
     a6e:	89 0b       	sbc	r24, r25
     a70:	81 93       	st	Z+, r24

00000a72 <sub_129_15>:
     a72:	8d 91       	ld	r24, X+
     a74:	99 91       	ld	r25, Y+
     a76:	89 0b       	sbc	r24, r25
     a78:	81 93       	st	Z+, r24

00000a7a <sub_129_14>:
     a7a:	8d 91       	ld	r24, X+
     a7c:	99 91       	ld	r25, Y+
     a7e:	89 0b       	sbc	r24, r25
     a80:	81 93       	st	Z+, r24

00000a82 <sub_129_13>:
     a82:	8d 91       	ld	r24, X+
     a84:	99 91       	ld	r25, Y+
     a86:	89 0b       	sbc	r24, r25
     a88:	81 93       	st	Z+, r24

00000a8a <sub_129_12>:
     a8a:	8d 91       	ld	r24, X+
     a8c:	99 91       	ld	r25, Y+
     a8e:	89 0b       	sbc	r24, r25
     a90:	81 93       	st	Z+, r24

00000a92 <sub_129_11>:
     a92:	8d 91       	ld	r24, X+
     a94:	99 91       	ld	r25, Y+
     a96:	89 0b       	sbc	r24, r25
     a98:	81 93       	st	Z+, r24

00000a9a <sub_129_10>:
     a9a:	8d 91       	ld	r24, X+
     a9c:	99 91       	ld	r25, Y+
     a9e:	89 0b       	sbc	r24, r25
     aa0:	81 93       	st	Z+, r24

00000aa2 <sub_129_9>:
     aa2:	8d 91       	ld	r24, X+
     aa4:	99 91       	ld	r25, Y+
     aa6:	89 0b       	sbc	r24, r25
     aa8:	81 93       	st	Z+, r24

00000aaa <sub_129_8>:
     aaa:	8d 91       	ld	r24, X+
     aac:	99 91       	ld	r25, Y+
     aae:	89 0b       	sbc	r24, r25
     ab0:	81 93       	st	Z+, r24

00000ab2 <sub_129_7>:
     ab2:	8d 91       	ld	r24, X+
     ab4:	99 91       	ld	r25, Y+
     ab6:	89 0b       	sbc	r24, r25
     ab8:	81 93       	st	Z+, r24

00000aba <sub_129_6>:
     aba:	8d 91       	ld	r24, X+
     abc:	99 91       	ld	r25, Y+
     abe:	89 0b       	sbc	r24, r25
     ac0:	81 93       	st	Z+, r24

00000ac2 <sub_129_5>:
     ac2:	8d 91       	ld	r24, X+
     ac4:	99 91       	ld	r25, Y+
     ac6:	89 0b       	sbc	r24, r25
     ac8:	81 93       	st	Z+, r24

00000aca <sub_129_4>:
     aca:	8d 91       	ld	r24, X+
     acc:	99 91       	ld	r25, Y+
     ace:	89 0b       	sbc	r24, r25
     ad0:	81 93       	st	Z+, r24

00000ad2 <sub_129_3>:
     ad2:	8d 91       	ld	r24, X+
     ad4:	99 91       	ld	r25, Y+
     ad6:	89 0b       	sbc	r24, r25
     ad8:	81 93       	st	Z+, r24

00000ada <sub_129_2>:
     ada:	8d 91       	ld	r24, X+
     adc:	99 91       	ld	r25, Y+
     ade:	89 0b       	sbc	r24, r25
     ae0:	81 93       	st	Z+, r24

00000ae2 <sub_129_1>:
     ae2:	8d 91       	ld	r24, X+
     ae4:	99 91       	ld	r25, Y+
     ae6:	89 0b       	sbc	r24, r25
     ae8:	81 93       	st	Z+, r24
     aea:	81 2d       	mov	r24, r1
     aec:	88 1f       	adc	r24, r24
     aee:	df 91       	pop	r29
     af0:	cf 91       	pop	r28
     af2:	08 95       	ret

00000af4 <uECC_vli_mult>:
     af4:	cf 93       	push	r28
     af6:	df 93       	push	r29
     af8:	fc 01       	movw	r30, r24
     afa:	db 01       	movw	r26, r22
     afc:	ea 01       	movw	r28, r20
     afe:	90 e0       	ldi	r25, 0x00	; 0
     b00:	89 2f       	mov	r24, r25
     b02:	39 2f       	mov	r19, r25
     b04:	49 2f       	mov	r20, r25
     b06:	51 e0       	ldi	r21, 0x01	; 1
     b08:	60 e0       	ldi	r22, 0x00	; 0
     b0a:	c5 0f       	add	r28, r21
     b0c:	d4 1f       	adc	r29, r20
     b0e:	0d 90       	ld	r0, X+
     b10:	1a 90       	ld	r1, -Y
     b12:	01 9c       	mul	r0, r1
     b14:	90 0d       	add	r25, r0
     b16:	81 1d       	adc	r24, r1
     b18:	34 1f       	adc	r19, r20
     b1a:	63 95       	inc	r22
     b1c:	65 17       	cp	r22, r21
     b1e:	b8 f3       	brcs	.-18     	; 0xb0e <uECC_vli_mult+0x1a>
     b20:	a5 1b       	sub	r26, r21
     b22:	b4 0b       	sbc	r27, r20
     b24:	91 93       	st	Z+, r25
     b26:	98 2f       	mov	r25, r24
     b28:	83 2f       	mov	r24, r19
     b2a:	34 2f       	mov	r19, r20
     b2c:	53 95       	inc	r21
     b2e:	52 17       	cp	r21, r18
     b30:	58 f3       	brcs	.-42     	; 0xb08 <uECC_vli_mult+0x14>
     b32:	52 2f       	mov	r21, r18
     b34:	c2 0f       	add	r28, r18
     b36:	d4 1f       	adc	r29, r20
     b38:	60 e0       	ldi	r22, 0x00	; 0
     b3a:	0d 90       	ld	r0, X+
     b3c:	1a 90       	ld	r1, -Y
     b3e:	01 9c       	mul	r0, r1
     b40:	90 0d       	add	r25, r0
     b42:	81 1d       	adc	r24, r1
     b44:	34 1f       	adc	r19, r20
     b46:	63 95       	inc	r22
     b48:	65 17       	cp	r22, r21
     b4a:	b8 f3       	brcs	.-18     	; 0xb3a <uECC_vli_mult+0x46>
     b4c:	c5 0f       	add	r28, r21
     b4e:	d4 1f       	adc	r29, r20
     b50:	91 93       	st	Z+, r25
     b52:	98 2f       	mov	r25, r24
     b54:	83 2f       	mov	r24, r19
     b56:	34 2f       	mov	r19, r20
     b58:	5a 95       	dec	r21
     b5a:	a5 1b       	sub	r26, r21
     b5c:	b4 0b       	sbc	r27, r20
     b5e:	54 17       	cp	r21, r20
     b60:	59 f7       	brne	.-42     	; 0xb38 <uECC_vli_mult+0x44>
     b62:	91 93       	st	Z+, r25
     b64:	11 24       	eor	r1, r1
     b66:	df 91       	pop	r29
     b68:	cf 91       	pop	r28
     b6a:	08 95       	ret

00000b6c <uECC_vli_isZero>:
     b6c:	16 16       	cp	r1, r22
     b6e:	7c f4       	brge	.+30     	; 0xb8e <uECC_vli_isZero+0x22>
     b70:	fc 01       	movw	r30, r24
     b72:	61 50       	subi	r22, 0x01	; 1
     b74:	46 2f       	mov	r20, r22
     b76:	50 e0       	ldi	r21, 0x00	; 0
     b78:	4f 5f       	subi	r20, 0xFF	; 255
     b7a:	5f 4f       	sbci	r21, 0xFF	; 255
     b7c:	48 0f       	add	r20, r24
     b7e:	59 1f       	adc	r21, r25
     b80:	90 e0       	ldi	r25, 0x00	; 0
     b82:	21 91       	ld	r18, Z+
     b84:	92 2b       	or	r25, r18
     b86:	e4 17       	cp	r30, r20
     b88:	f5 07       	cpc	r31, r21
     b8a:	d9 f7       	brne	.-10     	; 0xb82 <uECC_vli_isZero+0x16>
     b8c:	01 c0       	rjmp	.+2      	; 0xb90 <uECC_vli_isZero+0x24>
     b8e:	90 e0       	ldi	r25, 0x00	; 0
     b90:	81 e0       	ldi	r24, 0x01	; 1
     b92:	91 11       	cpse	r25, r1
     b94:	80 e0       	ldi	r24, 0x00	; 0
     b96:	08 95       	ret

00000b98 <uECC_vli_testBit>:
     b98:	9b 01       	movw	r18, r22
     b9a:	35 95       	asr	r19
     b9c:	27 95       	ror	r18
     b9e:	35 95       	asr	r19
     ba0:	27 95       	ror	r18
     ba2:	35 95       	asr	r19
     ba4:	27 95       	ror	r18
     ba6:	82 0f       	add	r24, r18
     ba8:	93 1f       	adc	r25, r19
     baa:	67 70       	andi	r22, 0x07	; 7
     bac:	77 27       	eor	r23, r23
     bae:	21 e0       	ldi	r18, 0x01	; 1
     bb0:	30 e0       	ldi	r19, 0x00	; 0
     bb2:	02 c0       	rjmp	.+4      	; 0xbb8 <uECC_vli_testBit+0x20>
     bb4:	22 0f       	add	r18, r18
     bb6:	33 1f       	adc	r19, r19
     bb8:	6a 95       	dec	r22
     bba:	e2 f7       	brpl	.-8      	; 0xbb4 <uECC_vli_testBit+0x1c>
     bbc:	fc 01       	movw	r30, r24
     bbe:	80 81       	ld	r24, Z
     bc0:	82 23       	and	r24, r18
     bc2:	08 95       	ret

00000bc4 <uECC_vli_numBits>:
     bc4:	9c 01       	movw	r18, r24
     bc6:	61 50       	subi	r22, 0x01	; 1
     bc8:	92 f0       	brmi	.+36     	; 0xbee <uECC_vli_numBits+0x2a>
     bca:	fc 01       	movw	r30, r24
     bcc:	e6 0f       	add	r30, r22
     bce:	f1 1d       	adc	r31, r1
     bd0:	67 fd       	sbrc	r22, 7
     bd2:	fa 95       	dec	r31
     bd4:	80 81       	ld	r24, Z
     bd6:	81 11       	cpse	r24, r1
     bd8:	0a c0       	rjmp	.+20     	; 0xbee <uECC_vli_numBits+0x2a>
     bda:	61 50       	subi	r22, 0x01	; 1
     bdc:	42 f0       	brmi	.+16     	; 0xbee <uECC_vli_numBits+0x2a>
     bde:	f9 01       	movw	r30, r18
     be0:	e6 0f       	add	r30, r22
     be2:	f1 1d       	adc	r31, r1
     be4:	67 fd       	sbrc	r22, 7
     be6:	fa 95       	dec	r31
     be8:	90 81       	ld	r25, Z
     bea:	99 23       	and	r25, r25
     bec:	b1 f3       	breq	.-20     	; 0xbda <uECC_vli_numBits+0x16>
     bee:	6f 5f       	subi	r22, 0xFF	; 255
     bf0:	e9 f0       	breq	.+58     	; 0xc2c <uECC_vli_numBits+0x68>
     bf2:	26 0f       	add	r18, r22
     bf4:	31 1d       	adc	r19, r1
     bf6:	67 fd       	sbrc	r22, 7
     bf8:	3a 95       	dec	r19
     bfa:	f9 01       	movw	r30, r18
     bfc:	31 97       	sbiw	r30, 0x01	; 1
     bfe:	80 81       	ld	r24, Z
     c00:	88 23       	and	r24, r24
     c02:	31 f0       	breq	.+12     	; 0xc10 <uECC_vli_numBits+0x4c>
     c04:	20 e0       	ldi	r18, 0x00	; 0
     c06:	86 95       	lsr	r24
     c08:	2f 5f       	subi	r18, 0xFF	; 255
     c0a:	81 11       	cpse	r24, r1
     c0c:	fc cf       	rjmp	.-8      	; 0xc06 <uECC_vli_numBits+0x42>
     c0e:	01 c0       	rjmp	.+2      	; 0xc12 <uECC_vli_numBits+0x4e>
     c10:	20 e0       	ldi	r18, 0x00	; 0
     c12:	86 2f       	mov	r24, r22
     c14:	66 0f       	add	r22, r22
     c16:	99 0b       	sbc	r25, r25
     c18:	01 97       	sbiw	r24, 0x01	; 1
     c1a:	88 0f       	add	r24, r24
     c1c:	99 1f       	adc	r25, r25
     c1e:	88 0f       	add	r24, r24
     c20:	99 1f       	adc	r25, r25
     c22:	88 0f       	add	r24, r24
     c24:	99 1f       	adc	r25, r25
     c26:	82 0f       	add	r24, r18
     c28:	91 1d       	adc	r25, r1
     c2a:	08 95       	ret
     c2c:	80 e0       	ldi	r24, 0x00	; 0
     c2e:	90 e0       	ldi	r25, 0x00	; 0
     c30:	08 95       	ret

00000c32 <uECC_vli_cmp_unsafe>:
     c32:	dc 01       	movw	r26, r24
     c34:	41 50       	subi	r20, 0x01	; 1
     c36:	2a f1       	brmi	.+74     	; 0xc82 <uECC_vli_cmp_unsafe+0x50>
     c38:	84 2f       	mov	r24, r20
     c3a:	04 2e       	mov	r0, r20
     c3c:	00 0c       	add	r0, r0
     c3e:	99 0b       	sbc	r25, r25
     c40:	fd 01       	movw	r30, r26
     c42:	e8 0f       	add	r30, r24
     c44:	f9 1f       	adc	r31, r25
     c46:	20 81       	ld	r18, Z
     c48:	fb 01       	movw	r30, r22
     c4a:	e8 0f       	add	r30, r24
     c4c:	f9 1f       	adc	r31, r25
     c4e:	80 81       	ld	r24, Z
     c50:	82 17       	cp	r24, r18
     c52:	c8 f0       	brcs	.+50     	; 0xc86 <uECC_vli_cmp_unsafe+0x54>
     c54:	28 17       	cp	r18, r24
     c56:	88 f4       	brcc	.+34     	; 0xc7a <uECC_vli_cmp_unsafe+0x48>
     c58:	18 c0       	rjmp	.+48     	; 0xc8a <uECC_vli_cmp_unsafe+0x58>
     c5a:	24 2f       	mov	r18, r20
     c5c:	04 2e       	mov	r0, r20
     c5e:	00 0c       	add	r0, r0
     c60:	33 0b       	sbc	r19, r19
     c62:	fd 01       	movw	r30, r26
     c64:	e2 0f       	add	r30, r18
     c66:	f3 1f       	adc	r31, r19
     c68:	50 81       	ld	r21, Z
     c6a:	fb 01       	movw	r30, r22
     c6c:	e2 0f       	add	r30, r18
     c6e:	f3 1f       	adc	r31, r19
     c70:	90 81       	ld	r25, Z
     c72:	95 17       	cp	r25, r21
     c74:	60 f0       	brcs	.+24     	; 0xc8e <uECC_vli_cmp_unsafe+0x5c>
     c76:	59 17       	cp	r21, r25
     c78:	60 f0       	brcs	.+24     	; 0xc92 <uECC_vli_cmp_unsafe+0x60>
     c7a:	41 50       	subi	r20, 0x01	; 1
     c7c:	72 f7       	brpl	.-36     	; 0xc5a <uECC_vli_cmp_unsafe+0x28>
     c7e:	80 e0       	ldi	r24, 0x00	; 0
     c80:	08 95       	ret
     c82:	80 e0       	ldi	r24, 0x00	; 0
     c84:	08 95       	ret
     c86:	81 e0       	ldi	r24, 0x01	; 1
     c88:	08 95       	ret
     c8a:	8f ef       	ldi	r24, 0xFF	; 255
     c8c:	08 95       	ret
     c8e:	81 e0       	ldi	r24, 0x01	; 1
     c90:	08 95       	ret
     c92:	8f ef       	ldi	r24, 0xFF	; 255
     c94:	08 95       	ret

00000c96 <uECC_vli_cmp>:
     c96:	0f 93       	push	r16
     c98:	1f 93       	push	r17
     c9a:	cf 93       	push	r28
     c9c:	df 93       	push	r29
     c9e:	cd b7       	in	r28, 0x3d	; 61
     ca0:	de b7       	in	r29, 0x3e	; 62
     ca2:	a0 97       	sbiw	r28, 0x20	; 32
     ca4:	0f b6       	in	r0, 0x3f	; 63
     ca6:	f8 94       	cli
     ca8:	de bf       	out	0x3e, r29	; 62
     caa:	0f be       	out	0x3f, r0	; 63
     cac:	cd bf       	out	0x3d, r28	; 61
     cae:	14 2f       	mov	r17, r20
     cb0:	24 2f       	mov	r18, r20
     cb2:	ab 01       	movw	r20, r22
     cb4:	bc 01       	movw	r22, r24
     cb6:	ce 01       	movw	r24, r28
     cb8:	01 96       	adiw	r24, 0x01	; 1
     cba:	4b de       	rcall	.-874    	; 0x952 <uECC_vli_sub>
     cbc:	08 2f       	mov	r16, r24
     cbe:	61 2f       	mov	r22, r17
     cc0:	ce 01       	movw	r24, r28
     cc2:	01 96       	adiw	r24, 0x01	; 1
     cc4:	53 df       	rcall	.-346    	; 0xb6c <uECC_vli_isZero>
     cc6:	91 e0       	ldi	r25, 0x01	; 1
     cc8:	81 11       	cpse	r24, r1
     cca:	90 e0       	ldi	r25, 0x00	; 0
     ccc:	81 e0       	ldi	r24, 0x01	; 1
     cce:	01 11       	cpse	r16, r1
     cd0:	01 c0       	rjmp	.+2      	; 0xcd4 <uECC_vli_cmp+0x3e>
     cd2:	80 e0       	ldi	r24, 0x00	; 0
     cd4:	88 0f       	add	r24, r24
     cd6:	98 1b       	sub	r25, r24
     cd8:	89 2f       	mov	r24, r25
     cda:	a0 96       	adiw	r28, 0x20	; 32
     cdc:	0f b6       	in	r0, 0x3f	; 63
     cde:	f8 94       	cli
     ce0:	de bf       	out	0x3e, r29	; 62
     ce2:	0f be       	out	0x3f, r0	; 63
     ce4:	cd bf       	out	0x3d, r28	; 61
     ce6:	df 91       	pop	r29
     ce8:	cf 91       	pop	r28
     cea:	1f 91       	pop	r17
     cec:	0f 91       	pop	r16
     cee:	08 95       	ret

00000cf0 <uECC_vli_modAdd>:
     cf0:	ef 92       	push	r14
     cf2:	ff 92       	push	r15
     cf4:	0f 93       	push	r16
     cf6:	cf 93       	push	r28
     cf8:	df 93       	push	r29
     cfa:	ec 01       	movw	r28, r24
     cfc:	79 01       	movw	r14, r18
     cfe:	20 2f       	mov	r18, r16
     d00:	57 dd       	rcall	.-1362   	; 0x7b0 <uECC_vli_add>
     d02:	81 11       	cpse	r24, r1
     d04:	06 c0       	rjmp	.+12     	; 0xd12 <uECC_vli_modAdd+0x22>
     d06:	40 2f       	mov	r20, r16
     d08:	be 01       	movw	r22, r28
     d0a:	c7 01       	movw	r24, r14
     d0c:	92 df       	rcall	.-220    	; 0xc32 <uECC_vli_cmp_unsafe>
     d0e:	81 30       	cpi	r24, 0x01	; 1
     d10:	29 f0       	breq	.+10     	; 0xd1c <uECC_vli_modAdd+0x2c>
     d12:	20 2f       	mov	r18, r16
     d14:	a7 01       	movw	r20, r14
     d16:	be 01       	movw	r22, r28
     d18:	ce 01       	movw	r24, r28
     d1a:	1b de       	rcall	.-970    	; 0x952 <uECC_vli_sub>
     d1c:	df 91       	pop	r29
     d1e:	cf 91       	pop	r28
     d20:	0f 91       	pop	r16
     d22:	ff 90       	pop	r15
     d24:	ef 90       	pop	r14
     d26:	08 95       	ret

00000d28 <uECC_vli_modSub>:
     d28:	ef 92       	push	r14
     d2a:	ff 92       	push	r15
     d2c:	0f 93       	push	r16
     d2e:	cf 93       	push	r28
     d30:	df 93       	push	r29
     d32:	ec 01       	movw	r28, r24
     d34:	79 01       	movw	r14, r18
     d36:	20 2f       	mov	r18, r16
     d38:	0c de       	rcall	.-1000   	; 0x952 <uECC_vli_sub>
     d3a:	88 23       	and	r24, r24
     d3c:	29 f0       	breq	.+10     	; 0xd48 <uECC_vli_modSub+0x20>
     d3e:	20 2f       	mov	r18, r16
     d40:	a7 01       	movw	r20, r14
     d42:	be 01       	movw	r22, r28
     d44:	ce 01       	movw	r24, r28
     d46:	34 dd       	rcall	.-1432   	; 0x7b0 <uECC_vli_add>
     d48:	df 91       	pop	r29
     d4a:	cf 91       	pop	r28
     d4c:	0f 91       	pop	r16
     d4e:	ff 90       	pop	r15
     d50:	ef 90       	pop	r14
     d52:	08 95       	ret

00000d54 <uECC_vli_modMult>:
     d54:	2f 92       	push	r2
     d56:	3f 92       	push	r3
     d58:	4f 92       	push	r4
     d5a:	5f 92       	push	r5
     d5c:	6f 92       	push	r6
     d5e:	7f 92       	push	r7
     d60:	8f 92       	push	r8
     d62:	9f 92       	push	r9
     d64:	af 92       	push	r10
     d66:	bf 92       	push	r11
     d68:	cf 92       	push	r12
     d6a:	df 92       	push	r13
     d6c:	ef 92       	push	r14
     d6e:	ff 92       	push	r15
     d70:	0f 93       	push	r16
     d72:	1f 93       	push	r17
     d74:	cf 93       	push	r28
     d76:	df 93       	push	r29
     d78:	cd b7       	in	r28, 0x3d	; 61
     d7a:	de b7       	in	r29, 0x3e	; 62
     d7c:	cc 5c       	subi	r28, 0xCC	; 204
     d7e:	d1 09       	sbc	r29, r1
     d80:	0f b6       	in	r0, 0x3f	; 63
     d82:	f8 94       	cli
     d84:	de bf       	out	0x3e, r29	; 62
     d86:	0f be       	out	0x3f, r0	; 63
     d88:	cd bf       	out	0x3d, r28	; 61
     d8a:	c7 53       	subi	r28, 0x37	; 55
     d8c:	df 4f       	sbci	r29, 0xFF	; 255
     d8e:	99 83       	std	Y+1, r25	; 0x01
     d90:	88 83       	st	Y, r24
     d92:	c9 5c       	subi	r28, 0xC9	; 201
     d94:	d0 40       	sbci	r29, 0x00	; 0
     d96:	c2 2e       	mov	r12, r18
     d98:	d3 2e       	mov	r13, r19
     d9a:	a0 2e       	mov	r10, r16
     d9c:	20 2f       	mov	r18, r16
     d9e:	8e 01       	movw	r16, r28
     da0:	0f 5f       	subi	r16, 0xFF	; 255
     da2:	1f 4f       	sbci	r17, 0xFF	; 255
     da4:	c8 01       	movw	r24, r16
     da6:	a6 de       	rcall	.-692    	; 0xaf4 <uECC_vli_mult>
     da8:	ce 01       	movw	r24, r28
     daa:	8f 5b       	subi	r24, 0xBF	; 191
     dac:	9f 4f       	sbci	r25, 0xFF	; 255
     dae:	cf 53       	subi	r28, 0x3F	; 63
     db0:	df 4f       	sbci	r29, 0xFF	; 255
     db2:	99 83       	std	Y+1, r25	; 0x01
     db4:	88 83       	st	Y, r24
     db6:	c1 5c       	subi	r28, 0xC1	; 193
     db8:	d0 40       	sbci	r29, 0x00	; 0
     dba:	cd 53       	subi	r28, 0x3D	; 61
     dbc:	df 4f       	sbci	r29, 0xFF	; 255
     dbe:	19 83       	std	Y+1, r17	; 0x01
     dc0:	08 83       	st	Y, r16
     dc2:	c3 5c       	subi	r28, 0xC3	; 195
     dc4:	d0 40       	sbci	r29, 0x00	; 0
     dc6:	8a 2c       	mov	r8, r10
     dc8:	0a 2c       	mov	r0, r10
     dca:	00 0c       	add	r0, r0
     dcc:	99 08       	sbc	r9, r9
     dce:	6a 2d       	mov	r22, r10
     dd0:	8c 2d       	mov	r24, r12
     dd2:	9d 2d       	mov	r25, r13
     dd4:	f7 de       	rcall	.-530    	; 0xbc4 <uECC_vli_numBits>
     dd6:	34 01       	movw	r6, r8
     dd8:	66 0c       	add	r6, r6
     dda:	77 1c       	adc	r7, r7
     ddc:	66 0c       	add	r6, r6
     dde:	77 1c       	adc	r7, r7
     de0:	66 0c       	add	r6, r6
     de2:	77 1c       	adc	r7, r7
     de4:	66 0c       	add	r6, r6
     de6:	77 1c       	adc	r7, r7
     de8:	68 1a       	sub	r6, r24
     dea:	79 0a       	sbc	r7, r25
     dec:	73 01       	movw	r14, r6
     dee:	1a f4       	brpl	.+6      	; 0xdf6 <uECC_vli_modMult+0xa2>
     df0:	27 e0       	ldi	r18, 0x07	; 7
     df2:	e2 0e       	add	r14, r18
     df4:	f1 1c       	adc	r15, r1
     df6:	f5 94       	asr	r15
     df8:	e7 94       	ror	r14
     dfa:	f5 94       	asr	r15
     dfc:	e7 94       	ror	r14
     dfe:	f5 94       	asr	r15
     e00:	e7 94       	ror	r14
     e02:	c3 01       	movw	r24, r6
     e04:	87 70       	andi	r24, 0x07	; 7
     e06:	90 78       	andi	r25, 0x80	; 128
     e08:	99 23       	and	r25, r25
     e0a:	24 f4       	brge	.+8      	; 0xe14 <uECC_vli_modMult+0xc0>
     e0c:	01 97       	sbiw	r24, 0x01	; 1
     e0e:	88 6f       	ori	r24, 0xF8	; 248
     e10:	9f 6f       	ori	r25, 0xFF	; 255
     e12:	01 96       	adiw	r24, 0x01	; 1
     e14:	18 2f       	mov	r17, r24
     e16:	6e 2d       	mov	r22, r14
     e18:	ce 01       	movw	r24, r28
     e1a:	8f 57       	subi	r24, 0x7F	; 127
     e1c:	9f 4f       	sbci	r25, 0xFF	; 255
     e1e:	e2 db       	rcall	.-2108   	; 0x5e4 <uECC_vli_clear>
     e20:	11 16       	cp	r1, r17
     e22:	c4 f5       	brge	.+112    	; 0xe94 <uECC_vli_modMult+0x140>
     e24:	aa 20       	and	r10, r10
     e26:	09 f4       	brne	.+2      	; 0xe2a <uECC_vli_modMult+0xd6>
     e28:	41 c0       	rjmp	.+130    	; 0xeac <uECC_vli_modMult+0x158>
     e2a:	ac 2d       	mov	r26, r12
     e2c:	bd 2d       	mov	r27, r13
     e2e:	0e 2c       	mov	r0, r14
     e30:	00 0c       	add	r0, r0
     e32:	ff 08       	sbc	r15, r15
     e34:	e1 e8       	ldi	r30, 0x81	; 129
     e36:	f0 e0       	ldi	r31, 0x00	; 0
     e38:	ec 0f       	add	r30, r28
     e3a:	fd 1f       	adc	r31, r29
     e3c:	ee 0d       	add	r30, r14
     e3e:	ff 1d       	adc	r31, r15
     e40:	8f ef       	ldi	r24, 0xFF	; 255
     e42:	8a 0d       	add	r24, r10
     e44:	90 e0       	ldi	r25, 0x00	; 0
     e46:	01 96       	adiw	r24, 0x01	; 1
     e48:	e8 0e       	add	r14, r24
     e4a:	f9 1e       	adc	r15, r25
     e4c:	41 e8       	ldi	r20, 0x81	; 129
     e4e:	50 e0       	ldi	r21, 0x00	; 0
     e50:	4c 0f       	add	r20, r28
     e52:	5d 1f       	adc	r21, r29
     e54:	4e 0d       	add	r20, r14
     e56:	5f 1d       	adc	r21, r15
     e58:	00 e0       	ldi	r16, 0x00	; 0
     e5a:	68 e0       	ldi	r22, 0x08	; 8
     e5c:	70 e0       	ldi	r23, 0x00	; 0
     e5e:	61 1b       	sub	r22, r17
     e60:	71 09       	sbc	r23, r1
     e62:	17 fd       	sbrc	r17, 7
     e64:	73 95       	inc	r23
     e66:	9d 91       	ld	r25, X+
     e68:	89 2f       	mov	r24, r25
     e6a:	90 e0       	ldi	r25, 0x00	; 0
     e6c:	9c 01       	movw	r18, r24
     e6e:	01 2e       	mov	r0, r17
     e70:	02 c0       	rjmp	.+4      	; 0xe76 <uECC_vli_modMult+0x122>
     e72:	22 0f       	add	r18, r18
     e74:	33 1f       	adc	r19, r19
     e76:	0a 94       	dec	r0
     e78:	e2 f7       	brpl	.-8      	; 0xe72 <uECC_vli_modMult+0x11e>
     e7a:	20 2b       	or	r18, r16
     e7c:	21 93       	st	Z+, r18
     e7e:	06 2e       	mov	r0, r22
     e80:	02 c0       	rjmp	.+4      	; 0xe86 <uECC_vli_modMult+0x132>
     e82:	95 95       	asr	r25
     e84:	87 95       	ror	r24
     e86:	0a 94       	dec	r0
     e88:	e2 f7       	brpl	.-8      	; 0xe82 <uECC_vli_modMult+0x12e>
     e8a:	08 2f       	mov	r16, r24
     e8c:	e4 17       	cp	r30, r20
     e8e:	f5 07       	cpc	r31, r21
     e90:	51 f7       	brne	.-44     	; 0xe66 <uECC_vli_modMult+0x112>
     e92:	0c c0       	rjmp	.+24     	; 0xeac <uECC_vli_modMult+0x158>
     e94:	4a 2d       	mov	r20, r10
     e96:	6c 2d       	mov	r22, r12
     e98:	7d 2d       	mov	r23, r13
     e9a:	81 e8       	ldi	r24, 0x81	; 129
     e9c:	90 e0       	ldi	r25, 0x00	; 0
     e9e:	8c 0f       	add	r24, r28
     ea0:	9d 1f       	adc	r25, r29
     ea2:	8e 0d       	add	r24, r14
     ea4:	91 1d       	adc	r25, r1
     ea6:	e7 fc       	sbrc	r14, 7
     ea8:	9a 95       	dec	r25
     eaa:	c3 db       	rcall	.-2170   	; 0x632 <uECC_vli_set>
     eac:	77 20       	and	r7, r7
     eae:	0c f4       	brge	.+2      	; 0xeb2 <uECC_vli_modMult+0x15e>
     eb0:	a6 c0       	rjmp	.+332    	; 0xffe <uECC_vli_modMult+0x2aa>
     eb2:	84 01       	movw	r16, r8
     eb4:	00 0f       	add	r16, r16
     eb6:	11 1f       	adc	r17, r17
     eb8:	bb 24       	eor	r11, r11
     eba:	b3 94       	inc	r11
     ebc:	44 24       	eor	r4, r4
     ebe:	43 94       	inc	r4
     ec0:	51 2c       	mov	r5, r1
     ec2:	7e 01       	movw	r14, r28
     ec4:	31 e8       	ldi	r19, 0x81	; 129
     ec6:	e3 0e       	add	r14, r19
     ec8:	f1 1c       	adc	r15, r1
     eca:	c9 53       	subi	r28, 0x39	; 57
     ecc:	df 4f       	sbci	r29, 0xFF	; 255
     ece:	e8 82       	st	Y, r14
     ed0:	c7 5c       	subi	r28, 0xC7	; 199
     ed2:	d0 40       	sbci	r29, 0x00	; 0
     ed4:	c8 53       	subi	r28, 0x38	; 56
     ed6:	df 4f       	sbci	r29, 0xFF	; 255
     ed8:	f8 82       	st	Y, r15
     eda:	c8 5c       	subi	r28, 0xC8	; 200
     edc:	d0 40       	sbci	r29, 0x00	; 0
     ede:	dd 24       	eor	r13, r13
     ee0:	d3 94       	inc	r13
     ee2:	c1 2c       	mov	r12, r1
     ee4:	c4 01       	movw	r24, r8
     ee6:	01 97       	sbiw	r24, 0x01	; 1
     ee8:	17 01       	movw	r2, r14
     eea:	28 0e       	add	r2, r24
     eec:	39 1e       	adc	r3, r25
     eee:	8e 0c       	add	r8, r14
     ef0:	9f 1c       	adc	r9, r15
     ef2:	c7 01       	movw	r24, r14
     ef4:	8a 0d       	add	r24, r10
     ef6:	91 1d       	adc	r25, r1
     ef8:	a7 fc       	sbrc	r10, 7
     efa:	9a 95       	dec	r25
     efc:	cb 53       	subi	r28, 0x3B	; 59
     efe:	df 4f       	sbci	r29, 0xFF	; 255
     f00:	99 83       	std	Y+1, r25	; 0x01
     f02:	88 83       	st	Y, r24
     f04:	c5 5c       	subi	r28, 0xC5	; 197
     f06:	d0 40       	sbci	r29, 0x00	; 0
     f08:	57 c0       	rjmp	.+174    	; 0xfb8 <uECC_vli_modMult+0x264>
     f0a:	e6 2f       	mov	r30, r22
     f0c:	06 2e       	mov	r0, r22
     f0e:	00 0c       	add	r0, r0
     f10:	ff 0b       	sbc	r31, r31
     f12:	da 01       	movw	r26, r20
     f14:	ae 0f       	add	r26, r30
     f16:	bf 1f       	adc	r27, r31
     f18:	bc 90       	ld	r11, X
     f1a:	c5 53       	subi	r28, 0x35	; 53
     f1c:	df 4f       	sbci	r29, 0xFF	; 255
     f1e:	b8 82       	st	Y, r11
     f20:	cb 5c       	subi	r28, 0xCB	; 203
     f22:	d0 40       	sbci	r29, 0x00	; 0
     f24:	8e 0d       	add	r24, r14
     f26:	9f 1d       	adc	r25, r15
     f28:	dc 01       	movw	r26, r24
     f2a:	8c 91       	ld	r24, X
     f2c:	b8 1a       	sub	r11, r24
     f2e:	8b 2d       	mov	r24, r11
     f30:	87 1b       	sub	r24, r23
     f32:	c5 53       	subi	r28, 0x35	; 53
     f34:	df 4f       	sbci	r29, 0xFF	; 255
     f36:	b8 81       	ld	r27, Y
     f38:	cb 5c       	subi	r28, 0xCB	; 203
     f3a:	d0 40       	sbci	r29, 0x00	; 0
     f3c:	b8 17       	cp	r27, r24
     f3e:	21 f0       	breq	.+8      	; 0xf48 <uECC_vli_modMult+0x1f4>
     f40:	7d 2d       	mov	r23, r13
     f42:	b8 17       	cp	r27, r24
     f44:	08 f0       	brcs	.+2      	; 0xf48 <uECC_vli_modMult+0x1f4>
     f46:	7c 2d       	mov	r23, r12
     f48:	e2 0f       	add	r30, r18
     f4a:	f3 1f       	adc	r31, r19
     f4c:	80 83       	st	Z, r24
     f4e:	6f 5f       	subi	r22, 0xFF	; 255
     f50:	86 2f       	mov	r24, r22
     f52:	06 2e       	mov	r0, r22
     f54:	00 0c       	add	r0, r0
     f56:	99 0b       	sbc	r25, r25
     f58:	80 17       	cp	r24, r16
     f5a:	91 07       	cpc	r25, r17
     f5c:	b4 f2       	brlt	.-84     	; 0xf0a <uECC_vli_modMult+0x1b6>
     f5e:	c4 53       	subi	r28, 0x34	; 52
     f60:	df 4f       	sbci	r29, 0xFF	; 255
     f62:	b8 80       	ld	r11, Y
     f64:	cc 5c       	subi	r28, 0xCC	; 204
     f66:	d0 40       	sbci	r29, 0x00	; 0
     f68:	01 c0       	rjmp	.+2      	; 0xf6c <uECC_vli_modMult+0x218>
     f6a:	70 e0       	ldi	r23, 0x00	; 0
     f6c:	81 e0       	ldi	r24, 0x01	; 1
     f6e:	b7 12       	cpse	r11, r23
     f70:	80 e0       	ldi	r24, 0x00	; 0
     f72:	b8 2e       	mov	r11, r24
     f74:	6a 2d       	mov	r22, r10
     f76:	c9 53       	subi	r28, 0x39	; 57
     f78:	df 4f       	sbci	r29, 0xFF	; 255
     f7a:	88 81       	ld	r24, Y
     f7c:	c7 5c       	subi	r28, 0xC7	; 199
     f7e:	d0 40       	sbci	r29, 0x00	; 0
     f80:	c8 53       	subi	r28, 0x38	; 56
     f82:	df 4f       	sbci	r29, 0xFF	; 255
     f84:	98 81       	ld	r25, Y
     f86:	c8 5c       	subi	r28, 0xC8	; 200
     f88:	d0 40       	sbci	r29, 0x00	; 0
     f8a:	a0 db       	rcall	.-2240   	; 0x6cc <uECC_vli_rshift1>
     f8c:	f4 01       	movw	r30, r8
     f8e:	80 81       	ld	r24, Z
     f90:	f0 e8       	ldi	r31, 0x80	; 128
     f92:	8f 9f       	mul	r24, r31
     f94:	c0 01       	movw	r24, r0
     f96:	11 24       	eor	r1, r1
     f98:	d1 01       	movw	r26, r2
     f9a:	9c 91       	ld	r25, X
     f9c:	89 2b       	or	r24, r25
     f9e:	8c 93       	st	X, r24
     fa0:	6a 2d       	mov	r22, r10
     fa2:	cb 53       	subi	r28, 0x3B	; 59
     fa4:	df 4f       	sbci	r29, 0xFF	; 255
     fa6:	88 81       	ld	r24, Y
     fa8:	99 81       	ldd	r25, Y+1	; 0x01
     faa:	c5 5c       	subi	r28, 0xC5	; 197
     fac:	d0 40       	sbci	r29, 0x00	; 0
     fae:	8e db       	rcall	.-2276   	; 0x6cc <uECC_vli_rshift1>
     fb0:	b1 e0       	ldi	r27, 0x01	; 1
     fb2:	6b 1a       	sub	r6, r27
     fb4:	71 08       	sbc	r7, r1
     fb6:	28 f1       	brcs	.+74     	; 0x1002 <uECC_vli_modMult+0x2ae>
     fb8:	10 16       	cp	r1, r16
     fba:	11 06       	cpc	r1, r17
     fbc:	b4 f6       	brge	.-84     	; 0xf6a <uECC_vli_modMult+0x216>
     fbe:	8b 2d       	mov	r24, r11
     fc0:	90 e0       	ldi	r25, 0x00	; 0
     fc2:	fc 01       	movw	r30, r24
     fc4:	ee 0f       	add	r30, r30
     fc6:	ff 1f       	adc	r31, r31
     fc8:	21 ec       	ldi	r18, 0xC1	; 193
     fca:	30 e0       	ldi	r19, 0x00	; 0
     fcc:	2c 0f       	add	r18, r28
     fce:	3d 1f       	adc	r19, r29
     fd0:	e2 0f       	add	r30, r18
     fd2:	f3 1f       	adc	r31, r19
     fd4:	40 81       	ld	r20, Z
     fd6:	51 81       	ldd	r21, Z+1	; 0x01
     fd8:	f2 01       	movw	r30, r4
     fda:	e8 1b       	sub	r30, r24
     fdc:	f9 0b       	sbc	r31, r25
     fde:	ee 0f       	add	r30, r30
     fe0:	ff 1f       	adc	r31, r31
     fe2:	e2 0f       	add	r30, r18
     fe4:	f3 1f       	adc	r31, r19
     fe6:	20 81       	ld	r18, Z
     fe8:	31 81       	ldd	r19, Z+1	; 0x01
     fea:	70 e0       	ldi	r23, 0x00	; 0
     fec:	80 e0       	ldi	r24, 0x00	; 0
     fee:	90 e0       	ldi	r25, 0x00	; 0
     ff0:	60 e0       	ldi	r22, 0x00	; 0
     ff2:	c4 53       	subi	r28, 0x34	; 52
     ff4:	df 4f       	sbci	r29, 0xFF	; 255
     ff6:	b8 82       	st	Y, r11
     ff8:	cc 5c       	subi	r28, 0xCC	; 204
     ffa:	d0 40       	sbci	r29, 0x00	; 0
     ffc:	86 cf       	rjmp	.-244    	; 0xf0a <uECC_vli_modMult+0x1b6>
     ffe:	bb 24       	eor	r11, r11
    1000:	b3 94       	inc	r11
    1002:	eb 2d       	mov	r30, r11
    1004:	f0 e0       	ldi	r31, 0x00	; 0
    1006:	ee 0f       	add	r30, r30
    1008:	ff 1f       	adc	r31, r31
    100a:	81 ec       	ldi	r24, 0xC1	; 193
    100c:	90 e0       	ldi	r25, 0x00	; 0
    100e:	8c 0f       	add	r24, r28
    1010:	9d 1f       	adc	r25, r29
    1012:	e8 0f       	add	r30, r24
    1014:	f9 1f       	adc	r31, r25
    1016:	60 81       	ld	r22, Z
    1018:	71 81       	ldd	r23, Z+1	; 0x01
    101a:	4a 2d       	mov	r20, r10
    101c:	c7 53       	subi	r28, 0x37	; 55
    101e:	df 4f       	sbci	r29, 0xFF	; 255
    1020:	88 81       	ld	r24, Y
    1022:	99 81       	ldd	r25, Y+1	; 0x01
    1024:	c9 5c       	subi	r28, 0xC9	; 201
    1026:	d0 40       	sbci	r29, 0x00	; 0
    1028:	04 db       	rcall	.-2552   	; 0x632 <uECC_vli_set>
    102a:	c4 53       	subi	r28, 0x34	; 52
    102c:	df 4f       	sbci	r29, 0xFF	; 255
    102e:	0f b6       	in	r0, 0x3f	; 63
    1030:	f8 94       	cli
    1032:	de bf       	out	0x3e, r29	; 62
    1034:	0f be       	out	0x3f, r0	; 63
    1036:	cd bf       	out	0x3d, r28	; 61
    1038:	df 91       	pop	r29
    103a:	cf 91       	pop	r28
    103c:	1f 91       	pop	r17
    103e:	0f 91       	pop	r16
    1040:	ff 90       	pop	r15
    1042:	ef 90       	pop	r14
    1044:	df 90       	pop	r13
    1046:	cf 90       	pop	r12
    1048:	bf 90       	pop	r11
    104a:	af 90       	pop	r10
    104c:	9f 90       	pop	r9
    104e:	8f 90       	pop	r8
    1050:	7f 90       	pop	r7
    1052:	6f 90       	pop	r6
    1054:	5f 90       	pop	r5
    1056:	4f 90       	pop	r4
    1058:	3f 90       	pop	r3
    105a:	2f 90       	pop	r2
    105c:	08 95       	ret

0000105e <uECC_vli_modMult_fast>:
    105e:	ef 92       	push	r14
    1060:	ff 92       	push	r15
    1062:	0f 93       	push	r16
    1064:	1f 93       	push	r17
    1066:	cf 93       	push	r28
    1068:	df 93       	push	r29
    106a:	cd b7       	in	r28, 0x3d	; 61
    106c:	de b7       	in	r29, 0x3e	; 62
    106e:	c0 54       	subi	r28, 0x40	; 64
    1070:	d1 09       	sbc	r29, r1
    1072:	0f b6       	in	r0, 0x3f	; 63
    1074:	f8 94       	cli
    1076:	de bf       	out	0x3e, r29	; 62
    1078:	0f be       	out	0x3f, r0	; 63
    107a:	cd bf       	out	0x3d, r28	; 61
    107c:	7c 01       	movw	r14, r24
    107e:	89 01       	movw	r16, r18
    1080:	f9 01       	movw	r30, r18
    1082:	20 81       	ld	r18, Z
    1084:	ce 01       	movw	r24, r28
    1086:	01 96       	adiw	r24, 0x01	; 1
    1088:	35 dd       	rcall	.-1430   	; 0xaf4 <uECC_vli_mult>
    108a:	f8 01       	movw	r30, r16
    108c:	e6 55       	subi	r30, 0x56	; 86
    108e:	ff 4f       	sbci	r31, 0xFF	; 255
    1090:	01 90       	ld	r0, Z+
    1092:	f0 81       	ld	r31, Z
    1094:	e0 2d       	mov	r30, r0
    1096:	be 01       	movw	r22, r28
    1098:	6f 5f       	subi	r22, 0xFF	; 255
    109a:	7f 4f       	sbci	r23, 0xFF	; 255
    109c:	c7 01       	movw	r24, r14
    109e:	09 95       	icall
    10a0:	c0 5c       	subi	r28, 0xC0	; 192
    10a2:	df 4f       	sbci	r29, 0xFF	; 255
    10a4:	0f b6       	in	r0, 0x3f	; 63
    10a6:	f8 94       	cli
    10a8:	de bf       	out	0x3e, r29	; 62
    10aa:	0f be       	out	0x3f, r0	; 63
    10ac:	cd bf       	out	0x3d, r28	; 61
    10ae:	df 91       	pop	r29
    10b0:	cf 91       	pop	r28
    10b2:	1f 91       	pop	r17
    10b4:	0f 91       	pop	r16
    10b6:	ff 90       	pop	r15
    10b8:	ef 90       	pop	r14
    10ba:	08 95       	ret

000010bc <uECC_vli_modSquare_fast>:
    10bc:	9a 01       	movw	r18, r20
    10be:	ab 01       	movw	r20, r22
    10c0:	ce cf       	rjmp	.-100    	; 0x105e <uECC_vli_modMult_fast>
    10c2:	08 95       	ret

000010c4 <vli_modInv_update>:
    10c4:	0f 93       	push	r16
    10c6:	1f 93       	push	r17
    10c8:	cf 93       	push	r28
    10ca:	df 93       	push	r29
    10cc:	8c 01       	movw	r16, r24
    10ce:	c4 2f       	mov	r28, r20
    10d0:	fc 01       	movw	r30, r24
    10d2:	80 81       	ld	r24, Z
    10d4:	80 ff       	sbrs	r24, 0
    10d6:	15 c0       	rjmp	.+42     	; 0x1102 <__stack+0x3>
    10d8:	24 2f       	mov	r18, r20
    10da:	ab 01       	movw	r20, r22
    10dc:	b8 01       	movw	r22, r16
    10de:	c8 01       	movw	r24, r16
    10e0:	67 db       	rcall	.-2354   	; 0x7b0 <uECC_vli_add>
    10e2:	d8 2f       	mov	r29, r24
    10e4:	6c 2f       	mov	r22, r28
    10e6:	c8 01       	movw	r24, r16
    10e8:	f1 da       	rcall	.-2590   	; 0x6cc <uECC_vli_rshift1>
    10ea:	dd 23       	and	r29, r29
    10ec:	69 f0       	breq	.+26     	; 0x1108 <__stack+0x9>
    10ee:	ec 2f       	mov	r30, r28
    10f0:	cc 0f       	add	r28, r28
    10f2:	ff 0b       	sbc	r31, r31
    10f4:	31 97       	sbiw	r30, 0x01	; 1
    10f6:	e0 0f       	add	r30, r16
    10f8:	f1 1f       	adc	r31, r17
    10fa:	80 81       	ld	r24, Z
    10fc:	80 68       	ori	r24, 0x80	; 128
    10fe:	80 83       	st	Z, r24
    1100:	03 c0       	rjmp	.+6      	; 0x1108 <__stack+0x9>
    1102:	64 2f       	mov	r22, r20
    1104:	c8 01       	movw	r24, r16
    1106:	e2 da       	rcall	.-2620   	; 0x6cc <uECC_vli_rshift1>
    1108:	df 91       	pop	r29
    110a:	cf 91       	pop	r28
    110c:	1f 91       	pop	r17
    110e:	0f 91       	pop	r16
    1110:	08 95       	ret

00001112 <uECC_vli_modInv>:
    1112:	af 92       	push	r10
    1114:	bf 92       	push	r11
    1116:	cf 92       	push	r12
    1118:	df 92       	push	r13
    111a:	ef 92       	push	r14
    111c:	ff 92       	push	r15
    111e:	1f 93       	push	r17
    1120:	cf 93       	push	r28
    1122:	df 93       	push	r29
    1124:	cd b7       	in	r28, 0x3d	; 61
    1126:	de b7       	in	r29, 0x3e	; 62
    1128:	c0 58       	subi	r28, 0x80	; 128
    112a:	d1 09       	sbc	r29, r1
    112c:	0f b6       	in	r0, 0x3f	; 63
    112e:	f8 94       	cli
    1130:	de bf       	out	0x3e, r29	; 62
    1132:	0f be       	out	0x3f, r0	; 63
    1134:	cd bf       	out	0x3d, r28	; 61
    1136:	5c 01       	movw	r10, r24
    1138:	6b 01       	movw	r12, r22
    113a:	7a 01       	movw	r14, r20
    113c:	12 2f       	mov	r17, r18
    113e:	62 2f       	mov	r22, r18
    1140:	c6 01       	movw	r24, r12
    1142:	14 dd       	rcall	.-1496   	; 0xb6c <uECC_vli_isZero>
    1144:	88 23       	and	r24, r24
    1146:	21 f0       	breq	.+8      	; 0x1150 <uECC_vli_modInv+0x3e>
    1148:	61 2f       	mov	r22, r17
    114a:	c5 01       	movw	r24, r10
    114c:	4b da       	rcall	.-2922   	; 0x5e4 <uECC_vli_clear>
    114e:	a1 c0       	rjmp	.+322    	; 0x1292 <uECC_vli_modInv+0x180>
    1150:	41 2f       	mov	r20, r17
    1152:	b6 01       	movw	r22, r12
    1154:	ce 01       	movw	r24, r28
    1156:	01 96       	adiw	r24, 0x01	; 1
    1158:	6c da       	rcall	.-2856   	; 0x632 <uECC_vli_set>
    115a:	41 2f       	mov	r20, r17
    115c:	b7 01       	movw	r22, r14
    115e:	ce 01       	movw	r24, r28
    1160:	81 96       	adiw	r24, 0x21	; 33
    1162:	67 da       	rcall	.-2866   	; 0x632 <uECC_vli_set>
    1164:	61 2f       	mov	r22, r17
    1166:	ce 01       	movw	r24, r28
    1168:	8f 5b       	subi	r24, 0xBF	; 191
    116a:	9f 4f       	sbci	r25, 0xFF	; 255
    116c:	3b da       	rcall	.-2954   	; 0x5e4 <uECC_vli_clear>
    116e:	81 e0       	ldi	r24, 0x01	; 1
    1170:	22 96       	adiw	r28, 0x02	; 2
    1172:	8f af       	std	Y+63, r24	; 0x3f
    1174:	22 97       	sbiw	r28, 0x02	; 2
    1176:	61 2f       	mov	r22, r17
    1178:	ce 01       	movw	r24, r28
    117a:	8f 59       	subi	r24, 0x9F	; 159
    117c:	9f 4f       	sbci	r25, 0xFF	; 255
    117e:	32 da       	rcall	.-2972   	; 0x5e4 <uECC_vli_clear>
    1180:	79 c0       	rjmp	.+242    	; 0x1274 <uECC_vli_modInv+0x162>
    1182:	99 81       	ldd	r25, Y+1	; 0x01
    1184:	90 fd       	sbrc	r25, 0
    1186:	0b c0       	rjmp	.+22     	; 0x119e <uECC_vli_modInv+0x8c>
    1188:	61 2f       	mov	r22, r17
    118a:	ce 01       	movw	r24, r28
    118c:	01 96       	adiw	r24, 0x01	; 1
    118e:	9e da       	rcall	.-2756   	; 0x6cc <uECC_vli_rshift1>
    1190:	41 2f       	mov	r20, r17
    1192:	b7 01       	movw	r22, r14
    1194:	ce 01       	movw	r24, r28
    1196:	8f 5b       	subi	r24, 0xBF	; 191
    1198:	9f 4f       	sbci	r25, 0xFF	; 255
    119a:	94 df       	rcall	.-216    	; 0x10c4 <vli_modInv_update>
    119c:	6b c0       	rjmp	.+214    	; 0x1274 <uECC_vli_modInv+0x162>
    119e:	99 a1       	ldd	r25, Y+33	; 0x21
    11a0:	90 fd       	sbrc	r25, 0
    11a2:	0b c0       	rjmp	.+22     	; 0x11ba <uECC_vli_modInv+0xa8>
    11a4:	61 2f       	mov	r22, r17
    11a6:	ce 01       	movw	r24, r28
    11a8:	81 96       	adiw	r24, 0x21	; 33
    11aa:	90 da       	rcall	.-2784   	; 0x6cc <uECC_vli_rshift1>
    11ac:	41 2f       	mov	r20, r17
    11ae:	b7 01       	movw	r22, r14
    11b0:	ce 01       	movw	r24, r28
    11b2:	8f 59       	subi	r24, 0x9F	; 159
    11b4:	9f 4f       	sbci	r25, 0xFF	; 255
    11b6:	86 df       	rcall	.-244    	; 0x10c4 <vli_modInv_update>
    11b8:	5d c0       	rjmp	.+186    	; 0x1274 <uECC_vli_modInv+0x162>
    11ba:	18 16       	cp	r1, r24
    11bc:	74 f5       	brge	.+92     	; 0x121a <uECC_vli_modInv+0x108>
    11be:	21 2f       	mov	r18, r17
    11c0:	ae 01       	movw	r20, r28
    11c2:	4f 5d       	subi	r20, 0xDF	; 223
    11c4:	5f 4f       	sbci	r21, 0xFF	; 255
    11c6:	be 01       	movw	r22, r28
    11c8:	6f 5f       	subi	r22, 0xFF	; 255
    11ca:	7f 4f       	sbci	r23, 0xFF	; 255
    11cc:	cb 01       	movw	r24, r22
    11ce:	c1 db       	rcall	.-2174   	; 0x952 <uECC_vli_sub>
    11d0:	61 2f       	mov	r22, r17
    11d2:	ce 01       	movw	r24, r28
    11d4:	01 96       	adiw	r24, 0x01	; 1
    11d6:	7a da       	rcall	.-2828   	; 0x6cc <uECC_vli_rshift1>
    11d8:	41 2f       	mov	r20, r17
    11da:	be 01       	movw	r22, r28
    11dc:	6f 59       	subi	r22, 0x9F	; 159
    11de:	7f 4f       	sbci	r23, 0xFF	; 255
    11e0:	ce 01       	movw	r24, r28
    11e2:	8f 5b       	subi	r24, 0xBF	; 191
    11e4:	9f 4f       	sbci	r25, 0xFF	; 255
    11e6:	25 dd       	rcall	.-1462   	; 0xc32 <uECC_vli_cmp_unsafe>
    11e8:	88 23       	and	r24, r24
    11ea:	3c f4       	brge	.+14     	; 0x11fa <uECC_vli_modInv+0xe8>
    11ec:	21 2f       	mov	r18, r17
    11ee:	a7 01       	movw	r20, r14
    11f0:	be 01       	movw	r22, r28
    11f2:	6f 5b       	subi	r22, 0xBF	; 191
    11f4:	7f 4f       	sbci	r23, 0xFF	; 255
    11f6:	cb 01       	movw	r24, r22
    11f8:	db da       	rcall	.-2634   	; 0x7b0 <uECC_vli_add>
    11fa:	21 2f       	mov	r18, r17
    11fc:	ae 01       	movw	r20, r28
    11fe:	4f 59       	subi	r20, 0x9F	; 159
    1200:	5f 4f       	sbci	r21, 0xFF	; 255
    1202:	be 01       	movw	r22, r28
    1204:	6f 5b       	subi	r22, 0xBF	; 191
    1206:	7f 4f       	sbci	r23, 0xFF	; 255
    1208:	cb 01       	movw	r24, r22
    120a:	a3 db       	rcall	.-2234   	; 0x952 <uECC_vli_sub>
    120c:	41 2f       	mov	r20, r17
    120e:	b7 01       	movw	r22, r14
    1210:	ce 01       	movw	r24, r28
    1212:	8f 5b       	subi	r24, 0xBF	; 191
    1214:	9f 4f       	sbci	r25, 0xFF	; 255
    1216:	56 df       	rcall	.-340    	; 0x10c4 <vli_modInv_update>
    1218:	2d c0       	rjmp	.+90     	; 0x1274 <uECC_vli_modInv+0x162>
    121a:	21 2f       	mov	r18, r17
    121c:	ae 01       	movw	r20, r28
    121e:	4f 5f       	subi	r20, 0xFF	; 255
    1220:	5f 4f       	sbci	r21, 0xFF	; 255
    1222:	be 01       	movw	r22, r28
    1224:	6f 5d       	subi	r22, 0xDF	; 223
    1226:	7f 4f       	sbci	r23, 0xFF	; 255
    1228:	cb 01       	movw	r24, r22
    122a:	93 db       	rcall	.-2266   	; 0x952 <uECC_vli_sub>
    122c:	61 2f       	mov	r22, r17
    122e:	ce 01       	movw	r24, r28
    1230:	81 96       	adiw	r24, 0x21	; 33
    1232:	4c da       	rcall	.-2920   	; 0x6cc <uECC_vli_rshift1>
    1234:	41 2f       	mov	r20, r17
    1236:	be 01       	movw	r22, r28
    1238:	6f 5b       	subi	r22, 0xBF	; 191
    123a:	7f 4f       	sbci	r23, 0xFF	; 255
    123c:	ce 01       	movw	r24, r28
    123e:	8f 59       	subi	r24, 0x9F	; 159
    1240:	9f 4f       	sbci	r25, 0xFF	; 255
    1242:	f7 dc       	rcall	.-1554   	; 0xc32 <uECC_vli_cmp_unsafe>
    1244:	88 23       	and	r24, r24
    1246:	3c f4       	brge	.+14     	; 0x1256 <uECC_vli_modInv+0x144>
    1248:	21 2f       	mov	r18, r17
    124a:	a7 01       	movw	r20, r14
    124c:	be 01       	movw	r22, r28
    124e:	6f 59       	subi	r22, 0x9F	; 159
    1250:	7f 4f       	sbci	r23, 0xFF	; 255
    1252:	cb 01       	movw	r24, r22
    1254:	ad da       	rcall	.-2726   	; 0x7b0 <uECC_vli_add>
    1256:	21 2f       	mov	r18, r17
    1258:	ae 01       	movw	r20, r28
    125a:	4f 5b       	subi	r20, 0xBF	; 191
    125c:	5f 4f       	sbci	r21, 0xFF	; 255
    125e:	be 01       	movw	r22, r28
    1260:	6f 59       	subi	r22, 0x9F	; 159
    1262:	7f 4f       	sbci	r23, 0xFF	; 255
    1264:	cb 01       	movw	r24, r22
    1266:	75 db       	rcall	.-2326   	; 0x952 <uECC_vli_sub>
    1268:	41 2f       	mov	r20, r17
    126a:	b7 01       	movw	r22, r14
    126c:	ce 01       	movw	r24, r28
    126e:	8f 59       	subi	r24, 0x9F	; 159
    1270:	9f 4f       	sbci	r25, 0xFF	; 255
    1272:	28 df       	rcall	.-432    	; 0x10c4 <vli_modInv_update>
    1274:	41 2f       	mov	r20, r17
    1276:	be 01       	movw	r22, r28
    1278:	6f 5d       	subi	r22, 0xDF	; 223
    127a:	7f 4f       	sbci	r23, 0xFF	; 255
    127c:	ce 01       	movw	r24, r28
    127e:	01 96       	adiw	r24, 0x01	; 1
    1280:	d8 dc       	rcall	.-1616   	; 0xc32 <uECC_vli_cmp_unsafe>
    1282:	81 11       	cpse	r24, r1
    1284:	7e cf       	rjmp	.-260    	; 0x1182 <uECC_vli_modInv+0x70>
    1286:	41 2f       	mov	r20, r17
    1288:	be 01       	movw	r22, r28
    128a:	6f 5b       	subi	r22, 0xBF	; 191
    128c:	7f 4f       	sbci	r23, 0xFF	; 255
    128e:	c5 01       	movw	r24, r10
    1290:	d0 d9       	rcall	.-3168   	; 0x632 <uECC_vli_set>
    1292:	c0 58       	subi	r28, 0x80	; 128
    1294:	df 4f       	sbci	r29, 0xFF	; 255
    1296:	0f b6       	in	r0, 0x3f	; 63
    1298:	f8 94       	cli
    129a:	de bf       	out	0x3e, r29	; 62
    129c:	0f be       	out	0x3f, r0	; 63
    129e:	cd bf       	out	0x3d, r28	; 61
    12a0:	df 91       	pop	r29
    12a2:	cf 91       	pop	r28
    12a4:	1f 91       	pop	r17
    12a6:	ff 90       	pop	r15
    12a8:	ef 90       	pop	r14
    12aa:	df 90       	pop	r13
    12ac:	cf 90       	pop	r12
    12ae:	bf 90       	pop	r11
    12b0:	af 90       	pop	r10
    12b2:	08 95       	ret

000012b4 <double_jacobian_default>:
    12b4:	6f 92       	push	r6
    12b6:	7f 92       	push	r7
    12b8:	8f 92       	push	r8
    12ba:	9f 92       	push	r9
    12bc:	af 92       	push	r10
    12be:	bf 92       	push	r11
    12c0:	cf 92       	push	r12
    12c2:	df 92       	push	r13
    12c4:	ef 92       	push	r14
    12c6:	ff 92       	push	r15
    12c8:	0f 93       	push	r16
    12ca:	1f 93       	push	r17
    12cc:	cf 93       	push	r28
    12ce:	df 93       	push	r29
    12d0:	cd b7       	in	r28, 0x3d	; 61
    12d2:	de b7       	in	r29, 0x3e	; 62
    12d4:	c0 54       	subi	r28, 0x40	; 64
    12d6:	d1 09       	sbc	r29, r1
    12d8:	0f b6       	in	r0, 0x3f	; 63
    12da:	f8 94       	cli
    12dc:	de bf       	out	0x3e, r29	; 62
    12de:	0f be       	out	0x3f, r0	; 63
    12e0:	cd bf       	out	0x3d, r28	; 61
    12e2:	6c 01       	movw	r12, r24
    12e4:	3b 01       	movw	r6, r22
    12e6:	7a 01       	movw	r14, r20
    12e8:	59 01       	movw	r10, r18
    12ea:	f9 01       	movw	r30, r18
    12ec:	10 81       	ld	r17, Z
    12ee:	61 2f       	mov	r22, r17
    12f0:	ca 01       	movw	r24, r20
    12f2:	3c dc       	rcall	.-1928   	; 0xb6c <uECC_vli_isZero>
    12f4:	81 11       	cpse	r24, r1
    12f6:	96 c0       	rjmp	.+300    	; 0x1424 <double_jacobian_default+0x170>
    12f8:	a5 01       	movw	r20, r10
    12fa:	b3 01       	movw	r22, r6
    12fc:	ce 01       	movw	r24, r28
    12fe:	01 96       	adiw	r24, 0x01	; 1
    1300:	dd de       	rcall	.-582    	; 0x10bc <uECC_vli_modSquare_fast>
    1302:	95 01       	movw	r18, r10
    1304:	ae 01       	movw	r20, r28
    1306:	4f 5f       	subi	r20, 0xFF	; 255
    1308:	5f 4f       	sbci	r21, 0xFF	; 255
    130a:	b6 01       	movw	r22, r12
    130c:	ce 01       	movw	r24, r28
    130e:	81 96       	adiw	r24, 0x21	; 33
    1310:	a6 de       	rcall	.-692    	; 0x105e <uECC_vli_modMult_fast>
    1312:	a5 01       	movw	r20, r10
    1314:	be 01       	movw	r22, r28
    1316:	6f 5f       	subi	r22, 0xFF	; 255
    1318:	7f 4f       	sbci	r23, 0xFF	; 255
    131a:	cb 01       	movw	r24, r22
    131c:	cf de       	rcall	.-610    	; 0x10bc <uECC_vli_modSquare_fast>
    131e:	95 01       	movw	r18, r10
    1320:	a7 01       	movw	r20, r14
    1322:	b3 01       	movw	r22, r6
    1324:	c3 01       	movw	r24, r6
    1326:	9b de       	rcall	.-714    	; 0x105e <uECC_vli_modMult_fast>
    1328:	a5 01       	movw	r20, r10
    132a:	b7 01       	movw	r22, r14
    132c:	c7 01       	movw	r24, r14
    132e:	c6 de       	rcall	.-628    	; 0x10bc <uECC_vli_modSquare_fast>
    1330:	45 01       	movw	r8, r10
    1332:	f4 e0       	ldi	r31, 0x04	; 4
    1334:	8f 0e       	add	r8, r31
    1336:	91 1c       	adc	r9, r1
    1338:	01 2f       	mov	r16, r17
    133a:	94 01       	movw	r18, r8
    133c:	a7 01       	movw	r20, r14
    133e:	b6 01       	movw	r22, r12
    1340:	c6 01       	movw	r24, r12
    1342:	d6 dc       	rcall	.-1620   	; 0xcf0 <uECC_vli_modAdd>
    1344:	94 01       	movw	r18, r8
    1346:	a7 01       	movw	r20, r14
    1348:	b7 01       	movw	r22, r14
    134a:	c7 01       	movw	r24, r14
    134c:	d1 dc       	rcall	.-1630   	; 0xcf0 <uECC_vli_modAdd>
    134e:	94 01       	movw	r18, r8
    1350:	a7 01       	movw	r20, r14
    1352:	b6 01       	movw	r22, r12
    1354:	c7 01       	movw	r24, r14
    1356:	e8 dc       	rcall	.-1584   	; 0xd28 <uECC_vli_modSub>
    1358:	95 01       	movw	r18, r10
    135a:	a7 01       	movw	r20, r14
    135c:	b6 01       	movw	r22, r12
    135e:	c6 01       	movw	r24, r12
    1360:	7e de       	rcall	.-772    	; 0x105e <uECC_vli_modMult_fast>
    1362:	94 01       	movw	r18, r8
    1364:	a6 01       	movw	r20, r12
    1366:	b6 01       	movw	r22, r12
    1368:	c7 01       	movw	r24, r14
    136a:	c2 dc       	rcall	.-1660   	; 0xcf0 <uECC_vli_modAdd>
    136c:	94 01       	movw	r18, r8
    136e:	a7 01       	movw	r20, r14
    1370:	b6 01       	movw	r22, r12
    1372:	c6 01       	movw	r24, r12
    1374:	bd dc       	rcall	.-1670   	; 0xcf0 <uECC_vli_modAdd>
    1376:	60 e0       	ldi	r22, 0x00	; 0
    1378:	70 e0       	ldi	r23, 0x00	; 0
    137a:	c6 01       	movw	r24, r12
    137c:	0d dc       	rcall	.-2022   	; 0xb98 <uECC_vli_testBit>
    137e:	88 23       	and	r24, r24
    1380:	c1 f0       	breq	.+48     	; 0x13b2 <double_jacobian_default+0xfe>
    1382:	21 2f       	mov	r18, r17
    1384:	a4 01       	movw	r20, r8
    1386:	b6 01       	movw	r22, r12
    1388:	c6 01       	movw	r24, r12
    138a:	12 da       	rcall	.-3036   	; 0x7b0 <uECC_vli_add>
    138c:	08 2f       	mov	r16, r24
    138e:	61 2f       	mov	r22, r17
    1390:	c6 01       	movw	r24, r12
    1392:	9c d9       	rcall	.-3272   	; 0x6cc <uECC_vli_rshift1>
    1394:	e1 2f       	mov	r30, r17
    1396:	01 2e       	mov	r0, r17
    1398:	00 0c       	add	r0, r0
    139a:	ff 0b       	sbc	r31, r31
    139c:	31 97       	sbiw	r30, 0x01	; 1
    139e:	ec 0d       	add	r30, r12
    13a0:	fd 1d       	adc	r31, r13
    13a2:	20 e8       	ldi	r18, 0x80	; 128
    13a4:	02 9f       	mul	r16, r18
    13a6:	c0 01       	movw	r24, r0
    13a8:	11 24       	eor	r1, r1
    13aa:	00 81       	ld	r16, Z
    13ac:	08 2b       	or	r16, r24
    13ae:	00 83       	st	Z, r16
    13b0:	03 c0       	rjmp	.+6      	; 0x13b8 <double_jacobian_default+0x104>
    13b2:	61 2f       	mov	r22, r17
    13b4:	c6 01       	movw	r24, r12
    13b6:	8a d9       	rcall	.-3308   	; 0x6cc <uECC_vli_rshift1>
    13b8:	a5 01       	movw	r20, r10
    13ba:	b6 01       	movw	r22, r12
    13bc:	c7 01       	movw	r24, r14
    13be:	7e de       	rcall	.-772    	; 0x10bc <uECC_vli_modSquare_fast>
    13c0:	01 2f       	mov	r16, r17
    13c2:	94 01       	movw	r18, r8
    13c4:	ae 01       	movw	r20, r28
    13c6:	4f 5d       	subi	r20, 0xDF	; 223
    13c8:	5f 4f       	sbci	r21, 0xFF	; 255
    13ca:	b7 01       	movw	r22, r14
    13cc:	c7 01       	movw	r24, r14
    13ce:	ac dc       	rcall	.-1704   	; 0xd28 <uECC_vli_modSub>
    13d0:	94 01       	movw	r18, r8
    13d2:	ae 01       	movw	r20, r28
    13d4:	4f 5d       	subi	r20, 0xDF	; 223
    13d6:	5f 4f       	sbci	r21, 0xFF	; 255
    13d8:	b7 01       	movw	r22, r14
    13da:	c7 01       	movw	r24, r14
    13dc:	a5 dc       	rcall	.-1718   	; 0xd28 <uECC_vli_modSub>
    13de:	94 01       	movw	r18, r8
    13e0:	a7 01       	movw	r20, r14
    13e2:	be 01       	movw	r22, r28
    13e4:	6f 5d       	subi	r22, 0xDF	; 223
    13e6:	7f 4f       	sbci	r23, 0xFF	; 255
    13e8:	cb 01       	movw	r24, r22
    13ea:	9e dc       	rcall	.-1732   	; 0xd28 <uECC_vli_modSub>
    13ec:	95 01       	movw	r18, r10
    13ee:	ae 01       	movw	r20, r28
    13f0:	4f 5d       	subi	r20, 0xDF	; 223
    13f2:	5f 4f       	sbci	r21, 0xFF	; 255
    13f4:	b6 01       	movw	r22, r12
    13f6:	c6 01       	movw	r24, r12
    13f8:	32 de       	rcall	.-924    	; 0x105e <uECC_vli_modMult_fast>
    13fa:	94 01       	movw	r18, r8
    13fc:	ae 01       	movw	r20, r28
    13fe:	4f 5f       	subi	r20, 0xFF	; 255
    1400:	5f 4f       	sbci	r21, 0xFF	; 255
    1402:	b6 01       	movw	r22, r12
    1404:	ca 01       	movw	r24, r20
    1406:	90 dc       	rcall	.-1760   	; 0xd28 <uECC_vli_modSub>
    1408:	41 2f       	mov	r20, r17
    140a:	b7 01       	movw	r22, r14
    140c:	c6 01       	movw	r24, r12
    140e:	11 d9       	rcall	.-3550   	; 0x632 <uECC_vli_set>
    1410:	41 2f       	mov	r20, r17
    1412:	b3 01       	movw	r22, r6
    1414:	c7 01       	movw	r24, r14
    1416:	0d d9       	rcall	.-3558   	; 0x632 <uECC_vli_set>
    1418:	41 2f       	mov	r20, r17
    141a:	be 01       	movw	r22, r28
    141c:	6f 5f       	subi	r22, 0xFF	; 255
    141e:	7f 4f       	sbci	r23, 0xFF	; 255
    1420:	c3 01       	movw	r24, r6
    1422:	07 d9       	rcall	.-3570   	; 0x632 <uECC_vli_set>
    1424:	c0 5c       	subi	r28, 0xC0	; 192
    1426:	df 4f       	sbci	r29, 0xFF	; 255
    1428:	0f b6       	in	r0, 0x3f	; 63
    142a:	f8 94       	cli
    142c:	de bf       	out	0x3e, r29	; 62
    142e:	0f be       	out	0x3f, r0	; 63
    1430:	cd bf       	out	0x3d, r28	; 61
    1432:	df 91       	pop	r29
    1434:	cf 91       	pop	r28
    1436:	1f 91       	pop	r17
    1438:	0f 91       	pop	r16
    143a:	ff 90       	pop	r15
    143c:	ef 90       	pop	r14
    143e:	df 90       	pop	r13
    1440:	cf 90       	pop	r12
    1442:	bf 90       	pop	r11
    1444:	af 90       	pop	r10
    1446:	9f 90       	pop	r9
    1448:	8f 90       	pop	r8
    144a:	7f 90       	pop	r7
    144c:	6f 90       	pop	r6
    144e:	08 95       	ret

00001450 <x_side_default>:
    1450:	6f 92       	push	r6
    1452:	7f 92       	push	r7
    1454:	8f 92       	push	r8
    1456:	9f 92       	push	r9
    1458:	af 92       	push	r10
    145a:	bf 92       	push	r11
    145c:	cf 92       	push	r12
    145e:	df 92       	push	r13
    1460:	ef 92       	push	r14
    1462:	ff 92       	push	r15
    1464:	0f 93       	push	r16
    1466:	1f 93       	push	r17
    1468:	cf 93       	push	r28
    146a:	df 93       	push	r29
    146c:	cd b7       	in	r28, 0x3d	; 61
    146e:	de b7       	in	r29, 0x3e	; 62
    1470:	a0 97       	sbiw	r28, 0x20	; 32
    1472:	0f b6       	in	r0, 0x3f	; 63
    1474:	f8 94       	cli
    1476:	de bf       	out	0x3e, r29	; 62
    1478:	0f be       	out	0x3f, r0	; 63
    147a:	cd bf       	out	0x3d, r28	; 61
    147c:	7c 01       	movw	r14, r24
    147e:	4b 01       	movw	r8, r22
    1480:	6a 01       	movw	r12, r20
    1482:	ce 01       	movw	r24, r28
    1484:	01 96       	adiw	r24, 0x01	; 1
    1486:	3c 01       	movw	r6, r24
    1488:	80 e2       	ldi	r24, 0x20	; 32
    148a:	f3 01       	movw	r30, r6
    148c:	11 92       	st	Z+, r1
    148e:	8a 95       	dec	r24
    1490:	e9 f7       	brne	.-6      	; 0x148c <x_side_default+0x3c>
    1492:	83 e0       	ldi	r24, 0x03	; 3
    1494:	89 83       	std	Y+1, r24	; 0x01
    1496:	fa 01       	movw	r30, r20
    1498:	10 81       	ld	r17, Z
    149a:	c7 01       	movw	r24, r14
    149c:	0f de       	rcall	.-994    	; 0x10bc <uECC_vli_modSquare_fast>
    149e:	56 01       	movw	r10, r12
    14a0:	f4 e0       	ldi	r31, 0x04	; 4
    14a2:	af 0e       	add	r10, r31
    14a4:	b1 1c       	adc	r11, r1
    14a6:	01 2f       	mov	r16, r17
    14a8:	95 01       	movw	r18, r10
    14aa:	a3 01       	movw	r20, r6
    14ac:	b7 01       	movw	r22, r14
    14ae:	c7 01       	movw	r24, r14
    14b0:	3b dc       	rcall	.-1930   	; 0xd28 <uECC_vli_modSub>
    14b2:	96 01       	movw	r18, r12
    14b4:	a4 01       	movw	r20, r8
    14b6:	b7 01       	movw	r22, r14
    14b8:	c7 01       	movw	r24, r14
    14ba:	d1 dd       	rcall	.-1118   	; 0x105e <uECC_vli_modMult_fast>
    14bc:	a6 01       	movw	r20, r12
    14be:	4c 57       	subi	r20, 0x7C	; 124
    14c0:	5f 4f       	sbci	r21, 0xFF	; 255
    14c2:	95 01       	movw	r18, r10
    14c4:	b7 01       	movw	r22, r14
    14c6:	c7 01       	movw	r24, r14
    14c8:	13 dc       	rcall	.-2010   	; 0xcf0 <uECC_vli_modAdd>
    14ca:	a0 96       	adiw	r28, 0x20	; 32
    14cc:	0f b6       	in	r0, 0x3f	; 63
    14ce:	f8 94       	cli
    14d0:	de bf       	out	0x3e, r29	; 62
    14d2:	0f be       	out	0x3f, r0	; 63
    14d4:	cd bf       	out	0x3d, r28	; 61
    14d6:	df 91       	pop	r29
    14d8:	cf 91       	pop	r28
    14da:	1f 91       	pop	r17
    14dc:	0f 91       	pop	r16
    14de:	ff 90       	pop	r15
    14e0:	ef 90       	pop	r14
    14e2:	df 90       	pop	r13
    14e4:	cf 90       	pop	r12
    14e6:	bf 90       	pop	r11
    14e8:	af 90       	pop	r10
    14ea:	9f 90       	pop	r9
    14ec:	8f 90       	pop	r8
    14ee:	7f 90       	pop	r7
    14f0:	6f 90       	pop	r6
    14f2:	08 95       	ret

000014f4 <mod_sqrt_default>:
    14f4:	bf 92       	push	r11
    14f6:	cf 92       	push	r12
    14f8:	df 92       	push	r13
    14fa:	ef 92       	push	r14
    14fc:	ff 92       	push	r15
    14fe:	0f 93       	push	r16
    1500:	1f 93       	push	r17
    1502:	cf 93       	push	r28
    1504:	df 93       	push	r29
    1506:	cd b7       	in	r28, 0x3d	; 61
    1508:	de b7       	in	r29, 0x3e	; 62
    150a:	c0 54       	subi	r28, 0x40	; 64
    150c:	d1 09       	sbc	r29, r1
    150e:	0f b6       	in	r0, 0x3f	; 63
    1510:	f8 94       	cli
    1512:	de bf       	out	0x3e, r29	; 62
    1514:	0f be       	out	0x3f, r0	; 63
    1516:	cd bf       	out	0x3d, r28	; 61
    1518:	6c 01       	movw	r12, r24
    151a:	7b 01       	movw	r14, r22
    151c:	90 e2       	ldi	r25, 0x20	; 32
    151e:	8e 01       	movw	r16, r28
    1520:	0f 5f       	subi	r16, 0xFF	; 255
    1522:	1f 4f       	sbci	r17, 0xFF	; 255
    1524:	d8 01       	movw	r26, r16
    1526:	e9 2f       	mov	r30, r25
    1528:	1d 92       	st	X+, r1
    152a:	ea 95       	dec	r30
    152c:	e9 f7       	brne	.-6      	; 0x1528 <mod_sqrt_default+0x34>
    152e:	81 e0       	ldi	r24, 0x01	; 1
    1530:	89 83       	std	Y+1, r24	; 0x01
    1532:	fe 01       	movw	r30, r28
    1534:	b1 96       	adiw	r30, 0x21	; 33
    1536:	df 01       	movw	r26, r30
    1538:	1d 92       	st	X+, r1
    153a:	9a 95       	dec	r25
    153c:	e9 f7       	brne	.-6      	; 0x1538 <mod_sqrt_default+0x44>
    153e:	89 a3       	std	Y+33, r24	; 0x21
    1540:	fb 01       	movw	r30, r22
    1542:	b0 80       	ld	r11, Z
    1544:	6c 5f       	subi	r22, 0xFC	; 252
    1546:	7f 4f       	sbci	r23, 0xFF	; 255
    1548:	2b 2d       	mov	r18, r11
    154a:	a8 01       	movw	r20, r16
    154c:	c8 01       	movw	r24, r16
    154e:	30 d9       	rcall	.-3488   	; 0x7b0 <uECC_vli_add>
    1550:	6b 2d       	mov	r22, r11
    1552:	c8 01       	movw	r24, r16
    1554:	37 db       	rcall	.-2450   	; 0xbc4 <uECC_vli_numBits>
    1556:	8c 01       	movw	r16, r24
    1558:	01 50       	subi	r16, 0x01	; 1
    155a:	11 09       	sbc	r17, r1
    155c:	02 30       	cpi	r16, 0x02	; 2
    155e:	11 05       	cpc	r17, r1
    1560:	c4 f0       	brlt	.+48     	; 0x1592 <mod_sqrt_default+0x9e>
    1562:	a7 01       	movw	r20, r14
    1564:	be 01       	movw	r22, r28
    1566:	6f 5d       	subi	r22, 0xDF	; 223
    1568:	7f 4f       	sbci	r23, 0xFF	; 255
    156a:	cb 01       	movw	r24, r22
    156c:	a7 dd       	rcall	.-1202   	; 0x10bc <uECC_vli_modSquare_fast>
    156e:	b8 01       	movw	r22, r16
    1570:	ce 01       	movw	r24, r28
    1572:	01 96       	adiw	r24, 0x01	; 1
    1574:	11 db       	rcall	.-2526   	; 0xb98 <uECC_vli_testBit>
    1576:	88 23       	and	r24, r24
    1578:	39 f0       	breq	.+14     	; 0x1588 <mod_sqrt_default+0x94>
    157a:	97 01       	movw	r18, r14
    157c:	a6 01       	movw	r20, r12
    157e:	be 01       	movw	r22, r28
    1580:	6f 5d       	subi	r22, 0xDF	; 223
    1582:	7f 4f       	sbci	r23, 0xFF	; 255
    1584:	cb 01       	movw	r24, r22
    1586:	6b dd       	rcall	.-1322   	; 0x105e <uECC_vli_modMult_fast>
    1588:	01 50       	subi	r16, 0x01	; 1
    158a:	11 09       	sbc	r17, r1
    158c:	01 30       	cpi	r16, 0x01	; 1
    158e:	11 05       	cpc	r17, r1
    1590:	41 f7       	brne	.-48     	; 0x1562 <mod_sqrt_default+0x6e>
    1592:	4b 2d       	mov	r20, r11
    1594:	be 01       	movw	r22, r28
    1596:	6f 5d       	subi	r22, 0xDF	; 223
    1598:	7f 4f       	sbci	r23, 0xFF	; 255
    159a:	c6 01       	movw	r24, r12
    159c:	4a d8       	rcall	.-3948   	; 0x632 <uECC_vli_set>
    159e:	c0 5c       	subi	r28, 0xC0	; 192
    15a0:	df 4f       	sbci	r29, 0xFF	; 255
    15a2:	0f b6       	in	r0, 0x3f	; 63
    15a4:	f8 94       	cli
    15a6:	de bf       	out	0x3e, r29	; 62
    15a8:	0f be       	out	0x3f, r0	; 63
    15aa:	cd bf       	out	0x3d, r28	; 61
    15ac:	df 91       	pop	r29
    15ae:	cf 91       	pop	r28
    15b0:	1f 91       	pop	r17
    15b2:	0f 91       	pop	r16
    15b4:	ff 90       	pop	r15
    15b6:	ef 90       	pop	r14
    15b8:	df 90       	pop	r13
    15ba:	cf 90       	pop	r12
    15bc:	bf 90       	pop	r11
    15be:	08 95       	ret

000015c0 <vli_mmod_fast_secp256r1>:
    15c0:	cf 92       	push	r12
    15c2:	df 92       	push	r13
    15c4:	ff 92       	push	r15
    15c6:	0f 93       	push	r16
    15c8:	1f 93       	push	r17
    15ca:	cf 93       	push	r28
    15cc:	df 93       	push	r29
    15ce:	cd b7       	in	r28, 0x3d	; 61
    15d0:	de b7       	in	r29, 0x3e	; 62
    15d2:	a0 97       	sbiw	r28, 0x20	; 32
    15d4:	0f b6       	in	r0, 0x3f	; 63
    15d6:	f8 94       	cli
    15d8:	de bf       	out	0x3e, r29	; 62
    15da:	0f be       	out	0x3f, r0	; 63
    15dc:	cd bf       	out	0x3d, r28	; 61
    15de:	6c 01       	movw	r12, r24
    15e0:	8b 01       	movw	r16, r22
    15e2:	40 e2       	ldi	r20, 0x20	; 32
    15e4:	26 d8       	rcall	.-4020   	; 0x632 <uECC_vli_set>
    15e6:	1c 82       	std	Y+4, r1	; 0x04
    15e8:	1b 82       	std	Y+3, r1	; 0x03
    15ea:	1a 82       	std	Y+2, r1	; 0x02
    15ec:	19 82       	std	Y+1, r1	; 0x01
    15ee:	18 86       	std	Y+8, r1	; 0x08
    15f0:	1f 82       	std	Y+7, r1	; 0x07
    15f2:	1e 82       	std	Y+6, r1	; 0x06
    15f4:	1d 82       	std	Y+5, r1	; 0x05
    15f6:	1c 86       	std	Y+12, r1	; 0x0c
    15f8:	1b 86       	std	Y+11, r1	; 0x0b
    15fa:	1a 86       	std	Y+10, r1	; 0x0a
    15fc:	19 86       	std	Y+9, r1	; 0x09
    15fe:	f8 01       	movw	r30, r16
    1600:	84 a5       	ldd	r24, Z+44	; 0x2c
    1602:	8d 87       	std	Y+13, r24	; 0x0d
    1604:	85 a5       	ldd	r24, Z+45	; 0x2d
    1606:	8e 87       	std	Y+14, r24	; 0x0e
    1608:	86 a5       	ldd	r24, Z+46	; 0x2e
    160a:	8f 87       	std	Y+15, r24	; 0x0f
    160c:	87 a5       	ldd	r24, Z+47	; 0x2f
    160e:	88 8b       	std	Y+16, r24	; 0x10
    1610:	80 a9       	ldd	r24, Z+48	; 0x30
    1612:	89 8b       	std	Y+17, r24	; 0x11
    1614:	81 a9       	ldd	r24, Z+49	; 0x31
    1616:	8a 8b       	std	Y+18, r24	; 0x12
    1618:	82 a9       	ldd	r24, Z+50	; 0x32
    161a:	8b 8b       	std	Y+19, r24	; 0x13
    161c:	83 a9       	ldd	r24, Z+51	; 0x33
    161e:	8c 8b       	std	Y+20, r24	; 0x14
    1620:	84 a9       	ldd	r24, Z+52	; 0x34
    1622:	8d 8b       	std	Y+21, r24	; 0x15
    1624:	85 a9       	ldd	r24, Z+53	; 0x35
    1626:	8e 8b       	std	Y+22, r24	; 0x16
    1628:	86 a9       	ldd	r24, Z+54	; 0x36
    162a:	8f 8b       	std	Y+23, r24	; 0x17
    162c:	87 a9       	ldd	r24, Z+55	; 0x37
    162e:	88 8f       	std	Y+24, r24	; 0x18
    1630:	80 ad       	ldd	r24, Z+56	; 0x38
    1632:	89 8f       	std	Y+25, r24	; 0x19
    1634:	81 ad       	ldd	r24, Z+57	; 0x39
    1636:	8a 8f       	std	Y+26, r24	; 0x1a
    1638:	82 ad       	ldd	r24, Z+58	; 0x3a
    163a:	8b 8f       	std	Y+27, r24	; 0x1b
    163c:	83 ad       	ldd	r24, Z+59	; 0x3b
    163e:	8c 8f       	std	Y+28, r24	; 0x1c
    1640:	84 ad       	ldd	r24, Z+60	; 0x3c
    1642:	8d 8f       	std	Y+29, r24	; 0x1d
    1644:	85 ad       	ldd	r24, Z+61	; 0x3d
    1646:	8e 8f       	std	Y+30, r24	; 0x1e
    1648:	86 ad       	ldd	r24, Z+62	; 0x3e
    164a:	8f 8f       	std	Y+31, r24	; 0x1f
    164c:	87 ad       	ldd	r24, Z+63	; 0x3f
    164e:	88 a3       	std	Y+32, r24	; 0x20
    1650:	20 e2       	ldi	r18, 0x20	; 32
    1652:	ae 01       	movw	r20, r28
    1654:	4f 5f       	subi	r20, 0xFF	; 255
    1656:	5f 4f       	sbci	r21, 0xFF	; 255
    1658:	ba 01       	movw	r22, r20
    165a:	ca 01       	movw	r24, r20
    165c:	a9 d8       	rcall	.-3758   	; 0x7b0 <uECC_vli_add>
    165e:	f8 2e       	mov	r15, r24
    1660:	20 e2       	ldi	r18, 0x20	; 32
    1662:	ae 01       	movw	r20, r28
    1664:	4f 5f       	subi	r20, 0xFF	; 255
    1666:	5f 4f       	sbci	r21, 0xFF	; 255
    1668:	b6 01       	movw	r22, r12
    166a:	c6 01       	movw	r24, r12
    166c:	a1 d8       	rcall	.-3774   	; 0x7b0 <uECC_vli_add>
    166e:	f8 0e       	add	r15, r24
    1670:	f8 01       	movw	r30, r16
    1672:	80 a9       	ldd	r24, Z+48	; 0x30
    1674:	8d 87       	std	Y+13, r24	; 0x0d
    1676:	81 a9       	ldd	r24, Z+49	; 0x31
    1678:	8e 87       	std	Y+14, r24	; 0x0e
    167a:	82 a9       	ldd	r24, Z+50	; 0x32
    167c:	8f 87       	std	Y+15, r24	; 0x0f
    167e:	83 a9       	ldd	r24, Z+51	; 0x33
    1680:	88 8b       	std	Y+16, r24	; 0x10
    1682:	84 a9       	ldd	r24, Z+52	; 0x34
    1684:	89 8b       	std	Y+17, r24	; 0x11
    1686:	85 a9       	ldd	r24, Z+53	; 0x35
    1688:	8a 8b       	std	Y+18, r24	; 0x12
    168a:	86 a9       	ldd	r24, Z+54	; 0x36
    168c:	8b 8b       	std	Y+19, r24	; 0x13
    168e:	87 a9       	ldd	r24, Z+55	; 0x37
    1690:	8c 8b       	std	Y+20, r24	; 0x14
    1692:	80 ad       	ldd	r24, Z+56	; 0x38
    1694:	8d 8b       	std	Y+21, r24	; 0x15
    1696:	81 ad       	ldd	r24, Z+57	; 0x39
    1698:	8e 8b       	std	Y+22, r24	; 0x16
    169a:	82 ad       	ldd	r24, Z+58	; 0x3a
    169c:	8f 8b       	std	Y+23, r24	; 0x17
    169e:	83 ad       	ldd	r24, Z+59	; 0x3b
    16a0:	88 8f       	std	Y+24, r24	; 0x18
    16a2:	84 ad       	ldd	r24, Z+60	; 0x3c
    16a4:	89 8f       	std	Y+25, r24	; 0x19
    16a6:	85 ad       	ldd	r24, Z+61	; 0x3d
    16a8:	8a 8f       	std	Y+26, r24	; 0x1a
    16aa:	86 ad       	ldd	r24, Z+62	; 0x3e
    16ac:	8b 8f       	std	Y+27, r24	; 0x1b
    16ae:	87 ad       	ldd	r24, Z+63	; 0x3f
    16b0:	8c 8f       	std	Y+28, r24	; 0x1c
    16b2:	18 a2       	std	Y+32, r1	; 0x20
    16b4:	1f 8e       	std	Y+31, r1	; 0x1f
    16b6:	1e 8e       	std	Y+30, r1	; 0x1e
    16b8:	1d 8e       	std	Y+29, r1	; 0x1d
    16ba:	20 e2       	ldi	r18, 0x20	; 32
    16bc:	ae 01       	movw	r20, r28
    16be:	4f 5f       	subi	r20, 0xFF	; 255
    16c0:	5f 4f       	sbci	r21, 0xFF	; 255
    16c2:	ba 01       	movw	r22, r20
    16c4:	ca 01       	movw	r24, r20
    16c6:	74 d8       	rcall	.-3864   	; 0x7b0 <uECC_vli_add>
    16c8:	f8 0e       	add	r15, r24
    16ca:	20 e2       	ldi	r18, 0x20	; 32
    16cc:	ae 01       	movw	r20, r28
    16ce:	4f 5f       	subi	r20, 0xFF	; 255
    16d0:	5f 4f       	sbci	r21, 0xFF	; 255
    16d2:	b6 01       	movw	r22, r12
    16d4:	c6 01       	movw	r24, r12
    16d6:	6c d8       	rcall	.-3880   	; 0x7b0 <uECC_vli_add>
    16d8:	f8 0e       	add	r15, r24
    16da:	f8 01       	movw	r30, r16
    16dc:	80 a1       	ldd	r24, Z+32	; 0x20
    16de:	89 83       	std	Y+1, r24	; 0x01
    16e0:	81 a1       	ldd	r24, Z+33	; 0x21
    16e2:	8a 83       	std	Y+2, r24	; 0x02
    16e4:	82 a1       	ldd	r24, Z+34	; 0x22
    16e6:	8b 83       	std	Y+3, r24	; 0x03
    16e8:	83 a1       	ldd	r24, Z+35	; 0x23
    16ea:	8c 83       	std	Y+4, r24	; 0x04
    16ec:	84 a1       	ldd	r24, Z+36	; 0x24
    16ee:	8d 83       	std	Y+5, r24	; 0x05
    16f0:	85 a1       	ldd	r24, Z+37	; 0x25
    16f2:	8e 83       	std	Y+6, r24	; 0x06
    16f4:	86 a1       	ldd	r24, Z+38	; 0x26
    16f6:	8f 83       	std	Y+7, r24	; 0x07
    16f8:	87 a1       	ldd	r24, Z+39	; 0x27
    16fa:	88 87       	std	Y+8, r24	; 0x08
    16fc:	80 a5       	ldd	r24, Z+40	; 0x28
    16fe:	89 87       	std	Y+9, r24	; 0x09
    1700:	81 a5       	ldd	r24, Z+41	; 0x29
    1702:	8a 87       	std	Y+10, r24	; 0x0a
    1704:	82 a5       	ldd	r24, Z+42	; 0x2a
    1706:	8b 87       	std	Y+11, r24	; 0x0b
    1708:	83 a5       	ldd	r24, Z+43	; 0x2b
    170a:	8c 87       	std	Y+12, r24	; 0x0c
    170c:	18 8a       	std	Y+16, r1	; 0x10
    170e:	1f 86       	std	Y+15, r1	; 0x0f
    1710:	1e 86       	std	Y+14, r1	; 0x0e
    1712:	1d 86       	std	Y+13, r1	; 0x0d
    1714:	1c 8a       	std	Y+20, r1	; 0x14
    1716:	1b 8a       	std	Y+19, r1	; 0x13
    1718:	1a 8a       	std	Y+18, r1	; 0x12
    171a:	19 8a       	std	Y+17, r1	; 0x11
    171c:	18 8e       	std	Y+24, r1	; 0x18
    171e:	1f 8a       	std	Y+23, r1	; 0x17
    1720:	1e 8a       	std	Y+22, r1	; 0x16
    1722:	1d 8a       	std	Y+21, r1	; 0x15
    1724:	80 ad       	ldd	r24, Z+56	; 0x38
    1726:	89 8f       	std	Y+25, r24	; 0x19
    1728:	81 ad       	ldd	r24, Z+57	; 0x39
    172a:	8a 8f       	std	Y+26, r24	; 0x1a
    172c:	82 ad       	ldd	r24, Z+58	; 0x3a
    172e:	8b 8f       	std	Y+27, r24	; 0x1b
    1730:	83 ad       	ldd	r24, Z+59	; 0x3b
    1732:	8c 8f       	std	Y+28, r24	; 0x1c
    1734:	84 ad       	ldd	r24, Z+60	; 0x3c
    1736:	8d 8f       	std	Y+29, r24	; 0x1d
    1738:	85 ad       	ldd	r24, Z+61	; 0x3d
    173a:	8e 8f       	std	Y+30, r24	; 0x1e
    173c:	86 ad       	ldd	r24, Z+62	; 0x3e
    173e:	8f 8f       	std	Y+31, r24	; 0x1f
    1740:	87 ad       	ldd	r24, Z+63	; 0x3f
    1742:	88 a3       	std	Y+32, r24	; 0x20
    1744:	20 e2       	ldi	r18, 0x20	; 32
    1746:	ae 01       	movw	r20, r28
    1748:	4f 5f       	subi	r20, 0xFF	; 255
    174a:	5f 4f       	sbci	r21, 0xFF	; 255
    174c:	b6 01       	movw	r22, r12
    174e:	c6 01       	movw	r24, r12
    1750:	2f d8       	rcall	.-4002   	; 0x7b0 <uECC_vli_add>
    1752:	f8 0e       	add	r15, r24
    1754:	f8 01       	movw	r30, r16
    1756:	84 a1       	ldd	r24, Z+36	; 0x24
    1758:	89 83       	std	Y+1, r24	; 0x01
    175a:	85 a1       	ldd	r24, Z+37	; 0x25
    175c:	8a 83       	std	Y+2, r24	; 0x02
    175e:	86 a1       	ldd	r24, Z+38	; 0x26
    1760:	8b 83       	std	Y+3, r24	; 0x03
    1762:	87 a1       	ldd	r24, Z+39	; 0x27
    1764:	8c 83       	std	Y+4, r24	; 0x04
    1766:	80 a5       	ldd	r24, Z+40	; 0x28
    1768:	8d 83       	std	Y+5, r24	; 0x05
    176a:	81 a5       	ldd	r24, Z+41	; 0x29
    176c:	8e 83       	std	Y+6, r24	; 0x06
    176e:	82 a5       	ldd	r24, Z+42	; 0x2a
    1770:	8f 83       	std	Y+7, r24	; 0x07
    1772:	83 a5       	ldd	r24, Z+43	; 0x2b
    1774:	88 87       	std	Y+8, r24	; 0x08
    1776:	84 a5       	ldd	r24, Z+44	; 0x2c
    1778:	89 87       	std	Y+9, r24	; 0x09
    177a:	85 a5       	ldd	r24, Z+45	; 0x2d
    177c:	8a 87       	std	Y+10, r24	; 0x0a
    177e:	86 a5       	ldd	r24, Z+46	; 0x2e
    1780:	8b 87       	std	Y+11, r24	; 0x0b
    1782:	87 a5       	ldd	r24, Z+47	; 0x2f
    1784:	8c 87       	std	Y+12, r24	; 0x0c
    1786:	34 a9       	ldd	r19, Z+52	; 0x34
    1788:	3d 87       	std	Y+13, r19	; 0x0d
    178a:	25 a9       	ldd	r18, Z+53	; 0x35
    178c:	2e 87       	std	Y+14, r18	; 0x0e
    178e:	96 a9       	ldd	r25, Z+54	; 0x36
    1790:	9f 87       	std	Y+15, r25	; 0x0f
    1792:	87 a9       	ldd	r24, Z+55	; 0x37
    1794:	88 8b       	std	Y+16, r24	; 0x10
    1796:	40 ad       	ldd	r20, Z+56	; 0x38
    1798:	49 8b       	std	Y+17, r20	; 0x11
    179a:	41 ad       	ldd	r20, Z+57	; 0x39
    179c:	4a 8b       	std	Y+18, r20	; 0x12
    179e:	42 ad       	ldd	r20, Z+58	; 0x3a
    17a0:	4b 8b       	std	Y+19, r20	; 0x13
    17a2:	43 ad       	ldd	r20, Z+59	; 0x3b
    17a4:	4c 8b       	std	Y+20, r20	; 0x14
    17a6:	44 ad       	ldd	r20, Z+60	; 0x3c
    17a8:	4d 8b       	std	Y+21, r20	; 0x15
    17aa:	45 ad       	ldd	r20, Z+61	; 0x3d
    17ac:	4e 8b       	std	Y+22, r20	; 0x16
    17ae:	46 ad       	ldd	r20, Z+62	; 0x3e
    17b0:	4f 8b       	std	Y+23, r20	; 0x17
    17b2:	47 ad       	ldd	r20, Z+63	; 0x3f
    17b4:	48 8f       	std	Y+24, r20	; 0x18
    17b6:	39 8f       	std	Y+25, r19	; 0x19
    17b8:	2a 8f       	std	Y+26, r18	; 0x1a
    17ba:	9b 8f       	std	Y+27, r25	; 0x1b
    17bc:	8c 8f       	std	Y+28, r24	; 0x1c
    17be:	80 a1       	ldd	r24, Z+32	; 0x20
    17c0:	8d 8f       	std	Y+29, r24	; 0x1d
    17c2:	81 a1       	ldd	r24, Z+33	; 0x21
    17c4:	8e 8f       	std	Y+30, r24	; 0x1e
    17c6:	82 a1       	ldd	r24, Z+34	; 0x22
    17c8:	8f 8f       	std	Y+31, r24	; 0x1f
    17ca:	83 a1       	ldd	r24, Z+35	; 0x23
    17cc:	88 a3       	std	Y+32, r24	; 0x20
    17ce:	20 e2       	ldi	r18, 0x20	; 32
    17d0:	ae 01       	movw	r20, r28
    17d2:	4f 5f       	subi	r20, 0xFF	; 255
    17d4:	5f 4f       	sbci	r21, 0xFF	; 255
    17d6:	b6 01       	movw	r22, r12
    17d8:	c6 01       	movw	r24, r12
    17da:	0e 94 d8 03 	call	0x7b0	; 0x7b0 <uECC_vli_add>
    17de:	f8 0e       	add	r15, r24
    17e0:	f8 01       	movw	r30, r16
    17e2:	84 a5       	ldd	r24, Z+44	; 0x2c
    17e4:	89 83       	std	Y+1, r24	; 0x01
    17e6:	85 a5       	ldd	r24, Z+45	; 0x2d
    17e8:	8a 83       	std	Y+2, r24	; 0x02
    17ea:	86 a5       	ldd	r24, Z+46	; 0x2e
    17ec:	8b 83       	std	Y+3, r24	; 0x03
    17ee:	87 a5       	ldd	r24, Z+47	; 0x2f
    17f0:	8c 83       	std	Y+4, r24	; 0x04
    17f2:	80 a9       	ldd	r24, Z+48	; 0x30
    17f4:	8d 83       	std	Y+5, r24	; 0x05
    17f6:	81 a9       	ldd	r24, Z+49	; 0x31
    17f8:	8e 83       	std	Y+6, r24	; 0x06
    17fa:	82 a9       	ldd	r24, Z+50	; 0x32
    17fc:	8f 83       	std	Y+7, r24	; 0x07
    17fe:	83 a9       	ldd	r24, Z+51	; 0x33
    1800:	88 87       	std	Y+8, r24	; 0x08
    1802:	84 a9       	ldd	r24, Z+52	; 0x34
    1804:	89 87       	std	Y+9, r24	; 0x09
    1806:	85 a9       	ldd	r24, Z+53	; 0x35
    1808:	8a 87       	std	Y+10, r24	; 0x0a
    180a:	86 a9       	ldd	r24, Z+54	; 0x36
    180c:	8b 87       	std	Y+11, r24	; 0x0b
    180e:	87 a9       	ldd	r24, Z+55	; 0x37
    1810:	8c 87       	std	Y+12, r24	; 0x0c
    1812:	18 8a       	std	Y+16, r1	; 0x10
    1814:	1f 86       	std	Y+15, r1	; 0x0f
    1816:	1e 86       	std	Y+14, r1	; 0x0e
    1818:	1d 86       	std	Y+13, r1	; 0x0d
    181a:	1c 8a       	std	Y+20, r1	; 0x14
    181c:	1b 8a       	std	Y+19, r1	; 0x13
    181e:	1a 8a       	std	Y+18, r1	; 0x12
    1820:	19 8a       	std	Y+17, r1	; 0x11
    1822:	18 8e       	std	Y+24, r1	; 0x18
    1824:	1f 8a       	std	Y+23, r1	; 0x17
    1826:	1e 8a       	std	Y+22, r1	; 0x16
    1828:	1d 8a       	std	Y+21, r1	; 0x15
    182a:	80 a1       	ldd	r24, Z+32	; 0x20
    182c:	89 8f       	std	Y+25, r24	; 0x19
    182e:	81 a1       	ldd	r24, Z+33	; 0x21
    1830:	8a 8f       	std	Y+26, r24	; 0x1a
    1832:	82 a1       	ldd	r24, Z+34	; 0x22
    1834:	8b 8f       	std	Y+27, r24	; 0x1b
    1836:	83 a1       	ldd	r24, Z+35	; 0x23
    1838:	8c 8f       	std	Y+28, r24	; 0x1c
    183a:	80 a5       	ldd	r24, Z+40	; 0x28
    183c:	8d 8f       	std	Y+29, r24	; 0x1d
    183e:	81 a5       	ldd	r24, Z+41	; 0x29
    1840:	8e 8f       	std	Y+30, r24	; 0x1e
    1842:	82 a5       	ldd	r24, Z+42	; 0x2a
    1844:	8f 8f       	std	Y+31, r24	; 0x1f
    1846:	83 a5       	ldd	r24, Z+43	; 0x2b
    1848:	88 a3       	std	Y+32, r24	; 0x20
    184a:	20 e2       	ldi	r18, 0x20	; 32
    184c:	ae 01       	movw	r20, r28
    184e:	4f 5f       	subi	r20, 0xFF	; 255
    1850:	5f 4f       	sbci	r21, 0xFF	; 255
    1852:	b6 01       	movw	r22, r12
    1854:	c6 01       	movw	r24, r12
    1856:	7d d8       	rcall	.-3846   	; 0x952 <uECC_vli_sub>
    1858:	f8 1a       	sub	r15, r24
    185a:	f8 01       	movw	r30, r16
    185c:	80 a9       	ldd	r24, Z+48	; 0x30
    185e:	89 83       	std	Y+1, r24	; 0x01
    1860:	81 a9       	ldd	r24, Z+49	; 0x31
    1862:	8a 83       	std	Y+2, r24	; 0x02
    1864:	82 a9       	ldd	r24, Z+50	; 0x32
    1866:	8b 83       	std	Y+3, r24	; 0x03
    1868:	83 a9       	ldd	r24, Z+51	; 0x33
    186a:	8c 83       	std	Y+4, r24	; 0x04
    186c:	84 a9       	ldd	r24, Z+52	; 0x34
    186e:	8d 83       	std	Y+5, r24	; 0x05
    1870:	85 a9       	ldd	r24, Z+53	; 0x35
    1872:	8e 83       	std	Y+6, r24	; 0x06
    1874:	86 a9       	ldd	r24, Z+54	; 0x36
    1876:	8f 83       	std	Y+7, r24	; 0x07
    1878:	87 a9       	ldd	r24, Z+55	; 0x37
    187a:	88 87       	std	Y+8, r24	; 0x08
    187c:	80 ad       	ldd	r24, Z+56	; 0x38
    187e:	89 87       	std	Y+9, r24	; 0x09
    1880:	81 ad       	ldd	r24, Z+57	; 0x39
    1882:	8a 87       	std	Y+10, r24	; 0x0a
    1884:	82 ad       	ldd	r24, Z+58	; 0x3a
    1886:	8b 87       	std	Y+11, r24	; 0x0b
    1888:	83 ad       	ldd	r24, Z+59	; 0x3b
    188a:	8c 87       	std	Y+12, r24	; 0x0c
    188c:	84 ad       	ldd	r24, Z+60	; 0x3c
    188e:	8d 87       	std	Y+13, r24	; 0x0d
    1890:	85 ad       	ldd	r24, Z+61	; 0x3d
    1892:	8e 87       	std	Y+14, r24	; 0x0e
    1894:	86 ad       	ldd	r24, Z+62	; 0x3e
    1896:	8f 87       	std	Y+15, r24	; 0x0f
    1898:	87 ad       	ldd	r24, Z+63	; 0x3f
    189a:	88 8b       	std	Y+16, r24	; 0x10
    189c:	1c 8a       	std	Y+20, r1	; 0x14
    189e:	1b 8a       	std	Y+19, r1	; 0x13
    18a0:	1a 8a       	std	Y+18, r1	; 0x12
    18a2:	19 8a       	std	Y+17, r1	; 0x11
    18a4:	18 8e       	std	Y+24, r1	; 0x18
    18a6:	1f 8a       	std	Y+23, r1	; 0x17
    18a8:	1e 8a       	std	Y+22, r1	; 0x16
    18aa:	1d 8a       	std	Y+21, r1	; 0x15
    18ac:	84 a1       	ldd	r24, Z+36	; 0x24
    18ae:	89 8f       	std	Y+25, r24	; 0x19
    18b0:	85 a1       	ldd	r24, Z+37	; 0x25
    18b2:	8a 8f       	std	Y+26, r24	; 0x1a
    18b4:	86 a1       	ldd	r24, Z+38	; 0x26
    18b6:	8b 8f       	std	Y+27, r24	; 0x1b
    18b8:	87 a1       	ldd	r24, Z+39	; 0x27
    18ba:	8c 8f       	std	Y+28, r24	; 0x1c
    18bc:	84 a5       	ldd	r24, Z+44	; 0x2c
    18be:	8d 8f       	std	Y+29, r24	; 0x1d
    18c0:	85 a5       	ldd	r24, Z+45	; 0x2d
    18c2:	8e 8f       	std	Y+30, r24	; 0x1e
    18c4:	86 a5       	ldd	r24, Z+46	; 0x2e
    18c6:	8f 8f       	std	Y+31, r24	; 0x1f
    18c8:	87 a5       	ldd	r24, Z+47	; 0x2f
    18ca:	88 a3       	std	Y+32, r24	; 0x20
    18cc:	20 e2       	ldi	r18, 0x20	; 32
    18ce:	ae 01       	movw	r20, r28
    18d0:	4f 5f       	subi	r20, 0xFF	; 255
    18d2:	5f 4f       	sbci	r21, 0xFF	; 255
    18d4:	b6 01       	movw	r22, r12
    18d6:	c6 01       	movw	r24, r12
    18d8:	3c d8       	rcall	.-3976   	; 0x952 <uECC_vli_sub>
    18da:	f8 1a       	sub	r15, r24
    18dc:	f8 01       	movw	r30, r16
    18de:	84 a9       	ldd	r24, Z+52	; 0x34
    18e0:	89 83       	std	Y+1, r24	; 0x01
    18e2:	85 a9       	ldd	r24, Z+53	; 0x35
    18e4:	8a 83       	std	Y+2, r24	; 0x02
    18e6:	86 a9       	ldd	r24, Z+54	; 0x36
    18e8:	8b 83       	std	Y+3, r24	; 0x03
    18ea:	87 a9       	ldd	r24, Z+55	; 0x37
    18ec:	8c 83       	std	Y+4, r24	; 0x04
    18ee:	80 ad       	ldd	r24, Z+56	; 0x38
    18f0:	8d 83       	std	Y+5, r24	; 0x05
    18f2:	81 ad       	ldd	r24, Z+57	; 0x39
    18f4:	8e 83       	std	Y+6, r24	; 0x06
    18f6:	82 ad       	ldd	r24, Z+58	; 0x3a
    18f8:	8f 83       	std	Y+7, r24	; 0x07
    18fa:	83 ad       	ldd	r24, Z+59	; 0x3b
    18fc:	88 87       	std	Y+8, r24	; 0x08
    18fe:	84 ad       	ldd	r24, Z+60	; 0x3c
    1900:	89 87       	std	Y+9, r24	; 0x09
    1902:	85 ad       	ldd	r24, Z+61	; 0x3d
    1904:	8a 87       	std	Y+10, r24	; 0x0a
    1906:	86 ad       	ldd	r24, Z+62	; 0x3e
    1908:	8b 87       	std	Y+11, r24	; 0x0b
    190a:	87 ad       	ldd	r24, Z+63	; 0x3f
    190c:	8c 87       	std	Y+12, r24	; 0x0c
    190e:	80 a1       	ldd	r24, Z+32	; 0x20
    1910:	8d 87       	std	Y+13, r24	; 0x0d
    1912:	81 a1       	ldd	r24, Z+33	; 0x21
    1914:	8e 87       	std	Y+14, r24	; 0x0e
    1916:	82 a1       	ldd	r24, Z+34	; 0x22
    1918:	8f 87       	std	Y+15, r24	; 0x0f
    191a:	83 a1       	ldd	r24, Z+35	; 0x23
    191c:	88 8b       	std	Y+16, r24	; 0x10
    191e:	84 a1       	ldd	r24, Z+36	; 0x24
    1920:	89 8b       	std	Y+17, r24	; 0x11
    1922:	85 a1       	ldd	r24, Z+37	; 0x25
    1924:	8a 8b       	std	Y+18, r24	; 0x12
    1926:	86 a1       	ldd	r24, Z+38	; 0x26
    1928:	8b 8b       	std	Y+19, r24	; 0x13
    192a:	87 a1       	ldd	r24, Z+39	; 0x27
    192c:	8c 8b       	std	Y+20, r24	; 0x14
    192e:	80 a5       	ldd	r24, Z+40	; 0x28
    1930:	8d 8b       	std	Y+21, r24	; 0x15
    1932:	81 a5       	ldd	r24, Z+41	; 0x29
    1934:	8e 8b       	std	Y+22, r24	; 0x16
    1936:	82 a5       	ldd	r24, Z+42	; 0x2a
    1938:	8f 8b       	std	Y+23, r24	; 0x17
    193a:	83 a5       	ldd	r24, Z+43	; 0x2b
    193c:	88 8f       	std	Y+24, r24	; 0x18
    193e:	1c 8e       	std	Y+28, r1	; 0x1c
    1940:	1b 8e       	std	Y+27, r1	; 0x1b
    1942:	1a 8e       	std	Y+26, r1	; 0x1a
    1944:	19 8e       	std	Y+25, r1	; 0x19
    1946:	80 a9       	ldd	r24, Z+48	; 0x30
    1948:	8d 8f       	std	Y+29, r24	; 0x1d
    194a:	81 a9       	ldd	r24, Z+49	; 0x31
    194c:	8e 8f       	std	Y+30, r24	; 0x1e
    194e:	82 a9       	ldd	r24, Z+50	; 0x32
    1950:	8f 8f       	std	Y+31, r24	; 0x1f
    1952:	83 a9       	ldd	r24, Z+51	; 0x33
    1954:	88 a3       	std	Y+32, r24	; 0x20
    1956:	20 e2       	ldi	r18, 0x20	; 32
    1958:	ae 01       	movw	r20, r28
    195a:	4f 5f       	subi	r20, 0xFF	; 255
    195c:	5f 4f       	sbci	r21, 0xFF	; 255
    195e:	b6 01       	movw	r22, r12
    1960:	c6 01       	movw	r24, r12
    1962:	0e 94 a9 04 	call	0x952	; 0x952 <uECC_vli_sub>
    1966:	f8 1a       	sub	r15, r24
    1968:	f8 01       	movw	r30, r16
    196a:	80 ad       	ldd	r24, Z+56	; 0x38
    196c:	89 83       	std	Y+1, r24	; 0x01
    196e:	81 ad       	ldd	r24, Z+57	; 0x39
    1970:	8a 83       	std	Y+2, r24	; 0x02
    1972:	82 ad       	ldd	r24, Z+58	; 0x3a
    1974:	8b 83       	std	Y+3, r24	; 0x03
    1976:	83 ad       	ldd	r24, Z+59	; 0x3b
    1978:	8c 83       	std	Y+4, r24	; 0x04
    197a:	84 ad       	ldd	r24, Z+60	; 0x3c
    197c:	8d 83       	std	Y+5, r24	; 0x05
    197e:	85 ad       	ldd	r24, Z+61	; 0x3d
    1980:	8e 83       	std	Y+6, r24	; 0x06
    1982:	86 ad       	ldd	r24, Z+62	; 0x3e
    1984:	8f 83       	std	Y+7, r24	; 0x07
    1986:	87 ad       	ldd	r24, Z+63	; 0x3f
    1988:	88 87       	std	Y+8, r24	; 0x08
    198a:	1c 86       	std	Y+12, r1	; 0x0c
    198c:	1b 86       	std	Y+11, r1	; 0x0b
    198e:	1a 86       	std	Y+10, r1	; 0x0a
    1990:	19 86       	std	Y+9, r1	; 0x09
    1992:	84 a1       	ldd	r24, Z+36	; 0x24
    1994:	8d 87       	std	Y+13, r24	; 0x0d
    1996:	85 a1       	ldd	r24, Z+37	; 0x25
    1998:	8e 87       	std	Y+14, r24	; 0x0e
    199a:	86 a1       	ldd	r24, Z+38	; 0x26
    199c:	8f 87       	std	Y+15, r24	; 0x0f
    199e:	87 a1       	ldd	r24, Z+39	; 0x27
    19a0:	88 8b       	std	Y+16, r24	; 0x10
    19a2:	80 a5       	ldd	r24, Z+40	; 0x28
    19a4:	89 8b       	std	Y+17, r24	; 0x11
    19a6:	81 a5       	ldd	r24, Z+41	; 0x29
    19a8:	8a 8b       	std	Y+18, r24	; 0x12
    19aa:	82 a5       	ldd	r24, Z+42	; 0x2a
    19ac:	8b 8b       	std	Y+19, r24	; 0x13
    19ae:	83 a5       	ldd	r24, Z+43	; 0x2b
    19b0:	8c 8b       	std	Y+20, r24	; 0x14
    19b2:	84 a5       	ldd	r24, Z+44	; 0x2c
    19b4:	8d 8b       	std	Y+21, r24	; 0x15
    19b6:	85 a5       	ldd	r24, Z+45	; 0x2d
    19b8:	8e 8b       	std	Y+22, r24	; 0x16
    19ba:	86 a5       	ldd	r24, Z+46	; 0x2e
    19bc:	8f 8b       	std	Y+23, r24	; 0x17
    19be:	87 a5       	ldd	r24, Z+47	; 0x2f
    19c0:	88 8f       	std	Y+24, r24	; 0x18
    19c2:	1c 8e       	std	Y+28, r1	; 0x1c
    19c4:	1b 8e       	std	Y+27, r1	; 0x1b
    19c6:	1a 8e       	std	Y+26, r1	; 0x1a
    19c8:	19 8e       	std	Y+25, r1	; 0x19
    19ca:	84 a9       	ldd	r24, Z+52	; 0x34
    19cc:	8d 8f       	std	Y+29, r24	; 0x1d
    19ce:	85 a9       	ldd	r24, Z+53	; 0x35
    19d0:	8e 8f       	std	Y+30, r24	; 0x1e
    19d2:	86 a9       	ldd	r24, Z+54	; 0x36
    19d4:	8f 8f       	std	Y+31, r24	; 0x1f
    19d6:	87 a9       	ldd	r24, Z+55	; 0x37
    19d8:	88 a3       	std	Y+32, r24	; 0x20
    19da:	20 e2       	ldi	r18, 0x20	; 32
    19dc:	ae 01       	movw	r20, r28
    19de:	4f 5f       	subi	r20, 0xFF	; 255
    19e0:	5f 4f       	sbci	r21, 0xFF	; 255
    19e2:	b6 01       	movw	r22, r12
    19e4:	c6 01       	movw	r24, r12
    19e6:	0e 94 a9 04 	call	0x952	; 0x952 <uECC_vli_sub>
    19ea:	1f 2d       	mov	r17, r15
    19ec:	18 1b       	sub	r17, r24
    19ee:	92 f4       	brpl	.+36     	; 0x1a14 <vli_mmod_fast_secp256r1+0x454>
    19f0:	20 e2       	ldi	r18, 0x20	; 32
    19f2:	48 ec       	ldi	r20, 0xC8	; 200
    19f4:	51 e0       	ldi	r21, 0x01	; 1
    19f6:	b6 01       	movw	r22, r12
    19f8:	c6 01       	movw	r24, r12
    19fa:	0e 94 d8 03 	call	0x7b0	; 0x7b0 <uECC_vli_add>
    19fe:	18 0f       	add	r17, r24
    1a00:	ba f3       	brmi	.-18     	; 0x19f0 <vli_mmod_fast_secp256r1+0x430>
    1a02:	11 c0       	rjmp	.+34     	; 0x1a26 <vli_mmod_fast_secp256r1+0x466>
    1a04:	20 e2       	ldi	r18, 0x20	; 32
    1a06:	48 ec       	ldi	r20, 0xC8	; 200
    1a08:	51 e0       	ldi	r21, 0x01	; 1
    1a0a:	b6 01       	movw	r22, r12
    1a0c:	c6 01       	movw	r24, r12
    1a0e:	0e 94 a9 04 	call	0x952	; 0x952 <uECC_vli_sub>
    1a12:	18 1b       	sub	r17, r24
    1a14:	11 11       	cpse	r17, r1
    1a16:	f6 cf       	rjmp	.-20     	; 0x1a04 <vli_mmod_fast_secp256r1+0x444>
    1a18:	40 e2       	ldi	r20, 0x20	; 32
    1a1a:	b6 01       	movw	r22, r12
    1a1c:	88 ec       	ldi	r24, 0xC8	; 200
    1a1e:	91 e0       	ldi	r25, 0x01	; 1
    1a20:	08 d9       	rcall	.-3568   	; 0xc32 <uECC_vli_cmp_unsafe>
    1a22:	81 30       	cpi	r24, 0x01	; 1
    1a24:	79 f7       	brne	.-34     	; 0x1a04 <vli_mmod_fast_secp256r1+0x444>
    1a26:	a0 96       	adiw	r28, 0x20	; 32
    1a28:	0f b6       	in	r0, 0x3f	; 63
    1a2a:	f8 94       	cli
    1a2c:	de bf       	out	0x3e, r29	; 62
    1a2e:	0f be       	out	0x3f, r0	; 63
    1a30:	cd bf       	out	0x3d, r28	; 61
    1a32:	df 91       	pop	r29
    1a34:	cf 91       	pop	r28
    1a36:	1f 91       	pop	r17
    1a38:	0f 91       	pop	r16
    1a3a:	ff 90       	pop	r15
    1a3c:	df 90       	pop	r13
    1a3e:	cf 90       	pop	r12
    1a40:	08 95       	ret

00001a42 <apply_z>:
    1a42:	af 92       	push	r10
    1a44:	bf 92       	push	r11
    1a46:	cf 92       	push	r12
    1a48:	df 92       	push	r13
    1a4a:	ef 92       	push	r14
    1a4c:	ff 92       	push	r15
    1a4e:	0f 93       	push	r16
    1a50:	1f 93       	push	r17
    1a52:	cf 93       	push	r28
    1a54:	df 93       	push	r29
    1a56:	cd b7       	in	r28, 0x3d	; 61
    1a58:	de b7       	in	r29, 0x3e	; 62
    1a5a:	a0 97       	sbiw	r28, 0x20	; 32
    1a5c:	0f b6       	in	r0, 0x3f	; 63
    1a5e:	f8 94       	cli
    1a60:	de bf       	out	0x3e, r29	; 62
    1a62:	0f be       	out	0x3f, r0	; 63
    1a64:	cd bf       	out	0x3d, r28	; 61
    1a66:	5c 01       	movw	r10, r24
    1a68:	7b 01       	movw	r14, r22
    1a6a:	6a 01       	movw	r12, r20
    1a6c:	89 01       	movw	r16, r18
    1a6e:	a9 01       	movw	r20, r18
    1a70:	b6 01       	movw	r22, r12
    1a72:	ce 01       	movw	r24, r28
    1a74:	01 96       	adiw	r24, 0x01	; 1
    1a76:	22 db       	rcall	.-2492   	; 0x10bc <uECC_vli_modSquare_fast>
    1a78:	98 01       	movw	r18, r16
    1a7a:	ae 01       	movw	r20, r28
    1a7c:	4f 5f       	subi	r20, 0xFF	; 255
    1a7e:	5f 4f       	sbci	r21, 0xFF	; 255
    1a80:	b5 01       	movw	r22, r10
    1a82:	c5 01       	movw	r24, r10
    1a84:	ec da       	rcall	.-2600   	; 0x105e <uECC_vli_modMult_fast>
    1a86:	98 01       	movw	r18, r16
    1a88:	a6 01       	movw	r20, r12
    1a8a:	be 01       	movw	r22, r28
    1a8c:	6f 5f       	subi	r22, 0xFF	; 255
    1a8e:	7f 4f       	sbci	r23, 0xFF	; 255
    1a90:	cb 01       	movw	r24, r22
    1a92:	e5 da       	rcall	.-2614   	; 0x105e <uECC_vli_modMult_fast>
    1a94:	98 01       	movw	r18, r16
    1a96:	ae 01       	movw	r20, r28
    1a98:	4f 5f       	subi	r20, 0xFF	; 255
    1a9a:	5f 4f       	sbci	r21, 0xFF	; 255
    1a9c:	b7 01       	movw	r22, r14
    1a9e:	c7 01       	movw	r24, r14
    1aa0:	de da       	rcall	.-2628   	; 0x105e <uECC_vli_modMult_fast>
    1aa2:	a0 96       	adiw	r28, 0x20	; 32
    1aa4:	0f b6       	in	r0, 0x3f	; 63
    1aa6:	f8 94       	cli
    1aa8:	de bf       	out	0x3e, r29	; 62
    1aaa:	0f be       	out	0x3f, r0	; 63
    1aac:	cd bf       	out	0x3d, r28	; 61
    1aae:	df 91       	pop	r29
    1ab0:	cf 91       	pop	r28
    1ab2:	1f 91       	pop	r17
    1ab4:	0f 91       	pop	r16
    1ab6:	ff 90       	pop	r15
    1ab8:	ef 90       	pop	r14
    1aba:	df 90       	pop	r13
    1abc:	cf 90       	pop	r12
    1abe:	bf 90       	pop	r11
    1ac0:	af 90       	pop	r10
    1ac2:	08 95       	ret

00001ac4 <XYcZ_add>:
    1ac4:	4f 92       	push	r4
    1ac6:	5f 92       	push	r5
    1ac8:	6f 92       	push	r6
    1aca:	7f 92       	push	r7
    1acc:	8f 92       	push	r8
    1ace:	9f 92       	push	r9
    1ad0:	af 92       	push	r10
    1ad2:	bf 92       	push	r11
    1ad4:	cf 92       	push	r12
    1ad6:	df 92       	push	r13
    1ad8:	ef 92       	push	r14
    1ada:	ff 92       	push	r15
    1adc:	0f 93       	push	r16
    1ade:	1f 93       	push	r17
    1ae0:	cf 93       	push	r28
    1ae2:	df 93       	push	r29
    1ae4:	cd b7       	in	r28, 0x3d	; 61
    1ae6:	de b7       	in	r29, 0x3e	; 62
    1ae8:	a0 97       	sbiw	r28, 0x20	; 32
    1aea:	0f b6       	in	r0, 0x3f	; 63
    1aec:	f8 94       	cli
    1aee:	de bf       	out	0x3e, r29	; 62
    1af0:	0f be       	out	0x3f, r0	; 63
    1af2:	cd bf       	out	0x3d, r28	; 61
    1af4:	3c 01       	movw	r6, r24
    1af6:	2b 01       	movw	r4, r22
    1af8:	7a 01       	movw	r14, r20
    1afa:	59 01       	movw	r10, r18
    1afc:	68 01       	movw	r12, r16
    1afe:	f8 01       	movw	r30, r16
    1b00:	10 81       	ld	r17, Z
    1b02:	46 01       	movw	r8, r12
    1b04:	f4 e0       	ldi	r31, 0x04	; 4
    1b06:	8f 0e       	add	r8, r31
    1b08:	91 1c       	adc	r9, r1
    1b0a:	01 2f       	mov	r16, r17
    1b0c:	94 01       	movw	r18, r8
    1b0e:	ac 01       	movw	r20, r24
    1b10:	b7 01       	movw	r22, r14
    1b12:	ce 01       	movw	r24, r28
    1b14:	01 96       	adiw	r24, 0x01	; 1
    1b16:	08 d9       	rcall	.-3568   	; 0xd28 <uECC_vli_modSub>
    1b18:	a6 01       	movw	r20, r12
    1b1a:	be 01       	movw	r22, r28
    1b1c:	6f 5f       	subi	r22, 0xFF	; 255
    1b1e:	7f 4f       	sbci	r23, 0xFF	; 255
    1b20:	cb 01       	movw	r24, r22
    1b22:	cc da       	rcall	.-2664   	; 0x10bc <uECC_vli_modSquare_fast>
    1b24:	96 01       	movw	r18, r12
    1b26:	ae 01       	movw	r20, r28
    1b28:	4f 5f       	subi	r20, 0xFF	; 255
    1b2a:	5f 4f       	sbci	r21, 0xFF	; 255
    1b2c:	b3 01       	movw	r22, r6
    1b2e:	c3 01       	movw	r24, r6
    1b30:	96 da       	rcall	.-2772   	; 0x105e <uECC_vli_modMult_fast>
    1b32:	96 01       	movw	r18, r12
    1b34:	ae 01       	movw	r20, r28
    1b36:	4f 5f       	subi	r20, 0xFF	; 255
    1b38:	5f 4f       	sbci	r21, 0xFF	; 255
    1b3a:	b7 01       	movw	r22, r14
    1b3c:	c7 01       	movw	r24, r14
    1b3e:	8f da       	rcall	.-2786   	; 0x105e <uECC_vli_modMult_fast>
    1b40:	94 01       	movw	r18, r8
    1b42:	a2 01       	movw	r20, r4
    1b44:	b5 01       	movw	r22, r10
    1b46:	c5 01       	movw	r24, r10
    1b48:	ef d8       	rcall	.-3618   	; 0xd28 <uECC_vli_modSub>
    1b4a:	a6 01       	movw	r20, r12
    1b4c:	b5 01       	movw	r22, r10
    1b4e:	ce 01       	movw	r24, r28
    1b50:	01 96       	adiw	r24, 0x01	; 1
    1b52:	b4 da       	rcall	.-2712   	; 0x10bc <uECC_vli_modSquare_fast>
    1b54:	94 01       	movw	r18, r8
    1b56:	a3 01       	movw	r20, r6
    1b58:	be 01       	movw	r22, r28
    1b5a:	6f 5f       	subi	r22, 0xFF	; 255
    1b5c:	7f 4f       	sbci	r23, 0xFF	; 255
    1b5e:	cb 01       	movw	r24, r22
    1b60:	e3 d8       	rcall	.-3642   	; 0xd28 <uECC_vli_modSub>
    1b62:	94 01       	movw	r18, r8
    1b64:	a7 01       	movw	r20, r14
    1b66:	be 01       	movw	r22, r28
    1b68:	6f 5f       	subi	r22, 0xFF	; 255
    1b6a:	7f 4f       	sbci	r23, 0xFF	; 255
    1b6c:	cb 01       	movw	r24, r22
    1b6e:	dc d8       	rcall	.-3656   	; 0xd28 <uECC_vli_modSub>
    1b70:	94 01       	movw	r18, r8
    1b72:	a3 01       	movw	r20, r6
    1b74:	b7 01       	movw	r22, r14
    1b76:	c7 01       	movw	r24, r14
    1b78:	d7 d8       	rcall	.-3666   	; 0xd28 <uECC_vli_modSub>
    1b7a:	96 01       	movw	r18, r12
    1b7c:	a7 01       	movw	r20, r14
    1b7e:	b2 01       	movw	r22, r4
    1b80:	c2 01       	movw	r24, r4
    1b82:	6d da       	rcall	.-2854   	; 0x105e <uECC_vli_modMult_fast>
    1b84:	94 01       	movw	r18, r8
    1b86:	ae 01       	movw	r20, r28
    1b88:	4f 5f       	subi	r20, 0xFF	; 255
    1b8a:	5f 4f       	sbci	r21, 0xFF	; 255
    1b8c:	b3 01       	movw	r22, r6
    1b8e:	c7 01       	movw	r24, r14
    1b90:	cb d8       	rcall	.-3690   	; 0xd28 <uECC_vli_modSub>
    1b92:	96 01       	movw	r18, r12
    1b94:	a7 01       	movw	r20, r14
    1b96:	b5 01       	movw	r22, r10
    1b98:	c5 01       	movw	r24, r10
    1b9a:	61 da       	rcall	.-2878   	; 0x105e <uECC_vli_modMult_fast>
    1b9c:	94 01       	movw	r18, r8
    1b9e:	a2 01       	movw	r20, r4
    1ba0:	b5 01       	movw	r22, r10
    1ba2:	c5 01       	movw	r24, r10
    1ba4:	c1 d8       	rcall	.-3710   	; 0xd28 <uECC_vli_modSub>
    1ba6:	41 2f       	mov	r20, r17
    1ba8:	be 01       	movw	r22, r28
    1baa:	6f 5f       	subi	r22, 0xFF	; 255
    1bac:	7f 4f       	sbci	r23, 0xFF	; 255
    1bae:	c7 01       	movw	r24, r14
    1bb0:	0e 94 19 03 	call	0x632	; 0x632 <uECC_vli_set>
    1bb4:	a0 96       	adiw	r28, 0x20	; 32
    1bb6:	0f b6       	in	r0, 0x3f	; 63
    1bb8:	f8 94       	cli
    1bba:	de bf       	out	0x3e, r29	; 62
    1bbc:	0f be       	out	0x3f, r0	; 63
    1bbe:	cd bf       	out	0x3d, r28	; 61
    1bc0:	df 91       	pop	r29
    1bc2:	cf 91       	pop	r28
    1bc4:	1f 91       	pop	r17
    1bc6:	0f 91       	pop	r16
    1bc8:	ff 90       	pop	r15
    1bca:	ef 90       	pop	r14
    1bcc:	df 90       	pop	r13
    1bce:	cf 90       	pop	r12
    1bd0:	bf 90       	pop	r11
    1bd2:	af 90       	pop	r10
    1bd4:	9f 90       	pop	r9
    1bd6:	8f 90       	pop	r8
    1bd8:	7f 90       	pop	r7
    1bda:	6f 90       	pop	r6
    1bdc:	5f 90       	pop	r5
    1bde:	4f 90       	pop	r4
    1be0:	08 95       	ret

00001be2 <XYcZ_addC>:
    1be2:	4f 92       	push	r4
    1be4:	5f 92       	push	r5
    1be6:	6f 92       	push	r6
    1be8:	7f 92       	push	r7
    1bea:	8f 92       	push	r8
    1bec:	9f 92       	push	r9
    1bee:	af 92       	push	r10
    1bf0:	bf 92       	push	r11
    1bf2:	cf 92       	push	r12
    1bf4:	df 92       	push	r13
    1bf6:	ef 92       	push	r14
    1bf8:	ff 92       	push	r15
    1bfa:	0f 93       	push	r16
    1bfc:	1f 93       	push	r17
    1bfe:	cf 93       	push	r28
    1c00:	df 93       	push	r29
    1c02:	cd b7       	in	r28, 0x3d	; 61
    1c04:	de b7       	in	r29, 0x3e	; 62
    1c06:	c0 56       	subi	r28, 0x60	; 96
    1c08:	d1 09       	sbc	r29, r1
    1c0a:	0f b6       	in	r0, 0x3f	; 63
    1c0c:	f8 94       	cli
    1c0e:	de bf       	out	0x3e, r29	; 62
    1c10:	0f be       	out	0x3f, r0	; 63
    1c12:	cd bf       	out	0x3d, r28	; 61
    1c14:	4c 01       	movw	r8, r24
    1c16:	2b 01       	movw	r4, r22
    1c18:	5a 01       	movw	r10, r20
    1c1a:	39 01       	movw	r6, r18
    1c1c:	68 01       	movw	r12, r16
    1c1e:	f8 01       	movw	r30, r16
    1c20:	10 81       	ld	r17, Z
    1c22:	76 01       	movw	r14, r12
    1c24:	f4 e0       	ldi	r31, 0x04	; 4
    1c26:	ef 0e       	add	r14, r31
    1c28:	f1 1c       	adc	r15, r1
    1c2a:	01 2f       	mov	r16, r17
    1c2c:	97 01       	movw	r18, r14
    1c2e:	ac 01       	movw	r20, r24
    1c30:	b5 01       	movw	r22, r10
    1c32:	ce 01       	movw	r24, r28
    1c34:	01 96       	adiw	r24, 0x01	; 1
    1c36:	78 d8       	rcall	.-3856   	; 0xd28 <uECC_vli_modSub>
    1c38:	a6 01       	movw	r20, r12
    1c3a:	be 01       	movw	r22, r28
    1c3c:	6f 5f       	subi	r22, 0xFF	; 255
    1c3e:	7f 4f       	sbci	r23, 0xFF	; 255
    1c40:	cb 01       	movw	r24, r22
    1c42:	3c da       	rcall	.-2952   	; 0x10bc <uECC_vli_modSquare_fast>
    1c44:	96 01       	movw	r18, r12
    1c46:	ae 01       	movw	r20, r28
    1c48:	4f 5f       	subi	r20, 0xFF	; 255
    1c4a:	5f 4f       	sbci	r21, 0xFF	; 255
    1c4c:	b4 01       	movw	r22, r8
    1c4e:	c4 01       	movw	r24, r8
    1c50:	06 da       	rcall	.-3060   	; 0x105e <uECC_vli_modMult_fast>
    1c52:	96 01       	movw	r18, r12
    1c54:	ae 01       	movw	r20, r28
    1c56:	4f 5f       	subi	r20, 0xFF	; 255
    1c58:	5f 4f       	sbci	r21, 0xFF	; 255
    1c5a:	b5 01       	movw	r22, r10
    1c5c:	c5 01       	movw	r24, r10
    1c5e:	ff d9       	rcall	.-3074   	; 0x105e <uECC_vli_modMult_fast>
    1c60:	97 01       	movw	r18, r14
    1c62:	a2 01       	movw	r20, r4
    1c64:	b3 01       	movw	r22, r6
    1c66:	ce 01       	movw	r24, r28
    1c68:	01 96       	adiw	r24, 0x01	; 1
    1c6a:	42 d8       	rcall	.-3964   	; 0xcf0 <uECC_vli_modAdd>
    1c6c:	97 01       	movw	r18, r14
    1c6e:	a2 01       	movw	r20, r4
    1c70:	b3 01       	movw	r22, r6
    1c72:	c3 01       	movw	r24, r6
    1c74:	59 d8       	rcall	.-3918   	; 0xd28 <uECC_vli_modSub>
    1c76:	97 01       	movw	r18, r14
    1c78:	a4 01       	movw	r20, r8
    1c7a:	b5 01       	movw	r22, r10
    1c7c:	ce 01       	movw	r24, r28
    1c7e:	81 96       	adiw	r24, 0x21	; 33
    1c80:	53 d8       	rcall	.-3930   	; 0xd28 <uECC_vli_modSub>
    1c82:	96 01       	movw	r18, r12
    1c84:	ae 01       	movw	r20, r28
    1c86:	4f 5d       	subi	r20, 0xDF	; 223
    1c88:	5f 4f       	sbci	r21, 0xFF	; 255
    1c8a:	b2 01       	movw	r22, r4
    1c8c:	c2 01       	movw	r24, r4
    1c8e:	e7 d9       	rcall	.-3122   	; 0x105e <uECC_vli_modMult_fast>
    1c90:	97 01       	movw	r18, r14
    1c92:	a5 01       	movw	r20, r10
    1c94:	b4 01       	movw	r22, r8
    1c96:	ce 01       	movw	r24, r28
    1c98:	81 96       	adiw	r24, 0x21	; 33
    1c9a:	2a d8       	rcall	.-4012   	; 0xcf0 <uECC_vli_modAdd>
    1c9c:	a6 01       	movw	r20, r12
    1c9e:	b3 01       	movw	r22, r6
    1ca0:	c5 01       	movw	r24, r10
    1ca2:	0c da       	rcall	.-3048   	; 0x10bc <uECC_vli_modSquare_fast>
    1ca4:	97 01       	movw	r18, r14
    1ca6:	ae 01       	movw	r20, r28
    1ca8:	4f 5d       	subi	r20, 0xDF	; 223
    1caa:	5f 4f       	sbci	r21, 0xFF	; 255
    1cac:	b5 01       	movw	r22, r10
    1cae:	c5 01       	movw	r24, r10
    1cb0:	3b d8       	rcall	.-3978   	; 0xd28 <uECC_vli_modSub>
    1cb2:	97 01       	movw	r18, r14
    1cb4:	a5 01       	movw	r20, r10
    1cb6:	b4 01       	movw	r22, r8
    1cb8:	ce 01       	movw	r24, r28
    1cba:	8f 5b       	subi	r24, 0xBF	; 191
    1cbc:	9f 4f       	sbci	r25, 0xFF	; 255
    1cbe:	34 d8       	rcall	.-3992   	; 0xd28 <uECC_vli_modSub>
    1cc0:	96 01       	movw	r18, r12
    1cc2:	ae 01       	movw	r20, r28
    1cc4:	4f 5b       	subi	r20, 0xBF	; 191
    1cc6:	5f 4f       	sbci	r21, 0xFF	; 255
    1cc8:	b3 01       	movw	r22, r6
    1cca:	c3 01       	movw	r24, r6
    1ccc:	c8 d9       	rcall	.-3184   	; 0x105e <uECC_vli_modMult_fast>
    1cce:	97 01       	movw	r18, r14
    1cd0:	a2 01       	movw	r20, r4
    1cd2:	b3 01       	movw	r22, r6
    1cd4:	c3 01       	movw	r24, r6
    1cd6:	28 d8       	rcall	.-4016   	; 0xd28 <uECC_vli_modSub>
    1cd8:	a6 01       	movw	r20, r12
    1cda:	be 01       	movw	r22, r28
    1cdc:	6f 5f       	subi	r22, 0xFF	; 255
    1cde:	7f 4f       	sbci	r23, 0xFF	; 255
    1ce0:	ce 01       	movw	r24, r28
    1ce2:	8f 5b       	subi	r24, 0xBF	; 191
    1ce4:	9f 4f       	sbci	r25, 0xFF	; 255
    1ce6:	ea d9       	rcall	.-3116   	; 0x10bc <uECC_vli_modSquare_fast>
    1ce8:	97 01       	movw	r18, r14
    1cea:	ae 01       	movw	r20, r28
    1cec:	4f 5d       	subi	r20, 0xDF	; 223
    1cee:	5f 4f       	sbci	r21, 0xFF	; 255
    1cf0:	be 01       	movw	r22, r28
    1cf2:	6f 5b       	subi	r22, 0xBF	; 191
    1cf4:	7f 4f       	sbci	r23, 0xFF	; 255
    1cf6:	cb 01       	movw	r24, r22
    1cf8:	17 d8       	rcall	.-4050   	; 0xd28 <uECC_vli_modSub>
    1cfa:	97 01       	movw	r18, r14
    1cfc:	a4 01       	movw	r20, r8
    1cfe:	be 01       	movw	r22, r28
    1d00:	6f 5b       	subi	r22, 0xBF	; 191
    1d02:	7f 4f       	sbci	r23, 0xFF	; 255
    1d04:	ce 01       	movw	r24, r28
    1d06:	81 96       	adiw	r24, 0x21	; 33
    1d08:	0f d8       	rcall	.-4066   	; 0xd28 <uECC_vli_modSub>
    1d0a:	96 01       	movw	r18, r12
    1d0c:	ae 01       	movw	r20, r28
    1d0e:	4f 5f       	subi	r20, 0xFF	; 255
    1d10:	5f 4f       	sbci	r21, 0xFF	; 255
    1d12:	be 01       	movw	r22, r28
    1d14:	6f 5d       	subi	r22, 0xDF	; 223
    1d16:	7f 4f       	sbci	r23, 0xFF	; 255
    1d18:	cb 01       	movw	r24, r22
    1d1a:	a1 d9       	rcall	.-3262   	; 0x105e <uECC_vli_modMult_fast>
    1d1c:	97 01       	movw	r18, r14
    1d1e:	a2 01       	movw	r20, r4
    1d20:	be 01       	movw	r22, r28
    1d22:	6f 5d       	subi	r22, 0xDF	; 223
    1d24:	7f 4f       	sbci	r23, 0xFF	; 255
    1d26:	c2 01       	movw	r24, r4
    1d28:	0e 94 94 06 	call	0xd28	; 0xd28 <uECC_vli_modSub>
    1d2c:	41 2f       	mov	r20, r17
    1d2e:	be 01       	movw	r22, r28
    1d30:	6f 5b       	subi	r22, 0xBF	; 191
    1d32:	7f 4f       	sbci	r23, 0xFF	; 255
    1d34:	c4 01       	movw	r24, r8
    1d36:	0e 94 19 03 	call	0x632	; 0x632 <uECC_vli_set>
    1d3a:	c0 5a       	subi	r28, 0xA0	; 160
    1d3c:	df 4f       	sbci	r29, 0xFF	; 255
    1d3e:	0f b6       	in	r0, 0x3f	; 63
    1d40:	f8 94       	cli
    1d42:	de bf       	out	0x3e, r29	; 62
    1d44:	0f be       	out	0x3f, r0	; 63
    1d46:	cd bf       	out	0x3d, r28	; 61
    1d48:	df 91       	pop	r29
    1d4a:	cf 91       	pop	r28
    1d4c:	1f 91       	pop	r17
    1d4e:	0f 91       	pop	r16
    1d50:	ff 90       	pop	r15
    1d52:	ef 90       	pop	r14
    1d54:	df 90       	pop	r13
    1d56:	cf 90       	pop	r12
    1d58:	bf 90       	pop	r11
    1d5a:	af 90       	pop	r10
    1d5c:	9f 90       	pop	r9
    1d5e:	8f 90       	pop	r8
    1d60:	7f 90       	pop	r7
    1d62:	6f 90       	pop	r6
    1d64:	5f 90       	pop	r5
    1d66:	4f 90       	pop	r4
    1d68:	08 95       	ret

00001d6a <EccPoint_mult>:
    1d6a:	2f 92       	push	r2
    1d6c:	3f 92       	push	r3
    1d6e:	4f 92       	push	r4
    1d70:	5f 92       	push	r5
    1d72:	6f 92       	push	r6
    1d74:	7f 92       	push	r7
    1d76:	8f 92       	push	r8
    1d78:	9f 92       	push	r9
    1d7a:	af 92       	push	r10
    1d7c:	bf 92       	push	r11
    1d7e:	cf 92       	push	r12
    1d80:	df 92       	push	r13
    1d82:	ef 92       	push	r14
    1d84:	ff 92       	push	r15
    1d86:	0f 93       	push	r16
    1d88:	1f 93       	push	r17
    1d8a:	cf 93       	push	r28
    1d8c:	df 93       	push	r29
    1d8e:	cd b7       	in	r28, 0x3d	; 61
    1d90:	de b7       	in	r29, 0x3e	; 62
    1d92:	cb 5c       	subi	r28, 0xCB	; 203
    1d94:	d1 09       	sbc	r29, r1
    1d96:	0f b6       	in	r0, 0x3f	; 63
    1d98:	f8 94       	cli
    1d9a:	de bf       	out	0x3e, r29	; 62
    1d9c:	0f be       	out	0x3f, r0	; 63
    1d9e:	cd bf       	out	0x3d, r28	; 61
    1da0:	c6 53       	subi	r28, 0x36	; 54
    1da2:	df 4f       	sbci	r29, 0xFF	; 255
    1da4:	99 83       	std	Y+1, r25	; 0x01
    1da6:	88 83       	st	Y, r24
    1da8:	ca 5c       	subi	r28, 0xCA	; 202
    1daa:	d0 40       	sbci	r29, 0x00	; 0
    1dac:	cc 53       	subi	r28, 0x3C	; 60
    1dae:	df 4f       	sbci	r29, 0xFF	; 255
    1db0:	79 83       	std	Y+1, r23	; 0x01
    1db2:	68 83       	st	Y, r22
    1db4:	c4 5c       	subi	r28, 0xC4	; 196
    1db6:	d0 40       	sbci	r29, 0x00	; 0
    1db8:	cf 53       	subi	r28, 0x3F	; 63
    1dba:	df 4f       	sbci	r29, 0xFF	; 255
    1dbc:	59 83       	std	Y+1, r21	; 0x01
    1dbe:	48 83       	st	Y, r20
    1dc0:	c1 5c       	subi	r28, 0xC1	; 193
    1dc2:	d0 40       	sbci	r29, 0x00	; 0
    1dc4:	69 01       	movw	r12, r18
    1dc6:	17 01       	movw	r2, r14
    1dc8:	f7 01       	movw	r30, r14
    1dca:	f0 81       	ld	r31, Z
    1dcc:	cd 53       	subi	r28, 0x3D	; 61
    1dce:	df 4f       	sbci	r29, 0xFF	; 255
    1dd0:	f8 83       	st	Y, r31
    1dd2:	c3 5c       	subi	r28, 0xC3	; 195
    1dd4:	d0 40       	sbci	r29, 0x00	; 0
    1dd6:	4f 2f       	mov	r20, r31
    1dd8:	ce 01       	movw	r24, r28
    1dda:	81 96       	adiw	r24, 0x21	; 33
    1ddc:	0e 94 19 03 	call	0x632	; 0x632 <uECC_vli_set>
    1de0:	cd 53       	subi	r28, 0x3D	; 61
    1de2:	df 4f       	sbci	r29, 0xFF	; 255
    1de4:	28 81       	ld	r18, Y
    1de6:	c3 5c       	subi	r28, 0xC3	; 195
    1de8:	d0 40       	sbci	r29, 0x00	; 0
    1dea:	02 2e       	mov	r0, r18
    1dec:	00 0c       	add	r0, r0
    1dee:	33 0b       	sbc	r19, r19
    1df0:	ca 53       	subi	r28, 0x3A	; 58
    1df2:	df 4f       	sbci	r29, 0xFF	; 255
    1df4:	39 83       	std	Y+1, r19	; 0x01
    1df6:	28 83       	st	Y, r18
    1df8:	c6 5c       	subi	r28, 0xC6	; 198
    1dfa:	d0 40       	sbci	r29, 0x00	; 0
    1dfc:	cc 53       	subi	r28, 0x3C	; 60
    1dfe:	df 4f       	sbci	r29, 0xFF	; 255
    1e00:	88 81       	ld	r24, Y
    1e02:	99 81       	ldd	r25, Y+1	; 0x01
    1e04:	c4 5c       	subi	r28, 0xC4	; 196
    1e06:	d0 40       	sbci	r29, 0x00	; 0
    1e08:	82 0f       	add	r24, r18
    1e0a:	93 1f       	adc	r25, r19
    1e0c:	c8 53       	subi	r28, 0x38	; 56
    1e0e:	df 4f       	sbci	r29, 0xFF	; 255
    1e10:	99 83       	std	Y+1, r25	; 0x01
    1e12:	88 83       	st	Y, r24
    1e14:	c8 5c       	subi	r28, 0xC8	; 200
    1e16:	d0 40       	sbci	r29, 0x00	; 0
    1e18:	cd 53       	subi	r28, 0x3D	; 61
    1e1a:	df 4f       	sbci	r29, 0xFF	; 255
    1e1c:	48 81       	ld	r20, Y
    1e1e:	c3 5c       	subi	r28, 0xC3	; 195
    1e20:	d0 40       	sbci	r29, 0x00	; 0
    1e22:	bc 01       	movw	r22, r24
    1e24:	ce 01       	movw	r24, r28
    1e26:	8f 59       	subi	r24, 0x9F	; 159
    1e28:	9f 4f       	sbci	r25, 0xFF	; 255
    1e2a:	0e 94 19 03 	call	0x632	; 0x632 <uECC_vli_set>
    1e2e:	f7 01       	movw	r30, r14
    1e30:	b0 80       	ld	r11, Z
    1e32:	c1 14       	cp	r12, r1
    1e34:	d1 04       	cpc	r13, r1
    1e36:	41 f0       	breq	.+16     	; 0x1e48 <EccPoint_mult+0xde>
    1e38:	4b 2d       	mov	r20, r11
    1e3a:	b6 01       	movw	r22, r12
    1e3c:	ce 01       	movw	r24, r28
    1e3e:	8f 55       	subi	r24, 0x5F	; 95
    1e40:	9f 4f       	sbci	r25, 0xFF	; 255
    1e42:	0e 94 19 03 	call	0x632	; 0x632 <uECC_vli_set>
    1e46:	0c c0       	rjmp	.+24     	; 0x1e60 <EccPoint_mult+0xf6>
    1e48:	6b 2d       	mov	r22, r11
    1e4a:	ce 01       	movw	r24, r28
    1e4c:	8f 55       	subi	r24, 0x5F	; 95
    1e4e:	9f 4f       	sbci	r25, 0xFF	; 255
    1e50:	0e 94 f2 02 	call	0x5e4	; 0x5e4 <uECC_vli_clear>
    1e54:	81 e0       	ldi	r24, 0x01	; 1
    1e56:	cf 55       	subi	r28, 0x5F	; 95
    1e58:	df 4f       	sbci	r29, 0xFF	; 255
    1e5a:	88 83       	st	Y, r24
    1e5c:	c1 5a       	subi	r28, 0xA1	; 161
    1e5e:	d0 40       	sbci	r29, 0x00	; 0
    1e60:	4b 2d       	mov	r20, r11
    1e62:	be 01       	movw	r22, r28
    1e64:	6f 5d       	subi	r22, 0xDF	; 223
    1e66:	7f 4f       	sbci	r23, 0xFF	; 255
    1e68:	ce 01       	movw	r24, r28
    1e6a:	01 96       	adiw	r24, 0x01	; 1
    1e6c:	0e 94 19 03 	call	0x632	; 0x632 <uECC_vli_set>
    1e70:	0f 2e       	mov	r0, r31
    1e72:	f1 e4       	ldi	r31, 0x41	; 65
    1e74:	ef 2e       	mov	r14, r31
    1e76:	f1 2c       	mov	r15, r1
    1e78:	f0 2d       	mov	r31, r0
    1e7a:	ec 0e       	add	r14, r28
    1e7c:	fd 1e       	adc	r15, r29
    1e7e:	f0 e2       	ldi	r31, 0x20	; 32
    1e80:	ef 0e       	add	r14, r31
    1e82:	f1 1c       	adc	r15, r1
    1e84:	4b 2d       	mov	r20, r11
    1e86:	b7 01       	movw	r22, r14
    1e88:	ce 01       	movw	r24, r28
    1e8a:	8f 5b       	subi	r24, 0xBF	; 191
    1e8c:	9f 4f       	sbci	r25, 0xFF	; 255
    1e8e:	0e 94 19 03 	call	0x632	; 0x632 <uECC_vli_set>
    1e92:	91 01       	movw	r18, r2
    1e94:	ae 01       	movw	r20, r28
    1e96:	4f 55       	subi	r20, 0x5F	; 95
    1e98:	5f 4f       	sbci	r21, 0xFF	; 255
    1e9a:	b7 01       	movw	r22, r14
    1e9c:	ce 01       	movw	r24, r28
    1e9e:	81 96       	adiw	r24, 0x21	; 33
    1ea0:	d0 dd       	rcall	.-1120   	; 0x1a42 <apply_z>
    1ea2:	f1 01       	movw	r30, r2
    1ea4:	ec 55       	subi	r30, 0x5C	; 92
    1ea6:	ff 4f       	sbci	r31, 0xFF	; 255
    1ea8:	01 90       	ld	r0, Z+
    1eaa:	f0 81       	ld	r31, Z
    1eac:	e0 2d       	mov	r30, r0
    1eae:	91 01       	movw	r18, r2
    1eb0:	ae 01       	movw	r20, r28
    1eb2:	4f 55       	subi	r20, 0x5F	; 95
    1eb4:	5f 4f       	sbci	r21, 0xFF	; 255
    1eb6:	b7 01       	movw	r22, r14
    1eb8:	ce 01       	movw	r24, r28
    1eba:	81 96       	adiw	r24, 0x21	; 33
    1ebc:	09 95       	icall
    1ebe:	91 01       	movw	r18, r2
    1ec0:	ae 01       	movw	r20, r28
    1ec2:	4f 55       	subi	r20, 0x5F	; 95
    1ec4:	5f 4f       	sbci	r21, 0xFF	; 255
    1ec6:	be 01       	movw	r22, r28
    1ec8:	6f 5b       	subi	r22, 0xBF	; 191
    1eca:	7f 4f       	sbci	r23, 0xFF	; 255
    1ecc:	ce 01       	movw	r24, r28
    1ece:	01 96       	adiw	r24, 0x01	; 1
    1ed0:	b8 dd       	rcall	.-1168   	; 0x1a42 <apply_z>
    1ed2:	58 01       	movw	r10, r16
    1ed4:	22 e0       	ldi	r18, 0x02	; 2
    1ed6:	a2 1a       	sub	r10, r18
    1ed8:	b1 08       	sbc	r11, r1
    1eda:	1a 14       	cp	r1, r10
    1edc:	1b 04       	cpc	r1, r11
    1ede:	0c f0       	brlt	.+2      	; 0x1ee2 <EccPoint_mult+0x178>
    1ee0:	53 c0       	rjmp	.+166    	; 0x1f88 <EccPoint_mult+0x21e>
    1ee2:	44 24       	eor	r4, r4
    1ee4:	43 94       	inc	r4
    1ee6:	51 2c       	mov	r5, r1
    1ee8:	b5 01       	movw	r22, r10
    1eea:	cf 53       	subi	r28, 0x3F	; 63
    1eec:	df 4f       	sbci	r29, 0xFF	; 255
    1eee:	88 81       	ld	r24, Y
    1ef0:	99 81       	ldd	r25, Y+1	; 0x01
    1ef2:	c1 5c       	subi	r28, 0xC1	; 193
    1ef4:	d0 40       	sbci	r29, 0x00	; 0
    1ef6:	0e 94 cc 05 	call	0xb98	; 0xb98 <uECC_vli_testBit>
    1efa:	92 01       	movw	r18, r4
    1efc:	88 23       	and	r24, r24
    1efe:	11 f0       	breq	.+4      	; 0x1f04 <EccPoint_mult+0x19a>
    1f00:	20 e0       	ldi	r18, 0x00	; 0
    1f02:	30 e0       	ldi	r19, 0x00	; 0
    1f04:	39 01       	movw	r6, r18
    1f06:	66 0c       	add	r6, r6
    1f08:	77 1c       	adc	r7, r7
    1f0a:	66 0c       	add	r6, r6
    1f0c:	77 1c       	adc	r7, r7
    1f0e:	66 0c       	add	r6, r6
    1f10:	77 1c       	adc	r7, r7
    1f12:	66 0c       	add	r6, r6
    1f14:	77 1c       	adc	r7, r7
    1f16:	66 0c       	add	r6, r6
    1f18:	77 1c       	adc	r7, r7
    1f1a:	0f 2e       	mov	r0, r31
    1f1c:	f1 e4       	ldi	r31, 0x41	; 65
    1f1e:	cf 2e       	mov	r12, r31
    1f20:	d1 2c       	mov	r13, r1
    1f22:	f0 2d       	mov	r31, r0
    1f24:	cc 0e       	add	r12, r28
    1f26:	dd 1e       	adc	r13, r29
    1f28:	c6 0c       	add	r12, r6
    1f2a:	d7 1c       	adc	r13, r7
    1f2c:	81 e0       	ldi	r24, 0x01	; 1
    1f2e:	90 e0       	ldi	r25, 0x00	; 0
    1f30:	8c 0f       	add	r24, r28
    1f32:	9d 1f       	adc	r25, r29
    1f34:	68 0e       	add	r6, r24
    1f36:	79 1e       	adc	r7, r25
    1f38:	72 01       	movw	r14, r4
    1f3a:	e2 1a       	sub	r14, r18
    1f3c:	f3 0a       	sbc	r15, r19
    1f3e:	ee 0c       	add	r14, r14
    1f40:	ff 1c       	adc	r15, r15
    1f42:	ee 0c       	add	r14, r14
    1f44:	ff 1c       	adc	r15, r15
    1f46:	ee 0c       	add	r14, r14
    1f48:	ff 1c       	adc	r15, r15
    1f4a:	ee 0c       	add	r14, r14
    1f4c:	ff 1c       	adc	r15, r15
    1f4e:	ee 0c       	add	r14, r14
    1f50:	ff 1c       	adc	r15, r15
    1f52:	0f 2e       	mov	r0, r31
    1f54:	f1 e4       	ldi	r31, 0x41	; 65
    1f56:	8f 2e       	mov	r8, r31
    1f58:	91 2c       	mov	r9, r1
    1f5a:	f0 2d       	mov	r31, r0
    1f5c:	8c 0e       	add	r8, r28
    1f5e:	9d 1e       	adc	r9, r29
    1f60:	8e 0c       	add	r8, r14
    1f62:	9f 1c       	adc	r9, r15
    1f64:	e8 0e       	add	r14, r24
    1f66:	f9 1e       	adc	r15, r25
    1f68:	81 01       	movw	r16, r2
    1f6a:	96 01       	movw	r18, r12
    1f6c:	a3 01       	movw	r20, r6
    1f6e:	b4 01       	movw	r22, r8
    1f70:	c7 01       	movw	r24, r14
    1f72:	37 de       	rcall	.-914    	; 0x1be2 <XYcZ_addC>
    1f74:	94 01       	movw	r18, r8
    1f76:	a7 01       	movw	r20, r14
    1f78:	b6 01       	movw	r22, r12
    1f7a:	c3 01       	movw	r24, r6
    1f7c:	a3 dd       	rcall	.-1210   	; 0x1ac4 <XYcZ_add>
    1f7e:	91 e0       	ldi	r25, 0x01	; 1
    1f80:	a9 1a       	sub	r10, r25
    1f82:	b1 08       	sbc	r11, r1
    1f84:	09 f0       	breq	.+2      	; 0x1f88 <EccPoint_mult+0x21e>
    1f86:	b0 cf       	rjmp	.-160    	; 0x1ee8 <EccPoint_mult+0x17e>
    1f88:	60 e0       	ldi	r22, 0x00	; 0
    1f8a:	70 e0       	ldi	r23, 0x00	; 0
    1f8c:	cf 53       	subi	r28, 0x3F	; 63
    1f8e:	df 4f       	sbci	r29, 0xFF	; 255
    1f90:	88 81       	ld	r24, Y
    1f92:	99 81       	ldd	r25, Y+1	; 0x01
    1f94:	c1 5c       	subi	r28, 0xC1	; 193
    1f96:	d0 40       	sbci	r29, 0x00	; 0
    1f98:	0e 94 cc 05 	call	0xb98	; 0xb98 <uECC_vli_testBit>
    1f9c:	21 e0       	ldi	r18, 0x01	; 1
    1f9e:	30 e0       	ldi	r19, 0x00	; 0
    1fa0:	88 23       	and	r24, r24
    1fa2:	11 f0       	breq	.+4      	; 0x1fa8 <EccPoint_mult+0x23e>
    1fa4:	20 e0       	ldi	r18, 0x00	; 0
    1fa6:	30 e0       	ldi	r19, 0x00	; 0
    1fa8:	69 01       	movw	r12, r18
    1faa:	cc 0c       	add	r12, r12
    1fac:	dd 1c       	adc	r13, r13
    1fae:	cc 0c       	add	r12, r12
    1fb0:	dd 1c       	adc	r13, r13
    1fb2:	cc 0c       	add	r12, r12
    1fb4:	dd 1c       	adc	r13, r13
    1fb6:	cc 0c       	add	r12, r12
    1fb8:	dd 1c       	adc	r13, r13
    1fba:	cc 0c       	add	r12, r12
    1fbc:	dd 1c       	adc	r13, r13
    1fbe:	0f 2e       	mov	r0, r31
    1fc0:	f1 e4       	ldi	r31, 0x41	; 65
    1fc2:	8f 2e       	mov	r8, r31
    1fc4:	91 2c       	mov	r9, r1
    1fc6:	f0 2d       	mov	r31, r0
    1fc8:	8c 0e       	add	r8, r28
    1fca:	9d 1e       	adc	r9, r29
    1fcc:	8c 0c       	add	r8, r12
    1fce:	9d 1c       	adc	r9, r13
    1fd0:	e1 e0       	ldi	r30, 0x01	; 1
    1fd2:	f0 e0       	ldi	r31, 0x00	; 0
    1fd4:	ec 0f       	add	r30, r28
    1fd6:	fd 1f       	adc	r31, r29
    1fd8:	ce 0e       	add	r12, r30
    1fda:	df 1e       	adc	r13, r31
    1fdc:	81 e0       	ldi	r24, 0x01	; 1
    1fde:	90 e0       	ldi	r25, 0x00	; 0
    1fe0:	7c 01       	movw	r14, r24
    1fe2:	e2 1a       	sub	r14, r18
    1fe4:	f3 0a       	sbc	r15, r19
    1fe6:	ee 0c       	add	r14, r14
    1fe8:	ff 1c       	adc	r15, r15
    1fea:	ee 0c       	add	r14, r14
    1fec:	ff 1c       	adc	r15, r15
    1fee:	ee 0c       	add	r14, r14
    1ff0:	ff 1c       	adc	r15, r15
    1ff2:	ee 0c       	add	r14, r14
    1ff4:	ff 1c       	adc	r15, r15
    1ff6:	ee 0c       	add	r14, r14
    1ff8:	ff 1c       	adc	r15, r15
    1ffa:	0f 2e       	mov	r0, r31
    1ffc:	f1 e4       	ldi	r31, 0x41	; 65
    1ffe:	af 2e       	mov	r10, r31
    2000:	b1 2c       	mov	r11, r1
    2002:	f0 2d       	mov	r31, r0
    2004:	ac 0e       	add	r10, r28
    2006:	bd 1e       	adc	r11, r29
    2008:	ae 0c       	add	r10, r14
    200a:	bf 1c       	adc	r11, r15
    200c:	ee 0e       	add	r14, r30
    200e:	ff 1e       	adc	r15, r31
    2010:	81 01       	movw	r16, r2
    2012:	94 01       	movw	r18, r8
    2014:	a6 01       	movw	r20, r12
    2016:	b5 01       	movw	r22, r10
    2018:	c7 01       	movw	r24, r14
    201a:	e3 dd       	rcall	.-1082   	; 0x1be2 <XYcZ_addC>
    201c:	31 01       	movw	r6, r2
    201e:	f4 e0       	ldi	r31, 0x04	; 4
    2020:	6f 0e       	add	r6, r31
    2022:	71 1c       	adc	r7, r1
    2024:	cd 53       	subi	r28, 0x3D	; 61
    2026:	df 4f       	sbci	r29, 0xFF	; 255
    2028:	08 81       	ld	r16, Y
    202a:	c3 5c       	subi	r28, 0xC3	; 195
    202c:	d0 40       	sbci	r29, 0x00	; 0
    202e:	93 01       	movw	r18, r6
    2030:	ae 01       	movw	r20, r28
    2032:	4f 5f       	subi	r20, 0xFF	; 255
    2034:	5f 4f       	sbci	r21, 0xFF	; 255
    2036:	be 01       	movw	r22, r28
    2038:	6f 5d       	subi	r22, 0xDF	; 223
    203a:	7f 4f       	sbci	r23, 0xFF	; 255
    203c:	ce 01       	movw	r24, r28
    203e:	8f 57       	subi	r24, 0x7F	; 127
    2040:	9f 4f       	sbci	r25, 0xFF	; 255
    2042:	0e 94 94 06 	call	0xd28	; 0xd28 <uECC_vli_modSub>
    2046:	91 01       	movw	r18, r2
    2048:	a5 01       	movw	r20, r10
    204a:	be 01       	movw	r22, r28
    204c:	6f 57       	subi	r22, 0x7F	; 127
    204e:	7f 4f       	sbci	r23, 0xFF	; 255
    2050:	cb 01       	movw	r24, r22
    2052:	05 d8       	rcall	.-4086   	; 0x105e <uECC_vli_modMult_fast>
    2054:	91 01       	movw	r18, r2
    2056:	cc 53       	subi	r28, 0x3C	; 60
    2058:	df 4f       	sbci	r29, 0xFF	; 255
    205a:	48 81       	ld	r20, Y
    205c:	59 81       	ldd	r21, Y+1	; 0x01
    205e:	c4 5c       	subi	r28, 0xC4	; 196
    2060:	d0 40       	sbci	r29, 0x00	; 0
    2062:	be 01       	movw	r22, r28
    2064:	6f 57       	subi	r22, 0x7F	; 127
    2066:	7f 4f       	sbci	r23, 0xFF	; 255
    2068:	cb 01       	movw	r24, r22
    206a:	0e 94 2f 08 	call	0x105e	; 0x105e <uECC_vli_modMult_fast>
    206e:	cd 53       	subi	r28, 0x3D	; 61
    2070:	df 4f       	sbci	r29, 0xFF	; 255
    2072:	28 81       	ld	r18, Y
    2074:	c3 5c       	subi	r28, 0xC3	; 195
    2076:	d0 40       	sbci	r29, 0x00	; 0
    2078:	a3 01       	movw	r20, r6
    207a:	be 01       	movw	r22, r28
    207c:	6f 57       	subi	r22, 0x7F	; 127
    207e:	7f 4f       	sbci	r23, 0xFF	; 255
    2080:	cb 01       	movw	r24, r22
    2082:	47 d8       	rcall	.-3954   	; 0x1112 <uECC_vli_modInv>
    2084:	91 01       	movw	r18, r2
    2086:	c8 53       	subi	r28, 0x38	; 56
    2088:	df 4f       	sbci	r29, 0xFF	; 255
    208a:	48 81       	ld	r20, Y
    208c:	59 81       	ldd	r21, Y+1	; 0x01
    208e:	c8 5c       	subi	r28, 0xC8	; 200
    2090:	d0 40       	sbci	r29, 0x00	; 0
    2092:	be 01       	movw	r22, r28
    2094:	6f 57       	subi	r22, 0x7F	; 127
    2096:	7f 4f       	sbci	r23, 0xFF	; 255
    2098:	cb 01       	movw	r24, r22
    209a:	0e 94 2f 08 	call	0x105e	; 0x105e <uECC_vli_modMult_fast>
    209e:	91 01       	movw	r18, r2
    20a0:	a7 01       	movw	r20, r14
    20a2:	be 01       	movw	r22, r28
    20a4:	6f 57       	subi	r22, 0x7F	; 127
    20a6:	7f 4f       	sbci	r23, 0xFF	; 255
    20a8:	cb 01       	movw	r24, r22
    20aa:	0e 94 2f 08 	call	0x105e	; 0x105e <uECC_vli_modMult_fast>
    20ae:	81 01       	movw	r16, r2
    20b0:	95 01       	movw	r18, r10
    20b2:	a7 01       	movw	r20, r14
    20b4:	b4 01       	movw	r22, r8
    20b6:	c6 01       	movw	r24, r12
    20b8:	05 dd       	rcall	.-1526   	; 0x1ac4 <XYcZ_add>
    20ba:	91 01       	movw	r18, r2
    20bc:	ae 01       	movw	r20, r28
    20be:	4f 57       	subi	r20, 0x7F	; 127
    20c0:	5f 4f       	sbci	r21, 0xFF	; 255
    20c2:	be 01       	movw	r22, r28
    20c4:	6f 5b       	subi	r22, 0xBF	; 191
    20c6:	7f 4f       	sbci	r23, 0xFF	; 255
    20c8:	ce 01       	movw	r24, r28
    20ca:	01 96       	adiw	r24, 0x01	; 1
    20cc:	ba dc       	rcall	.-1676   	; 0x1a42 <apply_z>
    20ce:	cd 53       	subi	r28, 0x3D	; 61
    20d0:	df 4f       	sbci	r29, 0xFF	; 255
    20d2:	48 81       	ld	r20, Y
    20d4:	c3 5c       	subi	r28, 0xC3	; 195
    20d6:	d0 40       	sbci	r29, 0x00	; 0
    20d8:	be 01       	movw	r22, r28
    20da:	6f 5f       	subi	r22, 0xFF	; 255
    20dc:	7f 4f       	sbci	r23, 0xFF	; 255
    20de:	c6 53       	subi	r28, 0x36	; 54
    20e0:	df 4f       	sbci	r29, 0xFF	; 255
    20e2:	88 81       	ld	r24, Y
    20e4:	99 81       	ldd	r25, Y+1	; 0x01
    20e6:	ca 5c       	subi	r28, 0xCA	; 202
    20e8:	d0 40       	sbci	r29, 0x00	; 0
    20ea:	0e 94 19 03 	call	0x632	; 0x632 <uECC_vli_set>
    20ee:	cd 53       	subi	r28, 0x3D	; 61
    20f0:	df 4f       	sbci	r29, 0xFF	; 255
    20f2:	48 81       	ld	r20, Y
    20f4:	c3 5c       	subi	r28, 0xC3	; 195
    20f6:	d0 40       	sbci	r29, 0x00	; 0
    20f8:	be 01       	movw	r22, r28
    20fa:	6f 5b       	subi	r22, 0xBF	; 191
    20fc:	7f 4f       	sbci	r23, 0xFF	; 255
    20fe:	c6 53       	subi	r28, 0x36	; 54
    2100:	df 4f       	sbci	r29, 0xFF	; 255
    2102:	88 81       	ld	r24, Y
    2104:	99 81       	ldd	r25, Y+1	; 0x01
    2106:	ca 5c       	subi	r28, 0xCA	; 202
    2108:	d0 40       	sbci	r29, 0x00	; 0
    210a:	ca 53       	subi	r28, 0x3A	; 58
    210c:	df 4f       	sbci	r29, 0xFF	; 255
    210e:	28 81       	ld	r18, Y
    2110:	39 81       	ldd	r19, Y+1	; 0x01
    2112:	c6 5c       	subi	r28, 0xC6	; 198
    2114:	d0 40       	sbci	r29, 0x00	; 0
    2116:	82 0f       	add	r24, r18
    2118:	93 1f       	adc	r25, r19
    211a:	0e 94 19 03 	call	0x632	; 0x632 <uECC_vli_set>
    211e:	c5 53       	subi	r28, 0x35	; 53
    2120:	df 4f       	sbci	r29, 0xFF	; 255
    2122:	0f b6       	in	r0, 0x3f	; 63
    2124:	f8 94       	cli
    2126:	de bf       	out	0x3e, r29	; 62
    2128:	0f be       	out	0x3f, r0	; 63
    212a:	cd bf       	out	0x3d, r28	; 61
    212c:	df 91       	pop	r29
    212e:	cf 91       	pop	r28
    2130:	1f 91       	pop	r17
    2132:	0f 91       	pop	r16
    2134:	ff 90       	pop	r15
    2136:	ef 90       	pop	r14
    2138:	df 90       	pop	r13
    213a:	cf 90       	pop	r12
    213c:	bf 90       	pop	r11
    213e:	af 90       	pop	r10
    2140:	9f 90       	pop	r9
    2142:	8f 90       	pop	r8
    2144:	7f 90       	pop	r7
    2146:	6f 90       	pop	r6
    2148:	5f 90       	pop	r5
    214a:	4f 90       	pop	r4
    214c:	3f 90       	pop	r3
    214e:	2f 90       	pop	r2
    2150:	08 95       	ret

00002152 <regularize_k>:
    2152:	af 92       	push	r10
    2154:	bf 92       	push	r11
    2156:	cf 92       	push	r12
    2158:	df 92       	push	r13
    215a:	ef 92       	push	r14
    215c:	ff 92       	push	r15
    215e:	0f 93       	push	r16
    2160:	1f 93       	push	r17
    2162:	cf 93       	push	r28
    2164:	df 93       	push	r29
    2166:	7b 01       	movw	r14, r22
    2168:	5a 01       	movw	r10, r20
    216a:	f9 01       	movw	r30, r18
    216c:	c2 80       	ldd	r12, Z+2	; 0x02
    216e:	d3 80       	ldd	r13, Z+3	; 0x03
    2170:	a6 01       	movw	r20, r12
    2172:	49 5f       	subi	r20, 0xF9	; 249
    2174:	5f 4f       	sbci	r21, 0xFF	; 255
    2176:	ea 01       	movw	r28, r20
    2178:	dd 23       	and	r29, r29
    217a:	0c f4       	brge	.+2      	; 0x217e <regularize_k+0x2c>
    217c:	27 96       	adiw	r28, 0x07	; 7
    217e:	d5 95       	asr	r29
    2180:	c7 95       	ror	r28
    2182:	d5 95       	asr	r29
    2184:	c7 95       	ror	r28
    2186:	d5 95       	asr	r29
    2188:	c7 95       	ror	r28
    218a:	89 01       	movw	r16, r18
    218c:	0c 5d       	subi	r16, 0xDC	; 220
    218e:	1f 4f       	sbci	r17, 0xFF	; 255
    2190:	2c 2f       	mov	r18, r28
    2192:	a8 01       	movw	r20, r16
    2194:	bc 01       	movw	r22, r24
    2196:	c7 01       	movw	r24, r14
    2198:	0e 94 d8 03 	call	0x7b0	; 0x7b0 <uECC_vli_add>
    219c:	81 11       	cpse	r24, r1
    219e:	11 c0       	rjmp	.+34     	; 0x21c2 <regularize_k+0x70>
    21a0:	28 e0       	ldi	r18, 0x08	; 8
    21a2:	c2 02       	muls	r28, r18
    21a4:	c0 01       	movw	r24, r0
    21a6:	11 24       	eor	r1, r1
    21a8:	c8 16       	cp	r12, r24
    21aa:	d9 06       	cpc	r13, r25
    21ac:	6c f4       	brge	.+26     	; 0x21c8 <regularize_k+0x76>
    21ae:	b6 01       	movw	r22, r12
    21b0:	c7 01       	movw	r24, r14
    21b2:	0e 94 cc 05 	call	0xb98	; 0xb98 <uECC_vli_testBit>
    21b6:	91 e0       	ldi	r25, 0x01	; 1
    21b8:	81 11       	cpse	r24, r1
    21ba:	01 c0       	rjmp	.+2      	; 0x21be <regularize_k+0x6c>
    21bc:	90 e0       	ldi	r25, 0x00	; 0
    21be:	d9 2e       	mov	r13, r25
    21c0:	04 c0       	rjmp	.+8      	; 0x21ca <regularize_k+0x78>
    21c2:	dd 24       	eor	r13, r13
    21c4:	d3 94       	inc	r13
    21c6:	01 c0       	rjmp	.+2      	; 0x21ca <regularize_k+0x78>
    21c8:	d1 2c       	mov	r13, r1
    21ca:	2c 2f       	mov	r18, r28
    21cc:	a8 01       	movw	r20, r16
    21ce:	b7 01       	movw	r22, r14
    21d0:	c5 01       	movw	r24, r10
    21d2:	0e 94 d8 03 	call	0x7b0	; 0x7b0 <uECC_vli_add>
    21d6:	8d 2d       	mov	r24, r13
    21d8:	df 91       	pop	r29
    21da:	cf 91       	pop	r28
    21dc:	1f 91       	pop	r17
    21de:	0f 91       	pop	r16
    21e0:	ff 90       	pop	r15
    21e2:	ef 90       	pop	r14
    21e4:	df 90       	pop	r13
    21e6:	cf 90       	pop	r12
    21e8:	bf 90       	pop	r11
    21ea:	af 90       	pop	r10
    21ec:	08 95       	ret

000021ee <uECC_vli_nativeToBytes>:
    21ee:	cf 93       	push	r28
    21f0:	df 93       	push	r29
    21f2:	dc 01       	movw	r26, r24
    21f4:	16 16       	cp	r1, r22
    21f6:	17 06       	cpc	r1, r23
    21f8:	cc f4       	brge	.+50     	; 0x222c <uECC_vli_nativeToBytes+0x3e>
    21fa:	20 e0       	ldi	r18, 0x00	; 0
    21fc:	30 e0       	ldi	r19, 0x00	; 0
    21fe:	90 e0       	ldi	r25, 0x00	; 0
    2200:	eb 01       	movw	r28, r22
    2202:	21 97       	sbiw	r28, 0x01	; 1
    2204:	fe 01       	movw	r30, r28
    2206:	e2 1b       	sub	r30, r18
    2208:	f3 0b       	sbc	r31, r19
    220a:	e4 0f       	add	r30, r20
    220c:	f5 1f       	adc	r31, r21
    220e:	20 81       	ld	r18, Z
    2210:	fd 01       	movw	r30, r26
    2212:	e9 0f       	add	r30, r25
    2214:	f1 1d       	adc	r31, r1
    2216:	97 fd       	sbrc	r25, 7
    2218:	fa 95       	dec	r31
    221a:	20 83       	st	Z, r18
    221c:	9f 5f       	subi	r25, 0xFF	; 255
    221e:	29 2f       	mov	r18, r25
    2220:	09 2e       	mov	r0, r25
    2222:	00 0c       	add	r0, r0
    2224:	33 0b       	sbc	r19, r19
    2226:	26 17       	cp	r18, r22
    2228:	37 07       	cpc	r19, r23
    222a:	64 f3       	brlt	.-40     	; 0x2204 <uECC_vli_nativeToBytes+0x16>
    222c:	df 91       	pop	r29
    222e:	cf 91       	pop	r28
    2230:	08 95       	ret

00002232 <uECC_generate_random_int>:
    2232:	9f 92       	push	r9
    2234:	af 92       	push	r10
    2236:	bf 92       	push	r11
    2238:	cf 92       	push	r12
    223a:	df 92       	push	r13
    223c:	ef 92       	push	r14
    223e:	ff 92       	push	r15
    2240:	0f 93       	push	r16
    2242:	1f 93       	push	r17
    2244:	cf 93       	push	r28
    2246:	df 93       	push	r29
    2248:	8c 01       	movw	r16, r24
    224a:	5b 01       	movw	r10, r22
    224c:	d4 2f       	mov	r29, r20
    224e:	64 2f       	mov	r22, r20
    2250:	c5 01       	movw	r24, r10
    2252:	0e 94 e2 05 	call	0xbc4	; 0xbc4 <uECC_vli_numBits>
    2256:	20 91 28 03 	lds	r18, 0x0328	; 0x800328 <__data_end>
    225a:	30 91 29 03 	lds	r19, 0x0329	; 0x800329 <__data_end+0x1>
    225e:	23 2b       	or	r18, r19
    2260:	c1 f1       	breq	.+112    	; 0x22d2 <uECC_generate_random_int+0xa0>
    2262:	48 e0       	ldi	r20, 0x08	; 8
    2264:	d4 02       	muls	r29, r20
    2266:	90 01       	movw	r18, r0
    2268:	11 24       	eor	r1, r1
    226a:	28 1b       	sub	r18, r24
    226c:	39 0b       	sbc	r19, r25
    226e:	8f ef       	ldi	r24, 0xFF	; 255
    2270:	90 e0       	ldi	r25, 0x00	; 0
    2272:	02 c0       	rjmp	.+4      	; 0x2278 <uECC_generate_random_int+0x46>
    2274:	95 95       	asr	r25
    2276:	87 95       	ror	r24
    2278:	2a 95       	dec	r18
    227a:	e2 f7       	brpl	.-8      	; 0x2274 <uECC_generate_random_int+0x42>
    227c:	98 2e       	mov	r9, r24
    227e:	c0 e4       	ldi	r28, 0x40	; 64
    2280:	cd 2e       	mov	r12, r29
    2282:	0d 2e       	mov	r0, r29
    2284:	00 0c       	add	r0, r0
    2286:	dd 08       	sbc	r13, r13
    2288:	76 01       	movw	r14, r12
    228a:	81 e0       	ldi	r24, 0x01	; 1
    228c:	e8 1a       	sub	r14, r24
    228e:	f1 08       	sbc	r15, r1
    2290:	e0 0e       	add	r14, r16
    2292:	f1 1e       	adc	r15, r17
    2294:	e0 91 28 03 	lds	r30, 0x0328	; 0x800328 <__data_end>
    2298:	f0 91 29 03 	lds	r31, 0x0329	; 0x800329 <__data_end+0x1>
    229c:	b6 01       	movw	r22, r12
    229e:	c8 01       	movw	r24, r16
    22a0:	09 95       	icall
    22a2:	00 97       	sbiw	r24, 0x00	; 0
    22a4:	d9 f0       	breq	.+54     	; 0x22dc <uECC_generate_random_int+0xaa>
    22a6:	f7 01       	movw	r30, r14
    22a8:	80 81       	ld	r24, Z
    22aa:	89 21       	and	r24, r9
    22ac:	80 83       	st	Z, r24
    22ae:	6d 2f       	mov	r22, r29
    22b0:	c8 01       	movw	r24, r16
    22b2:	0e 94 b6 05 	call	0xb6c	; 0xb6c <uECC_vli_isZero>
    22b6:	81 11       	cpse	r24, r1
    22b8:	07 c0       	rjmp	.+14     	; 0x22c8 <uECC_generate_random_int+0x96>
    22ba:	4d 2f       	mov	r20, r29
    22bc:	b8 01       	movw	r22, r16
    22be:	c5 01       	movw	r24, r10
    22c0:	0e 94 4b 06 	call	0xc96	; 0xc96 <uECC_vli_cmp>
    22c4:	81 30       	cpi	r24, 0x01	; 1
    22c6:	41 f0       	breq	.+16     	; 0x22d8 <uECC_generate_random_int+0xa6>
    22c8:	c1 50       	subi	r28, 0x01	; 1
    22ca:	21 f7       	brne	.-56     	; 0x2294 <uECC_generate_random_int+0x62>
    22cc:	80 e0       	ldi	r24, 0x00	; 0
    22ce:	90 e0       	ldi	r25, 0x00	; 0
    22d0:	05 c0       	rjmp	.+10     	; 0x22dc <uECC_generate_random_int+0xaa>
    22d2:	80 e0       	ldi	r24, 0x00	; 0
    22d4:	90 e0       	ldi	r25, 0x00	; 0
    22d6:	02 c0       	rjmp	.+4      	; 0x22dc <uECC_generate_random_int+0xaa>
    22d8:	81 e0       	ldi	r24, 0x01	; 1
    22da:	90 e0       	ldi	r25, 0x00	; 0
    22dc:	df 91       	pop	r29
    22de:	cf 91       	pop	r28
    22e0:	1f 91       	pop	r17
    22e2:	0f 91       	pop	r16
    22e4:	ff 90       	pop	r15
    22e6:	ef 90       	pop	r14
    22e8:	df 90       	pop	r13
    22ea:	cf 90       	pop	r12
    22ec:	bf 90       	pop	r11
    22ee:	af 90       	pop	r10
    22f0:	9f 90       	pop	r9
    22f2:	08 95       	ret

000022f4 <bits2int>:
    22f4:	8f 92       	push	r8
    22f6:	9f 92       	push	r9
    22f8:	af 92       	push	r10
    22fa:	bf 92       	push	r11
    22fc:	cf 92       	push	r12
    22fe:	df 92       	push	r13
    2300:	ef 92       	push	r14
    2302:	ff 92       	push	r15
    2304:	0f 93       	push	r16
    2306:	1f 93       	push	r17
    2308:	cf 93       	push	r28
    230a:	df 93       	push	r29
    230c:	8c 01       	movw	r16, r24
    230e:	4b 01       	movw	r8, r22
    2310:	79 01       	movw	r14, r18
    2312:	f9 01       	movw	r30, r18
    2314:	82 81       	ldd	r24, Z+2	; 0x02
    2316:	93 81       	ldd	r25, Z+3	; 0x03
    2318:	07 96       	adiw	r24, 0x07	; 7
    231a:	ec 01       	movw	r28, r24
    231c:	0a f4       	brpl	.+2      	; 0x2320 <bits2int+0x2c>
    231e:	27 96       	adiw	r28, 0x07	; 7
    2320:	d5 95       	asr	r29
    2322:	c7 95       	ror	r28
    2324:	d5 95       	asr	r29
    2326:	c7 95       	ror	r28
    2328:	d5 95       	asr	r29
    232a:	c7 95       	ror	r28
    232c:	cc 2e       	mov	r12, r28
    232e:	dd 2e       	mov	r13, r29
    2330:	56 01       	movw	r10, r12
    2332:	4c 15       	cp	r20, r12
    2334:	5d 05       	cpc	r21, r13
    2336:	08 f4       	brcc	.+2      	; 0x233a <bits2int+0x46>
    2338:	5a 01       	movw	r10, r20
    233a:	6c 2f       	mov	r22, r28
    233c:	c8 01       	movw	r24, r16
    233e:	0e 94 f2 02 	call	0x5e4	; 0x5e4 <uECC_vli_clear>
    2342:	a4 01       	movw	r20, r8
    2344:	b5 01       	movw	r22, r10
    2346:	c8 01       	movw	r24, r16
    2348:	52 df       	rcall	.-348    	; 0x21ee <uECC_vli_nativeToBytes>
    234a:	aa 0c       	add	r10, r10
    234c:	bb 1c       	adc	r11, r11
    234e:	aa 0c       	add	r10, r10
    2350:	bb 1c       	adc	r11, r11
    2352:	aa 0c       	add	r10, r10
    2354:	bb 1c       	adc	r11, r11
    2356:	f7 01       	movw	r30, r14
    2358:	82 81       	ldd	r24, Z+2	; 0x02
    235a:	93 81       	ldd	r25, Z+3	; 0x03
    235c:	8a 15       	cp	r24, r10
    235e:	9b 05       	cpc	r25, r11
    2360:	a0 f5       	brcc	.+104    	; 0x23ca <bits2int+0xd6>
    2362:	b5 01       	movw	r22, r10
    2364:	68 1b       	sub	r22, r24
    2366:	79 0b       	sbc	r23, r25
    2368:	f8 01       	movw	r30, r16
    236a:	ec 0d       	add	r30, r12
    236c:	fd 1d       	adc	r31, r13
    236e:	0e 17       	cp	r16, r30
    2370:	1f 07       	cpc	r17, r31
    2372:	d8 f4       	brcc	.+54     	; 0x23aa <bits2int+0xb6>
    2374:	d8 01       	movw	r26, r16
    2376:	d1 2c       	mov	r13, r1
    2378:	48 e0       	ldi	r20, 0x08	; 8
    237a:	50 e0       	ldi	r21, 0x00	; 0
    237c:	46 1b       	sub	r20, r22
    237e:	57 0b       	sbc	r21, r23
    2380:	92 91       	ld	r25, -Z
    2382:	29 2f       	mov	r18, r25
    2384:	30 e0       	ldi	r19, 0x00	; 0
    2386:	c9 01       	movw	r24, r18
    2388:	06 2e       	mov	r0, r22
    238a:	02 c0       	rjmp	.+4      	; 0x2390 <bits2int+0x9c>
    238c:	95 95       	asr	r25
    238e:	87 95       	ror	r24
    2390:	0a 94       	dec	r0
    2392:	e2 f7       	brpl	.-8      	; 0x238c <bits2int+0x98>
    2394:	8d 29       	or	r24, r13
    2396:	80 83       	st	Z, r24
    2398:	04 2e       	mov	r0, r20
    239a:	01 c0       	rjmp	.+2      	; 0x239e <bits2int+0xaa>
    239c:	22 0f       	add	r18, r18
    239e:	0a 94       	dec	r0
    23a0:	ea f7       	brpl	.-6      	; 0x239c <bits2int+0xa8>
    23a2:	d2 2e       	mov	r13, r18
    23a4:	ae 17       	cp	r26, r30
    23a6:	bf 07       	cpc	r27, r31
    23a8:	59 f7       	brne	.-42     	; 0x2380 <bits2int+0x8c>
    23aa:	f4 e2       	ldi	r31, 0x24	; 36
    23ac:	ef 0e       	add	r14, r31
    23ae:	f1 1c       	adc	r15, r1
    23b0:	4c 2f       	mov	r20, r28
    23b2:	b8 01       	movw	r22, r16
    23b4:	c7 01       	movw	r24, r14
    23b6:	0e 94 19 06 	call	0xc32	; 0xc32 <uECC_vli_cmp_unsafe>
    23ba:	81 30       	cpi	r24, 0x01	; 1
    23bc:	31 f0       	breq	.+12     	; 0x23ca <bits2int+0xd6>
    23be:	2c 2f       	mov	r18, r28
    23c0:	a7 01       	movw	r20, r14
    23c2:	b8 01       	movw	r22, r16
    23c4:	c8 01       	movw	r24, r16
    23c6:	0e 94 a9 04 	call	0x952	; 0x952 <uECC_vli_sub>
    23ca:	df 91       	pop	r29
    23cc:	cf 91       	pop	r28
    23ce:	1f 91       	pop	r17
    23d0:	0f 91       	pop	r16
    23d2:	ff 90       	pop	r15
    23d4:	ef 90       	pop	r14
    23d6:	df 90       	pop	r13
    23d8:	cf 90       	pop	r12
    23da:	bf 90       	pop	r11
    23dc:	af 90       	pop	r10
    23de:	9f 90       	pop	r9
    23e0:	8f 90       	pop	r8
    23e2:	08 95       	ret

000023e4 <uECC_sign_with_k>:
    23e4:	3f 92       	push	r3
    23e6:	4f 92       	push	r4
    23e8:	5f 92       	push	r5
    23ea:	6f 92       	push	r6
    23ec:	7f 92       	push	r7
    23ee:	8f 92       	push	r8
    23f0:	9f 92       	push	r9
    23f2:	af 92       	push	r10
    23f4:	bf 92       	push	r11
    23f6:	cf 92       	push	r12
    23f8:	df 92       	push	r13
    23fa:	ef 92       	push	r14
    23fc:	ff 92       	push	r15
    23fe:	0f 93       	push	r16
    2400:	1f 93       	push	r17
    2402:	cf 93       	push	r28
    2404:	df 93       	push	r29
    2406:	cd b7       	in	r28, 0x3d	; 61
    2408:	de b7       	in	r29, 0x3e	; 62
    240a:	ca 58       	subi	r28, 0x8A	; 138
    240c:	d1 09       	sbc	r29, r1
    240e:	0f b6       	in	r0, 0x3f	; 63
    2410:	f8 94       	cli
    2412:	de bf       	out	0x3e, r29	; 62
    2414:	0f be       	out	0x3f, r0	; 63
    2416:	cd bf       	out	0x3d, r28	; 61
    2418:	cb 57       	subi	r28, 0x7B	; 123
    241a:	df 4f       	sbci	r29, 0xFF	; 255
    241c:	99 83       	std	Y+1, r25	; 0x01
    241e:	88 83       	st	Y, r24
    2420:	c5 58       	subi	r28, 0x85	; 133
    2422:	d0 40       	sbci	r29, 0x00	; 0
    2424:	c9 57       	subi	r28, 0x79	; 121
    2426:	df 4f       	sbci	r29, 0xFF	; 255
    2428:	79 83       	std	Y+1, r23	; 0x01
    242a:	68 83       	st	Y, r22
    242c:	c7 58       	subi	r28, 0x87	; 135
    242e:	d0 40       	sbci	r29, 0x00	; 0
    2430:	c7 57       	subi	r28, 0x77	; 119
    2432:	df 4f       	sbci	r29, 0xFF	; 255
    2434:	59 83       	std	Y+1, r21	; 0x01
    2436:	48 83       	st	Y, r20
    2438:	c9 58       	subi	r28, 0x89	; 137
    243a:	d0 40       	sbci	r29, 0x00	; 0
    243c:	59 01       	movw	r10, r18
    243e:	28 01       	movw	r4, r16
    2440:	67 01       	movw	r12, r14
    2442:	ce 01       	movw	r24, r28
    2444:	01 96       	adiw	r24, 0x01	; 1
    2446:	23 96       	adiw	r28, 0x03	; 3
    2448:	9f af       	std	Y+63, r25	; 0x3f
    244a:	8e af       	std	Y+62, r24	; 0x3e
    244c:	23 97       	sbiw	r28, 0x03	; 3
    244e:	80 96       	adiw	r24, 0x20	; 32
    2450:	25 96       	adiw	r28, 0x05	; 5
    2452:	9f af       	std	Y+63, r25	; 0x3f
    2454:	8e af       	std	Y+62, r24	; 0x3e
    2456:	25 97       	sbiw	r28, 0x05	; 5
    2458:	f7 01       	movw	r30, r14
    245a:	30 80       	ld	r3, Z
    245c:	63 2d       	mov	r22, r3
    245e:	c9 01       	movw	r24, r18
    2460:	0e 94 b6 05 	call	0xb6c	; 0xb6c <uECC_vli_isZero>
    2464:	81 11       	cpse	r24, r1
    2466:	f4 c0       	rjmp	.+488    	; 0x2650 <uECC_sign_with_k+0x26c>
    2468:	f7 01       	movw	r30, r14
    246a:	02 81       	ldd	r16, Z+2	; 0x02
    246c:	13 81       	ldd	r17, Z+3	; 0x03
    246e:	98 01       	movw	r18, r16
    2470:	29 5f       	subi	r18, 0xF9	; 249
    2472:	3f 4f       	sbci	r19, 0xFF	; 255
    2474:	c9 01       	movw	r24, r18
    2476:	99 23       	and	r25, r25
    2478:	0c f4       	brge	.+2      	; 0x247c <uECC_sign_with_k+0x98>
    247a:	07 96       	adiw	r24, 0x07	; 7
    247c:	4c 01       	movw	r8, r24
    247e:	95 94       	asr	r9
    2480:	87 94       	ror	r8
    2482:	95 94       	asr	r9
    2484:	87 94       	ror	r8
    2486:	95 94       	asr	r9
    2488:	87 94       	ror	r8
    248a:	36 01       	movw	r6, r12
    248c:	f4 e2       	ldi	r31, 0x24	; 36
    248e:	6f 0e       	add	r6, r31
    2490:	71 1c       	adc	r7, r1
    2492:	48 2d       	mov	r20, r8
    2494:	b5 01       	movw	r22, r10
    2496:	c3 01       	movw	r24, r6
    2498:	0e 94 4b 06 	call	0xc96	; 0xc96 <uECC_vli_cmp>
    249c:	81 30       	cpi	r24, 0x01	; 1
    249e:	09 f0       	breq	.+2      	; 0x24a2 <uECC_sign_with_k+0xbe>
    24a0:	da c0       	rjmp	.+436    	; 0x2656 <uECC_sign_with_k+0x272>
    24a2:	96 01       	movw	r18, r12
    24a4:	ae 01       	movw	r20, r28
    24a6:	4f 5d       	subi	r20, 0xDF	; 223
    24a8:	5f 4f       	sbci	r21, 0xFF	; 255
    24aa:	be 01       	movw	r22, r28
    24ac:	6f 5f       	subi	r22, 0xFF	; 255
    24ae:	7f 4f       	sbci	r23, 0xFF	; 255
    24b0:	c5 01       	movw	r24, r10
    24b2:	4f de       	rcall	.-866    	; 0x2152 <regularize_k>
    24b4:	0f 5f       	subi	r16, 0xFF	; 255
    24b6:	1f 4f       	sbci	r17, 0xFF	; 255
    24b8:	21 e0       	ldi	r18, 0x01	; 1
    24ba:	30 e0       	ldi	r19, 0x00	; 0
    24bc:	88 23       	and	r24, r24
    24be:	11 f0       	breq	.+4      	; 0x24c4 <uECC_sign_with_k+0xe0>
    24c0:	20 e0       	ldi	r18, 0x00	; 0
    24c2:	30 e0       	ldi	r19, 0x00	; 0
    24c4:	22 0f       	add	r18, r18
    24c6:	33 1f       	adc	r19, r19
    24c8:	e1 e4       	ldi	r30, 0x41	; 65
    24ca:	f0 e0       	ldi	r31, 0x00	; 0
    24cc:	ec 0f       	add	r30, r28
    24ce:	fd 1f       	adc	r31, r29
    24d0:	e2 0f       	add	r30, r18
    24d2:	f3 1f       	adc	r31, r19
    24d4:	40 81       	ld	r20, Z
    24d6:	51 81       	ldd	r21, Z+1	; 0x01
    24d8:	76 01       	movw	r14, r12
    24da:	20 e0       	ldi	r18, 0x00	; 0
    24dc:	30 e0       	ldi	r19, 0x00	; 0
    24de:	b6 01       	movw	r22, r12
    24e0:	6c 5b       	subi	r22, 0xBC	; 188
    24e2:	7f 4f       	sbci	r23, 0xFF	; 255
    24e4:	ce 01       	movw	r24, r28
    24e6:	8b 5b       	subi	r24, 0xBB	; 187
    24e8:	9f 4f       	sbci	r25, 0xFF	; 255
    24ea:	3f dc       	rcall	.-1922   	; 0x1d6a <EccPoint_mult>
    24ec:	63 2d       	mov	r22, r3
    24ee:	ce 01       	movw	r24, r28
    24f0:	8b 5b       	subi	r24, 0xBB	; 187
    24f2:	9f 4f       	sbci	r25, 0xFF	; 255
    24f4:	0e 94 b6 05 	call	0xb6c	; 0xb6c <uECC_vli_isZero>
    24f8:	81 11       	cpse	r24, r1
    24fa:	b0 c0       	rjmp	.+352    	; 0x265c <uECC_sign_with_k+0x278>
    24fc:	80 91 28 03 	lds	r24, 0x0328	; 0x800328 <__data_end>
    2500:	90 91 29 03 	lds	r25, 0x0329	; 0x800329 <__data_end+0x1>
    2504:	89 2b       	or	r24, r25
    2506:	41 f4       	brne	.+16     	; 0x2518 <uECC_sign_with_k+0x134>
    2508:	68 2d       	mov	r22, r8
    250a:	ce 01       	movw	r24, r28
    250c:	01 96       	adiw	r24, 0x01	; 1
    250e:	0e 94 f2 02 	call	0x5e4	; 0x5e4 <uECC_vli_clear>
    2512:	81 e0       	ldi	r24, 0x01	; 1
    2514:	89 83       	std	Y+1, r24	; 0x01
    2516:	08 c0       	rjmp	.+16     	; 0x2528 <uECC_sign_with_k+0x144>
    2518:	48 2d       	mov	r20, r8
    251a:	b3 01       	movw	r22, r6
    251c:	ce 01       	movw	r24, r28
    251e:	01 96       	adiw	r24, 0x01	; 1
    2520:	88 de       	rcall	.-752    	; 0x2232 <uECC_generate_random_int>
    2522:	00 97       	sbiw	r24, 0x00	; 0
    2524:	09 f4       	brne	.+2      	; 0x2528 <uECC_sign_with_k+0x144>
    2526:	9f c0       	rjmp	.+318    	; 0x2666 <uECC_sign_with_k+0x282>
    2528:	08 2d       	mov	r16, r8
    252a:	93 01       	movw	r18, r6
    252c:	ae 01       	movw	r20, r28
    252e:	4f 5f       	subi	r20, 0xFF	; 255
    2530:	5f 4f       	sbci	r21, 0xFF	; 255
    2532:	b5 01       	movw	r22, r10
    2534:	c5 01       	movw	r24, r10
    2536:	0e 94 aa 06 	call	0xd54	; 0xd54 <uECC_vli_modMult>
    253a:	28 2d       	mov	r18, r8
    253c:	a3 01       	movw	r20, r6
    253e:	b5 01       	movw	r22, r10
    2540:	c5 01       	movw	r24, r10
    2542:	0e 94 89 08 	call	0x1112	; 0x1112 <uECC_vli_modInv>
    2546:	93 01       	movw	r18, r6
    2548:	ae 01       	movw	r20, r28
    254a:	4f 5f       	subi	r20, 0xFF	; 255
    254c:	5f 4f       	sbci	r21, 0xFF	; 255
    254e:	b5 01       	movw	r22, r10
    2550:	c5 01       	movw	r24, r10
    2552:	0e 94 aa 06 	call	0xd54	; 0xd54 <uECC_vli_modMult>
    2556:	f6 01       	movw	r30, r12
    2558:	61 81       	ldd	r22, Z+1	; 0x01
    255a:	06 2e       	mov	r0, r22
    255c:	00 0c       	add	r0, r0
    255e:	77 0b       	sbc	r23, r23
    2560:	ae 01       	movw	r20, r28
    2562:	4b 5b       	subi	r20, 0xBB	; 187
    2564:	5f 4f       	sbci	r21, 0xFF	; 255
    2566:	c2 01       	movw	r24, r4
    2568:	42 de       	rcall	.-892    	; 0x21ee <uECC_vli_nativeToBytes>
    256a:	f6 01       	movw	r30, r12
    256c:	82 81       	ldd	r24, Z+2	; 0x02
    256e:	93 81       	ldd	r25, Z+3	; 0x03
    2570:	07 96       	adiw	r24, 0x07	; 7
    2572:	bc 01       	movw	r22, r24
    2574:	12 f4       	brpl	.+4      	; 0x257a <uECC_sign_with_k+0x196>
    2576:	69 5f       	subi	r22, 0xF9	; 249
    2578:	7f 4f       	sbci	r23, 0xFF	; 255
    257a:	75 95       	asr	r23
    257c:	67 95       	ror	r22
    257e:	75 95       	asr	r23
    2580:	67 95       	ror	r22
    2582:	75 95       	asr	r23
    2584:	67 95       	ror	r22
    2586:	cb 57       	subi	r28, 0x7B	; 123
    2588:	df 4f       	sbci	r29, 0xFF	; 255
    258a:	48 81       	ld	r20, Y
    258c:	59 81       	ldd	r21, Y+1	; 0x01
    258e:	c5 58       	subi	r28, 0x85	; 133
    2590:	d0 40       	sbci	r29, 0x00	; 0
    2592:	ce 01       	movw	r24, r28
    2594:	01 96       	adiw	r24, 0x01	; 1
    2596:	2b de       	rcall	.-938    	; 0x21ee <uECC_vli_nativeToBytes>
    2598:	fe 01       	movw	r30, r28
    259a:	e8 0d       	add	r30, r8
    259c:	f1 1d       	adc	r31, r1
    259e:	87 fc       	sbrc	r8, 7
    25a0:	fa 95       	dec	r31
    25a2:	10 a2       	std	Z+32, r1	; 0x20
    25a4:	43 2d       	mov	r20, r3
    25a6:	be 01       	movw	r22, r28
    25a8:	6b 5b       	subi	r22, 0xBB	; 187
    25aa:	7f 4f       	sbci	r23, 0xFF	; 255
    25ac:	ce 01       	movw	r24, r28
    25ae:	81 96       	adiw	r24, 0x21	; 33
    25b0:	0e 94 19 03 	call	0x632	; 0x632 <uECC_vli_set>
    25b4:	08 2d       	mov	r16, r8
    25b6:	93 01       	movw	r18, r6
    25b8:	ae 01       	movw	r20, r28
    25ba:	4f 5d       	subi	r20, 0xDF	; 223
    25bc:	5f 4f       	sbci	r21, 0xFF	; 255
    25be:	be 01       	movw	r22, r28
    25c0:	6f 5f       	subi	r22, 0xFF	; 255
    25c2:	7f 4f       	sbci	r23, 0xFF	; 255
    25c4:	ca 01       	movw	r24, r20
    25c6:	0e 94 aa 06 	call	0xd54	; 0xd54 <uECC_vli_modMult>
    25ca:	96 01       	movw	r18, r12
    25cc:	c7 57       	subi	r28, 0x77	; 119
    25ce:	df 4f       	sbci	r29, 0xFF	; 255
    25d0:	48 81       	ld	r20, Y
    25d2:	59 81       	ldd	r21, Y+1	; 0x01
    25d4:	c9 58       	subi	r28, 0x89	; 137
    25d6:	d0 40       	sbci	r29, 0x00	; 0
    25d8:	c9 57       	subi	r28, 0x79	; 121
    25da:	df 4f       	sbci	r29, 0xFF	; 255
    25dc:	68 81       	ld	r22, Y
    25de:	79 81       	ldd	r23, Y+1	; 0x01
    25e0:	c7 58       	subi	r28, 0x87	; 135
    25e2:	d0 40       	sbci	r29, 0x00	; 0
    25e4:	ce 01       	movw	r24, r28
    25e6:	01 96       	adiw	r24, 0x01	; 1
    25e8:	85 de       	rcall	.-758    	; 0x22f4 <bits2int>
    25ea:	93 01       	movw	r18, r6
    25ec:	ae 01       	movw	r20, r28
    25ee:	4f 5d       	subi	r20, 0xDF	; 223
    25f0:	5f 4f       	sbci	r21, 0xFF	; 255
    25f2:	be 01       	movw	r22, r28
    25f4:	6f 5f       	subi	r22, 0xFF	; 255
    25f6:	7f 4f       	sbci	r23, 0xFF	; 255
    25f8:	ca 01       	movw	r24, r20
    25fa:	0e 94 78 06 	call	0xcf0	; 0xcf0 <uECC_vli_modAdd>
    25fe:	93 01       	movw	r18, r6
    2600:	a5 01       	movw	r20, r10
    2602:	be 01       	movw	r22, r28
    2604:	6f 5d       	subi	r22, 0xDF	; 223
    2606:	7f 4f       	sbci	r23, 0xFF	; 255
    2608:	cb 01       	movw	r24, r22
    260a:	0e 94 aa 06 	call	0xd54	; 0xd54 <uECC_vli_modMult>
    260e:	68 2d       	mov	r22, r8
    2610:	ce 01       	movw	r24, r28
    2612:	81 96       	adiw	r24, 0x21	; 33
    2614:	0e 94 e2 05 	call	0xbc4	; 0xbc4 <uECC_vli_numBits>
    2618:	f6 01       	movw	r30, r12
    261a:	21 81       	ldd	r18, Z+1	; 0x01
    261c:	62 2f       	mov	r22, r18
    261e:	02 2e       	mov	r0, r18
    2620:	00 0c       	add	r0, r0
    2622:	77 0b       	sbc	r23, r23
    2624:	ab 01       	movw	r20, r22
    2626:	44 0f       	add	r20, r20
    2628:	55 1f       	adc	r21, r21
    262a:	44 0f       	add	r20, r20
    262c:	55 1f       	adc	r21, r21
    262e:	44 0f       	add	r20, r20
    2630:	55 1f       	adc	r21, r21
    2632:	48 17       	cp	r20, r24
    2634:	59 07       	cpc	r21, r25
    2636:	ac f0       	brlt	.+42     	; 0x2662 <uECC_sign_with_k+0x27e>
    2638:	ae 01       	movw	r20, r28
    263a:	4f 5d       	subi	r20, 0xDF	; 223
    263c:	5f 4f       	sbci	r21, 0xFF	; 255
    263e:	c2 01       	movw	r24, r4
    2640:	82 0f       	add	r24, r18
    2642:	91 1d       	adc	r25, r1
    2644:	27 fd       	sbrc	r18, 7
    2646:	9a 95       	dec	r25
    2648:	d2 dd       	rcall	.-1116   	; 0x21ee <uECC_vli_nativeToBytes>
    264a:	81 e0       	ldi	r24, 0x01	; 1
    264c:	90 e0       	ldi	r25, 0x00	; 0
    264e:	0b c0       	rjmp	.+22     	; 0x2666 <uECC_sign_with_k+0x282>
    2650:	80 e0       	ldi	r24, 0x00	; 0
    2652:	90 e0       	ldi	r25, 0x00	; 0
    2654:	08 c0       	rjmp	.+16     	; 0x2666 <uECC_sign_with_k+0x282>
    2656:	80 e0       	ldi	r24, 0x00	; 0
    2658:	90 e0       	ldi	r25, 0x00	; 0
    265a:	05 c0       	rjmp	.+10     	; 0x2666 <uECC_sign_with_k+0x282>
    265c:	80 e0       	ldi	r24, 0x00	; 0
    265e:	90 e0       	ldi	r25, 0x00	; 0
    2660:	02 c0       	rjmp	.+4      	; 0x2666 <uECC_sign_with_k+0x282>
    2662:	80 e0       	ldi	r24, 0x00	; 0
    2664:	90 e0       	ldi	r25, 0x00	; 0
    2666:	c6 57       	subi	r28, 0x76	; 118
    2668:	df 4f       	sbci	r29, 0xFF	; 255
    266a:	0f b6       	in	r0, 0x3f	; 63
    266c:	f8 94       	cli
    266e:	de bf       	out	0x3e, r29	; 62
    2670:	0f be       	out	0x3f, r0	; 63
    2672:	cd bf       	out	0x3d, r28	; 61
    2674:	df 91       	pop	r29
    2676:	cf 91       	pop	r28
    2678:	1f 91       	pop	r17
    267a:	0f 91       	pop	r16
    267c:	ff 90       	pop	r15
    267e:	ef 90       	pop	r14
    2680:	df 90       	pop	r13
    2682:	cf 90       	pop	r12
    2684:	bf 90       	pop	r11
    2686:	af 90       	pop	r10
    2688:	9f 90       	pop	r9
    268a:	8f 90       	pop	r8
    268c:	7f 90       	pop	r7
    268e:	6f 90       	pop	r6
    2690:	5f 90       	pop	r5
    2692:	4f 90       	pop	r4
    2694:	3f 90       	pop	r3
    2696:	08 95       	ret

00002698 <uECC_set_rng>:
    2698:	90 93 29 03 	sts	0x0329, r25	; 0x800329 <__data_end+0x1>
    269c:	80 93 28 03 	sts	0x0328, r24	; 0x800328 <__data_end>
    26a0:	08 95       	ret

000026a2 <uECC_secp256r1>:
    26a2:	84 ec       	ldi	r24, 0xC4	; 196
    26a4:	91 e0       	ldi	r25, 0x01	; 1
    26a6:	08 95       	ret

000026a8 <uECC_sign>:

int uECC_sign(const uint8_t *private_key,
              const uint8_t *message_hash,
              unsigned hash_size,
              uint8_t *signature,
              uECC_Curve curve) {
    26a8:	3f 92       	push	r3
    26aa:	4f 92       	push	r4
    26ac:	5f 92       	push	r5
    26ae:	6f 92       	push	r6
    26b0:	7f 92       	push	r7
    26b2:	8f 92       	push	r8
    26b4:	9f 92       	push	r9
    26b6:	af 92       	push	r10
    26b8:	bf 92       	push	r11
    26ba:	cf 92       	push	r12
    26bc:	df 92       	push	r13
    26be:	ef 92       	push	r14
    26c0:	ff 92       	push	r15
    26c2:	0f 93       	push	r16
    26c4:	1f 93       	push	r17
    26c6:	cf 93       	push	r28
    26c8:	df 93       	push	r29
    26ca:	cd b7       	in	r28, 0x3d	; 61
    26cc:	de b7       	in	r29, 0x3e	; 62
    26ce:	a2 97       	sbiw	r28, 0x22	; 34
    26d0:	0f b6       	in	r0, 0x3f	; 63
    26d2:	f8 94       	cli
    26d4:	de bf       	out	0x3e, r29	; 62
    26d6:	0f be       	out	0x3f, r0	; 63
    26d8:	cd bf       	out	0x3d, r28	; 61
    26da:	3c 01       	movw	r6, r24
    26dc:	4b 01       	movw	r8, r22
    26de:	5a 01       	movw	r10, r20
    26e0:	3a a3       	std	Y+34, r19	; 0x22
    26e2:	29 a3       	std	Y+33, r18	; 0x21
    26e4:	68 01       	movw	r12, r16
    26e6:	68 94       	set
    26e8:	33 24       	eor	r3, r3
    26ea:	36 f8       	bld	r3, 6
    uECC_word_t k[uECC_MAX_WORDS];
    uECC_word_t tries;

    for (tries = 0; tries < uECC_RNG_MAX_TRIES; ++tries) {
        if (!uECC_generate_random_int(k, curve->n, BITS_TO_WORDS(curve->num_n_bits))) {
    26ec:	28 01       	movw	r4, r16
    26ee:	84 e2       	ldi	r24, 0x24	; 36
    26f0:	48 0e       	add	r4, r24
    26f2:	51 1c       	adc	r5, r1
    26f4:	f6 01       	movw	r30, r12
    26f6:	82 81       	ldd	r24, Z+2	; 0x02
    26f8:	93 81       	ldd	r25, Z+3	; 0x03
    26fa:	07 96       	adiw	r24, 0x07	; 7
    26fc:	ac 01       	movw	r20, r24
    26fe:	12 f4       	brpl	.+4      	; 0x2704 <uECC_sign+0x5c>
    2700:	49 5f       	subi	r20, 0xF9	; 249
    2702:	5f 4f       	sbci	r21, 0xFF	; 255
    2704:	55 95       	asr	r21
    2706:	47 95       	ror	r20
    2708:	55 95       	asr	r21
    270a:	47 95       	ror	r20
    270c:	55 95       	asr	r21
    270e:	47 95       	ror	r20
    2710:	b2 01       	movw	r22, r4
    2712:	ce 01       	movw	r24, r28
    2714:	01 96       	adiw	r24, 0x01	; 1
    2716:	8d dd       	rcall	.-1254   	; 0x2232 <uECC_generate_random_int>
    2718:	00 97       	sbiw	r24, 0x00	; 0
    271a:	91 f0       	breq	.+36     	; 0x2740 <uECC_sign+0x98>
            return 0;
        }

        if (uECC_sign_with_k(private_key, message_hash, hash_size, k, signature, curve)) {
    271c:	76 01       	movw	r14, r12
    271e:	09 a1       	ldd	r16, Y+33	; 0x21
    2720:	1a a1       	ldd	r17, Y+34	; 0x22
    2722:	9e 01       	movw	r18, r28
    2724:	2f 5f       	subi	r18, 0xFF	; 255
    2726:	3f 4f       	sbci	r19, 0xFF	; 255
    2728:	a5 01       	movw	r20, r10
    272a:	b4 01       	movw	r22, r8
    272c:	c3 01       	movw	r24, r6
    272e:	5a de       	rcall	.-844    	; 0x23e4 <uECC_sign_with_k>
    2730:	00 97       	sbiw	r24, 0x00	; 0
    2732:	21 f4       	brne	.+8      	; 0x273c <uECC_sign+0x94>
    2734:	3a 94       	dec	r3
              uint8_t *signature,
              uECC_Curve curve) {
    uECC_word_t k[uECC_MAX_WORDS];
    uECC_word_t tries;

    for (tries = 0; tries < uECC_RNG_MAX_TRIES; ++tries) {
    2736:	31 10       	cpse	r3, r1
    2738:	dd cf       	rjmp	.-70     	; 0x26f4 <uECC_sign+0x4c>
    273a:	02 c0       	rjmp	.+4      	; 0x2740 <uECC_sign+0x98>
        if (!uECC_generate_random_int(k, curve->n, BITS_TO_WORDS(curve->num_n_bits))) {
            return 0;
        }

        if (uECC_sign_with_k(private_key, message_hash, hash_size, k, signature, curve)) {
            return 1;
    273c:	81 e0       	ldi	r24, 0x01	; 1
    273e:	90 e0       	ldi	r25, 0x00	; 0
        }
    }
    return 0;
}
    2740:	a2 96       	adiw	r28, 0x22	; 34
    2742:	0f b6       	in	r0, 0x3f	; 63
    2744:	f8 94       	cli
    2746:	de bf       	out	0x3e, r29	; 62
    2748:	0f be       	out	0x3f, r0	; 63
    274a:	cd bf       	out	0x3d, r28	; 61
    274c:	df 91       	pop	r29
    274e:	cf 91       	pop	r28
    2750:	1f 91       	pop	r17
    2752:	0f 91       	pop	r16
    2754:	ff 90       	pop	r15
    2756:	ef 90       	pop	r14
    2758:	df 90       	pop	r13
    275a:	cf 90       	pop	r12
    275c:	bf 90       	pop	r11
    275e:	af 90       	pop	r10
    2760:	9f 90       	pop	r9
    2762:	8f 90       	pop	r8
    2764:	7f 90       	pop	r7
    2766:	6f 90       	pop	r6
    2768:	5f 90       	pop	r5
    276a:	4f 90       	pop	r4
    276c:	3f 90       	pop	r3
    276e:	08 95       	ret

00002770 <hex_to_bytes>:
		*dest++ = table[c >> 4];
		*dest++ = table[c & 0x0f];
	}
}

void hex_to_bytes(char* src, uint8_t slength, uint8_t* dest) {
    2770:	1f 93       	push	r17
    2772:	cf 93       	push	r28
    2774:	df 93       	push	r29

	uint8_t index = 0;
	while (index < slength) {
    2776:	66 23       	and	r22, r22
    2778:	f1 f1       	breq	.+124    	; 0x27f6 <hex_to_bytes+0x86>
    277a:	a8 2f       	mov	r26, r24
    277c:	b9 2f       	mov	r27, r25
    277e:	e0 e0       	ldi	r30, 0x00	; 0
    2780:	f0 e0       	ldi	r31, 0x00	; 0
		char c = src[index];
		int value = 0;
    2782:	10 e0       	ldi	r17, 0x00	; 0
    2784:	70 e0       	ldi	r23, 0x00	; 0
    2786:	2e 2f       	mov	r18, r30

void hex_to_bytes(char* src, uint8_t slength, uint8_t* dest) {

	uint8_t index = 0;
	while (index < slength) {
		char c = src[index];
    2788:	8d 91       	ld	r24, X+
    278a:	31 96       	adiw	r30, 0x01	; 1
		int value = 0;
		if(c >= '0' && c <= '9')
    278c:	90 ed       	ldi	r25, 0xD0	; 208
    278e:	98 0f       	add	r25, r24
    2790:	9a 30       	cpi	r25, 0x0A	; 10
    2792:	18 f4       	brcc	.+6      	; 0x279a <hex_to_bytes+0x2a>
		value = (c - '0');
    2794:	90 e0       	ldi	r25, 0x00	; 0
    2796:	c0 97       	sbiw	r24, 0x30	; 48
    2798:	11 c0       	rjmp	.+34     	; 0x27bc <hex_to_bytes+0x4c>
		else if (c >= 'A' && c <= 'F')
    279a:	9f eb       	ldi	r25, 0xBF	; 191
    279c:	98 0f       	add	r25, r24
    279e:	96 30       	cpi	r25, 0x06	; 6
    27a0:	18 f4       	brcc	.+6      	; 0x27a8 <hex_to_bytes+0x38>
		value = (10 + (c - 'A'));
    27a2:	90 e0       	ldi	r25, 0x00	; 0
    27a4:	c7 97       	sbiw	r24, 0x37	; 55
    27a6:	0a c0       	rjmp	.+20     	; 0x27bc <hex_to_bytes+0x4c>
		else if (c >= 'a' && c <= 'f')
    27a8:	9f e9       	ldi	r25, 0x9F	; 159
    27aa:	98 0f       	add	r25, r24
    27ac:	96 30       	cpi	r25, 0x06	; 6
    27ae:	20 f4       	brcc	.+8      	; 0x27b8 <hex_to_bytes+0x48>
		value = (10 + (c - 'a'));
    27b0:	90 e0       	ldi	r25, 0x00	; 0
    27b2:	87 55       	subi	r24, 0x57	; 87
    27b4:	91 09       	sbc	r25, r1
    27b6:	02 c0       	rjmp	.+4      	; 0x27bc <hex_to_bytes+0x4c>
void hex_to_bytes(char* src, uint8_t slength, uint8_t* dest) {

	uint8_t index = 0;
	while (index < slength) {
		char c = src[index];
		int value = 0;
    27b8:	81 2f       	mov	r24, r17
    27ba:	97 2f       	mov	r25, r23
		else if (c >= 'A' && c <= 'F')
		value = (10 + (c - 'A'));
		else if (c >= 'a' && c <= 'f')
		value = (10 + (c - 'a'));

		dest[(index/2)] += value << (((index + 1) % 2) * 4);
    27bc:	26 95       	lsr	r18
    27be:	ea 01       	movw	r28, r20
    27c0:	c2 0f       	add	r28, r18
    27c2:	d1 1d       	adc	r29, r1
    27c4:	9f 01       	movw	r18, r30
    27c6:	21 70       	andi	r18, 0x01	; 1
    27c8:	30 78       	andi	r19, 0x80	; 128
    27ca:	33 23       	and	r19, r19
    27cc:	34 f4       	brge	.+12     	; 0x27da <hex_to_bytes+0x6a>
    27ce:	21 50       	subi	r18, 0x01	; 1
    27d0:	31 09       	sbc	r19, r1
    27d2:	2e 6f       	ori	r18, 0xFE	; 254
    27d4:	3f 6f       	ori	r19, 0xFF	; 255
    27d6:	2f 5f       	subi	r18, 0xFF	; 255
    27d8:	3f 4f       	sbci	r19, 0xFF	; 255
    27da:	22 0f       	add	r18, r18
    27dc:	33 1f       	adc	r19, r19
    27de:	22 0f       	add	r18, r18
    27e0:	33 1f       	adc	r19, r19
    27e2:	02 c0       	rjmp	.+4      	; 0x27e8 <hex_to_bytes+0x78>
    27e4:	88 0f       	add	r24, r24
    27e6:	99 1f       	adc	r25, r25
    27e8:	2a 95       	dec	r18
    27ea:	e2 f7       	brpl	.-8      	; 0x27e4 <hex_to_bytes+0x74>
    27ec:	98 81       	ld	r25, Y
    27ee:	89 0f       	add	r24, r25
    27f0:	88 83       	st	Y, r24
}

void hex_to_bytes(char* src, uint8_t slength, uint8_t* dest) {

	uint8_t index = 0;
	while (index < slength) {
    27f2:	e6 17       	cp	r30, r22
    27f4:	40 f2       	brcs	.-112    	; 0x2786 <hex_to_bytes+0x16>

		dest[(index/2)] += value << (((index + 1) % 2) * 4);

		index++;
	}
}
    27f6:	df 91       	pop	r29
    27f8:	cf 91       	pop	r28
    27fa:	1f 91       	pop	r17
    27fc:	08 95       	ret

000027fe <RNG>:
		uart_puts("verify failed");
		return;
	}
	printf("\n");
	uart_puts("Keys Match!");
}
    27fe:	0f 93       	push	r16
    2800:	1f 93       	push	r17
    2802:	cf 93       	push	r28
    2804:	df 93       	push	r29
    2806:	8c 01       	movw	r16, r24
    2808:	eb 01       	movw	r28, r22
    280a:	20 97       	sbiw	r28, 0x00	; 0
    280c:	39 f0       	breq	.+14     	; 0x281c <RNG+0x1e>
    280e:	0e 94 d6 20 	call	0x41ac	; 0x41ac <rand>
    2812:	f8 01       	movw	r30, r16
    2814:	81 93       	st	Z+, r24
    2816:	8f 01       	movw	r16, r30
    2818:	21 97       	sbiw	r28, 0x01	; 1
    281a:	c9 f7       	brne	.-14     	; 0x280e <RNG+0x10>
    281c:	81 e0       	ldi	r24, 0x01	; 1
    281e:	90 e0       	ldi	r25, 0x00	; 0
    2820:	df 91       	pop	r29
    2822:	cf 91       	pop	r28
    2824:	1f 91       	pop	r17
    2826:	0f 91       	pop	r16
    2828:	08 95       	ret

0000282a <buttons_init>:
    282a:	1d b8       	out	0x0d, r1	; 13
    282c:	80 ef       	ldi	r24, 0xF0	; 240
    282e:	8e b9       	out	0x0e, r24	; 14
    2830:	9f ef       	ldi	r25, 0xFF	; 255
    2832:	90 93 6a 00 	sts	0x006A, r25	; 0x80006a <__TEXT_REGION_LENGTH__+0x7e006a>
    2836:	8d bb       	out	0x1d, r24	; 29
    2838:	08 95       	ret

0000283a <__vector_5>:




	
ISR(INT4_vect){
    283a:	1f 92       	push	r1
    283c:	0f 92       	push	r0
    283e:	0f b6       	in	r0, 0x3f	; 63
    2840:	0f 92       	push	r0
    2842:	11 24       	eor	r1, r1
    2844:	0b b6       	in	r0, 0x3b	; 59
    2846:	0f 92       	push	r0
    2848:	2f 93       	push	r18
    284a:	3f 93       	push	r19
    284c:	4f 93       	push	r20
    284e:	5f 93       	push	r21
    2850:	6f 93       	push	r22
    2852:	7f 93       	push	r23
    2854:	8f 93       	push	r24
    2856:	9f 93       	push	r25
    2858:	af 93       	push	r26
    285a:	bf 93       	push	r27
    285c:	ef 93       	push	r30
    285e:	ff 93       	push	r31
	uart_puts("running scenario");
    2860:	8e ec       	ldi	r24, 0xCE	; 206
    2862:	92 e0       	ldi	r25, 0x02	; 2
    2864:	0e 94 05 20 	call	0x400a	; 0x400a <uart_puts>
	run_scenario = SCENARIO1;
    2868:	81 e0       	ldi	r24, 0x01	; 1
    286a:	80 93 2a 03 	sts	0x032A, r24	; 0x80032a <run_scenario>
}
    286e:	ff 91       	pop	r31
    2870:	ef 91       	pop	r30
    2872:	bf 91       	pop	r27
    2874:	af 91       	pop	r26
    2876:	9f 91       	pop	r25
    2878:	8f 91       	pop	r24
    287a:	7f 91       	pop	r23
    287c:	6f 91       	pop	r22
    287e:	5f 91       	pop	r21
    2880:	4f 91       	pop	r20
    2882:	3f 91       	pop	r19
    2884:	2f 91       	pop	r18
    2886:	0f 90       	pop	r0
    2888:	0b be       	out	0x3b, r0	; 59
    288a:	0f 90       	pop	r0
    288c:	0f be       	out	0x3f, r0	; 63
    288e:	0f 90       	pop	r0
    2890:	1f 90       	pop	r1
    2892:	18 95       	reti

00002894 <__vector_6>:

ISR(INT5_vect){
    2894:	1f 92       	push	r1
    2896:	0f 92       	push	r0
    2898:	0f b6       	in	r0, 0x3f	; 63
    289a:	0f 92       	push	r0
    289c:	11 24       	eor	r1, r1
    289e:	0b b6       	in	r0, 0x3b	; 59
    28a0:	0f 92       	push	r0
    28a2:	2f 93       	push	r18
    28a4:	3f 93       	push	r19
    28a6:	4f 93       	push	r20
    28a8:	5f 93       	push	r21
    28aa:	6f 93       	push	r22
    28ac:	7f 93       	push	r23
    28ae:	8f 93       	push	r24
    28b0:	9f 93       	push	r25
    28b2:	af 93       	push	r26
    28b4:	bf 93       	push	r27
    28b6:	ef 93       	push	r30
    28b8:	ff 93       	push	r31
    28ba:	cf 93       	push	r28
    28bc:	df 93       	push	r29
    28be:	00 d0       	rcall	.+0      	; 0x28c0 <__vector_6+0x2c>
    28c0:	cd b7       	in	r28, 0x3d	; 61
    28c2:	de b7       	in	r29, 0x3e	; 62
	char target[] = "5";
    28c4:	85 e3       	ldi	r24, 0x35	; 53
    28c6:	90 e0       	ldi	r25, 0x00	; 0
    28c8:	9a 83       	std	Y+2, r25	; 0x02
    28ca:	89 83       	std	Y+1, r24	; 0x01
	uart_puts(target);
    28cc:	ce 01       	movw	r24, r28
    28ce:	01 96       	adiw	r24, 0x01	; 1
    28d0:	0e 94 05 20 	call	0x400a	; 0x400a <uart_puts>
	//SendByMOb2();
}
    28d4:	0f 90       	pop	r0
    28d6:	0f 90       	pop	r0
    28d8:	df 91       	pop	r29
    28da:	cf 91       	pop	r28
    28dc:	ff 91       	pop	r31
    28de:	ef 91       	pop	r30
    28e0:	bf 91       	pop	r27
    28e2:	af 91       	pop	r26
    28e4:	9f 91       	pop	r25
    28e6:	8f 91       	pop	r24
    28e8:	7f 91       	pop	r23
    28ea:	6f 91       	pop	r22
    28ec:	5f 91       	pop	r21
    28ee:	4f 91       	pop	r20
    28f0:	3f 91       	pop	r19
    28f2:	2f 91       	pop	r18
    28f4:	0f 90       	pop	r0
    28f6:	0b be       	out	0x3b, r0	; 59
    28f8:	0f 90       	pop	r0
    28fa:	0f be       	out	0x3f, r0	; 63
    28fc:	0f 90       	pop	r0
    28fe:	1f 90       	pop	r1
    2900:	18 95       	reti

00002902 <__vector_8>:
	uint8_t challenge[64];
	//memcpy(challenge, public, sizeof(hash));
	sign_challenge(challenge, signature);
}

ISR(INT7_vect){
    2902:	1f 92       	push	r1
    2904:	0f 92       	push	r0
    2906:	0f b6       	in	r0, 0x3f	; 63
    2908:	0f 92       	push	r0
    290a:	11 24       	eor	r1, r1
    290c:	0b b6       	in	r0, 0x3b	; 59
    290e:	0f 92       	push	r0
    2910:	2f 93       	push	r18
    2912:	3f 93       	push	r19
    2914:	4f 93       	push	r20
    2916:	5f 93       	push	r21
    2918:	6f 93       	push	r22
    291a:	7f 93       	push	r23
    291c:	8f 93       	push	r24
    291e:	9f 93       	push	r25
    2920:	af 93       	push	r26
    2922:	bf 93       	push	r27
    2924:	ef 93       	push	r30
    2926:	ff 93       	push	r31
    2928:	cf 93       	push	r28
    292a:	df 93       	push	r29
    292c:	cd b7       	in	r28, 0x3d	; 61
    292e:	de b7       	in	r29, 0x3e	; 62
    2930:	c0 54       	subi	r28, 0x40	; 64
    2932:	d1 09       	sbc	r29, r1
    2934:	de bf       	out	0x3e, r29	; 62
    2936:	cd bf       	out	0x3d, r28	; 61
	uint8_t target[64];
	RNG(target, 64);
    2938:	60 e4       	ldi	r22, 0x40	; 64
    293a:	70 e0       	ldi	r23, 0x00	; 0
    293c:	ce 01       	movw	r24, r28
    293e:	01 96       	adiw	r24, 0x01	; 1
    2940:	5e df       	rcall	.-324    	; 0x27fe <RNG>
	//SendByMOb2();
}
    2942:	c0 5c       	subi	r28, 0xC0	; 192
    2944:	df 4f       	sbci	r29, 0xFF	; 255
    2946:	0f b6       	in	r0, 0x3f	; 63
    2948:	f8 94       	cli
    294a:	de bf       	out	0x3e, r29	; 62
    294c:	0f be       	out	0x3f, r0	; 63
    294e:	cd bf       	out	0x3d, r28	; 61
    2950:	df 91       	pop	r29
    2952:	cf 91       	pop	r28
    2954:	ff 91       	pop	r31
    2956:	ef 91       	pop	r30
    2958:	bf 91       	pop	r27
    295a:	af 91       	pop	r26
    295c:	9f 91       	pop	r25
    295e:	8f 91       	pop	r24
    2960:	7f 91       	pop	r23
    2962:	6f 91       	pop	r22
    2964:	5f 91       	pop	r21
    2966:	4f 91       	pop	r20
    2968:	3f 91       	pop	r19
    296a:	2f 91       	pop	r18
    296c:	0f 90       	pop	r0
    296e:	0b be       	out	0x3b, r0	; 59
    2970:	0f 90       	pop	r0
    2972:	0f be       	out	0x3f, r0	; 63
    2974:	0f 90       	pop	r0
    2976:	1f 90       	pop	r1
    2978:	18 95       	reti

0000297a <sign_challenge>:



int sign_challenge(uint8_t challenge[64], uint8_t signature[64]){
    297a:	cf 92       	push	r12
    297c:	df 92       	push	r13
    297e:	ef 92       	push	r14
    2980:	ff 92       	push	r15
    2982:	0f 93       	push	r16
    2984:	1f 93       	push	r17
    2986:	cf 93       	push	r28
    2988:	df 93       	push	r29
    298a:	cd b7       	in	r28, 0x3d	; 61
    298c:	de b7       	in	r29, 0x3e	; 62
    298e:	c0 5a       	subi	r28, 0xA0	; 160
    2990:	d1 09       	sbc	r29, r1
    2992:	0f b6       	in	r0, 0x3f	; 63
    2994:	f8 94       	cli
    2996:	de bf       	out	0x3e, r29	; 62
    2998:	0f be       	out	0x3f, r0	; 63
    299a:	cd bf       	out	0x3d, r28	; 61
    299c:	6c 01       	movw	r12, r24
    299e:	7b 01       	movw	r14, r22
	uECC_set_rng(&RNG);
    29a0:	8f ef       	ldi	r24, 0xFF	; 255
    29a2:	93 e1       	ldi	r25, 0x13	; 19
    29a4:	79 de       	rcall	.-782    	; 0x2698 <uECC_set_rng>
	const struct uECC_Curve_t *curve = uECC_secp256r1();
    29a6:	7d de       	rcall	.-774    	; 0x26a2 <uECC_secp256r1>
    29a8:	8c 01       	movw	r16, r24
    29aa:	ae 01       	movw	r20, r28
	uint8_t hash[64];
	uint8_t private2[32];
	uint8_t public2[64];
	hex_to_bytes(private_key_hex, 64, private2);
    29ac:	4f 5b       	subi	r20, 0xBF	; 191
    29ae:	5f 4f       	sbci	r21, 0xFF	; 255
    29b0:	60 e4       	ldi	r22, 0x40	; 64
    29b2:	84 e8       	ldi	r24, 0x84	; 132
    29b4:	91 e0       	ldi	r25, 0x01	; 1
    29b6:	dc de       	rcall	.-584    	; 0x2770 <hex_to_bytes>
    29b8:	ae 01       	movw	r20, r28
	hex_to_bytes(public_key_hex, 128, public2);
    29ba:	4f 59       	subi	r20, 0x9F	; 159
    29bc:	5f 4f       	sbci	r21, 0xFF	; 255
    29be:	60 e8       	ldi	r22, 0x80	; 128
    29c0:	84 e0       	ldi	r24, 0x04	; 4
    29c2:	91 e0       	ldi	r25, 0x01	; 1
    29c4:	d5 de       	rcall	.-598    	; 0x2770 <hex_to_bytes>
    29c6:	20 e0       	ldi	r18, 0x00	; 0
	sha512(hash, challenge, 512);
    29c8:	32 e0       	ldi	r19, 0x02	; 2
    29ca:	40 e0       	ldi	r20, 0x00	; 0
    29cc:	50 e0       	ldi	r21, 0x00	; 0
    29ce:	b6 01       	movw	r22, r12
    29d0:	ce 01       	movw	r24, r28
    29d2:	01 96       	adiw	r24, 0x01	; 1
    29d4:	0e 94 83 1f 	call	0x3f06	; 0x3f06 <sha512>
    29d8:	97 01       	movw	r18, r14
	
	//result = memcmp(public, public2, 64);
	
	//if(!memcmp(public, public2, 64)) uart_puts("the same");
	
	if (!uECC_sign(private2, hash, 64, signature, curve)) {
    29da:	40 e4       	ldi	r20, 0x40	; 64
    29dc:	50 e0       	ldi	r21, 0x00	; 0
    29de:	be 01       	movw	r22, r28
    29e0:	6f 5f       	subi	r22, 0xFF	; 255
    29e2:	7f 4f       	sbci	r23, 0xFF	; 255
    29e4:	ce 01       	movw	r24, r28
    29e6:	8f 5b       	subi	r24, 0xBF	; 191
    29e8:	9f 4f       	sbci	r25, 0xFF	; 255
    29ea:	5e de       	rcall	.-836    	; 0x26a8 <uECC_sign>
    29ec:	89 2b       	or	r24, r25
    29ee:	39 f4       	brne	.+14     	; 0x29fe <sign_challenge+0x84>
    29f0:	88 ea       	ldi	r24, 0xA8	; 168
		uart_puts("sign failed");
    29f2:	92 e0       	ldi	r25, 0x02	; 2
    29f4:	0e 94 05 20 	call	0x400a	; 0x400a <uart_puts>
    29f8:	81 e0       	ldi	r24, 0x01	; 1
		return 1;
    29fa:	90 e0       	ldi	r25, 0x00	; 0
    29fc:	02 c0       	rjmp	.+4      	; 0x2a02 <sign_challenge+0x88>
    29fe:	80 e0       	ldi	r24, 0x00	; 0
	}
	
	return 0;
    2a00:	90 e0       	ldi	r25, 0x00	; 0
    2a02:	c0 56       	subi	r28, 0x60	; 96
}
    2a04:	df 4f       	sbci	r29, 0xFF	; 255
    2a06:	0f b6       	in	r0, 0x3f	; 63
    2a08:	f8 94       	cli
    2a0a:	de bf       	out	0x3e, r29	; 62
    2a0c:	0f be       	out	0x3f, r0	; 63
    2a0e:	cd bf       	out	0x3d, r28	; 61
    2a10:	df 91       	pop	r29
    2a12:	cf 91       	pop	r28
    2a14:	1f 91       	pop	r17
    2a16:	0f 91       	pop	r16
    2a18:	ff 90       	pop	r15
    2a1a:	ef 90       	pop	r14
    2a1c:	df 90       	pop	r13
    2a1e:	cf 90       	pop	r12
    2a20:	08 95       	ret

00002a22 <__vector_7>:
    2a22:	1f 92       	push	r1
	char target[] = "5";
	uart_puts(target);
	//SendByMOb2();
}

ISR(INT6_vect){
    2a24:	0f 92       	push	r0
    2a26:	0f b6       	in	r0, 0x3f	; 63
    2a28:	0f 92       	push	r0
    2a2a:	11 24       	eor	r1, r1
    2a2c:	0b b6       	in	r0, 0x3b	; 59
    2a2e:	0f 92       	push	r0
    2a30:	2f 93       	push	r18
    2a32:	3f 93       	push	r19
    2a34:	4f 93       	push	r20
    2a36:	5f 93       	push	r21
    2a38:	6f 93       	push	r22
    2a3a:	7f 93       	push	r23
    2a3c:	8f 93       	push	r24
    2a3e:	9f 93       	push	r25
    2a40:	af 93       	push	r26
    2a42:	bf 93       	push	r27
    2a44:	ef 93       	push	r30
    2a46:	ff 93       	push	r31
    2a48:	cf 93       	push	r28
    2a4a:	df 93       	push	r29
    2a4c:	cd b7       	in	r28, 0x3d	; 61
    2a4e:	de b7       	in	r29, 0x3e	; 62
    2a50:	c0 58       	subi	r28, 0x80	; 128
    2a52:	d1 09       	sbc	r29, r1
    2a54:	de bf       	out	0x3e, r29	; 62
    2a56:	cd bf       	out	0x3d, r28	; 61
	uint8_t signature[64];
	uint8_t challenge[64];
	//memcpy(challenge, public, sizeof(hash));
	sign_challenge(challenge, signature);
    2a58:	be 01       	movw	r22, r28
    2a5a:	6f 5f       	subi	r22, 0xFF	; 255
    2a5c:	7f 4f       	sbci	r23, 0xFF	; 255
    2a5e:	ce 01       	movw	r24, r28
    2a60:	8f 5b       	subi	r24, 0xBF	; 191
    2a62:	9f 4f       	sbci	r25, 0xFF	; 255
    2a64:	8a df       	rcall	.-236    	; 0x297a <sign_challenge>
}
    2a66:	c0 58       	subi	r28, 0x80	; 128
    2a68:	df 4f       	sbci	r29, 0xFF	; 255
    2a6a:	0f b6       	in	r0, 0x3f	; 63
    2a6c:	f8 94       	cli
    2a6e:	de bf       	out	0x3e, r29	; 62
    2a70:	0f be       	out	0x3f, r0	; 63
    2a72:	cd bf       	out	0x3d, r28	; 61
    2a74:	df 91       	pop	r29
    2a76:	cf 91       	pop	r28
    2a78:	ff 91       	pop	r31
    2a7a:	ef 91       	pop	r30
    2a7c:	bf 91       	pop	r27
    2a7e:	af 91       	pop	r26
    2a80:	9f 91       	pop	r25
    2a82:	8f 91       	pop	r24
    2a84:	7f 91       	pop	r23
    2a86:	6f 91       	pop	r22
    2a88:	5f 91       	pop	r21
    2a8a:	4f 91       	pop	r20
    2a8c:	3f 91       	pop	r19
    2a8e:	2f 91       	pop	r18
    2a90:	0f 90       	pop	r0
    2a92:	0b be       	out	0x3b, r0	; 59
    2a94:	0f 90       	pop	r0
    2a96:	0f be       	out	0x3f, r0	; 63
    2a98:	0f 90       	pop	r0
    2a9a:	1f 90       	pop	r1
    2a9c:	18 95       	reti

00002a9e <run_1>:
	}
	
	return 0;
}

int run_1(){
    2a9e:	cf 93       	push	r28
    2aa0:	df 93       	push	r29
    2aa2:	cd b7       	in	r28, 0x3d	; 61
    2aa4:	de b7       	in	r29, 0x3e	; 62
    2aa6:	c8 58       	subi	r28, 0x88	; 136
    2aa8:	d1 09       	sbc	r29, r1
    2aaa:	0f b6       	in	r0, 0x3f	; 63
    2aac:	f8 94       	cli
    2aae:	de bf       	out	0x3e, r29	; 62
    2ab0:	0f be       	out	0x3f, r0	; 63
    2ab2:	cd bf       	out	0x3d, r28	; 61
	uart_puts("starting authentication");
    2ab4:	8f ed       	ldi	r24, 0xDF	; 223
    2ab6:	92 e0       	ldi	r25, 0x02	; 2
    2ab8:	0e 94 05 20 	call	0x400a	; 0x400a <uart_puts>
	uint8_t challenge[64];
	//init authentication.
	can_send_message(0, 0x00, 0);
    2abc:	40 e0       	ldi	r20, 0x00	; 0
    2abe:	50 e0       	ldi	r21, 0x00	; 0
    2ac0:	60 e0       	ldi	r22, 0x00	; 0
    2ac2:	80 e0       	ldi	r24, 0x00	; 0
    2ac4:	0e 94 3a 02 	call	0x474	; 0x474 <can_send_message>
	//wait for challenge.
	can_receive_frame_buffer(challenge);
    2ac8:	ce 01       	movw	r24, r28
    2aca:	01 96       	adiw	r24, 0x01	; 1
    2acc:	0e 94 a1 02 	call	0x542	; 0x542 <can_receive_frame_buffer>
	uart_puts("challenge received");
    2ad0:	87 ef       	ldi	r24, 0xF7	; 247
    2ad2:	92 e0       	ldi	r25, 0x02	; 2
    2ad4:	0e 94 05 20 	call	0x400a	; 0x400a <uart_puts>
	uint8_t signature[64];
	sign_challenge(challenge, signature);
    2ad8:	be 01       	movw	r22, r28
    2ada:	6f 5b       	subi	r22, 0xBF	; 191
    2adc:	7f 4f       	sbci	r23, 0xFF	; 255
    2ade:	ce 01       	movw	r24, r28
    2ae0:	01 96       	adiw	r24, 0x01	; 1
    2ae2:	4b df       	rcall	.-362    	; 0x297a <sign_challenge>
	//Send signature.
	can_send_frame_buffer(signature);
    2ae4:	ce 01       	movw	r24, r28
    2ae6:	8f 5b       	subi	r24, 0xBF	; 191
    2ae8:	9f 4f       	sbci	r25, 0xFF	; 255
    2aea:	0e 94 8d 02 	call	0x51a	; 0x51a <can_send_frame_buffer>
	uart_puts("signature sent");
    2aee:	8a e0       	ldi	r24, 0x0A	; 10
    2af0:	93 e0       	ldi	r25, 0x03	; 3
    2af2:	0e 94 05 20 	call	0x400a	; 0x400a <uart_puts>
	uint8_t message[8];
	//Wait for authentication acknowledgement.
	can_receive_message(0, 0x00, 0x00,  message);
    2af6:	9e 01       	movw	r18, r28
    2af8:	2f 57       	subi	r18, 0x7F	; 127
    2afa:	3f 4f       	sbci	r19, 0xFF	; 255
    2afc:	40 e0       	ldi	r20, 0x00	; 0
    2afe:	60 e0       	ldi	r22, 0x00	; 0
    2b00:	80 e0       	ldi	r24, 0x00	; 0
    2b02:	0e 94 4d 02 	call	0x49a	; 0x49a <can_receive_message>
	uart_puts("authenticated!");
    2b06:	89 e1       	ldi	r24, 0x19	; 25
    2b08:	93 e0       	ldi	r25, 0x03	; 3
    2b0a:	0e 94 05 20 	call	0x400a	; 0x400a <uart_puts>
	return 0;
}
    2b0e:	80 e0       	ldi	r24, 0x00	; 0
    2b10:	90 e0       	ldi	r25, 0x00	; 0
    2b12:	c8 57       	subi	r28, 0x78	; 120
    2b14:	df 4f       	sbci	r29, 0xFF	; 255
    2b16:	0f b6       	in	r0, 0x3f	; 63
    2b18:	f8 94       	cli
    2b1a:	de bf       	out	0x3e, r29	; 62
    2b1c:	0f be       	out	0x3f, r0	; 63
    2b1e:	cd bf       	out	0x3d, r28	; 61
    2b20:	df 91       	pop	r29
    2b22:	cf 91       	pop	r28
    2b24:	08 95       	ret

00002b26 <main>:

 int main()
 {	
	 uart_init();
    2b26:	0e 94 f9 1f 	call	0x3ff2	; 0x3ff2 <uart_init>
	 buttons_init();
    2b2a:	7f de       	rcall	.-770    	; 0x282a <buttons_init>
	 can_init();
    2b2c:	0e 94 ca 01 	call	0x394	; 0x394 <can_init>
	 
	 while(1){
		run_t runlcl = run_scenario;
    2b30:	80 91 2a 03 	lds	r24, 0x032A	; 0x80032a <run_scenario>
		switch(runlcl){
    2b34:	81 30       	cpi	r24, 0x01	; 1
    2b36:	e1 f7       	brne	.-8      	; 0x2b30 <main+0xa>
			case NOTHING :
				break;
			case SCENARIO1 :
				run_scenario = NOTHING;
    2b38:	10 92 2a 03 	sts	0x032A, r1	; 0x80032a <run_scenario>
				run_1();
    2b3c:	b0 df       	rcall	.-160    	; 0x2a9e <run_1>
				break;
    2b3e:	f8 cf       	rjmp	.-16     	; 0x2b30 <main+0xa>

00002b40 <sha2_large_common_nextBlock>:
#define SIGMA_0(x) (rotr64((x), 28) ^ rotl64((x), 30) ^ rotl64((x), 25))
#define SIGMA_1(x) (rotr64((x), 14) ^ rotr64((x), 18) ^ rotl64((x), 23))
#define SIGMA_a(x) (rotr64((x),  1) ^ rotr64((x),  8) ^ ((x)>>7))
#define SIGMA_b(x) (rotr64((x), 19) ^ rotl64((x),  3) ^ ((x)>>6))

void sha2_large_common_nextBlock(sha2_large_common_ctx_t *ctx, const void *block){
    2b40:	2f 92       	push	r2
    2b42:	3f 92       	push	r3
    2b44:	4f 92       	push	r4
    2b46:	5f 92       	push	r5
    2b48:	6f 92       	push	r6
    2b4a:	7f 92       	push	r7
    2b4c:	8f 92       	push	r8
    2b4e:	9f 92       	push	r9
    2b50:	af 92       	push	r10
    2b52:	bf 92       	push	r11
    2b54:	cf 92       	push	r12
    2b56:	df 92       	push	r13
    2b58:	ef 92       	push	r14
    2b5a:	ff 92       	push	r15
    2b5c:	0f 93       	push	r16
    2b5e:	1f 93       	push	r17
    2b60:	cf 93       	push	r28
    2b62:	df 93       	push	r29
    2b64:	cd b7       	in	r28, 0x3d	; 61
    2b66:	de b7       	in	r29, 0x3e	; 62
    2b68:	ca 5e       	subi	r28, 0xEA	; 234
    2b6a:	d1 09       	sbc	r29, r1
    2b6c:	0f b6       	in	r0, 0x3f	; 63
    2b6e:	f8 94       	cli
    2b70:	de bf       	out	0x3e, r29	; 62
    2b72:	0f be       	out	0x3f, r0	; 63
    2b74:	cd bf       	out	0x3d, r28	; 61
    2b76:	c7 51       	subi	r28, 0x17	; 23
    2b78:	df 4f       	sbci	r29, 0xFF	; 255
    2b7a:	99 83       	std	Y+1, r25	; 0x01
    2b7c:	88 83       	st	Y, r24
    2b7e:	c9 5e       	subi	r28, 0xE9	; 233
    2b80:	d0 40       	sbci	r29, 0x00	; 0
    2b82:	ce 01       	movw	r24, r28
    2b84:	01 96       	adiw	r24, 0x01	; 1
    2b86:	c5 52       	subi	r28, 0x25	; 37
    2b88:	df 4f       	sbci	r29, 0xFF	; 255
    2b8a:	99 83       	std	Y+1, r25	; 0x01
    2b8c:	88 83       	st	Y, r24
    2b8e:	cb 5d       	subi	r28, 0xDB	; 219
    2b90:	d0 40       	sbci	r29, 0x00	; 0
    2b92:	fe 01       	movw	r30, r28
    2b94:	ef 57       	subi	r30, 0x7F	; 127
    2b96:	ff 4f       	sbci	r31, 0xFF	; 255
    2b98:	c7 53       	subi	r28, 0x37	; 55
    2b9a:	df 4f       	sbci	r29, 0xFF	; 255
    2b9c:	f9 83       	std	Y+1, r31	; 0x01
    2b9e:	e8 83       	st	Y, r30
    2ba0:	c9 5c       	subi	r28, 0xC9	; 201
    2ba2:	d0 40       	sbci	r29, 0x00	; 0
    2ba4:	2c 01       	movw	r4, r24
};


static const
uint64_t change_endian64(uint64_t x){
	uint64_t r=0;
    2ba6:	c9 51       	subi	r28, 0x19	; 25
    2ba8:	df 4f       	sbci	r29, 0xFF	; 255
    2baa:	79 83       	std	Y+1, r23	; 0x01
    2bac:	68 83       	st	Y, r22
    2bae:	c7 5e       	subi	r28, 0xE7	; 231
    2bb0:	d0 40       	sbci	r29, 0x00	; 0
	uint64_t t1, t2;
	const uint64_t *k=sha2_large_common_const;
	uint8_t i;
	i=16;
	do{
		w[16-i] = change_endian64(*((const uint64_t*)block));
    2bb2:	c9 51       	subi	r28, 0x19	; 25
    2bb4:	df 4f       	sbci	r29, 0xFF	; 255
    2bb6:	a8 81       	ld	r26, Y
    2bb8:	b9 81       	ldd	r27, Y+1	; 0x01
    2bba:	c7 5e       	subi	r28, 0xE7	; 231
    2bbc:	d0 40       	sbci	r29, 0x00	; 0
    2bbe:	bc 91       	ld	r27, X
    2bc0:	c5 53       	subi	r28, 0x35	; 53
    2bc2:	df 4f       	sbci	r29, 0xFF	; 255
    2bc4:	b8 83       	st	Y, r27
    2bc6:	cb 5c       	subi	r28, 0xCB	; 203
    2bc8:	d0 40       	sbci	r29, 0x00	; 0
    2bca:	c9 51       	subi	r28, 0x19	; 25
    2bcc:	df 4f       	sbci	r29, 0xFF	; 255
    2bce:	e8 81       	ld	r30, Y
    2bd0:	f9 81       	ldd	r31, Y+1	; 0x01
    2bd2:	c7 5e       	subi	r28, 0xE7	; 231
    2bd4:	d0 40       	sbci	r29, 0x00	; 0
    2bd6:	71 80       	ldd	r7, Z+1	; 0x01
    2bd8:	82 80       	ldd	r8, Z+2	; 0x02
    2bda:	93 80       	ldd	r9, Z+3	; 0x03
    2bdc:	a4 80       	ldd	r10, Z+4	; 0x04
    2bde:	b5 80       	ldd	r11, Z+5	; 0x05
    2be0:	a6 81       	ldd	r26, Z+6	; 0x06
    2be2:	b7 81       	ldd	r27, Z+7	; 0x07
    2be4:	38 96       	adiw	r30, 0x08	; 8
    2be6:	c9 51       	subi	r28, 0x19	; 25
    2be8:	df 4f       	sbci	r29, 0xFF	; 255
    2bea:	f9 83       	std	Y+1, r31	; 0x01
    2bec:	e8 83       	st	Y, r30
    2bee:	c7 5e       	subi	r28, 0xE7	; 231
    2bf0:	d0 40       	sbci	r29, 0x00	; 0
    2bf2:	68 94       	set
    2bf4:	66 24       	eor	r6, r6
    2bf6:	63 f8       	bld	r6, 3
};


static const
uint64_t change_endian64(uint64_t x){
	uint64_t r=0;
    2bf8:	c1 2c       	mov	r12, r1
    2bfa:	d1 2c       	mov	r13, r1
    2bfc:	e1 2c       	mov	r14, r1
    2bfe:	f1 2c       	mov	r15, r1
    2c00:	10 e0       	ldi	r17, 0x00	; 0
    2c02:	f0 e0       	ldi	r31, 0x00	; 0
    2c04:	21 2c       	mov	r2, r1
    2c06:	31 2c       	mov	r3, r1
	uint8_t i=8;
	do{
		r <<= 8;
    2c08:	2c 2d       	mov	r18, r12
    2c0a:	3d 2d       	mov	r19, r13
    2c0c:	4e 2d       	mov	r20, r14
    2c0e:	5f 2d       	mov	r21, r15
    2c10:	61 2f       	mov	r22, r17
    2c12:	7f 2f       	mov	r23, r31
    2c14:	82 2d       	mov	r24, r2
    2c16:	93 2d       	mov	r25, r3
    2c18:	08 e0       	ldi	r16, 0x08	; 8
    2c1a:	0e 94 34 20 	call	0x4068	; 0x4068 <__ashldi3>
		r |= 0xff&x;
    2c1e:	c5 53       	subi	r28, 0x35	; 53
    2c20:	df 4f       	sbci	r29, 0xFF	; 255
    2c22:	c8 80       	ld	r12, Y
    2c24:	cb 5c       	subi	r28, 0xCB	; 203
    2c26:	d0 40       	sbci	r29, 0x00	; 0
    2c28:	c2 2a       	or	r12, r18
    2c2a:	d3 2e       	mov	r13, r19
    2c2c:	e4 2e       	mov	r14, r20
    2c2e:	f5 2e       	mov	r15, r21
    2c30:	16 2f       	mov	r17, r22
    2c32:	f7 2f       	mov	r31, r23
    2c34:	28 2e       	mov	r2, r24
    2c36:	39 2e       	mov	r3, r25
		x >>=8;
    2c38:	c5 53       	subi	r28, 0x35	; 53
    2c3a:	df 4f       	sbci	r29, 0xFF	; 255
    2c3c:	28 81       	ld	r18, Y
    2c3e:	cb 5c       	subi	r28, 0xCB	; 203
    2c40:	d0 40       	sbci	r29, 0x00	; 0
    2c42:	37 2d       	mov	r19, r7
    2c44:	48 2d       	mov	r20, r8
    2c46:	59 2d       	mov	r21, r9
    2c48:	6a 2d       	mov	r22, r10
    2c4a:	7b 2d       	mov	r23, r11
    2c4c:	8a 2f       	mov	r24, r26
    2c4e:	9b 2f       	mov	r25, r27
    2c50:	0e 94 4f 20 	call	0x409e	; 0x409e <__lshrdi3>
    2c54:	c5 53       	subi	r28, 0x35	; 53
    2c56:	df 4f       	sbci	r29, 0xFF	; 255
    2c58:	28 83       	st	Y, r18
    2c5a:	cb 5c       	subi	r28, 0xCB	; 203
    2c5c:	d0 40       	sbci	r29, 0x00	; 0
    2c5e:	73 2e       	mov	r7, r19
    2c60:	84 2e       	mov	r8, r20
    2c62:	95 2e       	mov	r9, r21
    2c64:	a6 2e       	mov	r10, r22
    2c66:	b7 2e       	mov	r11, r23
    2c68:	a8 2f       	mov	r26, r24
    2c6a:	b9 2f       	mov	r27, r25
    2c6c:	6a 94       	dec	r6
	}while(--i);
    2c6e:	61 10       	cpse	r6, r1
    2c70:	cb cf       	rjmp	.-106    	; 0x2c08 <sha2_large_common_nextBlock+0xc8>
	uint64_t t1, t2;
	const uint64_t *k=sha2_large_common_const;
	uint8_t i;
	i=16;
	do{
		w[16-i] = change_endian64(*((const uint64_t*)block));
    2c72:	d2 01       	movw	r26, r4
    2c74:	cc 92       	st	X, r12
    2c76:	11 96       	adiw	r26, 0x01	; 1
    2c78:	dc 92       	st	X, r13
    2c7a:	11 97       	sbiw	r26, 0x01	; 1
    2c7c:	12 96       	adiw	r26, 0x02	; 2
    2c7e:	ec 92       	st	X, r14
    2c80:	12 97       	sbiw	r26, 0x02	; 2
    2c82:	13 96       	adiw	r26, 0x03	; 3
    2c84:	fc 92       	st	X, r15
    2c86:	13 97       	sbiw	r26, 0x03	; 3
    2c88:	14 96       	adiw	r26, 0x04	; 4
    2c8a:	1c 93       	st	X, r17
    2c8c:	14 97       	sbiw	r26, 0x04	; 4
    2c8e:	15 96       	adiw	r26, 0x05	; 5
    2c90:	fc 93       	st	X, r31
    2c92:	15 97       	sbiw	r26, 0x05	; 5
    2c94:	16 96       	adiw	r26, 0x06	; 6
    2c96:	2c 92       	st	X, r2
    2c98:	16 97       	sbiw	r26, 0x06	; 6
    2c9a:	17 96       	adiw	r26, 0x07	; 7
    2c9c:	3c 92       	st	X, r3
    2c9e:	b8 e0       	ldi	r27, 0x08	; 8
    2ca0:	4b 0e       	add	r4, r27
    2ca2:	51 1c       	adc	r5, r1
		block = (uint8_t*)block + 8;
	}while(--i);
    2ca4:	c7 53       	subi	r28, 0x37	; 55
    2ca6:	df 4f       	sbci	r29, 0xFF	; 255
    2ca8:	e8 81       	ld	r30, Y
    2caa:	f9 81       	ldd	r31, Y+1	; 0x01
    2cac:	c9 5c       	subi	r28, 0xC9	; 201
    2cae:	d0 40       	sbci	r29, 0x00	; 0
    2cb0:	e4 15       	cp	r30, r4
    2cb2:	f5 05       	cpc	r31, r5
    2cb4:	09 f0       	breq	.+2      	; 0x2cb8 <sha2_large_common_nextBlock+0x178>
    2cb6:	7d cf       	rjmp	.-262    	; 0x2bb2 <sha2_large_common_nextBlock+0x72>
	memcpy(a, ctx->h, 8*8);
    2cb8:	80 e4       	ldi	r24, 0x40	; 64
    2cba:	c7 51       	subi	r28, 0x17	; 23
    2cbc:	df 4f       	sbci	r29, 0xFF	; 255
    2cbe:	e8 81       	ld	r30, Y
    2cc0:	f9 81       	ldd	r31, Y+1	; 0x01
    2cc2:	c9 5e       	subi	r28, 0xE9	; 233
    2cc4:	d0 40       	sbci	r29, 0x00	; 0
    2cc6:	de 01       	movw	r26, r28
    2cc8:	af 57       	subi	r26, 0x7F	; 127
    2cca:	bf 4f       	sbci	r27, 0xFF	; 255
    2ccc:	01 90       	ld	r0, Z+
    2cce:	0d 92       	st	X+, r0
    2cd0:	8a 95       	dec	r24
    2cd2:	e1 f7       	brne	.-8      	; 0x2ccc <sha2_large_common_nextBlock+0x18c>
    2cd4:	84 e9       	ldi	r24, 0x94	; 148
    2cd6:	90 e0       	ldi	r25, 0x00	; 0
    2cd8:	cf 52       	subi	r28, 0x2F	; 47
    2cda:	df 4f       	sbci	r29, 0xFF	; 255
    2cdc:	99 83       	std	Y+1, r25	; 0x01
    2cde:	88 83       	st	Y, r24
    2ce0:	c1 5d       	subi	r28, 0xD1	; 209
    2ce2:	d0 40       	sbci	r29, 0x00	; 0
	for(i=0; i<80; ++i){
    2ce4:	c0 53       	subi	r28, 0x30	; 48
    2ce6:	df 4f       	sbci	r29, 0xFF	; 255
    2ce8:	18 82       	st	Y, r1
    2cea:	c0 5d       	subi	r28, 0xD0	; 208
    2cec:	d0 40       	sbci	r29, 0x00	; 0
			memmove(&(w[0]), &(w[1]), 15*8);
			w[15] = wx;
		}
		t1 = a[7] + SIGMA_1(a[4]) + CH(a[4], a[5], a[6]) + pgm_read_uint64_t_P(k++) + wx;
		t2 = SIGMA_0(a[0]) + MAJ(a[0], a[1], a[2]);
		memmove(&(a[1]), &(a[0]), 7*8);
    2cee:	a1 e8       	ldi	r26, 0x81	; 129
    2cf0:	b0 e0       	ldi	r27, 0x00	; 0
    2cf2:	ac 0f       	add	r26, r28
    2cf4:	bd 1f       	adc	r27, r29
    2cf6:	18 96       	adiw	r26, 0x08	; 8
    2cf8:	c9 51       	subi	r28, 0x19	; 25
    2cfa:	df 4f       	sbci	r29, 0xFF	; 255
    2cfc:	b9 83       	std	Y+1, r27	; 0x01
    2cfe:	a8 83       	st	Y, r26
    2d00:	c7 5e       	subi	r28, 0xE7	; 231
    2d02:	d0 40       	sbci	r29, 0x00	; 0
		w[16-i] = change_endian64(*((const uint64_t*)block));
		block = (uint8_t*)block + 8;
	}while(--i);
	memcpy(a, ctx->h, 8*8);
	for(i=0; i<80; ++i){
		if(i<16){
    2d04:	c0 53       	subi	r28, 0x30	; 48
    2d06:	df 4f       	sbci	r29, 0xFF	; 255
    2d08:	b8 81       	ld	r27, Y
    2d0a:	c0 5d       	subi	r28, 0xD0	; 208
    2d0c:	d0 40       	sbci	r29, 0x00	; 0
    2d0e:	b0 31       	cpi	r27, 0x10	; 16
    2d10:	08 f0       	brcs	.+2      	; 0x2d14 <sha2_large_common_nextBlock+0x1d4>
    2d12:	60 c0       	rjmp	.+192    	; 0x2dd4 <sha2_large_common_nextBlock+0x294>
			wx=w[i];
    2d14:	c5 52       	subi	r28, 0x25	; 37
    2d16:	df 4f       	sbci	r29, 0xFF	; 255
    2d18:	e8 81       	ld	r30, Y
    2d1a:	f9 81       	ldd	r31, Y+1	; 0x01
    2d1c:	cb 5d       	subi	r28, 0xDB	; 219
    2d1e:	d0 40       	sbci	r29, 0x00	; 0
    2d20:	f0 81       	ld	r31, Z
    2d22:	c5 53       	subi	r28, 0x35	; 53
    2d24:	df 4f       	sbci	r29, 0xFF	; 255
    2d26:	f8 83       	st	Y, r31
    2d28:	cb 5c       	subi	r28, 0xCB	; 203
    2d2a:	d0 40       	sbci	r29, 0x00	; 0
    2d2c:	c5 52       	subi	r28, 0x25	; 37
    2d2e:	df 4f       	sbci	r29, 0xFF	; 255
    2d30:	a8 81       	ld	r26, Y
    2d32:	b9 81       	ldd	r27, Y+1	; 0x01
    2d34:	cb 5d       	subi	r28, 0xDB	; 219
    2d36:	d0 40       	sbci	r29, 0x00	; 0
    2d38:	11 96       	adiw	r26, 0x01	; 1
    2d3a:	bc 91       	ld	r27, X
    2d3c:	c4 53       	subi	r28, 0x34	; 52
    2d3e:	df 4f       	sbci	r29, 0xFF	; 255
    2d40:	b8 83       	st	Y, r27
    2d42:	cc 5c       	subi	r28, 0xCC	; 204
    2d44:	d0 40       	sbci	r29, 0x00	; 0
    2d46:	c5 52       	subi	r28, 0x25	; 37
    2d48:	df 4f       	sbci	r29, 0xFF	; 255
    2d4a:	e8 81       	ld	r30, Y
    2d4c:	f9 81       	ldd	r31, Y+1	; 0x01
    2d4e:	cb 5d       	subi	r28, 0xDB	; 219
    2d50:	d0 40       	sbci	r29, 0x00	; 0
    2d52:	f2 81       	ldd	r31, Z+2	; 0x02
    2d54:	c3 53       	subi	r28, 0x33	; 51
    2d56:	df 4f       	sbci	r29, 0xFF	; 255
    2d58:	f8 83       	st	Y, r31
    2d5a:	cd 5c       	subi	r28, 0xCD	; 205
    2d5c:	d0 40       	sbci	r29, 0x00	; 0
    2d5e:	c5 52       	subi	r28, 0x25	; 37
    2d60:	df 4f       	sbci	r29, 0xFF	; 255
    2d62:	a8 81       	ld	r26, Y
    2d64:	b9 81       	ldd	r27, Y+1	; 0x01
    2d66:	cb 5d       	subi	r28, 0xDB	; 219
    2d68:	d0 40       	sbci	r29, 0x00	; 0
    2d6a:	13 96       	adiw	r26, 0x03	; 3
    2d6c:	bc 91       	ld	r27, X
    2d6e:	c2 53       	subi	r28, 0x32	; 50
    2d70:	df 4f       	sbci	r29, 0xFF	; 255
    2d72:	b8 83       	st	Y, r27
    2d74:	ce 5c       	subi	r28, 0xCE	; 206
    2d76:	d0 40       	sbci	r29, 0x00	; 0
    2d78:	c5 52       	subi	r28, 0x25	; 37
    2d7a:	df 4f       	sbci	r29, 0xFF	; 255
    2d7c:	e8 81       	ld	r30, Y
    2d7e:	f9 81       	ldd	r31, Y+1	; 0x01
    2d80:	cb 5d       	subi	r28, 0xDB	; 219
    2d82:	d0 40       	sbci	r29, 0x00	; 0
    2d84:	f4 81       	ldd	r31, Z+4	; 0x04
    2d86:	c1 53       	subi	r28, 0x31	; 49
    2d88:	df 4f       	sbci	r29, 0xFF	; 255
    2d8a:	f8 83       	st	Y, r31
    2d8c:	cf 5c       	subi	r28, 0xCF	; 207
    2d8e:	d0 40       	sbci	r29, 0x00	; 0
    2d90:	c5 52       	subi	r28, 0x25	; 37
    2d92:	df 4f       	sbci	r29, 0xFF	; 255
    2d94:	a8 81       	ld	r26, Y
    2d96:	b9 81       	ldd	r27, Y+1	; 0x01
    2d98:	cb 5d       	subi	r28, 0xDB	; 219
    2d9a:	d0 40       	sbci	r29, 0x00	; 0
    2d9c:	15 96       	adiw	r26, 0x05	; 5
    2d9e:	bc 91       	ld	r27, X
    2da0:	cd 52       	subi	r28, 0x2D	; 45
    2da2:	df 4f       	sbci	r29, 0xFF	; 255
    2da4:	b8 83       	st	Y, r27
    2da6:	c3 5d       	subi	r28, 0xD3	; 211
    2da8:	d0 40       	sbci	r29, 0x00	; 0
    2daa:	c5 52       	subi	r28, 0x25	; 37
    2dac:	df 4f       	sbci	r29, 0xFF	; 255
    2dae:	e8 81       	ld	r30, Y
    2db0:	f9 81       	ldd	r31, Y+1	; 0x01
    2db2:	cb 5d       	subi	r28, 0xDB	; 219
    2db4:	d0 40       	sbci	r29, 0x00	; 0
    2db6:	f6 81       	ldd	r31, Z+6	; 0x06
    2db8:	cc 52       	subi	r28, 0x2C	; 44
    2dba:	df 4f       	sbci	r29, 0xFF	; 255
    2dbc:	f8 83       	st	Y, r31
    2dbe:	c4 5d       	subi	r28, 0xD4	; 212
    2dc0:	d0 40       	sbci	r29, 0x00	; 0
    2dc2:	c5 52       	subi	r28, 0x25	; 37
    2dc4:	df 4f       	sbci	r29, 0xFF	; 255
    2dc6:	a8 81       	ld	r26, Y
    2dc8:	b9 81       	ldd	r27, Y+1	; 0x01
    2dca:	cb 5d       	subi	r28, 0xDB	; 219
    2dcc:	d0 40       	sbci	r29, 0x00	; 0
    2dce:	17 96       	adiw	r26, 0x07	; 7
    2dd0:	4c 90       	ld	r4, X
    2dd2:	db c1       	rjmp	.+950    	; 0x318a <sha2_large_common_nextBlock+0x64a>
		}else{
			wx = SIGMA_b(w[14]) + w[9] + SIGMA_a(w[1]) + w[0];
    2dd4:	e2 96       	adiw	r28, 0x32	; 50
    2dd6:	5f ac       	ldd	r5, Y+63	; 0x3f
    2dd8:	e2 97       	sbiw	r28, 0x32	; 50
    2dda:	e3 96       	adiw	r28, 0x33	; 51
    2ddc:	6f ac       	ldd	r6, Y+63	; 0x3f
    2dde:	e3 97       	sbiw	r28, 0x33	; 51
    2de0:	e4 96       	adiw	r28, 0x34	; 52
    2de2:	7f ac       	ldd	r7, Y+63	; 0x3f
    2de4:	e4 97       	sbiw	r28, 0x34	; 52
    2de6:	e5 96       	adiw	r28, 0x35	; 53
    2de8:	8f ac       	ldd	r8, Y+63	; 0x3f
    2dea:	e5 97       	sbiw	r28, 0x35	; 53
    2dec:	e6 96       	adiw	r28, 0x36	; 54
    2dee:	9f ac       	ldd	r9, Y+63	; 0x3f
    2df0:	e6 97       	sbiw	r28, 0x36	; 54
    2df2:	e7 96       	adiw	r28, 0x37	; 55
    2df4:	bf ad       	ldd	r27, Y+63	; 0x3f
    2df6:	e7 97       	sbiw	r28, 0x37	; 55
    2df8:	e8 96       	adiw	r28, 0x38	; 56
    2dfa:	af ad       	ldd	r26, Y+63	; 0x3f
    2dfc:	e8 97       	sbiw	r28, 0x38	; 56
    2dfe:	e9 96       	adiw	r28, 0x39	; 57
    2e00:	ff ad       	ldd	r31, Y+63	; 0x3f
    2e02:	e9 97       	sbiw	r28, 0x39	; 57
    2e04:	e9 85       	ldd	r30, Y+9	; 0x09
    2e06:	c5 53       	subi	r28, 0x35	; 53
    2e08:	df 4f       	sbci	r29, 0xFF	; 255
    2e0a:	e8 83       	st	Y, r30
    2e0c:	cb 5c       	subi	r28, 0xCB	; 203
    2e0e:	d0 40       	sbci	r29, 0x00	; 0
    2e10:	ea 85       	ldd	r30, Y+10	; 0x0a
    2e12:	c4 53       	subi	r28, 0x34	; 52
    2e14:	df 4f       	sbci	r29, 0xFF	; 255
    2e16:	e8 83       	st	Y, r30
    2e18:	cc 5c       	subi	r28, 0xCC	; 204
    2e1a:	d0 40       	sbci	r29, 0x00	; 0
    2e1c:	eb 85       	ldd	r30, Y+11	; 0x0b
    2e1e:	c3 53       	subi	r28, 0x33	; 51
    2e20:	df 4f       	sbci	r29, 0xFF	; 255
    2e22:	e8 83       	st	Y, r30
    2e24:	cd 5c       	subi	r28, 0xCD	; 205
    2e26:	d0 40       	sbci	r29, 0x00	; 0
    2e28:	ec 85       	ldd	r30, Y+12	; 0x0c
    2e2a:	c2 53       	subi	r28, 0x32	; 50
    2e2c:	df 4f       	sbci	r29, 0xFF	; 255
    2e2e:	e8 83       	st	Y, r30
    2e30:	ce 5c       	subi	r28, 0xCE	; 206
    2e32:	d0 40       	sbci	r29, 0x00	; 0
    2e34:	ed 85       	ldd	r30, Y+13	; 0x0d
    2e36:	c1 53       	subi	r28, 0x31	; 49
    2e38:	df 4f       	sbci	r29, 0xFF	; 255
    2e3a:	e8 83       	st	Y, r30
    2e3c:	cf 5c       	subi	r28, 0xCF	; 207
    2e3e:	d0 40       	sbci	r29, 0x00	; 0
    2e40:	2e 84       	ldd	r2, Y+14	; 0x0e
    2e42:	3f 84       	ldd	r3, Y+15	; 0x0f
    2e44:	48 88       	ldd	r4, Y+16	; 0x10
    2e46:	2a 96       	adiw	r28, 0x0a	; 10
    2e48:	2f ad       	ldd	r18, Y+63	; 0x3f
    2e4a:	2a 97       	sbiw	r28, 0x0a	; 10
    2e4c:	2b 96       	adiw	r28, 0x0b	; 11
    2e4e:	3f ad       	ldd	r19, Y+63	; 0x3f
    2e50:	2b 97       	sbiw	r28, 0x0b	; 11
    2e52:	2c 96       	adiw	r28, 0x0c	; 12
    2e54:	4f ad       	ldd	r20, Y+63	; 0x3f
    2e56:	2c 97       	sbiw	r28, 0x0c	; 12
    2e58:	2d 96       	adiw	r28, 0x0d	; 13
    2e5a:	5f ad       	ldd	r21, Y+63	; 0x3f
    2e5c:	2d 97       	sbiw	r28, 0x0d	; 13
    2e5e:	2e 96       	adiw	r28, 0x0e	; 14
    2e60:	6f ad       	ldd	r22, Y+63	; 0x3f
    2e62:	2e 97       	sbiw	r28, 0x0e	; 14
    2e64:	2f 96       	adiw	r28, 0x0f	; 15
    2e66:	7f ad       	ldd	r23, Y+63	; 0x3f
    2e68:	2f 97       	sbiw	r28, 0x0f	; 15
    2e6a:	60 96       	adiw	r28, 0x10	; 16
    2e6c:	8f ad       	ldd	r24, Y+63	; 0x3f
    2e6e:	60 97       	sbiw	r28, 0x10	; 16
    2e70:	61 96       	adiw	r28, 0x11	; 17
    2e72:	9f ad       	ldd	r25, Y+63	; 0x3f
    2e74:	61 97       	sbiw	r28, 0x11	; 17
    2e76:	a9 80       	ldd	r10, Y+1	; 0x01
    2e78:	ba 80       	ldd	r11, Y+2	; 0x02
    2e7a:	cb 80       	ldd	r12, Y+3	; 0x03
    2e7c:	dc 80       	ldd	r13, Y+4	; 0x04
    2e7e:	ed 80       	ldd	r14, Y+5	; 0x05
    2e80:	fe 80       	ldd	r15, Y+6	; 0x06
    2e82:	0f 81       	ldd	r16, Y+7	; 0x07
    2e84:	18 85       	ldd	r17, Y+8	; 0x08
    2e86:	0e 94 86 20 	call	0x410c	; 0x410c <__adddi3>
    2e8a:	cd 52       	subi	r28, 0x2D	; 45
    2e8c:	df 4f       	sbci	r29, 0xFF	; 255
    2e8e:	28 83       	st	Y, r18
    2e90:	c3 5d       	subi	r28, 0xD3	; 211
    2e92:	d0 40       	sbci	r29, 0x00	; 0
    2e94:	cc 52       	subi	r28, 0x2C	; 44
    2e96:	df 4f       	sbci	r29, 0xFF	; 255
    2e98:	38 83       	st	Y, r19
    2e9a:	c4 5d       	subi	r28, 0xD4	; 212
    2e9c:	d0 40       	sbci	r29, 0x00	; 0
    2e9e:	cb 52       	subi	r28, 0x2B	; 43
    2ea0:	df 4f       	sbci	r29, 0xFF	; 255
    2ea2:	48 83       	st	Y, r20
    2ea4:	c5 5d       	subi	r28, 0xD5	; 213
    2ea6:	d0 40       	sbci	r29, 0x00	; 0
    2ea8:	ca 52       	subi	r28, 0x2A	; 42
    2eaa:	df 4f       	sbci	r29, 0xFF	; 255
    2eac:	58 83       	st	Y, r21
    2eae:	c6 5d       	subi	r28, 0xD6	; 214
    2eb0:	d0 40       	sbci	r29, 0x00	; 0
    2eb2:	c9 52       	subi	r28, 0x29	; 41
    2eb4:	df 4f       	sbci	r29, 0xFF	; 255
    2eb6:	68 83       	st	Y, r22
    2eb8:	c7 5d       	subi	r28, 0xD7	; 215
    2eba:	d0 40       	sbci	r29, 0x00	; 0
    2ebc:	c8 52       	subi	r28, 0x28	; 40
    2ebe:	df 4f       	sbci	r29, 0xFF	; 255
    2ec0:	78 83       	st	Y, r23
    2ec2:	c8 5d       	subi	r28, 0xD8	; 216
    2ec4:	d0 40       	sbci	r29, 0x00	; 0
    2ec6:	c7 52       	subi	r28, 0x27	; 39
    2ec8:	df 4f       	sbci	r29, 0xFF	; 255
    2eca:	88 83       	st	Y, r24
    2ecc:	c9 5d       	subi	r28, 0xD9	; 217
    2ece:	d0 40       	sbci	r29, 0x00	; 0
    2ed0:	c6 52       	subi	r28, 0x26	; 38
    2ed2:	df 4f       	sbci	r29, 0xFF	; 255
    2ed4:	98 83       	st	Y, r25
    2ed6:	ca 5d       	subi	r28, 0xDA	; 218
    2ed8:	d0 40       	sbci	r29, 0x00	; 0
    2eda:	25 2d       	mov	r18, r5
    2edc:	36 2d       	mov	r19, r6
    2ede:	47 2d       	mov	r20, r7
    2ee0:	58 2d       	mov	r21, r8
    2ee2:	69 2d       	mov	r22, r9
    2ee4:	7b 2f       	mov	r23, r27
    2ee6:	8a 2f       	mov	r24, r26
    2ee8:	9f 2f       	mov	r25, r31
    2eea:	03 e0       	ldi	r16, 0x03	; 3
    2eec:	0e 94 6b 20 	call	0x40d6	; 0x40d6 <__rotldi3>
    2ef0:	a2 2e       	mov	r10, r18
    2ef2:	b3 2e       	mov	r11, r19
    2ef4:	c4 2e       	mov	r12, r20
    2ef6:	d5 2e       	mov	r13, r21
    2ef8:	e6 2e       	mov	r14, r22
    2efa:	f7 2e       	mov	r15, r23
    2efc:	e8 2f       	mov	r30, r24
    2efe:	19 2f       	mov	r17, r25
    2f00:	25 2d       	mov	r18, r5
    2f02:	36 2d       	mov	r19, r6
    2f04:	47 2d       	mov	r20, r7
    2f06:	58 2d       	mov	r21, r8
    2f08:	69 2d       	mov	r22, r9
    2f0a:	7b 2f       	mov	r23, r27
    2f0c:	8a 2f       	mov	r24, r26
    2f0e:	9f 2f       	mov	r25, r31
    2f10:	0d e2       	ldi	r16, 0x2D	; 45
    2f12:	0e 94 6b 20 	call	0x40d6	; 0x40d6 <__rotldi3>
    2f16:	a2 26       	eor	r10, r18
    2f18:	b3 26       	eor	r11, r19
    2f1a:	c4 26       	eor	r12, r20
    2f1c:	d5 26       	eor	r13, r21
    2f1e:	e6 26       	eor	r14, r22
    2f20:	f7 26       	eor	r15, r23
    2f22:	e8 27       	eor	r30, r24
    2f24:	19 27       	eor	r17, r25
    2f26:	25 2d       	mov	r18, r5
    2f28:	36 2d       	mov	r19, r6
    2f2a:	47 2d       	mov	r20, r7
    2f2c:	58 2d       	mov	r21, r8
    2f2e:	69 2d       	mov	r22, r9
    2f30:	7b 2f       	mov	r23, r27
    2f32:	8a 2f       	mov	r24, r26
    2f34:	9f 2f       	mov	r25, r31
    2f36:	06 e0       	ldi	r16, 0x06	; 6
    2f38:	0e 94 4f 20 	call	0x409e	; 0x409e <__lshrdi3>
    2f3c:	a2 26       	eor	r10, r18
    2f3e:	b3 26       	eor	r11, r19
    2f40:	c4 26       	eor	r12, r20
    2f42:	d5 26       	eor	r13, r21
    2f44:	e6 26       	eor	r14, r22
    2f46:	f7 26       	eor	r15, r23
    2f48:	0e 2f       	mov	r16, r30
    2f4a:	08 27       	eor	r16, r24
    2f4c:	19 27       	eor	r17, r25
    2f4e:	cd 52       	subi	r28, 0x2D	; 45
    2f50:	df 4f       	sbci	r29, 0xFF	; 255
    2f52:	28 81       	ld	r18, Y
    2f54:	c3 5d       	subi	r28, 0xD3	; 211
    2f56:	d0 40       	sbci	r29, 0x00	; 0
    2f58:	cc 52       	subi	r28, 0x2C	; 44
    2f5a:	df 4f       	sbci	r29, 0xFF	; 255
    2f5c:	38 81       	ld	r19, Y
    2f5e:	c4 5d       	subi	r28, 0xD4	; 212
    2f60:	d0 40       	sbci	r29, 0x00	; 0
    2f62:	cb 52       	subi	r28, 0x2B	; 43
    2f64:	df 4f       	sbci	r29, 0xFF	; 255
    2f66:	48 81       	ld	r20, Y
    2f68:	c5 5d       	subi	r28, 0xD5	; 213
    2f6a:	d0 40       	sbci	r29, 0x00	; 0
    2f6c:	ca 52       	subi	r28, 0x2A	; 42
    2f6e:	df 4f       	sbci	r29, 0xFF	; 255
    2f70:	58 81       	ld	r21, Y
    2f72:	c6 5d       	subi	r28, 0xD6	; 214
    2f74:	d0 40       	sbci	r29, 0x00	; 0
    2f76:	c9 52       	subi	r28, 0x29	; 41
    2f78:	df 4f       	sbci	r29, 0xFF	; 255
    2f7a:	68 81       	ld	r22, Y
    2f7c:	c7 5d       	subi	r28, 0xD7	; 215
    2f7e:	d0 40       	sbci	r29, 0x00	; 0
    2f80:	c8 52       	subi	r28, 0x28	; 40
    2f82:	df 4f       	sbci	r29, 0xFF	; 255
    2f84:	78 81       	ld	r23, Y
    2f86:	c8 5d       	subi	r28, 0xD8	; 216
    2f88:	d0 40       	sbci	r29, 0x00	; 0
    2f8a:	c7 52       	subi	r28, 0x27	; 39
    2f8c:	df 4f       	sbci	r29, 0xFF	; 255
    2f8e:	88 81       	ld	r24, Y
    2f90:	c9 5d       	subi	r28, 0xD9	; 217
    2f92:	d0 40       	sbci	r29, 0x00	; 0
    2f94:	c6 52       	subi	r28, 0x26	; 38
    2f96:	df 4f       	sbci	r29, 0xFF	; 255
    2f98:	98 81       	ld	r25, Y
    2f9a:	ca 5d       	subi	r28, 0xDA	; 218
    2f9c:	d0 40       	sbci	r29, 0x00	; 0
    2f9e:	0e 94 86 20 	call	0x410c	; 0x410c <__adddi3>
    2fa2:	62 2e       	mov	r6, r18
    2fa4:	73 2e       	mov	r7, r19
    2fa6:	84 2e       	mov	r8, r20
    2fa8:	95 2e       	mov	r9, r21
    2faa:	b6 2f       	mov	r27, r22
    2fac:	a7 2f       	mov	r26, r23
    2fae:	f8 2f       	mov	r31, r24
    2fb0:	e9 2f       	mov	r30, r25
    2fb2:	c5 53       	subi	r28, 0x35	; 53
    2fb4:	df 4f       	sbci	r29, 0xFF	; 255
    2fb6:	28 81       	ld	r18, Y
    2fb8:	cb 5c       	subi	r28, 0xCB	; 203
    2fba:	d0 40       	sbci	r29, 0x00	; 0
    2fbc:	c4 53       	subi	r28, 0x34	; 52
    2fbe:	df 4f       	sbci	r29, 0xFF	; 255
    2fc0:	38 81       	ld	r19, Y
    2fc2:	cc 5c       	subi	r28, 0xCC	; 204
    2fc4:	d0 40       	sbci	r29, 0x00	; 0
    2fc6:	c3 53       	subi	r28, 0x33	; 51
    2fc8:	df 4f       	sbci	r29, 0xFF	; 255
    2fca:	48 81       	ld	r20, Y
    2fcc:	cd 5c       	subi	r28, 0xCD	; 205
    2fce:	d0 40       	sbci	r29, 0x00	; 0
    2fd0:	c2 53       	subi	r28, 0x32	; 50
    2fd2:	df 4f       	sbci	r29, 0xFF	; 255
    2fd4:	58 81       	ld	r21, Y
    2fd6:	ce 5c       	subi	r28, 0xCE	; 206
    2fd8:	d0 40       	sbci	r29, 0x00	; 0
    2fda:	c1 53       	subi	r28, 0x31	; 49
    2fdc:	df 4f       	sbci	r29, 0xFF	; 255
    2fde:	68 81       	ld	r22, Y
    2fe0:	cf 5c       	subi	r28, 0xCF	; 207
    2fe2:	d0 40       	sbci	r29, 0x00	; 0
    2fe4:	72 2d       	mov	r23, r2
    2fe6:	83 2d       	mov	r24, r3
    2fe8:	94 2d       	mov	r25, r4
    2fea:	08 e3       	ldi	r16, 0x38	; 56
    2fec:	0e 94 6b 20 	call	0x40d6	; 0x40d6 <__rotldi3>
    2ff0:	a2 2e       	mov	r10, r18
    2ff2:	b3 2e       	mov	r11, r19
    2ff4:	c4 2e       	mov	r12, r20
    2ff6:	d5 2e       	mov	r13, r21
    2ff8:	e6 2e       	mov	r14, r22
    2ffa:	f7 2e       	mov	r15, r23
    2ffc:	58 2e       	mov	r5, r24
    2ffe:	19 2f       	mov	r17, r25
    3000:	c5 53       	subi	r28, 0x35	; 53
    3002:	df 4f       	sbci	r29, 0xFF	; 255
    3004:	28 81       	ld	r18, Y
    3006:	cb 5c       	subi	r28, 0xCB	; 203
    3008:	d0 40       	sbci	r29, 0x00	; 0
    300a:	c4 53       	subi	r28, 0x34	; 52
    300c:	df 4f       	sbci	r29, 0xFF	; 255
    300e:	38 81       	ld	r19, Y
    3010:	cc 5c       	subi	r28, 0xCC	; 204
    3012:	d0 40       	sbci	r29, 0x00	; 0
    3014:	c3 53       	subi	r28, 0x33	; 51
    3016:	df 4f       	sbci	r29, 0xFF	; 255
    3018:	48 81       	ld	r20, Y
    301a:	cd 5c       	subi	r28, 0xCD	; 205
    301c:	d0 40       	sbci	r29, 0x00	; 0
    301e:	c2 53       	subi	r28, 0x32	; 50
    3020:	df 4f       	sbci	r29, 0xFF	; 255
    3022:	58 81       	ld	r21, Y
    3024:	ce 5c       	subi	r28, 0xCE	; 206
    3026:	d0 40       	sbci	r29, 0x00	; 0
    3028:	c1 53       	subi	r28, 0x31	; 49
    302a:	df 4f       	sbci	r29, 0xFF	; 255
    302c:	68 81       	ld	r22, Y
    302e:	cf 5c       	subi	r28, 0xCF	; 207
    3030:	d0 40       	sbci	r29, 0x00	; 0
    3032:	72 2d       	mov	r23, r2
    3034:	83 2d       	mov	r24, r3
    3036:	94 2d       	mov	r25, r4
    3038:	0f e3       	ldi	r16, 0x3F	; 63
    303a:	0e 94 6b 20 	call	0x40d6	; 0x40d6 <__rotldi3>
    303e:	a2 26       	eor	r10, r18
    3040:	b3 26       	eor	r11, r19
    3042:	c4 26       	eor	r12, r20
    3044:	d5 26       	eor	r13, r21
    3046:	e6 26       	eor	r14, r22
    3048:	f7 26       	eor	r15, r23
    304a:	58 26       	eor	r5, r24
    304c:	19 27       	eor	r17, r25
    304e:	c5 53       	subi	r28, 0x35	; 53
    3050:	df 4f       	sbci	r29, 0xFF	; 255
    3052:	28 81       	ld	r18, Y
    3054:	cb 5c       	subi	r28, 0xCB	; 203
    3056:	d0 40       	sbci	r29, 0x00	; 0
    3058:	c4 53       	subi	r28, 0x34	; 52
    305a:	df 4f       	sbci	r29, 0xFF	; 255
    305c:	38 81       	ld	r19, Y
    305e:	cc 5c       	subi	r28, 0xCC	; 204
    3060:	d0 40       	sbci	r29, 0x00	; 0
    3062:	c3 53       	subi	r28, 0x33	; 51
    3064:	df 4f       	sbci	r29, 0xFF	; 255
    3066:	48 81       	ld	r20, Y
    3068:	cd 5c       	subi	r28, 0xCD	; 205
    306a:	d0 40       	sbci	r29, 0x00	; 0
    306c:	c2 53       	subi	r28, 0x32	; 50
    306e:	df 4f       	sbci	r29, 0xFF	; 255
    3070:	58 81       	ld	r21, Y
    3072:	ce 5c       	subi	r28, 0xCE	; 206
    3074:	d0 40       	sbci	r29, 0x00	; 0
    3076:	c1 53       	subi	r28, 0x31	; 49
    3078:	df 4f       	sbci	r29, 0xFF	; 255
    307a:	68 81       	ld	r22, Y
    307c:	cf 5c       	subi	r28, 0xCF	; 207
    307e:	d0 40       	sbci	r29, 0x00	; 0
    3080:	72 2d       	mov	r23, r2
    3082:	83 2d       	mov	r24, r3
    3084:	94 2d       	mov	r25, r4
    3086:	07 e0       	ldi	r16, 0x07	; 7
    3088:	0e 94 4f 20 	call	0x409e	; 0x409e <__lshrdi3>
    308c:	a2 26       	eor	r10, r18
    308e:	b3 26       	eor	r11, r19
    3090:	c4 26       	eor	r12, r20
    3092:	d5 26       	eor	r13, r21
    3094:	e6 26       	eor	r14, r22
    3096:	f7 26       	eor	r15, r23
    3098:	05 2d       	mov	r16, r5
    309a:	08 27       	eor	r16, r24
    309c:	19 27       	eor	r17, r25
    309e:	26 2d       	mov	r18, r6
    30a0:	37 2d       	mov	r19, r7
    30a2:	48 2d       	mov	r20, r8
    30a4:	59 2d       	mov	r21, r9
    30a6:	6b 2f       	mov	r22, r27
    30a8:	7a 2f       	mov	r23, r26
    30aa:	8f 2f       	mov	r24, r31
    30ac:	9e 2f       	mov	r25, r30
    30ae:	0e 94 86 20 	call	0x410c	; 0x410c <__adddi3>
    30b2:	c5 53       	subi	r28, 0x35	; 53
    30b4:	df 4f       	sbci	r29, 0xFF	; 255
    30b6:	28 83       	st	Y, r18
    30b8:	cb 5c       	subi	r28, 0xCB	; 203
    30ba:	d0 40       	sbci	r29, 0x00	; 0
    30bc:	c4 53       	subi	r28, 0x34	; 52
    30be:	df 4f       	sbci	r29, 0xFF	; 255
    30c0:	38 83       	st	Y, r19
    30c2:	cc 5c       	subi	r28, 0xCC	; 204
    30c4:	d0 40       	sbci	r29, 0x00	; 0
    30c6:	c3 53       	subi	r28, 0x33	; 51
    30c8:	df 4f       	sbci	r29, 0xFF	; 255
    30ca:	48 83       	st	Y, r20
    30cc:	cd 5c       	subi	r28, 0xCD	; 205
    30ce:	d0 40       	sbci	r29, 0x00	; 0
    30d0:	c2 53       	subi	r28, 0x32	; 50
    30d2:	df 4f       	sbci	r29, 0xFF	; 255
    30d4:	58 83       	st	Y, r21
    30d6:	ce 5c       	subi	r28, 0xCE	; 206
    30d8:	d0 40       	sbci	r29, 0x00	; 0
    30da:	c1 53       	subi	r28, 0x31	; 49
    30dc:	df 4f       	sbci	r29, 0xFF	; 255
    30de:	68 83       	st	Y, r22
    30e0:	cf 5c       	subi	r28, 0xCF	; 207
    30e2:	d0 40       	sbci	r29, 0x00	; 0
    30e4:	cd 52       	subi	r28, 0x2D	; 45
    30e6:	df 4f       	sbci	r29, 0xFF	; 255
    30e8:	78 83       	st	Y, r23
    30ea:	c3 5d       	subi	r28, 0xD3	; 211
    30ec:	d0 40       	sbci	r29, 0x00	; 0
    30ee:	cc 52       	subi	r28, 0x2C	; 44
    30f0:	df 4f       	sbci	r29, 0xFF	; 255
    30f2:	88 83       	st	Y, r24
    30f4:	c4 5d       	subi	r28, 0xD4	; 212
    30f6:	d0 40       	sbci	r29, 0x00	; 0
    30f8:	49 2e       	mov	r4, r25
			memmove(&(w[0]), &(w[1]), 15*8);
    30fa:	48 e7       	ldi	r20, 0x78	; 120
    30fc:	50 e0       	ldi	r21, 0x00	; 0
    30fe:	be 01       	movw	r22, r28
    3100:	67 5f       	subi	r22, 0xF7	; 247
    3102:	7f 4f       	sbci	r23, 0xFF	; 255
    3104:	ce 01       	movw	r24, r28
    3106:	01 96       	adiw	r24, 0x01	; 1
    3108:	0e 94 f6 20 	call	0x41ec	; 0x41ec <memmove>
			w[15] = wx;
    310c:	c5 53       	subi	r28, 0x35	; 53
    310e:	df 4f       	sbci	r29, 0xFF	; 255
    3110:	f8 81       	ld	r31, Y
    3112:	cb 5c       	subi	r28, 0xCB	; 203
    3114:	d0 40       	sbci	r29, 0x00	; 0
    3116:	ea 96       	adiw	r28, 0x3a	; 58
    3118:	ff af       	std	Y+63, r31	; 0x3f
    311a:	ea 97       	sbiw	r28, 0x3a	; 58
    311c:	c4 53       	subi	r28, 0x34	; 52
    311e:	df 4f       	sbci	r29, 0xFF	; 255
    3120:	18 81       	ld	r17, Y
    3122:	cc 5c       	subi	r28, 0xCC	; 204
    3124:	d0 40       	sbci	r29, 0x00	; 0
    3126:	eb 96       	adiw	r28, 0x3b	; 59
    3128:	1f af       	std	Y+63, r17	; 0x3f
    312a:	eb 97       	sbiw	r28, 0x3b	; 59
    312c:	c3 53       	subi	r28, 0x33	; 51
    312e:	df 4f       	sbci	r29, 0xFF	; 255
    3130:	88 81       	ld	r24, Y
    3132:	cd 5c       	subi	r28, 0xCD	; 205
    3134:	d0 40       	sbci	r29, 0x00	; 0
    3136:	ec 96       	adiw	r28, 0x3c	; 60
    3138:	8f af       	std	Y+63, r24	; 0x3f
    313a:	ec 97       	sbiw	r28, 0x3c	; 60
    313c:	c2 53       	subi	r28, 0x32	; 50
    313e:	df 4f       	sbci	r29, 0xFF	; 255
    3140:	98 81       	ld	r25, Y
    3142:	ce 5c       	subi	r28, 0xCE	; 206
    3144:	d0 40       	sbci	r29, 0x00	; 0
    3146:	ed 96       	adiw	r28, 0x3d	; 61
    3148:	9f af       	std	Y+63, r25	; 0x3f
    314a:	ed 97       	sbiw	r28, 0x3d	; 61
    314c:	c1 53       	subi	r28, 0x31	; 49
    314e:	df 4f       	sbci	r29, 0xFF	; 255
    3150:	a8 81       	ld	r26, Y
    3152:	cf 5c       	subi	r28, 0xCF	; 207
    3154:	d0 40       	sbci	r29, 0x00	; 0
    3156:	ee 96       	adiw	r28, 0x3e	; 62
    3158:	af af       	std	Y+63, r26	; 0x3f
    315a:	ee 97       	sbiw	r28, 0x3e	; 62
    315c:	cd 52       	subi	r28, 0x2D	; 45
    315e:	df 4f       	sbci	r29, 0xFF	; 255
    3160:	b8 81       	ld	r27, Y
    3162:	c3 5d       	subi	r28, 0xD3	; 211
    3164:	d0 40       	sbci	r29, 0x00	; 0
    3166:	ef 96       	adiw	r28, 0x3f	; 63
    3168:	bf af       	std	Y+63, r27	; 0x3f
    316a:	ef 97       	sbiw	r28, 0x3f	; 63
    316c:	cc 52       	subi	r28, 0x2C	; 44
    316e:	df 4f       	sbci	r29, 0xFF	; 255
    3170:	e8 81       	ld	r30, Y
    3172:	c4 5d       	subi	r28, 0xD4	; 212
    3174:	d0 40       	sbci	r29, 0x00	; 0
    3176:	c1 58       	subi	r28, 0x81	; 129
    3178:	df 4f       	sbci	r29, 0xFF	; 255
    317a:	e8 83       	st	Y, r30
    317c:	cf 57       	subi	r28, 0x7F	; 127
    317e:	d0 40       	sbci	r29, 0x00	; 0
    3180:	c0 58       	subi	r28, 0x80	; 128
    3182:	df 4f       	sbci	r29, 0xFF	; 255
    3184:	48 82       	st	Y, r4
    3186:	c0 58       	subi	r28, 0x80	; 128
    3188:	d0 40       	sbci	r29, 0x00	; 0
		}
		t1 = a[7] + SIGMA_1(a[4]) + CH(a[4], a[5], a[6]) + pgm_read_uint64_t_P(k++) + wx;
    318a:	c7 54       	subi	r28, 0x47	; 71
    318c:	df 4f       	sbci	r29, 0xFF	; 255
    318e:	18 81       	ld	r17, Y
    3190:	c9 5b       	subi	r28, 0xB9	; 185
    3192:	d0 40       	sbci	r29, 0x00	; 0
    3194:	cb 52       	subi	r28, 0x2B	; 43
    3196:	df 4f       	sbci	r29, 0xFF	; 255
    3198:	18 83       	st	Y, r17
    319a:	c5 5d       	subi	r28, 0xD5	; 213
    319c:	d0 40       	sbci	r29, 0x00	; 0
    319e:	c6 54       	subi	r28, 0x46	; 70
    31a0:	df 4f       	sbci	r29, 0xFF	; 255
    31a2:	a8 81       	ld	r26, Y
    31a4:	ca 5b       	subi	r28, 0xBA	; 186
    31a6:	d0 40       	sbci	r29, 0x00	; 0
    31a8:	ca 52       	subi	r28, 0x2A	; 42
    31aa:	df 4f       	sbci	r29, 0xFF	; 255
    31ac:	a8 83       	st	Y, r26
    31ae:	c6 5d       	subi	r28, 0xD6	; 214
    31b0:	d0 40       	sbci	r29, 0x00	; 0
    31b2:	c5 54       	subi	r28, 0x45	; 69
    31b4:	df 4f       	sbci	r29, 0xFF	; 255
    31b6:	b8 81       	ld	r27, Y
    31b8:	cb 5b       	subi	r28, 0xBB	; 187
    31ba:	d0 40       	sbci	r29, 0x00	; 0
    31bc:	c9 52       	subi	r28, 0x29	; 41
    31be:	df 4f       	sbci	r29, 0xFF	; 255
    31c0:	b8 83       	st	Y, r27
    31c2:	c7 5d       	subi	r28, 0xD7	; 215
    31c4:	d0 40       	sbci	r29, 0x00	; 0
    31c6:	c4 54       	subi	r28, 0x44	; 68
    31c8:	df 4f       	sbci	r29, 0xFF	; 255
    31ca:	18 81       	ld	r17, Y
    31cc:	cc 5b       	subi	r28, 0xBC	; 188
    31ce:	d0 40       	sbci	r29, 0x00	; 0
    31d0:	c8 52       	subi	r28, 0x28	; 40
    31d2:	df 4f       	sbci	r29, 0xFF	; 255
    31d4:	18 83       	st	Y, r17
    31d6:	c8 5d       	subi	r28, 0xD8	; 216
    31d8:	d0 40       	sbci	r29, 0x00	; 0
    31da:	c3 54       	subi	r28, 0x43	; 67
    31dc:	df 4f       	sbci	r29, 0xFF	; 255
    31de:	a8 81       	ld	r26, Y
    31e0:	cd 5b       	subi	r28, 0xBD	; 189
    31e2:	d0 40       	sbci	r29, 0x00	; 0
    31e4:	c7 52       	subi	r28, 0x27	; 39
    31e6:	df 4f       	sbci	r29, 0xFF	; 255
    31e8:	a8 83       	st	Y, r26
    31ea:	c9 5d       	subi	r28, 0xD9	; 217
    31ec:	d0 40       	sbci	r29, 0x00	; 0
    31ee:	c2 54       	subi	r28, 0x42	; 66
    31f0:	df 4f       	sbci	r29, 0xFF	; 255
    31f2:	b8 81       	ld	r27, Y
    31f4:	ce 5b       	subi	r28, 0xBE	; 190
    31f6:	d0 40       	sbci	r29, 0x00	; 0
    31f8:	c6 52       	subi	r28, 0x26	; 38
    31fa:	df 4f       	sbci	r29, 0xFF	; 255
    31fc:	b8 83       	st	Y, r27
    31fe:	ca 5d       	subi	r28, 0xDA	; 218
    3200:	d0 40       	sbci	r29, 0x00	; 0
    3202:	c1 54       	subi	r28, 0x41	; 65
    3204:	df 4f       	sbci	r29, 0xFF	; 255
    3206:	18 81       	ld	r17, Y
    3208:	cf 5b       	subi	r28, 0xBF	; 191
    320a:	d0 40       	sbci	r29, 0x00	; 0
    320c:	c3 52       	subi	r28, 0x23	; 35
    320e:	df 4f       	sbci	r29, 0xFF	; 255
    3210:	18 83       	st	Y, r17
    3212:	cd 5d       	subi	r28, 0xDD	; 221
    3214:	d0 40       	sbci	r29, 0x00	; 0
    3216:	c0 54       	subi	r28, 0x40	; 64
    3218:	df 4f       	sbci	r29, 0xFF	; 255
    321a:	a8 81       	ld	r26, Y
    321c:	c0 5c       	subi	r28, 0xC0	; 192
    321e:	d0 40       	sbci	r29, 0x00	; 0
    3220:	c2 52       	subi	r28, 0x22	; 34
    3222:	df 4f       	sbci	r29, 0xFF	; 255
    3224:	a8 83       	st	Y, r26
    3226:	ce 5d       	subi	r28, 0xDE	; 222
    3228:	d0 40       	sbci	r29, 0x00	; 0
    322a:	cf 55       	subi	r28, 0x5F	; 95
    322c:	df 4f       	sbci	r29, 0xFF	; 255
    322e:	98 80       	ld	r9, Y
    3230:	c1 5a       	subi	r28, 0xA1	; 161
    3232:	d0 40       	sbci	r29, 0x00	; 0
    3234:	ce 55       	subi	r28, 0x5E	; 94
    3236:	df 4f       	sbci	r29, 0xFF	; 255
    3238:	b8 80       	ld	r11, Y
    323a:	c2 5a       	subi	r28, 0xA2	; 162
    323c:	d0 40       	sbci	r29, 0x00	; 0
    323e:	cd 55       	subi	r28, 0x5D	; 93
    3240:	df 4f       	sbci	r29, 0xFF	; 255
    3242:	c8 80       	ld	r12, Y
    3244:	c3 5a       	subi	r28, 0xA3	; 163
    3246:	d0 40       	sbci	r29, 0x00	; 0
    3248:	cc 55       	subi	r28, 0x5C	; 92
    324a:	df 4f       	sbci	r29, 0xFF	; 255
    324c:	d8 80       	ld	r13, Y
    324e:	c4 5a       	subi	r28, 0xA4	; 164
    3250:	d0 40       	sbci	r29, 0x00	; 0
    3252:	cb 55       	subi	r28, 0x5B	; 91
    3254:	df 4f       	sbci	r29, 0xFF	; 255
    3256:	f8 80       	ld	r15, Y
    3258:	c5 5a       	subi	r28, 0xA5	; 165
    325a:	d0 40       	sbci	r29, 0x00	; 0
    325c:	ca 55       	subi	r28, 0x5A	; 90
    325e:	df 4f       	sbci	r29, 0xFF	; 255
    3260:	18 81       	ld	r17, Y
    3262:	c6 5a       	subi	r28, 0xA6	; 166
    3264:	d0 40       	sbci	r29, 0x00	; 0
    3266:	c9 55       	subi	r28, 0x59	; 89
    3268:	df 4f       	sbci	r29, 0xFF	; 255
    326a:	b8 81       	ld	r27, Y
    326c:	c7 5a       	subi	r28, 0xA7	; 167
    326e:	d0 40       	sbci	r29, 0x00	; 0
    3270:	c8 55       	subi	r28, 0x58	; 88
    3272:	df 4f       	sbci	r29, 0xFF	; 255
    3274:	a8 81       	ld	r26, Y
    3276:	c8 5a       	subi	r28, 0xA8	; 168
    3278:	d0 40       	sbci	r29, 0x00	; 0
    327a:	79 2d       	mov	r23, r9
    327c:	70 95       	com	r23
    327e:	6b 2d       	mov	r22, r11
    3280:	60 95       	com	r22
    3282:	5c 2d       	mov	r21, r12
    3284:	50 95       	com	r21
    3286:	4d 2d       	mov	r20, r13
    3288:	40 95       	com	r20
    328a:	3f 2d       	mov	r19, r15
    328c:	30 95       	com	r19
    328e:	21 2f       	mov	r18, r17
    3290:	20 95       	com	r18
    3292:	9b 2f       	mov	r25, r27
    3294:	90 95       	com	r25
    3296:	8a 2f       	mov	r24, r26
    3298:	80 95       	com	r24
    329a:	cf 54       	subi	r28, 0x4F	; 79
    329c:	df 4f       	sbci	r29, 0xFF	; 255
    329e:	68 80       	ld	r6, Y
    32a0:	c1 5b       	subi	r28, 0xB1	; 177
    32a2:	d0 40       	sbci	r29, 0x00	; 0
    32a4:	67 22       	and	r6, r23
    32a6:	ce 54       	subi	r28, 0x4E	; 78
    32a8:	df 4f       	sbci	r29, 0xFF	; 255
    32aa:	88 80       	ld	r8, Y
    32ac:	c2 5b       	subi	r28, 0xB2	; 178
    32ae:	d0 40       	sbci	r29, 0x00	; 0
    32b0:	86 22       	and	r8, r22
    32b2:	cd 54       	subi	r28, 0x4D	; 77
    32b4:	df 4f       	sbci	r29, 0xFF	; 255
    32b6:	e8 80       	ld	r14, Y
    32b8:	c3 5b       	subi	r28, 0xB3	; 179
    32ba:	d0 40       	sbci	r29, 0x00	; 0
    32bc:	e5 22       	and	r14, r21
    32be:	cc 54       	subi	r28, 0x4C	; 76
    32c0:	df 4f       	sbci	r29, 0xFF	; 255
    32c2:	f8 81       	ld	r31, Y
    32c4:	c4 5b       	subi	r28, 0xB4	; 180
    32c6:	d0 40       	sbci	r29, 0x00	; 0
    32c8:	f4 23       	and	r31, r20
    32ca:	cb 54       	subi	r28, 0x4B	; 75
    32cc:	df 4f       	sbci	r29, 0xFF	; 255
    32ce:	78 81       	ld	r23, Y
    32d0:	c5 5b       	subi	r28, 0xB5	; 181
    32d2:	d0 40       	sbci	r29, 0x00	; 0
    32d4:	73 23       	and	r23, r19
    32d6:	ca 54       	subi	r28, 0x4A	; 74
    32d8:	df 4f       	sbci	r29, 0xFF	; 255
    32da:	58 81       	ld	r21, Y
    32dc:	c6 5b       	subi	r28, 0xB6	; 182
    32de:	d0 40       	sbci	r29, 0x00	; 0
    32e0:	52 23       	and	r21, r18
    32e2:	c9 54       	subi	r28, 0x49	; 73
    32e4:	df 4f       	sbci	r29, 0xFF	; 255
    32e6:	38 81       	ld	r19, Y
    32e8:	c7 5b       	subi	r28, 0xB7	; 183
    32ea:	d0 40       	sbci	r29, 0x00	; 0
    32ec:	39 23       	and	r19, r25
    32ee:	c8 54       	subi	r28, 0x48	; 72
    32f0:	df 4f       	sbci	r29, 0xFF	; 255
    32f2:	98 81       	ld	r25, Y
    32f4:	c8 5b       	subi	r28, 0xB8	; 184
    32f6:	d0 40       	sbci	r29, 0x00	; 0
    32f8:	98 23       	and	r25, r24
    32fa:	c7 55       	subi	r28, 0x57	; 87
    32fc:	df 4f       	sbci	r29, 0xFF	; 255
    32fe:	78 80       	ld	r7, Y
    3300:	c9 5a       	subi	r28, 0xA9	; 169
    3302:	d0 40       	sbci	r29, 0x00	; 0
    3304:	79 20       	and	r7, r9
    3306:	c6 55       	subi	r28, 0x56	; 86
    3308:	df 4f       	sbci	r29, 0xFF	; 255
    330a:	a8 80       	ld	r10, Y
    330c:	ca 5a       	subi	r28, 0xAA	; 170
    330e:	d0 40       	sbci	r29, 0x00	; 0
    3310:	ab 20       	and	r10, r11
    3312:	c5 55       	subi	r28, 0x55	; 85
    3314:	df 4f       	sbci	r29, 0xFF	; 255
    3316:	08 81       	ld	r16, Y
    3318:	cb 5a       	subi	r28, 0xAB	; 171
    331a:	d0 40       	sbci	r29, 0x00	; 0
    331c:	0c 21       	and	r16, r12
    331e:	c4 55       	subi	r28, 0x54	; 84
    3320:	df 4f       	sbci	r29, 0xFF	; 255
    3322:	e8 81       	ld	r30, Y
    3324:	cc 5a       	subi	r28, 0xAC	; 172
    3326:	d0 40       	sbci	r29, 0x00	; 0
    3328:	ed 21       	and	r30, r13
    332a:	c3 55       	subi	r28, 0x53	; 83
    332c:	df 4f       	sbci	r29, 0xFF	; 255
    332e:	68 81       	ld	r22, Y
    3330:	cd 5a       	subi	r28, 0xAD	; 173
    3332:	d0 40       	sbci	r29, 0x00	; 0
    3334:	6f 21       	and	r22, r15
    3336:	c2 55       	subi	r28, 0x52	; 82
    3338:	df 4f       	sbci	r29, 0xFF	; 255
    333a:	48 81       	ld	r20, Y
    333c:	ce 5a       	subi	r28, 0xAE	; 174
    333e:	d0 40       	sbci	r29, 0x00	; 0
    3340:	41 23       	and	r20, r17
    3342:	c1 55       	subi	r28, 0x51	; 81
    3344:	df 4f       	sbci	r29, 0xFF	; 255
    3346:	28 81       	ld	r18, Y
    3348:	cf 5a       	subi	r28, 0xAF	; 175
    334a:	d0 40       	sbci	r29, 0x00	; 0
    334c:	2b 23       	and	r18, r27
    334e:	c0 55       	subi	r28, 0x50	; 80
    3350:	df 4f       	sbci	r29, 0xFF	; 255
    3352:	88 81       	ld	r24, Y
    3354:	c0 5b       	subi	r28, 0xB0	; 176
    3356:	d0 40       	sbci	r29, 0x00	; 0
    3358:	8a 23       	and	r24, r26
    335a:	67 24       	eor	r6, r7
    335c:	c1 52       	subi	r28, 0x21	; 33
    335e:	df 4f       	sbci	r29, 0xFF	; 255
    3360:	68 82       	st	Y, r6
    3362:	cf 5d       	subi	r28, 0xDF	; 223
    3364:	d0 40       	sbci	r29, 0x00	; 0
    3366:	8a 24       	eor	r8, r10
    3368:	c0 52       	subi	r28, 0x20	; 32
    336a:	df 4f       	sbci	r29, 0xFF	; 255
    336c:	88 82       	st	Y, r8
    336e:	c0 5e       	subi	r28, 0xE0	; 224
    3370:	d0 40       	sbci	r29, 0x00	; 0
    3372:	e0 26       	eor	r14, r16
    3374:	cf 51       	subi	r28, 0x1F	; 31
    3376:	df 4f       	sbci	r29, 0xFF	; 255
    3378:	e8 82       	st	Y, r14
    337a:	c1 5e       	subi	r28, 0xE1	; 225
    337c:	d0 40       	sbci	r29, 0x00	; 0
    337e:	fe 27       	eor	r31, r30
    3380:	ce 51       	subi	r28, 0x1E	; 30
    3382:	df 4f       	sbci	r29, 0xFF	; 255
    3384:	f8 83       	st	Y, r31
    3386:	c2 5e       	subi	r28, 0xE2	; 226
    3388:	d0 40       	sbci	r29, 0x00	; 0
    338a:	76 27       	eor	r23, r22
    338c:	cd 51       	subi	r28, 0x1D	; 29
    338e:	df 4f       	sbci	r29, 0xFF	; 255
    3390:	78 83       	st	Y, r23
    3392:	c3 5e       	subi	r28, 0xE3	; 227
    3394:	d0 40       	sbci	r29, 0x00	; 0
    3396:	54 27       	eor	r21, r20
    3398:	cc 51       	subi	r28, 0x1C	; 28
    339a:	df 4f       	sbci	r29, 0xFF	; 255
    339c:	58 83       	st	Y, r21
    339e:	c4 5e       	subi	r28, 0xE4	; 228
    33a0:	d0 40       	sbci	r29, 0x00	; 0
    33a2:	32 27       	eor	r19, r18
    33a4:	cb 51       	subi	r28, 0x1B	; 27
    33a6:	df 4f       	sbci	r29, 0xFF	; 255
    33a8:	38 83       	st	Y, r19
    33aa:	c5 5e       	subi	r28, 0xE5	; 229
    33ac:	d0 40       	sbci	r29, 0x00	; 0
    33ae:	98 27       	eor	r25, r24
    33b0:	ca 51       	subi	r28, 0x1A	; 26
    33b2:	df 4f       	sbci	r29, 0xFF	; 255
    33b4:	98 83       	st	Y, r25
    33b6:	c6 5e       	subi	r28, 0xE6	; 230
    33b8:	d0 40       	sbci	r29, 0x00	; 0
uint64_t pgm_read_uint64_t_P(const uint64_t * p){
	union {
		uint64_t v64;
		uint32_t v32[2];
	} ret;
	ret.v32[0] = pgm_read_dword(p);
    33ba:	cf 52       	subi	r28, 0x2F	; 47
    33bc:	df 4f       	sbci	r29, 0xFF	; 255
    33be:	e8 81       	ld	r30, Y
    33c0:	f9 81       	ldd	r31, Y+1	; 0x01
    33c2:	c1 5d       	subi	r28, 0xD1	; 209
    33c4:	d0 40       	sbci	r29, 0x00	; 0
    33c6:	45 91       	lpm	r20, Z+
    33c8:	55 91       	lpm	r21, Z+
    33ca:	65 91       	lpm	r22, Z+
    33cc:	74 91       	lpm	r23, Z
    33ce:	a4 2e       	mov	r10, r20
    33d0:	cf 53       	subi	r28, 0x3F	; 63
    33d2:	df 4f       	sbci	r29, 0xFF	; 255
    33d4:	48 83       	st	Y, r20
    33d6:	59 83       	std	Y+1, r21	; 0x01
    33d8:	6a 83       	std	Y+2, r22	; 0x02
    33da:	7b 83       	std	Y+3, r23	; 0x03
    33dc:	c1 5c       	subi	r28, 0xC1	; 193
    33de:	d0 40       	sbci	r29, 0x00	; 0
	ret.v32[1] = pgm_read_dword((uint8_t*)p + 4);
    33e0:	cf 52       	subi	r28, 0x2F	; 47
    33e2:	df 4f       	sbci	r29, 0xFF	; 255
    33e4:	e8 81       	ld	r30, Y
    33e6:	f9 81       	ldd	r31, Y+1	; 0x01
    33e8:	c1 5d       	subi	r28, 0xD1	; 209
    33ea:	d0 40       	sbci	r29, 0x00	; 0
    33ec:	34 96       	adiw	r30, 0x04	; 4
    33ee:	45 91       	lpm	r20, Z+
    33f0:	55 91       	lpm	r21, Z+
    33f2:	65 91       	lpm	r22, Z+
    33f4:	74 91       	lpm	r23, Z
    33f6:	e4 2e       	mov	r14, r20
    33f8:	cb 53       	subi	r28, 0x3B	; 59
    33fa:	df 4f       	sbci	r29, 0xFF	; 255
    33fc:	48 83       	st	Y, r20
    33fe:	59 83       	std	Y+1, r21	; 0x01
    3400:	6a 83       	std	Y+2, r22	; 0x02
    3402:	7b 83       	std	Y+3, r23	; 0x03
    3404:	c5 5c       	subi	r28, 0xC5	; 197
    3406:	d0 40       	sbci	r29, 0x00	; 0
    3408:	29 2d       	mov	r18, r9
    340a:	3b 2d       	mov	r19, r11
    340c:	4c 2d       	mov	r20, r12
    340e:	5d 2d       	mov	r21, r13
    3410:	6f 2d       	mov	r22, r15
    3412:	71 2f       	mov	r23, r17
    3414:	8b 2f       	mov	r24, r27
    3416:	9a 2f       	mov	r25, r26
    3418:	0e e2       	ldi	r16, 0x2E	; 46
    341a:	5d d6       	rcall	.+3258   	; 0x40d6 <__rotldi3>
    341c:	22 2e       	mov	r2, r18
    341e:	33 2e       	mov	r3, r19
    3420:	54 2e       	mov	r5, r20
    3422:	65 2e       	mov	r6, r21
    3424:	76 2e       	mov	r7, r22
    3426:	87 2e       	mov	r8, r23
    3428:	f8 2f       	mov	r31, r24
    342a:	e9 2f       	mov	r30, r25
    342c:	29 2d       	mov	r18, r9
    342e:	3b 2d       	mov	r19, r11
    3430:	4c 2d       	mov	r20, r12
    3432:	5d 2d       	mov	r21, r13
    3434:	6f 2d       	mov	r22, r15
    3436:	71 2f       	mov	r23, r17
    3438:	8b 2f       	mov	r24, r27
    343a:	9a 2f       	mov	r25, r26
    343c:	02 e3       	ldi	r16, 0x32	; 50
    343e:	4b d6       	rcall	.+3222   	; 0x40d6 <__rotldi3>
    3440:	22 26       	eor	r2, r18
    3442:	33 26       	eor	r3, r19
    3444:	54 26       	eor	r5, r20
    3446:	65 26       	eor	r6, r21
    3448:	76 26       	eor	r7, r22
    344a:	87 26       	eor	r8, r23
    344c:	f8 27       	eor	r31, r24
    344e:	e9 27       	eor	r30, r25
    3450:	29 2d       	mov	r18, r9
    3452:	3b 2d       	mov	r19, r11
    3454:	4c 2d       	mov	r20, r12
    3456:	5d 2d       	mov	r21, r13
    3458:	6f 2d       	mov	r22, r15
    345a:	71 2f       	mov	r23, r17
    345c:	8b 2f       	mov	r24, r27
    345e:	9a 2f       	mov	r25, r26
    3460:	07 e1       	ldi	r16, 0x17	; 23
    3462:	39 d6       	rcall	.+3186   	; 0x40d6 <__rotldi3>
    3464:	22 26       	eor	r2, r18
    3466:	33 26       	eor	r3, r19
    3468:	54 26       	eor	r5, r20
    346a:	65 26       	eor	r6, r21
    346c:	76 26       	eor	r7, r22
    346e:	87 26       	eor	r8, r23
    3470:	f8 27       	eor	r31, r24
    3472:	e9 27       	eor	r30, r25
    3474:	cb 52       	subi	r28, 0x2B	; 43
    3476:	df 4f       	sbci	r29, 0xFF	; 255
    3478:	28 81       	ld	r18, Y
    347a:	c5 5d       	subi	r28, 0xD5	; 213
    347c:	d0 40       	sbci	r29, 0x00	; 0
    347e:	ca 52       	subi	r28, 0x2A	; 42
    3480:	df 4f       	sbci	r29, 0xFF	; 255
    3482:	38 81       	ld	r19, Y
    3484:	c6 5d       	subi	r28, 0xD6	; 214
    3486:	d0 40       	sbci	r29, 0x00	; 0
    3488:	c9 52       	subi	r28, 0x29	; 41
    348a:	df 4f       	sbci	r29, 0xFF	; 255
    348c:	48 81       	ld	r20, Y
    348e:	c7 5d       	subi	r28, 0xD7	; 215
    3490:	d0 40       	sbci	r29, 0x00	; 0
    3492:	c8 52       	subi	r28, 0x28	; 40
    3494:	df 4f       	sbci	r29, 0xFF	; 255
    3496:	58 81       	ld	r21, Y
    3498:	c8 5d       	subi	r28, 0xD8	; 216
    349a:	d0 40       	sbci	r29, 0x00	; 0
    349c:	c7 52       	subi	r28, 0x27	; 39
    349e:	df 4f       	sbci	r29, 0xFF	; 255
    34a0:	68 81       	ld	r22, Y
    34a2:	c9 5d       	subi	r28, 0xD9	; 217
    34a4:	d0 40       	sbci	r29, 0x00	; 0
    34a6:	c6 52       	subi	r28, 0x26	; 38
    34a8:	df 4f       	sbci	r29, 0xFF	; 255
    34aa:	78 81       	ld	r23, Y
    34ac:	ca 5d       	subi	r28, 0xDA	; 218
    34ae:	d0 40       	sbci	r29, 0x00	; 0
    34b0:	c3 52       	subi	r28, 0x23	; 35
    34b2:	df 4f       	sbci	r29, 0xFF	; 255
    34b4:	88 81       	ld	r24, Y
    34b6:	cd 5d       	subi	r28, 0xDD	; 221
    34b8:	d0 40       	sbci	r29, 0x00	; 0
    34ba:	c2 52       	subi	r28, 0x22	; 34
    34bc:	df 4f       	sbci	r29, 0xFF	; 255
    34be:	98 81       	ld	r25, Y
    34c0:	ce 5d       	subi	r28, 0xDE	; 222
    34c2:	d0 40       	sbci	r29, 0x00	; 0
    34c4:	ce 53       	subi	r28, 0x3E	; 62
    34c6:	df 4f       	sbci	r29, 0xFF	; 255
    34c8:	b8 80       	ld	r11, Y
    34ca:	c2 5c       	subi	r28, 0xC2	; 194
    34cc:	d0 40       	sbci	r29, 0x00	; 0
    34ce:	cd 53       	subi	r28, 0x3D	; 61
    34d0:	df 4f       	sbci	r29, 0xFF	; 255
    34d2:	c8 80       	ld	r12, Y
    34d4:	c3 5c       	subi	r28, 0xC3	; 195
    34d6:	d0 40       	sbci	r29, 0x00	; 0
    34d8:	cc 53       	subi	r28, 0x3C	; 60
    34da:	df 4f       	sbci	r29, 0xFF	; 255
    34dc:	d8 80       	ld	r13, Y
    34de:	c4 5c       	subi	r28, 0xC4	; 196
    34e0:	d0 40       	sbci	r29, 0x00	; 0
    34e2:	ca 53       	subi	r28, 0x3A	; 58
    34e4:	df 4f       	sbci	r29, 0xFF	; 255
    34e6:	f8 80       	ld	r15, Y
    34e8:	c6 5c       	subi	r28, 0xC6	; 198
    34ea:	d0 40       	sbci	r29, 0x00	; 0
    34ec:	c9 53       	subi	r28, 0x39	; 57
    34ee:	df 4f       	sbci	r29, 0xFF	; 255
    34f0:	08 81       	ld	r16, Y
    34f2:	c7 5c       	subi	r28, 0xC7	; 199
    34f4:	d0 40       	sbci	r29, 0x00	; 0
    34f6:	c8 53       	subi	r28, 0x38	; 56
    34f8:	df 4f       	sbci	r29, 0xFF	; 255
    34fa:	18 81       	ld	r17, Y
    34fc:	c8 5c       	subi	r28, 0xC8	; 200
    34fe:	d0 40       	sbci	r29, 0x00	; 0
    3500:	05 d6       	rcall	.+3082   	; 0x410c <__adddi3>
    3502:	a2 2e       	mov	r10, r18
    3504:	b3 2e       	mov	r11, r19
    3506:	c4 2e       	mov	r12, r20
    3508:	d5 2e       	mov	r13, r21
    350a:	e6 2e       	mov	r14, r22
    350c:	f7 2e       	mov	r15, r23
    350e:	08 2f       	mov	r16, r24
    3510:	19 2f       	mov	r17, r25
    3512:	22 2d       	mov	r18, r2
    3514:	33 2d       	mov	r19, r3
    3516:	45 2d       	mov	r20, r5
    3518:	56 2d       	mov	r21, r6
    351a:	67 2d       	mov	r22, r7
    351c:	78 2d       	mov	r23, r8
    351e:	8f 2f       	mov	r24, r31
    3520:	9e 2f       	mov	r25, r30
    3522:	f4 d5       	rcall	.+3048   	; 0x410c <__adddi3>
		}else{
			wx = SIGMA_b(w[14]) + w[9] + SIGMA_a(w[1]) + w[0];
			memmove(&(w[0]), &(w[1]), 15*8);
			w[15] = wx;
		}
		t1 = a[7] + SIGMA_1(a[4]) + CH(a[4], a[5], a[6]) + pgm_read_uint64_t_P(k++) + wx;
    3524:	c1 52       	subi	r28, 0x21	; 33
    3526:	df 4f       	sbci	r29, 0xFF	; 255
    3528:	a8 80       	ld	r10, Y
    352a:	cf 5d       	subi	r28, 0xDF	; 223
    352c:	d0 40       	sbci	r29, 0x00	; 0
    352e:	c0 52       	subi	r28, 0x20	; 32
    3530:	df 4f       	sbci	r29, 0xFF	; 255
    3532:	b8 80       	ld	r11, Y
    3534:	c0 5e       	subi	r28, 0xE0	; 224
    3536:	d0 40       	sbci	r29, 0x00	; 0
    3538:	cf 51       	subi	r28, 0x1F	; 31
    353a:	df 4f       	sbci	r29, 0xFF	; 255
    353c:	c8 80       	ld	r12, Y
    353e:	c1 5e       	subi	r28, 0xE1	; 225
    3540:	d0 40       	sbci	r29, 0x00	; 0
    3542:	ce 51       	subi	r28, 0x1E	; 30
    3544:	df 4f       	sbci	r29, 0xFF	; 255
    3546:	d8 80       	ld	r13, Y
    3548:	c2 5e       	subi	r28, 0xE2	; 226
    354a:	d0 40       	sbci	r29, 0x00	; 0
    354c:	cd 51       	subi	r28, 0x1D	; 29
    354e:	df 4f       	sbci	r29, 0xFF	; 255
    3550:	e8 80       	ld	r14, Y
    3552:	c3 5e       	subi	r28, 0xE3	; 227
    3554:	d0 40       	sbci	r29, 0x00	; 0
    3556:	cc 51       	subi	r28, 0x1C	; 28
    3558:	df 4f       	sbci	r29, 0xFF	; 255
    355a:	f8 80       	ld	r15, Y
    355c:	c4 5e       	subi	r28, 0xE4	; 228
    355e:	d0 40       	sbci	r29, 0x00	; 0
    3560:	cb 51       	subi	r28, 0x1B	; 27
    3562:	df 4f       	sbci	r29, 0xFF	; 255
    3564:	08 81       	ld	r16, Y
    3566:	c5 5e       	subi	r28, 0xE5	; 229
    3568:	d0 40       	sbci	r29, 0x00	; 0
    356a:	ca 51       	subi	r28, 0x1A	; 26
    356c:	df 4f       	sbci	r29, 0xFF	; 255
    356e:	18 81       	ld	r17, Y
    3570:	c6 5e       	subi	r28, 0xE6	; 230
    3572:	d0 40       	sbci	r29, 0x00	; 0
    3574:	cb d5       	rcall	.+2966   	; 0x410c <__adddi3>
    3576:	c5 53       	subi	r28, 0x35	; 53
    3578:	df 4f       	sbci	r29, 0xFF	; 255
    357a:	a8 80       	ld	r10, Y
    357c:	cb 5c       	subi	r28, 0xCB	; 203
    357e:	d0 40       	sbci	r29, 0x00	; 0
    3580:	c4 53       	subi	r28, 0x34	; 52
    3582:	df 4f       	sbci	r29, 0xFF	; 255
    3584:	b8 80       	ld	r11, Y
    3586:	cc 5c       	subi	r28, 0xCC	; 204
    3588:	d0 40       	sbci	r29, 0x00	; 0
    358a:	c3 53       	subi	r28, 0x33	; 51
    358c:	df 4f       	sbci	r29, 0xFF	; 255
    358e:	c8 80       	ld	r12, Y
    3590:	cd 5c       	subi	r28, 0xCD	; 205
    3592:	d0 40       	sbci	r29, 0x00	; 0
    3594:	c2 53       	subi	r28, 0x32	; 50
    3596:	df 4f       	sbci	r29, 0xFF	; 255
    3598:	d8 80       	ld	r13, Y
    359a:	ce 5c       	subi	r28, 0xCE	; 206
    359c:	d0 40       	sbci	r29, 0x00	; 0
    359e:	c1 53       	subi	r28, 0x31	; 49
    35a0:	df 4f       	sbci	r29, 0xFF	; 255
    35a2:	e8 80       	ld	r14, Y
    35a4:	cf 5c       	subi	r28, 0xCF	; 207
    35a6:	d0 40       	sbci	r29, 0x00	; 0
    35a8:	cd 52       	subi	r28, 0x2D	; 45
    35aa:	df 4f       	sbci	r29, 0xFF	; 255
    35ac:	f8 80       	ld	r15, Y
    35ae:	c3 5d       	subi	r28, 0xD3	; 211
    35b0:	d0 40       	sbci	r29, 0x00	; 0
    35b2:	cc 52       	subi	r28, 0x2C	; 44
    35b4:	df 4f       	sbci	r29, 0xFF	; 255
    35b6:	08 81       	ld	r16, Y
    35b8:	c4 5d       	subi	r28, 0xD4	; 212
    35ba:	d0 40       	sbci	r29, 0x00	; 0
    35bc:	14 2d       	mov	r17, r4
    35be:	a6 d5       	rcall	.+2892   	; 0x410c <__adddi3>
    35c0:	c5 53       	subi	r28, 0x35	; 53
    35c2:	df 4f       	sbci	r29, 0xFF	; 255
    35c4:	28 83       	st	Y, r18
    35c6:	cb 5c       	subi	r28, 0xCB	; 203
    35c8:	d0 40       	sbci	r29, 0x00	; 0
    35ca:	c4 53       	subi	r28, 0x34	; 52
    35cc:	df 4f       	sbci	r29, 0xFF	; 255
    35ce:	38 83       	st	Y, r19
    35d0:	cc 5c       	subi	r28, 0xCC	; 204
    35d2:	d0 40       	sbci	r29, 0x00	; 0
    35d4:	c3 53       	subi	r28, 0x33	; 51
    35d6:	df 4f       	sbci	r29, 0xFF	; 255
    35d8:	48 83       	st	Y, r20
    35da:	cd 5c       	subi	r28, 0xCD	; 205
    35dc:	d0 40       	sbci	r29, 0x00	; 0
    35de:	c2 53       	subi	r28, 0x32	; 50
    35e0:	df 4f       	sbci	r29, 0xFF	; 255
    35e2:	58 83       	st	Y, r21
    35e4:	ce 5c       	subi	r28, 0xCE	; 206
    35e6:	d0 40       	sbci	r29, 0x00	; 0
    35e8:	c1 53       	subi	r28, 0x31	; 49
    35ea:	df 4f       	sbci	r29, 0xFF	; 255
    35ec:	68 83       	st	Y, r22
    35ee:	cf 5c       	subi	r28, 0xCF	; 207
    35f0:	d0 40       	sbci	r29, 0x00	; 0
    35f2:	cd 52       	subi	r28, 0x2D	; 45
    35f4:	df 4f       	sbci	r29, 0xFF	; 255
    35f6:	78 83       	st	Y, r23
    35f8:	c3 5d       	subi	r28, 0xD3	; 211
    35fa:	d0 40       	sbci	r29, 0x00	; 0
    35fc:	cc 52       	subi	r28, 0x2C	; 44
    35fe:	df 4f       	sbci	r29, 0xFF	; 255
    3600:	88 83       	st	Y, r24
    3602:	c4 5d       	subi	r28, 0xD4	; 212
    3604:	d0 40       	sbci	r29, 0x00	; 0
    3606:	cb 52       	subi	r28, 0x2B	; 43
    3608:	df 4f       	sbci	r29, 0xFF	; 255
    360a:	98 83       	st	Y, r25
    360c:	c5 5d       	subi	r28, 0xD5	; 213
    360e:	d0 40       	sbci	r29, 0x00	; 0
		t2 = SIGMA_0(a[0]) + MAJ(a[0], a[1], a[2]);
    3610:	cf 57       	subi	r28, 0x7F	; 127
    3612:	df 4f       	sbci	r29, 0xFF	; 255
    3614:	a8 80       	ld	r10, Y
    3616:	c1 58       	subi	r28, 0x81	; 129
    3618:	d0 40       	sbci	r29, 0x00	; 0
    361a:	ce 57       	subi	r28, 0x7E	; 126
    361c:	df 4f       	sbci	r29, 0xFF	; 255
    361e:	b8 80       	ld	r11, Y
    3620:	c2 58       	subi	r28, 0x82	; 130
    3622:	d0 40       	sbci	r29, 0x00	; 0
    3624:	cd 57       	subi	r28, 0x7D	; 125
    3626:	df 4f       	sbci	r29, 0xFF	; 255
    3628:	78 80       	ld	r7, Y
    362a:	c3 58       	subi	r28, 0x83	; 131
    362c:	d0 40       	sbci	r29, 0x00	; 0
    362e:	cc 57       	subi	r28, 0x7C	; 124
    3630:	df 4f       	sbci	r29, 0xFF	; 255
    3632:	68 80       	ld	r6, Y
    3634:	c4 58       	subi	r28, 0x84	; 132
    3636:	d0 40       	sbci	r29, 0x00	; 0
    3638:	cb 57       	subi	r28, 0x7B	; 123
    363a:	df 4f       	sbci	r29, 0xFF	; 255
    363c:	58 80       	ld	r5, Y
    363e:	c5 58       	subi	r28, 0x85	; 133
    3640:	d0 40       	sbci	r29, 0x00	; 0
    3642:	ca 57       	subi	r28, 0x7A	; 122
    3644:	df 4f       	sbci	r29, 0xFF	; 255
    3646:	48 80       	ld	r4, Y
    3648:	c6 58       	subi	r28, 0x86	; 134
    364a:	d0 40       	sbci	r29, 0x00	; 0
    364c:	c9 57       	subi	r28, 0x79	; 121
    364e:	df 4f       	sbci	r29, 0xFF	; 255
    3650:	38 80       	ld	r3, Y
    3652:	c7 58       	subi	r28, 0x87	; 135
    3654:	d0 40       	sbci	r29, 0x00	; 0
    3656:	c8 57       	subi	r28, 0x78	; 120
    3658:	df 4f       	sbci	r29, 0xFF	; 255
    365a:	28 80       	ld	r2, Y
    365c:	c8 58       	subi	r28, 0x88	; 136
    365e:	d0 40       	sbci	r29, 0x00	; 0
    3660:	c7 57       	subi	r28, 0x77	; 119
    3662:	df 4f       	sbci	r29, 0xFF	; 255
    3664:	18 81       	ld	r17, Y
    3666:	c9 58       	subi	r28, 0x89	; 137
    3668:	d0 40       	sbci	r29, 0x00	; 0
    366a:	ca 52       	subi	r28, 0x2A	; 42
    366c:	df 4f       	sbci	r29, 0xFF	; 255
    366e:	18 83       	st	Y, r17
    3670:	c6 5d       	subi	r28, 0xD6	; 214
    3672:	d0 40       	sbci	r29, 0x00	; 0
    3674:	c6 57       	subi	r28, 0x76	; 118
    3676:	df 4f       	sbci	r29, 0xFF	; 255
    3678:	18 81       	ld	r17, Y
    367a:	ca 58       	subi	r28, 0x8A	; 138
    367c:	d0 40       	sbci	r29, 0x00	; 0
    367e:	c9 52       	subi	r28, 0x29	; 41
    3680:	df 4f       	sbci	r29, 0xFF	; 255
    3682:	18 83       	st	Y, r17
    3684:	c7 5d       	subi	r28, 0xD7	; 215
    3686:	d0 40       	sbci	r29, 0x00	; 0
    3688:	c5 57       	subi	r28, 0x75	; 117
    368a:	df 4f       	sbci	r29, 0xFF	; 255
    368c:	18 81       	ld	r17, Y
    368e:	cb 58       	subi	r28, 0x8B	; 139
    3690:	d0 40       	sbci	r29, 0x00	; 0
    3692:	c8 52       	subi	r28, 0x28	; 40
    3694:	df 4f       	sbci	r29, 0xFF	; 255
    3696:	18 83       	st	Y, r17
    3698:	c8 5d       	subi	r28, 0xD8	; 216
    369a:	d0 40       	sbci	r29, 0x00	; 0
    369c:	c4 57       	subi	r28, 0x74	; 116
    369e:	df 4f       	sbci	r29, 0xFF	; 255
    36a0:	18 81       	ld	r17, Y
    36a2:	cc 58       	subi	r28, 0x8C	; 140
    36a4:	d0 40       	sbci	r29, 0x00	; 0
    36a6:	c7 52       	subi	r28, 0x27	; 39
    36a8:	df 4f       	sbci	r29, 0xFF	; 255
    36aa:	18 83       	st	Y, r17
    36ac:	c9 5d       	subi	r28, 0xD9	; 217
    36ae:	d0 40       	sbci	r29, 0x00	; 0
    36b0:	c3 57       	subi	r28, 0x73	; 115
    36b2:	df 4f       	sbci	r29, 0xFF	; 255
    36b4:	18 81       	ld	r17, Y
    36b6:	cd 58       	subi	r28, 0x8D	; 141
    36b8:	d0 40       	sbci	r29, 0x00	; 0
    36ba:	c6 52       	subi	r28, 0x26	; 38
    36bc:	df 4f       	sbci	r29, 0xFF	; 255
    36be:	18 83       	st	Y, r17
    36c0:	ca 5d       	subi	r28, 0xDA	; 218
    36c2:	d0 40       	sbci	r29, 0x00	; 0
    36c4:	c2 57       	subi	r28, 0x72	; 114
    36c6:	df 4f       	sbci	r29, 0xFF	; 255
    36c8:	18 81       	ld	r17, Y
    36ca:	ce 58       	subi	r28, 0x8E	; 142
    36cc:	d0 40       	sbci	r29, 0x00	; 0
    36ce:	c3 52       	subi	r28, 0x23	; 35
    36d0:	df 4f       	sbci	r29, 0xFF	; 255
    36d2:	18 83       	st	Y, r17
    36d4:	cd 5d       	subi	r28, 0xDD	; 221
    36d6:	d0 40       	sbci	r29, 0x00	; 0
    36d8:	c1 57       	subi	r28, 0x71	; 113
    36da:	df 4f       	sbci	r29, 0xFF	; 255
    36dc:	18 81       	ld	r17, Y
    36de:	cf 58       	subi	r28, 0x8F	; 143
    36e0:	d0 40       	sbci	r29, 0x00	; 0
    36e2:	c2 52       	subi	r28, 0x22	; 34
    36e4:	df 4f       	sbci	r29, 0xFF	; 255
    36e6:	18 83       	st	Y, r17
    36e8:	ce 5d       	subi	r28, 0xDE	; 222
    36ea:	d0 40       	sbci	r29, 0x00	; 0
    36ec:	c0 57       	subi	r28, 0x70	; 112
    36ee:	df 4f       	sbci	r29, 0xFF	; 255
    36f0:	88 80       	ld	r8, Y
    36f2:	c0 59       	subi	r28, 0x90	; 144
    36f4:	d0 40       	sbci	r29, 0x00	; 0
    36f6:	cf 56       	subi	r28, 0x6F	; 111
    36f8:	df 4f       	sbci	r29, 0xFF	; 255
    36fa:	18 81       	ld	r17, Y
    36fc:	c1 59       	subi	r28, 0x91	; 145
    36fe:	d0 40       	sbci	r29, 0x00	; 0
    3700:	c1 52       	subi	r28, 0x21	; 33
    3702:	df 4f       	sbci	r29, 0xFF	; 255
    3704:	18 83       	st	Y, r17
    3706:	cf 5d       	subi	r28, 0xDF	; 223
    3708:	d0 40       	sbci	r29, 0x00	; 0
    370a:	ce 56       	subi	r28, 0x6E	; 110
    370c:	df 4f       	sbci	r29, 0xFF	; 255
    370e:	18 81       	ld	r17, Y
    3710:	c2 59       	subi	r28, 0x92	; 146
    3712:	d0 40       	sbci	r29, 0x00	; 0
    3714:	c0 52       	subi	r28, 0x20	; 32
    3716:	df 4f       	sbci	r29, 0xFF	; 255
    3718:	18 83       	st	Y, r17
    371a:	c0 5e       	subi	r28, 0xE0	; 224
    371c:	d0 40       	sbci	r29, 0x00	; 0
    371e:	cd 56       	subi	r28, 0x6D	; 109
    3720:	df 4f       	sbci	r29, 0xFF	; 255
    3722:	18 81       	ld	r17, Y
    3724:	c3 59       	subi	r28, 0x93	; 147
    3726:	d0 40       	sbci	r29, 0x00	; 0
    3728:	cf 51       	subi	r28, 0x1F	; 31
    372a:	df 4f       	sbci	r29, 0xFF	; 255
    372c:	18 83       	st	Y, r17
    372e:	c1 5e       	subi	r28, 0xE1	; 225
    3730:	d0 40       	sbci	r29, 0x00	; 0
    3732:	cc 56       	subi	r28, 0x6C	; 108
    3734:	df 4f       	sbci	r29, 0xFF	; 255
    3736:	18 81       	ld	r17, Y
    3738:	c4 59       	subi	r28, 0x94	; 148
    373a:	d0 40       	sbci	r29, 0x00	; 0
    373c:	ce 51       	subi	r28, 0x1E	; 30
    373e:	df 4f       	sbci	r29, 0xFF	; 255
    3740:	18 83       	st	Y, r17
    3742:	c2 5e       	subi	r28, 0xE2	; 226
    3744:	d0 40       	sbci	r29, 0x00	; 0
    3746:	cb 56       	subi	r28, 0x6B	; 107
    3748:	df 4f       	sbci	r29, 0xFF	; 255
    374a:	18 81       	ld	r17, Y
    374c:	c5 59       	subi	r28, 0x95	; 149
    374e:	d0 40       	sbci	r29, 0x00	; 0
    3750:	cd 51       	subi	r28, 0x1D	; 29
    3752:	df 4f       	sbci	r29, 0xFF	; 255
    3754:	18 83       	st	Y, r17
    3756:	c3 5e       	subi	r28, 0xE3	; 227
    3758:	d0 40       	sbci	r29, 0x00	; 0
    375a:	ca 56       	subi	r28, 0x6A	; 106
    375c:	df 4f       	sbci	r29, 0xFF	; 255
    375e:	18 81       	ld	r17, Y
    3760:	c6 59       	subi	r28, 0x96	; 150
    3762:	d0 40       	sbci	r29, 0x00	; 0
    3764:	cc 51       	subi	r28, 0x1C	; 28
    3766:	df 4f       	sbci	r29, 0xFF	; 255
    3768:	18 83       	st	Y, r17
    376a:	c4 5e       	subi	r28, 0xE4	; 228
    376c:	d0 40       	sbci	r29, 0x00	; 0
    376e:	c9 56       	subi	r28, 0x69	; 105
    3770:	df 4f       	sbci	r29, 0xFF	; 255
    3772:	18 81       	ld	r17, Y
    3774:	c7 59       	subi	r28, 0x97	; 151
    3776:	d0 40       	sbci	r29, 0x00	; 0
    3778:	cb 51       	subi	r28, 0x1B	; 27
    377a:	df 4f       	sbci	r29, 0xFF	; 255
    377c:	18 83       	st	Y, r17
    377e:	c5 5e       	subi	r28, 0xE5	; 229
    3780:	d0 40       	sbci	r29, 0x00	; 0
    3782:	c8 56       	subi	r28, 0x68	; 104
    3784:	df 4f       	sbci	r29, 0xFF	; 255
    3786:	98 80       	ld	r9, Y
    3788:	c8 59       	subi	r28, 0x98	; 152
    378a:	d0 40       	sbci	r29, 0x00	; 0
		memmove(&(a[1]), &(a[0]), 7*8);
    378c:	48 e3       	ldi	r20, 0x38	; 56
    378e:	50 e0       	ldi	r21, 0x00	; 0
    3790:	be 01       	movw	r22, r28
    3792:	6f 57       	subi	r22, 0x7F	; 127
    3794:	7f 4f       	sbci	r23, 0xFF	; 255
    3796:	c9 51       	subi	r28, 0x19	; 25
    3798:	df 4f       	sbci	r29, 0xFF	; 255
    379a:	88 81       	ld	r24, Y
    379c:	99 81       	ldd	r25, Y+1	; 0x01
    379e:	c7 5e       	subi	r28, 0xE7	; 231
    37a0:	d0 40       	sbci	r29, 0x00	; 0
    37a2:	24 d5       	rcall	.+2632   	; 0x41ec <memmove>
		a[0] = t1 + t2;
    37a4:	2a 2d       	mov	r18, r10
    37a6:	3b 2d       	mov	r19, r11
    37a8:	47 2d       	mov	r20, r7
    37aa:	56 2d       	mov	r21, r6
    37ac:	65 2d       	mov	r22, r5
    37ae:	74 2d       	mov	r23, r4
    37b0:	83 2d       	mov	r24, r3
    37b2:	92 2d       	mov	r25, r2
    37b4:	0e e1       	ldi	r16, 0x1E	; 30
    37b6:	8f d4       	rcall	.+2334   	; 0x40d6 <__rotldi3>
    37b8:	d2 2e       	mov	r13, r18
    37ba:	e3 2e       	mov	r14, r19
    37bc:	f4 2e       	mov	r15, r20
    37be:	15 2f       	mov	r17, r21
    37c0:	b6 2f       	mov	r27, r22
    37c2:	e7 2f       	mov	r30, r23
    37c4:	a8 2f       	mov	r26, r24
    37c6:	f9 2f       	mov	r31, r25
    37c8:	2a 2d       	mov	r18, r10
    37ca:	3b 2d       	mov	r19, r11
    37cc:	47 2d       	mov	r20, r7
    37ce:	56 2d       	mov	r21, r6
    37d0:	65 2d       	mov	r22, r5
    37d2:	74 2d       	mov	r23, r4
    37d4:	83 2d       	mov	r24, r3
    37d6:	92 2d       	mov	r25, r2
    37d8:	04 e2       	ldi	r16, 0x24	; 36
    37da:	7d d4       	rcall	.+2298   	; 0x40d6 <__rotldi3>
    37dc:	d2 26       	eor	r13, r18
    37de:	e3 26       	eor	r14, r19
    37e0:	f4 26       	eor	r15, r20
    37e2:	15 27       	eor	r17, r21
    37e4:	b6 27       	eor	r27, r22
    37e6:	e7 27       	eor	r30, r23
    37e8:	a8 27       	eor	r26, r24
    37ea:	f9 27       	eor	r31, r25
    37ec:	2a 2d       	mov	r18, r10
    37ee:	3b 2d       	mov	r19, r11
    37f0:	47 2d       	mov	r20, r7
    37f2:	56 2d       	mov	r21, r6
    37f4:	65 2d       	mov	r22, r5
    37f6:	74 2d       	mov	r23, r4
    37f8:	83 2d       	mov	r24, r3
    37fa:	92 2d       	mov	r25, r2
    37fc:	09 e1       	ldi	r16, 0x19	; 25
    37fe:	6b d4       	rcall	.+2262   	; 0x40d6 <__rotldi3>
    3800:	2d 25       	eor	r18, r13
    3802:	3e 25       	eor	r19, r14
    3804:	4f 25       	eor	r20, r15
    3806:	51 27       	eor	r21, r17
    3808:	6b 27       	eor	r22, r27
    380a:	7e 27       	eor	r23, r30
    380c:	c1 52       	subi	r28, 0x21	; 33
    380e:	df 4f       	sbci	r29, 0xFF	; 255
    3810:	b8 81       	ld	r27, Y
    3812:	cf 5d       	subi	r28, 0xDF	; 223
    3814:	d0 40       	sbci	r29, 0x00	; 0
    3816:	ca 52       	subi	r28, 0x2A	; 42
    3818:	df 4f       	sbci	r29, 0xFF	; 255
    381a:	18 81       	ld	r17, Y
    381c:	c6 5d       	subi	r28, 0xD6	; 214
    381e:	d0 40       	sbci	r29, 0x00	; 0
    3820:	b1 27       	eor	r27, r17
    3822:	c0 52       	subi	r28, 0x20	; 32
    3824:	df 4f       	sbci	r29, 0xFF	; 255
    3826:	e8 81       	ld	r30, Y
    3828:	c0 5e       	subi	r28, 0xE0	; 224
    382a:	d0 40       	sbci	r29, 0x00	; 0
    382c:	c9 52       	subi	r28, 0x29	; 41
    382e:	df 4f       	sbci	r29, 0xFF	; 255
    3830:	18 81       	ld	r17, Y
    3832:	c7 5d       	subi	r28, 0xD7	; 215
    3834:	d0 40       	sbci	r29, 0x00	; 0
    3836:	e1 27       	eor	r30, r17
    3838:	cf 51       	subi	r28, 0x1F	; 31
    383a:	df 4f       	sbci	r29, 0xFF	; 255
    383c:	c8 80       	ld	r12, Y
    383e:	c1 5e       	subi	r28, 0xE1	; 225
    3840:	d0 40       	sbci	r29, 0x00	; 0
    3842:	c8 52       	subi	r28, 0x28	; 40
    3844:	df 4f       	sbci	r29, 0xFF	; 255
    3846:	18 81       	ld	r17, Y
    3848:	c8 5d       	subi	r28, 0xD8	; 216
    384a:	d0 40       	sbci	r29, 0x00	; 0
    384c:	c1 26       	eor	r12, r17
    384e:	ce 51       	subi	r28, 0x1E	; 30
    3850:	df 4f       	sbci	r29, 0xFF	; 255
    3852:	d8 80       	ld	r13, Y
    3854:	c2 5e       	subi	r28, 0xE2	; 226
    3856:	d0 40       	sbci	r29, 0x00	; 0
    3858:	c7 52       	subi	r28, 0x27	; 39
    385a:	df 4f       	sbci	r29, 0xFF	; 255
    385c:	18 81       	ld	r17, Y
    385e:	c9 5d       	subi	r28, 0xD9	; 217
    3860:	d0 40       	sbci	r29, 0x00	; 0
    3862:	d1 26       	eor	r13, r17
    3864:	cd 51       	subi	r28, 0x1D	; 29
    3866:	df 4f       	sbci	r29, 0xFF	; 255
    3868:	e8 80       	ld	r14, Y
    386a:	c3 5e       	subi	r28, 0xE3	; 227
    386c:	d0 40       	sbci	r29, 0x00	; 0
    386e:	c6 52       	subi	r28, 0x26	; 38
    3870:	df 4f       	sbci	r29, 0xFF	; 255
    3872:	18 81       	ld	r17, Y
    3874:	ca 5d       	subi	r28, 0xDA	; 218
    3876:	d0 40       	sbci	r29, 0x00	; 0
    3878:	e1 26       	eor	r14, r17
    387a:	cc 51       	subi	r28, 0x1C	; 28
    387c:	df 4f       	sbci	r29, 0xFF	; 255
    387e:	f8 80       	ld	r15, Y
    3880:	c4 5e       	subi	r28, 0xE4	; 228
    3882:	d0 40       	sbci	r29, 0x00	; 0
    3884:	c3 52       	subi	r28, 0x23	; 35
    3886:	df 4f       	sbci	r29, 0xFF	; 255
    3888:	18 81       	ld	r17, Y
    388a:	cd 5d       	subi	r28, 0xDD	; 221
    388c:	d0 40       	sbci	r29, 0x00	; 0
    388e:	f1 26       	eor	r15, r17
    3890:	cb 51       	subi	r28, 0x1B	; 27
    3892:	df 4f       	sbci	r29, 0xFF	; 255
    3894:	08 81       	ld	r16, Y
    3896:	c5 5e       	subi	r28, 0xE5	; 229
    3898:	d0 40       	sbci	r29, 0x00	; 0
    389a:	c2 52       	subi	r28, 0x22	; 34
    389c:	df 4f       	sbci	r29, 0xFF	; 255
    389e:	18 81       	ld	r17, Y
    38a0:	ce 5d       	subi	r28, 0xDE	; 222
    38a2:	d0 40       	sbci	r29, 0x00	; 0
    38a4:	01 27       	eor	r16, r17
    38a6:	19 2d       	mov	r17, r9
    38a8:	18 25       	eor	r17, r8
    38aa:	ab 22       	and	r10, r27
    38ac:	be 22       	and	r11, r30
    38ae:	c7 20       	and	r12, r7
    38b0:	d6 20       	and	r13, r6
    38b2:	e5 20       	and	r14, r5
    38b4:	f4 20       	and	r15, r4
    38b6:	03 21       	and	r16, r3
    38b8:	12 21       	and	r17, r2
    38ba:	ca 52       	subi	r28, 0x2A	; 42
    38bc:	df 4f       	sbci	r29, 0xFF	; 255
    38be:	e8 81       	ld	r30, Y
    38c0:	c6 5d       	subi	r28, 0xD6	; 214
    38c2:	d0 40       	sbci	r29, 0x00	; 0
    38c4:	c1 52       	subi	r28, 0x21	; 33
    38c6:	df 4f       	sbci	r29, 0xFF	; 255
    38c8:	b8 81       	ld	r27, Y
    38ca:	cf 5d       	subi	r28, 0xDF	; 223
    38cc:	d0 40       	sbci	r29, 0x00	; 0
    38ce:	eb 23       	and	r30, r27
    38d0:	c9 52       	subi	r28, 0x29	; 41
    38d2:	df 4f       	sbci	r29, 0xFF	; 255
    38d4:	28 80       	ld	r2, Y
    38d6:	c7 5d       	subi	r28, 0xD7	; 215
    38d8:	d0 40       	sbci	r29, 0x00	; 0
    38da:	c0 52       	subi	r28, 0x20	; 32
    38dc:	df 4f       	sbci	r29, 0xFF	; 255
    38de:	b8 81       	ld	r27, Y
    38e0:	c0 5e       	subi	r28, 0xE0	; 224
    38e2:	d0 40       	sbci	r29, 0x00	; 0
    38e4:	2b 22       	and	r2, r27
    38e6:	c8 52       	subi	r28, 0x28	; 40
    38e8:	df 4f       	sbci	r29, 0xFF	; 255
    38ea:	38 80       	ld	r3, Y
    38ec:	c8 5d       	subi	r28, 0xD8	; 216
    38ee:	d0 40       	sbci	r29, 0x00	; 0
    38f0:	cf 51       	subi	r28, 0x1F	; 31
    38f2:	df 4f       	sbci	r29, 0xFF	; 255
    38f4:	b8 81       	ld	r27, Y
    38f6:	c1 5e       	subi	r28, 0xE1	; 225
    38f8:	d0 40       	sbci	r29, 0x00	; 0
    38fa:	3b 22       	and	r3, r27
    38fc:	c7 52       	subi	r28, 0x27	; 39
    38fe:	df 4f       	sbci	r29, 0xFF	; 255
    3900:	48 80       	ld	r4, Y
    3902:	c9 5d       	subi	r28, 0xD9	; 217
    3904:	d0 40       	sbci	r29, 0x00	; 0
    3906:	ce 51       	subi	r28, 0x1E	; 30
    3908:	df 4f       	sbci	r29, 0xFF	; 255
    390a:	b8 81       	ld	r27, Y
    390c:	c2 5e       	subi	r28, 0xE2	; 226
    390e:	d0 40       	sbci	r29, 0x00	; 0
    3910:	4b 22       	and	r4, r27
    3912:	c6 52       	subi	r28, 0x26	; 38
    3914:	df 4f       	sbci	r29, 0xFF	; 255
    3916:	58 80       	ld	r5, Y
    3918:	ca 5d       	subi	r28, 0xDA	; 218
    391a:	d0 40       	sbci	r29, 0x00	; 0
    391c:	cd 51       	subi	r28, 0x1D	; 29
    391e:	df 4f       	sbci	r29, 0xFF	; 255
    3920:	b8 81       	ld	r27, Y
    3922:	c3 5e       	subi	r28, 0xE3	; 227
    3924:	d0 40       	sbci	r29, 0x00	; 0
    3926:	5b 22       	and	r5, r27
    3928:	c3 52       	subi	r28, 0x23	; 35
    392a:	df 4f       	sbci	r29, 0xFF	; 255
    392c:	68 80       	ld	r6, Y
    392e:	cd 5d       	subi	r28, 0xDD	; 221
    3930:	d0 40       	sbci	r29, 0x00	; 0
    3932:	cc 51       	subi	r28, 0x1C	; 28
    3934:	df 4f       	sbci	r29, 0xFF	; 255
    3936:	b8 81       	ld	r27, Y
    3938:	c4 5e       	subi	r28, 0xE4	; 228
    393a:	d0 40       	sbci	r29, 0x00	; 0
    393c:	6b 22       	and	r6, r27
    393e:	c2 52       	subi	r28, 0x22	; 34
    3940:	df 4f       	sbci	r29, 0xFF	; 255
    3942:	78 80       	ld	r7, Y
    3944:	ce 5d       	subi	r28, 0xDE	; 222
    3946:	d0 40       	sbci	r29, 0x00	; 0
    3948:	cb 51       	subi	r28, 0x1B	; 27
    394a:	df 4f       	sbci	r29, 0xFF	; 255
    394c:	b8 81       	ld	r27, Y
    394e:	c5 5e       	subi	r28, 0xE5	; 229
    3950:	d0 40       	sbci	r29, 0x00	; 0
    3952:	7b 22       	and	r7, r27
    3954:	b8 2d       	mov	r27, r8
    3956:	b9 21       	and	r27, r9
    3958:	ae 26       	eor	r10, r30
    395a:	b2 24       	eor	r11, r2
    395c:	c3 24       	eor	r12, r3
    395e:	d4 24       	eor	r13, r4
    3960:	e5 24       	eor	r14, r5
    3962:	f6 24       	eor	r15, r6
    3964:	07 25       	eor	r16, r7
    3966:	1b 27       	eor	r17, r27
    3968:	8a 27       	eor	r24, r26
    396a:	9f 27       	eor	r25, r31
    396c:	cf d3       	rcall	.+1950   	; 0x410c <__adddi3>
    396e:	c5 53       	subi	r28, 0x35	; 53
    3970:	df 4f       	sbci	r29, 0xFF	; 255
    3972:	a8 80       	ld	r10, Y
    3974:	cb 5c       	subi	r28, 0xCB	; 203
    3976:	d0 40       	sbci	r29, 0x00	; 0
    3978:	c4 53       	subi	r28, 0x34	; 52
    397a:	df 4f       	sbci	r29, 0xFF	; 255
    397c:	b8 80       	ld	r11, Y
    397e:	cc 5c       	subi	r28, 0xCC	; 204
    3980:	d0 40       	sbci	r29, 0x00	; 0
    3982:	c3 53       	subi	r28, 0x33	; 51
    3984:	df 4f       	sbci	r29, 0xFF	; 255
    3986:	c8 80       	ld	r12, Y
    3988:	cd 5c       	subi	r28, 0xCD	; 205
    398a:	d0 40       	sbci	r29, 0x00	; 0
    398c:	c2 53       	subi	r28, 0x32	; 50
    398e:	df 4f       	sbci	r29, 0xFF	; 255
    3990:	d8 80       	ld	r13, Y
    3992:	ce 5c       	subi	r28, 0xCE	; 206
    3994:	d0 40       	sbci	r29, 0x00	; 0
    3996:	c1 53       	subi	r28, 0x31	; 49
    3998:	df 4f       	sbci	r29, 0xFF	; 255
    399a:	e8 80       	ld	r14, Y
    399c:	cf 5c       	subi	r28, 0xCF	; 207
    399e:	d0 40       	sbci	r29, 0x00	; 0
    39a0:	cd 52       	subi	r28, 0x2D	; 45
    39a2:	df 4f       	sbci	r29, 0xFF	; 255
    39a4:	f8 80       	ld	r15, Y
    39a6:	c3 5d       	subi	r28, 0xD3	; 211
    39a8:	d0 40       	sbci	r29, 0x00	; 0
    39aa:	cc 52       	subi	r28, 0x2C	; 44
    39ac:	df 4f       	sbci	r29, 0xFF	; 255
    39ae:	08 81       	ld	r16, Y
    39b0:	c4 5d       	subi	r28, 0xD4	; 212
    39b2:	d0 40       	sbci	r29, 0x00	; 0
    39b4:	cb 52       	subi	r28, 0x2B	; 43
    39b6:	df 4f       	sbci	r29, 0xFF	; 255
    39b8:	18 81       	ld	r17, Y
    39ba:	c5 5d       	subi	r28, 0xD5	; 213
    39bc:	d0 40       	sbci	r29, 0x00	; 0
    39be:	a6 d3       	rcall	.+1868   	; 0x410c <__adddi3>
    39c0:	cf 57       	subi	r28, 0x7F	; 127
    39c2:	df 4f       	sbci	r29, 0xFF	; 255
    39c4:	28 83       	st	Y, r18
    39c6:	c1 58       	subi	r28, 0x81	; 129
    39c8:	d0 40       	sbci	r29, 0x00	; 0
    39ca:	ce 57       	subi	r28, 0x7E	; 126
    39cc:	df 4f       	sbci	r29, 0xFF	; 255
    39ce:	38 83       	st	Y, r19
    39d0:	c2 58       	subi	r28, 0x82	; 130
    39d2:	d0 40       	sbci	r29, 0x00	; 0
    39d4:	cd 57       	subi	r28, 0x7D	; 125
    39d6:	df 4f       	sbci	r29, 0xFF	; 255
    39d8:	48 83       	st	Y, r20
    39da:	c3 58       	subi	r28, 0x83	; 131
    39dc:	d0 40       	sbci	r29, 0x00	; 0
    39de:	cc 57       	subi	r28, 0x7C	; 124
    39e0:	df 4f       	sbci	r29, 0xFF	; 255
    39e2:	58 83       	st	Y, r21
    39e4:	c4 58       	subi	r28, 0x84	; 132
    39e6:	d0 40       	sbci	r29, 0x00	; 0
    39e8:	cb 57       	subi	r28, 0x7B	; 123
    39ea:	df 4f       	sbci	r29, 0xFF	; 255
    39ec:	68 83       	st	Y, r22
    39ee:	c5 58       	subi	r28, 0x85	; 133
    39f0:	d0 40       	sbci	r29, 0x00	; 0
    39f2:	ca 57       	subi	r28, 0x7A	; 122
    39f4:	df 4f       	sbci	r29, 0xFF	; 255
    39f6:	78 83       	st	Y, r23
    39f8:	c6 58       	subi	r28, 0x86	; 134
    39fa:	d0 40       	sbci	r29, 0x00	; 0
    39fc:	c9 57       	subi	r28, 0x79	; 121
    39fe:	df 4f       	sbci	r29, 0xFF	; 255
    3a00:	88 83       	st	Y, r24
    3a02:	c7 58       	subi	r28, 0x87	; 135
    3a04:	d0 40       	sbci	r29, 0x00	; 0
    3a06:	c8 57       	subi	r28, 0x78	; 120
    3a08:	df 4f       	sbci	r29, 0xFF	; 255
    3a0a:	98 83       	st	Y, r25
    3a0c:	c8 58       	subi	r28, 0x88	; 136
    3a0e:	d0 40       	sbci	r29, 0x00	; 0
		a[4] += t1;
    3a10:	2a 2d       	mov	r18, r10
    3a12:	3b 2d       	mov	r19, r11
    3a14:	4c 2d       	mov	r20, r12
    3a16:	5d 2d       	mov	r21, r13
    3a18:	6e 2d       	mov	r22, r14
    3a1a:	7f 2d       	mov	r23, r15
    3a1c:	80 2f       	mov	r24, r16
    3a1e:	91 2f       	mov	r25, r17
    3a20:	cf 55       	subi	r28, 0x5F	; 95
    3a22:	df 4f       	sbci	r29, 0xFF	; 255
    3a24:	a8 80       	ld	r10, Y
    3a26:	c1 5a       	subi	r28, 0xA1	; 161
    3a28:	d0 40       	sbci	r29, 0x00	; 0
    3a2a:	ce 55       	subi	r28, 0x5E	; 94
    3a2c:	df 4f       	sbci	r29, 0xFF	; 255
    3a2e:	b8 80       	ld	r11, Y
    3a30:	c2 5a       	subi	r28, 0xA2	; 162
    3a32:	d0 40       	sbci	r29, 0x00	; 0
    3a34:	cd 55       	subi	r28, 0x5D	; 93
    3a36:	df 4f       	sbci	r29, 0xFF	; 255
    3a38:	c8 80       	ld	r12, Y
    3a3a:	c3 5a       	subi	r28, 0xA3	; 163
    3a3c:	d0 40       	sbci	r29, 0x00	; 0
    3a3e:	cc 55       	subi	r28, 0x5C	; 92
    3a40:	df 4f       	sbci	r29, 0xFF	; 255
    3a42:	d8 80       	ld	r13, Y
    3a44:	c4 5a       	subi	r28, 0xA4	; 164
    3a46:	d0 40       	sbci	r29, 0x00	; 0
    3a48:	cb 55       	subi	r28, 0x5B	; 91
    3a4a:	df 4f       	sbci	r29, 0xFF	; 255
    3a4c:	e8 80       	ld	r14, Y
    3a4e:	c5 5a       	subi	r28, 0xA5	; 165
    3a50:	d0 40       	sbci	r29, 0x00	; 0
    3a52:	ca 55       	subi	r28, 0x5A	; 90
    3a54:	df 4f       	sbci	r29, 0xFF	; 255
    3a56:	f8 80       	ld	r15, Y
    3a58:	c6 5a       	subi	r28, 0xA6	; 166
    3a5a:	d0 40       	sbci	r29, 0x00	; 0
    3a5c:	c9 55       	subi	r28, 0x59	; 89
    3a5e:	df 4f       	sbci	r29, 0xFF	; 255
    3a60:	08 81       	ld	r16, Y
    3a62:	c7 5a       	subi	r28, 0xA7	; 167
    3a64:	d0 40       	sbci	r29, 0x00	; 0
    3a66:	c8 55       	subi	r28, 0x58	; 88
    3a68:	df 4f       	sbci	r29, 0xFF	; 255
    3a6a:	18 81       	ld	r17, Y
    3a6c:	c8 5a       	subi	r28, 0xA8	; 168
    3a6e:	d0 40       	sbci	r29, 0x00	; 0
    3a70:	4d d3       	rcall	.+1690   	; 0x410c <__adddi3>
    3a72:	cf 55       	subi	r28, 0x5F	; 95
    3a74:	df 4f       	sbci	r29, 0xFF	; 255
    3a76:	28 83       	st	Y, r18
    3a78:	c1 5a       	subi	r28, 0xA1	; 161
    3a7a:	d0 40       	sbci	r29, 0x00	; 0
    3a7c:	ce 55       	subi	r28, 0x5E	; 94
    3a7e:	df 4f       	sbci	r29, 0xFF	; 255
    3a80:	38 83       	st	Y, r19
    3a82:	c2 5a       	subi	r28, 0xA2	; 162
    3a84:	d0 40       	sbci	r29, 0x00	; 0
    3a86:	cd 55       	subi	r28, 0x5D	; 93
    3a88:	df 4f       	sbci	r29, 0xFF	; 255
    3a8a:	48 83       	st	Y, r20
    3a8c:	c3 5a       	subi	r28, 0xA3	; 163
    3a8e:	d0 40       	sbci	r29, 0x00	; 0
    3a90:	cc 55       	subi	r28, 0x5C	; 92
    3a92:	df 4f       	sbci	r29, 0xFF	; 255
    3a94:	58 83       	st	Y, r21
    3a96:	c4 5a       	subi	r28, 0xA4	; 164
    3a98:	d0 40       	sbci	r29, 0x00	; 0
    3a9a:	cb 55       	subi	r28, 0x5B	; 91
    3a9c:	df 4f       	sbci	r29, 0xFF	; 255
    3a9e:	68 83       	st	Y, r22
    3aa0:	c5 5a       	subi	r28, 0xA5	; 165
    3aa2:	d0 40       	sbci	r29, 0x00	; 0
    3aa4:	ca 55       	subi	r28, 0x5A	; 90
    3aa6:	df 4f       	sbci	r29, 0xFF	; 255
    3aa8:	78 83       	st	Y, r23
    3aaa:	c6 5a       	subi	r28, 0xA6	; 166
    3aac:	d0 40       	sbci	r29, 0x00	; 0
    3aae:	c9 55       	subi	r28, 0x59	; 89
    3ab0:	df 4f       	sbci	r29, 0xFF	; 255
    3ab2:	88 83       	st	Y, r24
    3ab4:	c7 5a       	subi	r28, 0xA7	; 167
    3ab6:	d0 40       	sbci	r29, 0x00	; 0
    3ab8:	c8 55       	subi	r28, 0x58	; 88
    3aba:	df 4f       	sbci	r29, 0xFF	; 255
    3abc:	98 83       	st	Y, r25
    3abe:	c8 5a       	subi	r28, 0xA8	; 168
    3ac0:	d0 40       	sbci	r29, 0x00	; 0
	do{
		w[16-i] = change_endian64(*((const uint64_t*)block));
		block = (uint8_t*)block + 8;
	}while(--i);
	memcpy(a, ctx->h, 8*8);
	for(i=0; i<80; ++i){
    3ac2:	c0 53       	subi	r28, 0x30	; 48
    3ac4:	df 4f       	sbci	r29, 0xFF	; 255
    3ac6:	e8 81       	ld	r30, Y
    3ac8:	c0 5d       	subi	r28, 0xD0	; 208
    3aca:	d0 40       	sbci	r29, 0x00	; 0
    3acc:	ef 5f       	subi	r30, 0xFF	; 255
    3ace:	c0 53       	subi	r28, 0x30	; 48
    3ad0:	df 4f       	sbci	r29, 0xFF	; 255
    3ad2:	e8 83       	st	Y, r30
    3ad4:	c0 5d       	subi	r28, 0xD0	; 208
    3ad6:	d0 40       	sbci	r29, 0x00	; 0
    3ad8:	c5 52       	subi	r28, 0x25	; 37
    3ada:	df 4f       	sbci	r29, 0xFF	; 255
    3adc:	88 81       	ld	r24, Y
    3ade:	99 81       	ldd	r25, Y+1	; 0x01
    3ae0:	cb 5d       	subi	r28, 0xDB	; 219
    3ae2:	d0 40       	sbci	r29, 0x00	; 0
    3ae4:	08 96       	adiw	r24, 0x08	; 8
    3ae6:	c5 52       	subi	r28, 0x25	; 37
    3ae8:	df 4f       	sbci	r29, 0xFF	; 255
    3aea:	99 83       	std	Y+1, r25	; 0x01
    3aec:	88 83       	st	Y, r24
    3aee:	cb 5d       	subi	r28, 0xDB	; 219
    3af0:	d0 40       	sbci	r29, 0x00	; 0
    3af2:	cf 52       	subi	r28, 0x2F	; 47
    3af4:	df 4f       	sbci	r29, 0xFF	; 255
    3af6:	a8 81       	ld	r26, Y
    3af8:	b9 81       	ldd	r27, Y+1	; 0x01
    3afa:	c1 5d       	subi	r28, 0xD1	; 209
    3afc:	d0 40       	sbci	r29, 0x00	; 0
    3afe:	18 96       	adiw	r26, 0x08	; 8
    3b00:	cf 52       	subi	r28, 0x2F	; 47
    3b02:	df 4f       	sbci	r29, 0xFF	; 255
    3b04:	b9 83       	std	Y+1, r27	; 0x01
    3b06:	a8 83       	st	Y, r26
    3b08:	c1 5d       	subi	r28, 0xD1	; 209
    3b0a:	d0 40       	sbci	r29, 0x00	; 0
    3b0c:	e0 35       	cpi	r30, 0x50	; 80
    3b0e:	09 f0       	breq	.+2      	; 0x3b12 <sha2_large_common_nextBlock+0xfd2>
    3b10:	f9 c8       	rjmp	.-3598   	; 0x2d04 <sha2_large_common_nextBlock+0x1c4>
    3b12:	0f 2e       	mov	r0, r31
    3b14:	f7 e0       	ldi	r31, 0x07	; 7
    3b16:	9f 2e       	mov	r9, r31
    3b18:	f0 2d       	mov	r31, r0
		a[0] = t1 + t2;
		a[4] += t1;
	}
	i=7;
	do{
		ctx->h[i] += a[i];
    3b1a:	79 2c       	mov	r7, r9
    3b1c:	c7 51       	subi	r28, 0x17	; 23
    3b1e:	df 4f       	sbci	r29, 0xFF	; 255
    3b20:	88 80       	ld	r8, Y
    3b22:	99 80       	ldd	r9, Y+1	; 0x01
    3b24:	c9 5e       	subi	r28, 0xE9	; 233
    3b26:	d0 40       	sbci	r29, 0x00	; 0
    3b28:	a7 2d       	mov	r26, r7
    3b2a:	b0 e0       	ldi	r27, 0x00	; 0
    3b2c:	aa 0f       	add	r26, r26
    3b2e:	bb 1f       	adc	r27, r27
    3b30:	aa 0f       	add	r26, r26
    3b32:	bb 1f       	adc	r27, r27
    3b34:	aa 0f       	add	r26, r26
    3b36:	bb 1f       	adc	r27, r27
    3b38:	f4 01       	movw	r30, r8
    3b3a:	ea 0f       	add	r30, r26
    3b3c:	fb 1f       	adc	r31, r27
    3b3e:	81 e8       	ldi	r24, 0x81	; 129
    3b40:	90 e0       	ldi	r25, 0x00	; 0
    3b42:	8c 0f       	add	r24, r28
    3b44:	9d 1f       	adc	r25, r29
    3b46:	a8 0f       	add	r26, r24
    3b48:	b9 1f       	adc	r27, r25
    3b4a:	20 81       	ld	r18, Z
    3b4c:	31 81       	ldd	r19, Z+1	; 0x01
    3b4e:	42 81       	ldd	r20, Z+2	; 0x02
    3b50:	53 81       	ldd	r21, Z+3	; 0x03
    3b52:	64 81       	ldd	r22, Z+4	; 0x04
    3b54:	75 81       	ldd	r23, Z+5	; 0x05
    3b56:	86 81       	ldd	r24, Z+6	; 0x06
    3b58:	97 81       	ldd	r25, Z+7	; 0x07
    3b5a:	ac 90       	ld	r10, X
    3b5c:	11 96       	adiw	r26, 0x01	; 1
    3b5e:	bc 90       	ld	r11, X
    3b60:	11 97       	sbiw	r26, 0x01	; 1
    3b62:	12 96       	adiw	r26, 0x02	; 2
    3b64:	cc 90       	ld	r12, X
    3b66:	12 97       	sbiw	r26, 0x02	; 2
    3b68:	13 96       	adiw	r26, 0x03	; 3
    3b6a:	dc 90       	ld	r13, X
    3b6c:	13 97       	sbiw	r26, 0x03	; 3
    3b6e:	14 96       	adiw	r26, 0x04	; 4
    3b70:	ec 90       	ld	r14, X
    3b72:	14 97       	sbiw	r26, 0x04	; 4
    3b74:	15 96       	adiw	r26, 0x05	; 5
    3b76:	fc 90       	ld	r15, X
    3b78:	15 97       	sbiw	r26, 0x05	; 5
    3b7a:	16 96       	adiw	r26, 0x06	; 6
    3b7c:	0c 91       	ld	r16, X
    3b7e:	16 97       	sbiw	r26, 0x06	; 6
    3b80:	17 96       	adiw	r26, 0x07	; 7
    3b82:	1c 91       	ld	r17, X
    3b84:	c3 d2       	rcall	.+1414   	; 0x410c <__adddi3>
    3b86:	20 83       	st	Z, r18
    3b88:	31 83       	std	Z+1, r19	; 0x01
    3b8a:	42 83       	std	Z+2, r20	; 0x02
    3b8c:	53 83       	std	Z+3, r21	; 0x03
    3b8e:	64 83       	std	Z+4, r22	; 0x04
    3b90:	75 83       	std	Z+5, r23	; 0x05
    3b92:	86 83       	std	Z+6, r24	; 0x06
    3b94:	97 83       	std	Z+7, r25	; 0x07
	}while(i--);
    3b96:	7a 94       	dec	r7
    3b98:	9f ef       	ldi	r25, 0xFF	; 255
    3b9a:	79 12       	cpse	r7, r25
    3b9c:	c5 cf       	rjmp	.-118    	; 0x3b28 <sha2_large_common_nextBlock+0xfe8>
	ctx->length += 1;
    3b9e:	c7 51       	subi	r28, 0x17	; 23
    3ba0:	df 4f       	sbci	r29, 0xFF	; 255
    3ba2:	e8 81       	ld	r30, Y
    3ba4:	f9 81       	ldd	r31, Y+1	; 0x01
    3ba6:	c9 5e       	subi	r28, 0xE9	; 233
    3ba8:	d0 40       	sbci	r29, 0x00	; 0
    3baa:	e0 5c       	subi	r30, 0xC0	; 192
    3bac:	ff 4f       	sbci	r31, 0xFF	; 255
    3bae:	80 81       	ld	r24, Z
    3bb0:	91 81       	ldd	r25, Z+1	; 0x01
    3bb2:	a2 81       	ldd	r26, Z+2	; 0x02
    3bb4:	b3 81       	ldd	r27, Z+3	; 0x03
    3bb6:	01 96       	adiw	r24, 0x01	; 1
    3bb8:	a1 1d       	adc	r26, r1
    3bba:	b1 1d       	adc	r27, r1
    3bbc:	80 83       	st	Z, r24
    3bbe:	91 83       	std	Z+1, r25	; 0x01
    3bc0:	a2 83       	std	Z+2, r26	; 0x02
    3bc2:	b3 83       	std	Z+3, r27	; 0x03
}
    3bc4:	c6 51       	subi	r28, 0x16	; 22
    3bc6:	df 4f       	sbci	r29, 0xFF	; 255
    3bc8:	0f b6       	in	r0, 0x3f	; 63
    3bca:	f8 94       	cli
    3bcc:	de bf       	out	0x3e, r29	; 62
    3bce:	0f be       	out	0x3f, r0	; 63
    3bd0:	cd bf       	out	0x3d, r28	; 61
    3bd2:	df 91       	pop	r29
    3bd4:	cf 91       	pop	r28
    3bd6:	1f 91       	pop	r17
    3bd8:	0f 91       	pop	r16
    3bda:	ff 90       	pop	r15
    3bdc:	ef 90       	pop	r14
    3bde:	df 90       	pop	r13
    3be0:	cf 90       	pop	r12
    3be2:	bf 90       	pop	r11
    3be4:	af 90       	pop	r10
    3be6:	9f 90       	pop	r9
    3be8:	8f 90       	pop	r8
    3bea:	7f 90       	pop	r7
    3bec:	6f 90       	pop	r6
    3bee:	5f 90       	pop	r5
    3bf0:	4f 90       	pop	r4
    3bf2:	3f 90       	pop	r3
    3bf4:	2f 90       	pop	r2
    3bf6:	08 95       	ret

00003bf8 <sha2_large_common_lastBlock>:

void sha2_large_common_lastBlock(sha2_large_common_ctx_t *ctx, const void *block, uint16_t length_b){
    3bf8:	2f 92       	push	r2
    3bfa:	3f 92       	push	r3
    3bfc:	4f 92       	push	r4
    3bfe:	5f 92       	push	r5
    3c00:	6f 92       	push	r6
    3c02:	7f 92       	push	r7
    3c04:	8f 92       	push	r8
    3c06:	9f 92       	push	r9
    3c08:	af 92       	push	r10
    3c0a:	bf 92       	push	r11
    3c0c:	cf 92       	push	r12
    3c0e:	df 92       	push	r13
    3c10:	ef 92       	push	r14
    3c12:	ff 92       	push	r15
    3c14:	0f 93       	push	r16
    3c16:	1f 93       	push	r17
    3c18:	cf 93       	push	r28
    3c1a:	df 93       	push	r29
    3c1c:	cd b7       	in	r28, 0x3d	; 61
    3c1e:	de b7       	in	r29, 0x3e	; 62
    3c20:	cc 58       	subi	r28, 0x8C	; 140
    3c22:	d1 09       	sbc	r29, r1
    3c24:	0f b6       	in	r0, 0x3f	; 63
    3c26:	f8 94       	cli
    3c28:	de bf       	out	0x3e, r29	; 62
    3c2a:	0f be       	out	0x3f, r0	; 63
    3c2c:	cd bf       	out	0x3d, r28	; 61
    3c2e:	cf 57       	subi	r28, 0x7F	; 127
    3c30:	df 4f       	sbci	r29, 0xFF	; 255
    3c32:	99 83       	std	Y+1, r25	; 0x01
    3c34:	88 83       	st	Y, r24
    3c36:	c1 58       	subi	r28, 0x81	; 129
    3c38:	d0 40       	sbci	r29, 0x00	; 0
    3c3a:	c5 57       	subi	r28, 0x75	; 117
    3c3c:	df 4f       	sbci	r29, 0xFF	; 255
    3c3e:	79 83       	std	Y+1, r23	; 0x01
    3c40:	68 83       	st	Y, r22
    3c42:	cb 58       	subi	r28, 0x8B	; 139
    3c44:	d0 40       	sbci	r29, 0x00	; 0
    3c46:	4a 01       	movw	r8, r20
	while(length_b >= 1024){
    3c48:	41 15       	cp	r20, r1
    3c4a:	24 e0       	ldi	r18, 0x04	; 4
    3c4c:	52 07       	cpc	r21, r18
    3c4e:	78 f1       	brcs	.+94     	; 0x3cae <sha2_large_common_lastBlock+0xb6>
    3c50:	7a 01       	movw	r14, r20
    3c52:	8b 01       	movw	r16, r22
		sha2_large_common_nextBlock(ctx, block);
    3c54:	b8 01       	movw	r22, r16
    3c56:	cf 57       	subi	r28, 0x7F	; 127
    3c58:	df 4f       	sbci	r29, 0xFF	; 255
    3c5a:	88 81       	ld	r24, Y
    3c5c:	99 81       	ldd	r25, Y+1	; 0x01
    3c5e:	c1 58       	subi	r28, 0x81	; 129
    3c60:	d0 40       	sbci	r29, 0x00	; 0
    3c62:	0e 94 a0 15 	call	0x2b40	; 0x2b40 <sha2_large_common_nextBlock>
		block = (uint8_t*)block + 1024/8;
    3c66:	00 58       	subi	r16, 0x80	; 128
    3c68:	1f 4f       	sbci	r17, 0xFF	; 255
		length_b -= 1024;
    3c6a:	34 e0       	ldi	r19, 0x04	; 4
    3c6c:	f3 1a       	sub	r15, r19
	}while(i--);
	ctx->length += 1;
}

void sha2_large_common_lastBlock(sha2_large_common_ctx_t *ctx, const void *block, uint16_t length_b){
	while(length_b >= 1024){
    3c6e:	e1 14       	cp	r14, r1
    3c70:	84 e0       	ldi	r24, 0x04	; 4
    3c72:	f8 06       	cpc	r15, r24
    3c74:	78 f7       	brcc	.-34     	; 0x3c54 <sha2_large_common_lastBlock+0x5c>
    3c76:	c4 01       	movw	r24, r8
    3c78:	94 50       	subi	r25, 0x04	; 4
    3c7a:	89 2f       	mov	r24, r25
    3c7c:	99 27       	eor	r25, r25
    3c7e:	86 95       	lsr	r24
    3c80:	86 95       	lsr	r24
    3c82:	01 96       	adiw	r24, 0x01	; 1
    3c84:	96 95       	lsr	r25
    3c86:	98 2f       	mov	r25, r24
    3c88:	88 27       	eor	r24, r24
    3c8a:	97 95       	ror	r25
    3c8c:	87 95       	ror	r24
    3c8e:	c5 57       	subi	r28, 0x75	; 117
    3c90:	df 4f       	sbci	r29, 0xFF	; 255
    3c92:	e8 81       	ld	r30, Y
    3c94:	f9 81       	ldd	r31, Y+1	; 0x01
    3c96:	cb 58       	subi	r28, 0x8B	; 139
    3c98:	d0 40       	sbci	r29, 0x00	; 0
    3c9a:	e8 0f       	add	r30, r24
    3c9c:	f9 1f       	adc	r31, r25
    3c9e:	c5 57       	subi	r28, 0x75	; 117
    3ca0:	df 4f       	sbci	r29, 0xFF	; 255
    3ca2:	f9 83       	std	Y+1, r31	; 0x01
    3ca4:	e8 83       	st	Y, r30
    3ca6:	cb 58       	subi	r28, 0x8B	; 139
    3ca8:	d0 40       	sbci	r29, 0x00	; 0
    3caa:	f3 e0       	ldi	r31, 0x03	; 3
    3cac:	9f 22       	and	r9, r31
		block = (uint8_t*)block + 1024/8;
		length_b -= 1024;
	}
	uint8_t buffer[1024/8];
	uint64_t len;
	len = ((uint64_t)ctx->length)*1024LL + length_b;
    3cae:	cf 57       	subi	r28, 0x7F	; 127
    3cb0:	df 4f       	sbci	r29, 0xFF	; 255
    3cb2:	e8 81       	ld	r30, Y
    3cb4:	f9 81       	ldd	r31, Y+1	; 0x01
    3cb6:	c1 58       	subi	r28, 0x81	; 129
    3cb8:	d0 40       	sbci	r29, 0x00	; 0
    3cba:	e0 5c       	subi	r30, 0xC0	; 192
    3cbc:	ff 4f       	sbci	r31, 0xFF	; 255
    3cbe:	80 81       	ld	r24, Z
    3cc0:	91 81       	ldd	r25, Z+1	; 0x01
    3cc2:	a2 81       	ldd	r26, Z+2	; 0x02
    3cc4:	b3 81       	ldd	r27, Z+3	; 0x03
    3cc6:	5c 01       	movw	r10, r24
    3cc8:	6d 01       	movw	r12, r26
    3cca:	28 2f       	mov	r18, r24
    3ccc:	3b 2d       	mov	r19, r11
    3cce:	4c 2d       	mov	r20, r12
    3cd0:	5d 2d       	mov	r21, r13
    3cd2:	60 e0       	ldi	r22, 0x00	; 0
    3cd4:	70 e0       	ldi	r23, 0x00	; 0
    3cd6:	80 e0       	ldi	r24, 0x00	; 0
    3cd8:	90 e0       	ldi	r25, 0x00	; 0
    3cda:	0a e0       	ldi	r16, 0x0A	; 10
    3cdc:	c5 d1       	rcall	.+906    	; 0x4068 <__ashldi3>
    3cde:	54 01       	movw	r10, r8
    3ce0:	c1 2c       	mov	r12, r1
    3ce2:	d1 2c       	mov	r13, r1
    3ce4:	e1 2c       	mov	r14, r1
    3ce6:	f1 2c       	mov	r15, r1
    3ce8:	87 01       	movw	r16, r14
    3cea:	cd 57       	subi	r28, 0x7D	; 125
    3cec:	df 4f       	sbci	r29, 0xFF	; 255
    3cee:	88 82       	st	Y, r8
    3cf0:	c3 58       	subi	r28, 0x83	; 131
    3cf2:	d0 40       	sbci	r29, 0x00	; 0
    3cf4:	cc 57       	subi	r28, 0x7C	; 124
    3cf6:	df 4f       	sbci	r29, 0xFF	; 255
    3cf8:	b8 82       	st	Y, r11
    3cfa:	c4 58       	subi	r28, 0x84	; 132
    3cfc:	d0 40       	sbci	r29, 0x00	; 0
    3cfe:	cb 57       	subi	r28, 0x7B	; 123
    3d00:	df 4f       	sbci	r29, 0xFF	; 255
    3d02:	c8 82       	st	Y, r12
    3d04:	c5 58       	subi	r28, 0x85	; 133
    3d06:	d0 40       	sbci	r29, 0x00	; 0
    3d08:	ca 57       	subi	r28, 0x7A	; 122
    3d0a:	df 4f       	sbci	r29, 0xFF	; 255
    3d0c:	d8 82       	st	Y, r13
    3d0e:	c6 58       	subi	r28, 0x86	; 134
    3d10:	d0 40       	sbci	r29, 0x00	; 0
    3d12:	c9 57       	subi	r28, 0x79	; 121
    3d14:	df 4f       	sbci	r29, 0xFF	; 255
    3d16:	e8 82       	st	Y, r14
    3d18:	c7 58       	subi	r28, 0x87	; 135
    3d1a:	d0 40       	sbci	r29, 0x00	; 0
    3d1c:	c8 57       	subi	r28, 0x78	; 120
    3d1e:	df 4f       	sbci	r29, 0xFF	; 255
    3d20:	f8 82       	st	Y, r15
    3d22:	c8 58       	subi	r28, 0x88	; 136
    3d24:	d0 40       	sbci	r29, 0x00	; 0
    3d26:	c7 57       	subi	r28, 0x77	; 119
    3d28:	df 4f       	sbci	r29, 0xFF	; 255
    3d2a:	08 83       	st	Y, r16
    3d2c:	c9 58       	subi	r28, 0x89	; 137
    3d2e:	d0 40       	sbci	r29, 0x00	; 0
    3d30:	c6 57       	subi	r28, 0x76	; 118
    3d32:	df 4f       	sbci	r29, 0xFF	; 255
    3d34:	18 83       	st	Y, r17
    3d36:	ca 58       	subi	r28, 0x8A	; 138
    3d38:	d0 40       	sbci	r29, 0x00	; 0
    3d3a:	c1 2c       	mov	r12, r1
    3d3c:	d1 2c       	mov	r13, r1
    3d3e:	e1 2c       	mov	r14, r1
    3d40:	f1 2c       	mov	r15, r1
    3d42:	00 e0       	ldi	r16, 0x00	; 0
    3d44:	10 e0       	ldi	r17, 0x00	; 0
    3d46:	e2 d1       	rcall	.+964    	; 0x410c <__adddi3>
    3d48:	e2 2f       	mov	r30, r18
    3d4a:	a3 2e       	mov	r10, r19
    3d4c:	b4 2e       	mov	r11, r20
    3d4e:	b5 2f       	mov	r27, r21
    3d50:	a6 2f       	mov	r26, r22
    3d52:	f7 2f       	mov	r31, r23
    3d54:	28 2e       	mov	r2, r24
    3d56:	39 2e       	mov	r3, r25
    3d58:	68 94       	set
    3d5a:	44 24       	eor	r4, r4
    3d5c:	43 f8       	bld	r4, 3
};


static const
uint64_t change_endian64(uint64_t x){
	uint64_t r=0;
    3d5e:	71 2c       	mov	r7, r1
    3d60:	51 2c       	mov	r5, r1
    3d62:	61 2c       	mov	r6, r1
	uint8_t i=8;
	do{
		r <<= 8;
    3d64:	27 2d       	mov	r18, r7
    3d66:	3c 2d       	mov	r19, r12
    3d68:	4d 2d       	mov	r20, r13
    3d6a:	5e 2d       	mov	r21, r14
    3d6c:	6f 2d       	mov	r22, r15
    3d6e:	71 2f       	mov	r23, r17
    3d70:	85 2d       	mov	r24, r5
    3d72:	96 2d       	mov	r25, r6
    3d74:	08 e0       	ldi	r16, 0x08	; 8
    3d76:	78 d1       	rcall	.+752    	; 0x4068 <__ashldi3>
		r |= 0xff&x;
    3d78:	7e 2e       	mov	r7, r30
    3d7a:	72 2a       	or	r7, r18
    3d7c:	c3 2e       	mov	r12, r19
    3d7e:	d4 2e       	mov	r13, r20
    3d80:	e5 2e       	mov	r14, r21
    3d82:	f6 2e       	mov	r15, r22
    3d84:	17 2f       	mov	r17, r23
    3d86:	58 2e       	mov	r5, r24
    3d88:	69 2e       	mov	r6, r25
		x >>=8;
    3d8a:	2e 2f       	mov	r18, r30
    3d8c:	3a 2d       	mov	r19, r10
    3d8e:	4b 2d       	mov	r20, r11
    3d90:	5b 2f       	mov	r21, r27
    3d92:	6a 2f       	mov	r22, r26
    3d94:	7f 2f       	mov	r23, r31
    3d96:	82 2d       	mov	r24, r2
    3d98:	93 2d       	mov	r25, r3
    3d9a:	81 d1       	rcall	.+770    	; 0x409e <__lshrdi3>
    3d9c:	e2 2f       	mov	r30, r18
    3d9e:	a3 2e       	mov	r10, r19
    3da0:	b4 2e       	mov	r11, r20
    3da2:	b5 2f       	mov	r27, r21
    3da4:	a6 2f       	mov	r26, r22
    3da6:	f7 2f       	mov	r31, r23
    3da8:	28 2e       	mov	r2, r24
    3daa:	39 2e       	mov	r3, r25
    3dac:	4a 94       	dec	r4
	}while(--i);
    3dae:	41 10       	cpse	r4, r1
    3db0:	d9 cf       	rjmp	.-78     	; 0x3d64 <sha2_large_common_lastBlock+0x16c>
	}
	uint8_t buffer[1024/8];
	uint64_t len;
	len = ((uint64_t)ctx->length)*1024LL + length_b;
	len = change_endian64(len);
	memset(buffer, 0, 1024/8);
    3db2:	9e 01       	movw	r18, r28
    3db4:	2f 5f       	subi	r18, 0xFF	; 255
    3db6:	3f 4f       	sbci	r19, 0xFF	; 255
    3db8:	59 01       	movw	r10, r18
    3dba:	80 e8       	ldi	r24, 0x80	; 128
    3dbc:	f9 01       	movw	r30, r18
    3dbe:	11 92       	st	Z+, r1
    3dc0:	8a 95       	dec	r24
    3dc2:	e9 f7       	brne	.-6      	; 0x3dbe <sha2_large_common_lastBlock+0x1c6>
	memcpy(buffer, block, (length_b+7)/8);
    3dc4:	a4 01       	movw	r20, r8
    3dc6:	49 5f       	subi	r20, 0xF9	; 249
    3dc8:	5f 4f       	sbci	r21, 0xFF	; 255
    3dca:	56 95       	lsr	r21
    3dcc:	47 95       	ror	r20
    3dce:	56 95       	lsr	r21
    3dd0:	47 95       	ror	r20
    3dd2:	56 95       	lsr	r21
    3dd4:	47 95       	ror	r20
    3dd6:	c5 57       	subi	r28, 0x75	; 117
    3dd8:	df 4f       	sbci	r29, 0xFF	; 255
    3dda:	68 81       	ld	r22, Y
    3ddc:	79 81       	ldd	r23, Y+1	; 0x01
    3dde:	cb 58       	subi	r28, 0x8B	; 139
    3de0:	d0 40       	sbci	r29, 0x00	; 0
    3de2:	c9 01       	movw	r24, r18
    3de4:	fa d1       	rcall	.+1012   	; 0x41da <memcpy>
	buffer[length_b/8] |= 0x80>>(length_b%8);
    3de6:	f4 01       	movw	r30, r8
    3de8:	f6 95       	lsr	r31
    3dea:	e7 95       	ror	r30
    3dec:	f6 95       	lsr	r31
    3dee:	e7 95       	ror	r30
    3df0:	f6 95       	lsr	r31
    3df2:	e7 95       	ror	r30
    3df4:	ea 0d       	add	r30, r10
    3df6:	fb 1d       	adc	r31, r11
    3df8:	94 01       	movw	r18, r8
    3dfa:	27 70       	andi	r18, 0x07	; 7
    3dfc:	33 27       	eor	r19, r19
    3dfe:	80 e8       	ldi	r24, 0x80	; 128
    3e00:	90 e0       	ldi	r25, 0x00	; 0
    3e02:	02 c0       	rjmp	.+4      	; 0x3e08 <sha2_large_common_lastBlock+0x210>
    3e04:	95 95       	asr	r25
    3e06:	87 95       	ror	r24
    3e08:	2a 95       	dec	r18
    3e0a:	e2 f7       	brpl	.-8      	; 0x3e04 <sha2_large_common_lastBlock+0x20c>
    3e0c:	90 81       	ld	r25, Z
    3e0e:	89 2b       	or	r24, r25
    3e10:	80 83       	st	Z, r24
	if(length_b>1024-128-1){
    3e12:	f0 e8       	ldi	r31, 0x80	; 128
    3e14:	8f 16       	cp	r8, r31
    3e16:	f3 e0       	ldi	r31, 0x03	; 3
    3e18:	9f 06       	cpc	r9, r31
    3e1a:	70 f0       	brcs	.+28     	; 0x3e38 <sha2_large_common_lastBlock+0x240>
		/* length goes into the next block */
		sha2_large_common_nextBlock(ctx, buffer);
    3e1c:	b5 01       	movw	r22, r10
    3e1e:	cf 57       	subi	r28, 0x7F	; 127
    3e20:	df 4f       	sbci	r29, 0xFF	; 255
    3e22:	88 81       	ld	r24, Y
    3e24:	99 81       	ldd	r25, Y+1	; 0x01
    3e26:	c1 58       	subi	r28, 0x81	; 129
    3e28:	d0 40       	sbci	r29, 0x00	; 0
    3e2a:	0e 94 a0 15 	call	0x2b40	; 0x2b40 <sha2_large_common_nextBlock>
		memset(buffer, 0, 120);
    3e2e:	88 e7       	ldi	r24, 0x78	; 120
    3e30:	f5 01       	movw	r30, r10
    3e32:	11 92       	st	Z+, r1
    3e34:	8a 95       	dec	r24
    3e36:	e9 f7       	brne	.-6      	; 0x3e32 <sha2_large_common_lastBlock+0x23a>
	}
	memcpy(&(buffer[128-8]), &len, 8);
    3e38:	ea 96       	adiw	r28, 0x3a	; 58
    3e3a:	7f ae       	std	Y+63, r7	; 0x3f
    3e3c:	ea 97       	sbiw	r28, 0x3a	; 58
    3e3e:	eb 96       	adiw	r28, 0x3b	; 59
    3e40:	cf ae       	std	Y+63, r12	; 0x3f
    3e42:	eb 97       	sbiw	r28, 0x3b	; 59
    3e44:	ec 96       	adiw	r28, 0x3c	; 60
    3e46:	df ae       	std	Y+63, r13	; 0x3f
    3e48:	ec 97       	sbiw	r28, 0x3c	; 60
    3e4a:	ed 96       	adiw	r28, 0x3d	; 61
    3e4c:	ef ae       	std	Y+63, r14	; 0x3f
    3e4e:	ed 97       	sbiw	r28, 0x3d	; 61
    3e50:	ee 96       	adiw	r28, 0x3e	; 62
    3e52:	ff ae       	std	Y+63, r15	; 0x3f
    3e54:	ee 97       	sbiw	r28, 0x3e	; 62
    3e56:	ef 96       	adiw	r28, 0x3f	; 63
    3e58:	1f af       	std	Y+63, r17	; 0x3f
    3e5a:	ef 97       	sbiw	r28, 0x3f	; 63
    3e5c:	c1 58       	subi	r28, 0x81	; 129
    3e5e:	df 4f       	sbci	r29, 0xFF	; 255
    3e60:	58 82       	st	Y, r5
    3e62:	cf 57       	subi	r28, 0x7F	; 127
    3e64:	d0 40       	sbci	r29, 0x00	; 0
    3e66:	c0 58       	subi	r28, 0x80	; 128
    3e68:	df 4f       	sbci	r29, 0xFF	; 255
    3e6a:	68 82       	st	Y, r6
    3e6c:	c0 58       	subi	r28, 0x80	; 128
    3e6e:	d0 40       	sbci	r29, 0x00	; 0
	sha2_large_common_nextBlock(ctx, buffer);
    3e70:	be 01       	movw	r22, r28
    3e72:	6f 5f       	subi	r22, 0xFF	; 255
    3e74:	7f 4f       	sbci	r23, 0xFF	; 255
    3e76:	cf 57       	subi	r28, 0x7F	; 127
    3e78:	df 4f       	sbci	r29, 0xFF	; 255
    3e7a:	88 81       	ld	r24, Y
    3e7c:	99 81       	ldd	r25, Y+1	; 0x01
    3e7e:	c1 58       	subi	r28, 0x81	; 129
    3e80:	d0 40       	sbci	r29, 0x00	; 0
    3e82:	0e 94 a0 15 	call	0x2b40	; 0x2b40 <sha2_large_common_nextBlock>
}
    3e86:	c4 57       	subi	r28, 0x74	; 116
    3e88:	df 4f       	sbci	r29, 0xFF	; 255
    3e8a:	0f b6       	in	r0, 0x3f	; 63
    3e8c:	f8 94       	cli
    3e8e:	de bf       	out	0x3e, r29	; 62
    3e90:	0f be       	out	0x3f, r0	; 63
    3e92:	cd bf       	out	0x3d, r28	; 61
    3e94:	df 91       	pop	r29
    3e96:	cf 91       	pop	r28
    3e98:	1f 91       	pop	r17
    3e9a:	0f 91       	pop	r16
    3e9c:	ff 90       	pop	r15
    3e9e:	ef 90       	pop	r14
    3ea0:	df 90       	pop	r13
    3ea2:	cf 90       	pop	r12
    3ea4:	bf 90       	pop	r11
    3ea6:	af 90       	pop	r10
    3ea8:	9f 90       	pop	r9
    3eaa:	8f 90       	pop	r8
    3eac:	7f 90       	pop	r7
    3eae:	6f 90       	pop	r6
    3eb0:	5f 90       	pop	r5
    3eb2:	4f 90       	pop	r4
    3eb4:	3f 90       	pop	r3
    3eb6:	2f 90       	pop	r2
    3eb8:	08 95       	ret

00003eba <sha512_init>:
0x510e527fade682d1LL, 0x9b05688c2b3e6c1fLL, 0x1f83d9abfb41bd6bLL, 0x5be0cd19137e2179LL
};


void sha512_init(sha512_ctx_t *ctx){
	ctx->length = 0;
    3eba:	fc 01       	movw	r30, r24
    3ebc:	e0 5c       	subi	r30, 0xC0	; 192
    3ebe:	ff 4f       	sbci	r31, 0xFF	; 255
    3ec0:	10 82       	st	Z, r1
    3ec2:	11 82       	std	Z+1, r1	; 0x01
    3ec4:	12 82       	std	Z+2, r1	; 0x02
    3ec6:	13 82       	std	Z+3, r1	; 0x03
	memcpy_P(ctx->h, sha512_init_values, 8*8);
    3ec8:	40 e4       	ldi	r20, 0x40	; 64
    3eca:	50 e0       	ldi	r21, 0x00	; 0
    3ecc:	64 e1       	ldi	r22, 0x14	; 20
    3ece:	73 e0       	ldi	r23, 0x03	; 3
    3ed0:	7b c1       	rjmp	.+758    	; 0x41c8 <memcpy_P>
    3ed2:	08 95       	ret

00003ed4 <sha512_ctx2hash>:
}

void sha512_ctx2hash(void *dest, const sha512_ctx_t *ctx){
    3ed4:	cf 93       	push	r28
    3ed6:	df 93       	push	r29
    3ed8:	ac 01       	movw	r20, r24
    3eda:	ec 01       	movw	r28, r24
    3edc:	c0 5c       	subi	r28, 0xC0	; 192
    3ede:	df 4f       	sbci	r29, 0xFF	; 255
    3ee0:	fa 01       	movw	r30, r20
	uint8_t i=8, j, *s = (uint8_t*)(ctx->h);
	do{
		j=7;
    3ee2:	97 e0       	ldi	r25, 0x07	; 7
		do{
			*((uint8_t*)dest) = s[j];
    3ee4:	db 01       	movw	r26, r22
    3ee6:	a9 0f       	add	r26, r25
    3ee8:	b1 1d       	adc	r27, r1
    3eea:	2c 91       	ld	r18, X
    3eec:	21 93       	st	Z+, r18
			dest = (uint8_t*)dest + 1;
		}while(j--);
    3eee:	91 50       	subi	r25, 0x01	; 1
    3ef0:	c8 f7       	brcc	.-14     	; 0x3ee4 <sha512_ctx2hash+0x10>
    3ef2:	48 5f       	subi	r20, 0xF8	; 248
    3ef4:	5f 4f       	sbci	r21, 0xFF	; 255
		s += 8;
    3ef6:	68 5f       	subi	r22, 0xF8	; 248
    3ef8:	7f 4f       	sbci	r23, 0xFF	; 255
	}while(--i);
    3efa:	4c 17       	cp	r20, r28
    3efc:	5d 07       	cpc	r21, r29
    3efe:	81 f7       	brne	.-32     	; 0x3ee0 <sha512_ctx2hash+0xc>
}
    3f00:	df 91       	pop	r29
    3f02:	cf 91       	pop	r28
    3f04:	08 95       	ret

00003f06 <sha512>:


void sha512(void *dest, const void *msg, uint32_t length_b){
    3f06:	4f 92       	push	r4
    3f08:	5f 92       	push	r5
    3f0a:	6f 92       	push	r6
    3f0c:	7f 92       	push	r7
    3f0e:	8f 92       	push	r8
    3f10:	9f 92       	push	r9
    3f12:	af 92       	push	r10
    3f14:	bf 92       	push	r11
    3f16:	cf 92       	push	r12
    3f18:	df 92       	push	r13
    3f1a:	ef 92       	push	r14
    3f1c:	ff 92       	push	r15
    3f1e:	0f 93       	push	r16
    3f20:	1f 93       	push	r17
    3f22:	cf 93       	push	r28
    3f24:	df 93       	push	r29
    3f26:	cd b7       	in	r28, 0x3d	; 61
    3f28:	de b7       	in	r29, 0x3e	; 62
    3f2a:	c4 54       	subi	r28, 0x44	; 68
    3f2c:	d1 09       	sbc	r29, r1
    3f2e:	0f b6       	in	r0, 0x3f	; 63
    3f30:	f8 94       	cli
    3f32:	de bf       	out	0x3e, r29	; 62
    3f34:	0f be       	out	0x3f, r0	; 63
    3f36:	cd bf       	out	0x3d, r28	; 61
    3f38:	4c 01       	movw	r8, r24
    3f3a:	5b 01       	movw	r10, r22
    3f3c:	69 01       	movw	r12, r18
    3f3e:	7a 01       	movw	r14, r20
	sha512_ctx_t ctx;
	sha512_init(&ctx);
    3f40:	ce 01       	movw	r24, r28
    3f42:	01 96       	adiw	r24, 0x01	; 1
    3f44:	ba df       	rcall	.-140    	; 0x3eba <sha512_init>
	while(length_b >= 1024){
    3f46:	c1 14       	cp	r12, r1
    3f48:	84 e0       	ldi	r24, 0x04	; 4
    3f4a:	d8 06       	cpc	r13, r24
    3f4c:	e1 04       	cpc	r14, r1
    3f4e:	f1 04       	cpc	r15, r1
    3f50:	70 f1       	brcs	.+92     	; 0x3fae <sha512+0xa8>
    3f52:	26 01       	movw	r4, r12
    3f54:	37 01       	movw	r6, r14
    3f56:	85 01       	movw	r16, r10
#include "sha2_large_common.h"
#include "sha512.h"


void sha512_nextBlock (sha512_ctx_t *ctx, const void *block){
	sha2_large_common_nextBlock(ctx, block);
    3f58:	b8 01       	movw	r22, r16
    3f5a:	ce 01       	movw	r24, r28
    3f5c:	01 96       	adiw	r24, 0x01	; 1
    3f5e:	0e 94 a0 15 	call	0x2b40	; 0x2b40 <sha2_large_common_nextBlock>
void sha512(void *dest, const void *msg, uint32_t length_b){
	sha512_ctx_t ctx;
	sha512_init(&ctx);
	while(length_b >= 1024){
		sha512_nextBlock(&ctx, msg);
		msg = (uint8_t*)msg + 1024/8;
    3f62:	00 58       	subi	r16, 0x80	; 128
    3f64:	1f 4f       	sbci	r17, 0xFF	; 255
		length_b -= 1024;
    3f66:	84 e0       	ldi	r24, 0x04	; 4
    3f68:	58 1a       	sub	r5, r24
    3f6a:	61 08       	sbc	r6, r1
    3f6c:	71 08       	sbc	r7, r1


void sha512(void *dest, const void *msg, uint32_t length_b){
	sha512_ctx_t ctx;
	sha512_init(&ctx);
	while(length_b >= 1024){
    3f6e:	41 14       	cp	r4, r1
    3f70:	84 e0       	ldi	r24, 0x04	; 4
    3f72:	58 06       	cpc	r5, r24
    3f74:	61 04       	cpc	r6, r1
    3f76:	71 04       	cpc	r7, r1
    3f78:	78 f7       	brcc	.-34     	; 0x3f58 <sha512+0x52>
    3f7a:	d7 01       	movw	r26, r14
    3f7c:	c6 01       	movw	r24, r12
    3f7e:	94 50       	subi	r25, 0x04	; 4
    3f80:	a1 09       	sbc	r26, r1
    3f82:	b1 09       	sbc	r27, r1
    3f84:	07 2e       	mov	r0, r23
    3f86:	7a e0       	ldi	r23, 0x0A	; 10
    3f88:	b6 95       	lsr	r27
    3f8a:	a7 95       	ror	r26
    3f8c:	97 95       	ror	r25
    3f8e:	87 95       	ror	r24
    3f90:	7a 95       	dec	r23
    3f92:	d1 f7       	brne	.-12     	; 0x3f88 <sha512+0x82>
    3f94:	70 2d       	mov	r23, r0
    3f96:	01 96       	adiw	r24, 0x01	; 1
    3f98:	96 95       	lsr	r25
    3f9a:	98 2f       	mov	r25, r24
    3f9c:	88 27       	eor	r24, r24
    3f9e:	97 95       	ror	r25
    3fa0:	87 95       	ror	r24
    3fa2:	a8 0e       	add	r10, r24
    3fa4:	b9 1e       	adc	r11, r25
    3fa6:	83 e0       	ldi	r24, 0x03	; 3
    3fa8:	d8 22       	and	r13, r24
    3faa:	ee 24       	eor	r14, r14
    3fac:	ff 24       	eor	r15, r15
void sha512_nextBlock (sha512_ctx_t *ctx, const void *block){
	sha2_large_common_nextBlock(ctx, block);
}

void sha512_lastBlock(sha512_ctx_t *ctx, const void *block, uint16_t length_b){
	sha2_large_common_lastBlock(ctx, block, length_b);
    3fae:	a6 01       	movw	r20, r12
    3fb0:	b5 01       	movw	r22, r10
    3fb2:	ce 01       	movw	r24, r28
    3fb4:	01 96       	adiw	r24, 0x01	; 1
    3fb6:	20 de       	rcall	.-960    	; 0x3bf8 <sha2_large_common_lastBlock>
		sha512_nextBlock(&ctx, msg);
		msg = (uint8_t*)msg + 1024/8;
		length_b -= 1024;
	}
	sha512_lastBlock(&ctx, msg, length_b);
	sha512_ctx2hash(dest, &ctx);
    3fb8:	be 01       	movw	r22, r28
    3fba:	6f 5f       	subi	r22, 0xFF	; 255
    3fbc:	7f 4f       	sbci	r23, 0xFF	; 255
    3fbe:	c4 01       	movw	r24, r8
    3fc0:	89 df       	rcall	.-238    	; 0x3ed4 <sha512_ctx2hash>
}
    3fc2:	cc 5b       	subi	r28, 0xBC	; 188
    3fc4:	df 4f       	sbci	r29, 0xFF	; 255
    3fc6:	0f b6       	in	r0, 0x3f	; 63
    3fc8:	f8 94       	cli
    3fca:	de bf       	out	0x3e, r29	; 62
    3fcc:	0f be       	out	0x3f, r0	; 63
    3fce:	cd bf       	out	0x3d, r28	; 61
    3fd0:	df 91       	pop	r29
    3fd2:	cf 91       	pop	r28
    3fd4:	1f 91       	pop	r17
    3fd6:	0f 91       	pop	r16
    3fd8:	ff 90       	pop	r15
    3fda:	ef 90       	pop	r14
    3fdc:	df 90       	pop	r13
    3fde:	cf 90       	pop	r12
    3fe0:	bf 90       	pop	r11
    3fe2:	af 90       	pop	r10
    3fe4:	9f 90       	pop	r9
    3fe6:	8f 90       	pop	r8
    3fe8:	7f 90       	pop	r7
    3fea:	6f 90       	pop	r6
    3fec:	5f 90       	pop	r5
    3fee:	4f 90       	pop	r4
    3ff0:	08 95       	ret

00003ff2 <uart_init>:

#include <avr/io.h>
#include "uart_f.h"

void uart_init(){
	UBRR0H = (BAUD_PRESCALE >> 8); // Load upper 8-bits of the baud rate value into the high byte of the UBRR register
    3ff2:	10 92 c5 00 	sts	0x00C5, r1	; 0x8000c5 <__TEXT_REGION_LENGTH__+0x7e00c5>
	UBRR0L = BAUD_PRESCALE; // Load lower 8-bits of the baud rate value into the low byte of the UBRR register
    3ff6:	83 e3       	ldi	r24, 0x33	; 51
    3ff8:	80 93 c4 00 	sts	0x00C4, r24	; 0x8000c4 <__TEXT_REGION_LENGTH__+0x7e00c4>
	UCSR0C = (0<<UMSEL0) | (0<<UPM0) | (1<<USBS0) | (3<<UCSZ0);
    3ffc:	8e e0       	ldi	r24, 0x0E	; 14
    3ffe:	80 93 c2 00 	sts	0x00C2, r24	; 0x8000c2 <__TEXT_REGION_LENGTH__+0x7e00c2>
	UCSR0B = (1<<RXEN0) | (1<<TXEN0);
    4002:	88 e1       	ldi	r24, 0x18	; 24
    4004:	80 93 c1 00 	sts	0x00C1, r24	; 0x8000c1 <__TEXT_REGION_LENGTH__+0x7e00c1>
    4008:	08 95       	ret

0000400a <uart_puts>:
}

void uart_puts(char* s){
    400a:	cf 93       	push	r28
    400c:	df 93       	push	r29
	int i;
	int len = strlen(s);
    400e:	fc 01       	movw	r30, r24
    4010:	01 90       	ld	r0, Z+
    4012:	00 20       	and	r0, r0
    4014:	e9 f7       	brne	.-6      	; 0x4010 <uart_puts+0x6>
    4016:	31 97       	sbiw	r30, 0x01	; 1
    4018:	e8 1b       	sub	r30, r24
    401a:	f9 0b       	sbc	r31, r25
	for (i = 0; i < len; i++){
    401c:	1e 16       	cp	r1, r30
    401e:	1f 06       	cpc	r1, r31
    4020:	84 f4       	brge	.+32     	; 0x4042 <uart_puts+0x38>
    4022:	dc 01       	movw	r26, r24
    4024:	9c 01       	movw	r18, r24
    4026:	2e 0f       	add	r18, r30
    4028:	3f 1f       	adc	r19, r31
		while(!( UCSR0A & 0X20));
    402a:	e0 ec       	ldi	r30, 0xC0	; 192
    402c:	f0 e0       	ldi	r31, 0x00	; 0
		UDR0=s[i];
    402e:	c6 ec       	ldi	r28, 0xC6	; 198
    4030:	d0 e0       	ldi	r29, 0x00	; 0

void uart_puts(char* s){
	int i;
	int len = strlen(s);
	for (i = 0; i < len; i++){
		while(!( UCSR0A & 0X20));
    4032:	90 81       	ld	r25, Z
    4034:	95 ff       	sbrs	r25, 5
    4036:	fd cf       	rjmp	.-6      	; 0x4032 <uart_puts+0x28>
		UDR0=s[i];
    4038:	9d 91       	ld	r25, X+
    403a:	98 83       	st	Y, r25
}

void uart_puts(char* s){
	int i;
	int len = strlen(s);
	for (i = 0; i < len; i++){
    403c:	a2 17       	cp	r26, r18
    403e:	b3 07       	cpc	r27, r19
    4040:	c1 f7       	brne	.-16     	; 0x4032 <uart_puts+0x28>
		while(!( UCSR0A & 0X20));
		UDR0=s[i];
	}
	while(!( UCSR0A & 0X20)); 
    4042:	e0 ec       	ldi	r30, 0xC0	; 192
    4044:	f0 e0       	ldi	r31, 0x00	; 0
    4046:	80 81       	ld	r24, Z
    4048:	85 ff       	sbrs	r24, 5
    404a:	fd cf       	rjmp	.-6      	; 0x4046 <uart_puts+0x3c>
	UDR0 = 13;
    404c:	8d e0       	ldi	r24, 0x0D	; 13
    404e:	80 93 c6 00 	sts	0x00C6, r24	; 0x8000c6 <__TEXT_REGION_LENGTH__+0x7e00c6>
	while(!( UCSR0A & 0X20));
    4052:	e0 ec       	ldi	r30, 0xC0	; 192
    4054:	f0 e0       	ldi	r31, 0x00	; 0
    4056:	80 81       	ld	r24, Z
    4058:	85 ff       	sbrs	r24, 5
    405a:	fd cf       	rjmp	.-6      	; 0x4056 <uart_puts+0x4c>
	UDR0 = 10;
    405c:	8a e0       	ldi	r24, 0x0A	; 10
    405e:	80 93 c6 00 	sts	0x00C6, r24	; 0x8000c6 <__TEXT_REGION_LENGTH__+0x7e00c6>
}
    4062:	df 91       	pop	r29
    4064:	cf 91       	pop	r28
    4066:	08 95       	ret

00004068 <__ashldi3>:
    4068:	0f 93       	push	r16
    406a:	08 30       	cpi	r16, 0x08	; 8
    406c:	90 f0       	brcs	.+36     	; 0x4092 <__ashldi3+0x2a>
    406e:	98 2f       	mov	r25, r24
    4070:	87 2f       	mov	r24, r23
    4072:	76 2f       	mov	r23, r22
    4074:	65 2f       	mov	r22, r21
    4076:	54 2f       	mov	r21, r20
    4078:	43 2f       	mov	r20, r19
    407a:	32 2f       	mov	r19, r18
    407c:	22 27       	eor	r18, r18
    407e:	08 50       	subi	r16, 0x08	; 8
    4080:	f4 cf       	rjmp	.-24     	; 0x406a <__ashldi3+0x2>
    4082:	22 0f       	add	r18, r18
    4084:	33 1f       	adc	r19, r19
    4086:	44 1f       	adc	r20, r20
    4088:	55 1f       	adc	r21, r21
    408a:	66 1f       	adc	r22, r22
    408c:	77 1f       	adc	r23, r23
    408e:	88 1f       	adc	r24, r24
    4090:	99 1f       	adc	r25, r25
    4092:	0a 95       	dec	r16
    4094:	b2 f7       	brpl	.-20     	; 0x4082 <__ashldi3+0x1a>
    4096:	0f 91       	pop	r16
    4098:	08 95       	ret

0000409a <__ashrdi3>:
    409a:	97 fb       	bst	r25, 7
    409c:	10 f8       	bld	r1, 0

0000409e <__lshrdi3>:
    409e:	16 94       	lsr	r1
    40a0:	00 08       	sbc	r0, r0
    40a2:	0f 93       	push	r16
    40a4:	08 30       	cpi	r16, 0x08	; 8
    40a6:	98 f0       	brcs	.+38     	; 0x40ce <__lshrdi3+0x30>
    40a8:	08 50       	subi	r16, 0x08	; 8
    40aa:	23 2f       	mov	r18, r19
    40ac:	34 2f       	mov	r19, r20
    40ae:	45 2f       	mov	r20, r21
    40b0:	56 2f       	mov	r21, r22
    40b2:	67 2f       	mov	r22, r23
    40b4:	78 2f       	mov	r23, r24
    40b6:	89 2f       	mov	r24, r25
    40b8:	90 2d       	mov	r25, r0
    40ba:	f4 cf       	rjmp	.-24     	; 0x40a4 <__lshrdi3+0x6>
    40bc:	05 94       	asr	r0
    40be:	97 95       	ror	r25
    40c0:	87 95       	ror	r24
    40c2:	77 95       	ror	r23
    40c4:	67 95       	ror	r22
    40c6:	57 95       	ror	r21
    40c8:	47 95       	ror	r20
    40ca:	37 95       	ror	r19
    40cc:	27 95       	ror	r18
    40ce:	0a 95       	dec	r16
    40d0:	aa f7       	brpl	.-22     	; 0x40bc <__lshrdi3+0x1e>
    40d2:	0f 91       	pop	r16
    40d4:	08 95       	ret

000040d6 <__rotldi3>:
    40d6:	0f 93       	push	r16
    40d8:	08 30       	cpi	r16, 0x08	; 8
    40da:	a0 f0       	brcs	.+40     	; 0x4104 <__rotldi3+0x2e>
    40dc:	08 50       	subi	r16, 0x08	; 8
    40de:	09 2e       	mov	r0, r25
    40e0:	98 2f       	mov	r25, r24
    40e2:	87 2f       	mov	r24, r23
    40e4:	76 2f       	mov	r23, r22
    40e6:	65 2f       	mov	r22, r21
    40e8:	54 2f       	mov	r21, r20
    40ea:	43 2f       	mov	r20, r19
    40ec:	32 2f       	mov	r19, r18
    40ee:	20 2d       	mov	r18, r0
    40f0:	f3 cf       	rjmp	.-26     	; 0x40d8 <__rotldi3+0x2>
    40f2:	22 0f       	add	r18, r18
    40f4:	33 1f       	adc	r19, r19
    40f6:	44 1f       	adc	r20, r20
    40f8:	55 1f       	adc	r21, r21
    40fa:	66 1f       	adc	r22, r22
    40fc:	77 1f       	adc	r23, r23
    40fe:	88 1f       	adc	r24, r24
    4100:	99 1f       	adc	r25, r25
    4102:	21 1d       	adc	r18, r1
    4104:	0a 95       	dec	r16
    4106:	aa f7       	brpl	.-22     	; 0x40f2 <__rotldi3+0x1c>
    4108:	0f 91       	pop	r16
    410a:	08 95       	ret

0000410c <__adddi3>:
    410c:	2a 0d       	add	r18, r10
    410e:	3b 1d       	adc	r19, r11
    4110:	4c 1d       	adc	r20, r12
    4112:	5d 1d       	adc	r21, r13
    4114:	6e 1d       	adc	r22, r14
    4116:	7f 1d       	adc	r23, r15
    4118:	80 1f       	adc	r24, r16
    411a:	91 1f       	adc	r25, r17
    411c:	08 95       	ret

0000411e <do_rand>:
    411e:	8f 92       	push	r8
    4120:	9f 92       	push	r9
    4122:	af 92       	push	r10
    4124:	bf 92       	push	r11
    4126:	cf 92       	push	r12
    4128:	df 92       	push	r13
    412a:	ef 92       	push	r14
    412c:	ff 92       	push	r15
    412e:	cf 93       	push	r28
    4130:	df 93       	push	r29
    4132:	ec 01       	movw	r28, r24
    4134:	68 81       	ld	r22, Y
    4136:	79 81       	ldd	r23, Y+1	; 0x01
    4138:	8a 81       	ldd	r24, Y+2	; 0x02
    413a:	9b 81       	ldd	r25, Y+3	; 0x03
    413c:	61 15       	cp	r22, r1
    413e:	71 05       	cpc	r23, r1
    4140:	81 05       	cpc	r24, r1
    4142:	91 05       	cpc	r25, r1
    4144:	21 f4       	brne	.+8      	; 0x414e <do_rand+0x30>
    4146:	64 e2       	ldi	r22, 0x24	; 36
    4148:	79 ed       	ldi	r23, 0xD9	; 217
    414a:	8b e5       	ldi	r24, 0x5B	; 91
    414c:	97 e0       	ldi	r25, 0x07	; 7
    414e:	2d e1       	ldi	r18, 0x1D	; 29
    4150:	33 ef       	ldi	r19, 0xF3	; 243
    4152:	41 e0       	ldi	r20, 0x01	; 1
    4154:	50 e0       	ldi	r21, 0x00	; 0
    4156:	5b d0       	rcall	.+182    	; 0x420e <__divmodsi4>
    4158:	49 01       	movw	r8, r18
    415a:	5a 01       	movw	r10, r20
    415c:	9b 01       	movw	r18, r22
    415e:	ac 01       	movw	r20, r24
    4160:	a7 ea       	ldi	r26, 0xA7	; 167
    4162:	b1 e4       	ldi	r27, 0x41	; 65
    4164:	70 d0       	rcall	.+224    	; 0x4246 <__muluhisi3>
    4166:	6b 01       	movw	r12, r22
    4168:	7c 01       	movw	r14, r24
    416a:	ac ee       	ldi	r26, 0xEC	; 236
    416c:	b4 ef       	ldi	r27, 0xF4	; 244
    416e:	a5 01       	movw	r20, r10
    4170:	94 01       	movw	r18, r8
    4172:	75 d0       	rcall	.+234    	; 0x425e <__mulohisi3>
    4174:	dc 01       	movw	r26, r24
    4176:	cb 01       	movw	r24, r22
    4178:	8c 0d       	add	r24, r12
    417a:	9d 1d       	adc	r25, r13
    417c:	ae 1d       	adc	r26, r14
    417e:	bf 1d       	adc	r27, r15
    4180:	b7 ff       	sbrs	r27, 7
    4182:	03 c0       	rjmp	.+6      	; 0x418a <do_rand+0x6c>
    4184:	01 97       	sbiw	r24, 0x01	; 1
    4186:	a1 09       	sbc	r26, r1
    4188:	b0 48       	sbci	r27, 0x80	; 128
    418a:	88 83       	st	Y, r24
    418c:	99 83       	std	Y+1, r25	; 0x01
    418e:	aa 83       	std	Y+2, r26	; 0x02
    4190:	bb 83       	std	Y+3, r27	; 0x03
    4192:	9f 77       	andi	r25, 0x7F	; 127
    4194:	df 91       	pop	r29
    4196:	cf 91       	pop	r28
    4198:	ff 90       	pop	r15
    419a:	ef 90       	pop	r14
    419c:	df 90       	pop	r13
    419e:	cf 90       	pop	r12
    41a0:	bf 90       	pop	r11
    41a2:	af 90       	pop	r10
    41a4:	9f 90       	pop	r9
    41a6:	8f 90       	pop	r8
    41a8:	08 95       	ret

000041aa <rand_r>:
    41aa:	b9 cf       	rjmp	.-142    	; 0x411e <do_rand>

000041ac <rand>:
    41ac:	80 e0       	ldi	r24, 0x00	; 0
    41ae:	91 e0       	ldi	r25, 0x01	; 1
    41b0:	b6 cf       	rjmp	.-148    	; 0x411e <do_rand>

000041b2 <srand>:
    41b2:	a0 e0       	ldi	r26, 0x00	; 0
    41b4:	b0 e0       	ldi	r27, 0x00	; 0
    41b6:	80 93 00 01 	sts	0x0100, r24	; 0x800100 <__data_start>
    41ba:	90 93 01 01 	sts	0x0101, r25	; 0x800101 <__data_start+0x1>
    41be:	a0 93 02 01 	sts	0x0102, r26	; 0x800102 <__data_start+0x2>
    41c2:	b0 93 03 01 	sts	0x0103, r27	; 0x800103 <__data_start+0x3>
    41c6:	08 95       	ret

000041c8 <memcpy_P>:
    41c8:	fb 01       	movw	r30, r22
    41ca:	dc 01       	movw	r26, r24
    41cc:	02 c0       	rjmp	.+4      	; 0x41d2 <memcpy_P+0xa>
    41ce:	05 90       	lpm	r0, Z+
    41d0:	0d 92       	st	X+, r0
    41d2:	41 50       	subi	r20, 0x01	; 1
    41d4:	50 40       	sbci	r21, 0x00	; 0
    41d6:	d8 f7       	brcc	.-10     	; 0x41ce <memcpy_P+0x6>
    41d8:	08 95       	ret

000041da <memcpy>:
    41da:	fb 01       	movw	r30, r22
    41dc:	dc 01       	movw	r26, r24
    41de:	02 c0       	rjmp	.+4      	; 0x41e4 <memcpy+0xa>
    41e0:	01 90       	ld	r0, Z+
    41e2:	0d 92       	st	X+, r0
    41e4:	41 50       	subi	r20, 0x01	; 1
    41e6:	50 40       	sbci	r21, 0x00	; 0
    41e8:	d8 f7       	brcc	.-10     	; 0x41e0 <memcpy+0x6>
    41ea:	08 95       	ret

000041ec <memmove>:
    41ec:	68 17       	cp	r22, r24
    41ee:	79 07       	cpc	r23, r25
    41f0:	68 f4       	brcc	.+26     	; 0x420c <memmove+0x20>
    41f2:	fb 01       	movw	r30, r22
    41f4:	dc 01       	movw	r26, r24
    41f6:	e4 0f       	add	r30, r20
    41f8:	f5 1f       	adc	r31, r21
    41fa:	a4 0f       	add	r26, r20
    41fc:	b5 1f       	adc	r27, r21
    41fe:	02 c0       	rjmp	.+4      	; 0x4204 <memmove+0x18>
    4200:	02 90       	ld	r0, -Z
    4202:	0e 92       	st	-X, r0
    4204:	41 50       	subi	r20, 0x01	; 1
    4206:	50 40       	sbci	r21, 0x00	; 0
    4208:	d8 f7       	brcc	.-10     	; 0x4200 <memmove+0x14>
    420a:	08 95       	ret
    420c:	e6 cf       	rjmp	.-52     	; 0x41da <memcpy>

0000420e <__divmodsi4>:
    420e:	05 2e       	mov	r0, r21
    4210:	97 fb       	bst	r25, 7
    4212:	16 f4       	brtc	.+4      	; 0x4218 <__divmodsi4+0xa>
    4214:	00 94       	com	r0
    4216:	0f d0       	rcall	.+30     	; 0x4236 <__negsi2>
    4218:	57 fd       	sbrc	r21, 7
    421a:	05 d0       	rcall	.+10     	; 0x4226 <__divmodsi4_neg2>
    421c:	24 d0       	rcall	.+72     	; 0x4266 <__udivmodsi4>
    421e:	07 fc       	sbrc	r0, 7
    4220:	02 d0       	rcall	.+4      	; 0x4226 <__divmodsi4_neg2>
    4222:	46 f4       	brtc	.+16     	; 0x4234 <__divmodsi4_exit>
    4224:	08 c0       	rjmp	.+16     	; 0x4236 <__negsi2>

00004226 <__divmodsi4_neg2>:
    4226:	50 95       	com	r21
    4228:	40 95       	com	r20
    422a:	30 95       	com	r19
    422c:	21 95       	neg	r18
    422e:	3f 4f       	sbci	r19, 0xFF	; 255
    4230:	4f 4f       	sbci	r20, 0xFF	; 255
    4232:	5f 4f       	sbci	r21, 0xFF	; 255

00004234 <__divmodsi4_exit>:
    4234:	08 95       	ret

00004236 <__negsi2>:
    4236:	90 95       	com	r25
    4238:	80 95       	com	r24
    423a:	70 95       	com	r23
    423c:	61 95       	neg	r22
    423e:	7f 4f       	sbci	r23, 0xFF	; 255
    4240:	8f 4f       	sbci	r24, 0xFF	; 255
    4242:	9f 4f       	sbci	r25, 0xFF	; 255
    4244:	08 95       	ret

00004246 <__muluhisi3>:
    4246:	31 d0       	rcall	.+98     	; 0x42aa <__umulhisi3>
    4248:	a5 9f       	mul	r26, r21
    424a:	90 0d       	add	r25, r0
    424c:	b4 9f       	mul	r27, r20
    424e:	90 0d       	add	r25, r0
    4250:	a4 9f       	mul	r26, r20
    4252:	80 0d       	add	r24, r0
    4254:	91 1d       	adc	r25, r1
    4256:	11 24       	eor	r1, r1
    4258:	08 95       	ret

0000425a <__mulshisi3>:
    425a:	b7 ff       	sbrs	r27, 7
    425c:	f4 cf       	rjmp	.-24     	; 0x4246 <__muluhisi3>

0000425e <__mulohisi3>:
    425e:	f3 df       	rcall	.-26     	; 0x4246 <__muluhisi3>
    4260:	82 1b       	sub	r24, r18
    4262:	93 0b       	sbc	r25, r19
    4264:	08 95       	ret

00004266 <__udivmodsi4>:
    4266:	a1 e2       	ldi	r26, 0x21	; 33
    4268:	1a 2e       	mov	r1, r26
    426a:	aa 1b       	sub	r26, r26
    426c:	bb 1b       	sub	r27, r27
    426e:	fd 01       	movw	r30, r26
    4270:	0d c0       	rjmp	.+26     	; 0x428c <__udivmodsi4_ep>

00004272 <__udivmodsi4_loop>:
    4272:	aa 1f       	adc	r26, r26
    4274:	bb 1f       	adc	r27, r27
    4276:	ee 1f       	adc	r30, r30
    4278:	ff 1f       	adc	r31, r31
    427a:	a2 17       	cp	r26, r18
    427c:	b3 07       	cpc	r27, r19
    427e:	e4 07       	cpc	r30, r20
    4280:	f5 07       	cpc	r31, r21
    4282:	20 f0       	brcs	.+8      	; 0x428c <__udivmodsi4_ep>
    4284:	a2 1b       	sub	r26, r18
    4286:	b3 0b       	sbc	r27, r19
    4288:	e4 0b       	sbc	r30, r20
    428a:	f5 0b       	sbc	r31, r21

0000428c <__udivmodsi4_ep>:
    428c:	66 1f       	adc	r22, r22
    428e:	77 1f       	adc	r23, r23
    4290:	88 1f       	adc	r24, r24
    4292:	99 1f       	adc	r25, r25
    4294:	1a 94       	dec	r1
    4296:	69 f7       	brne	.-38     	; 0x4272 <__udivmodsi4_loop>
    4298:	60 95       	com	r22
    429a:	70 95       	com	r23
    429c:	80 95       	com	r24
    429e:	90 95       	com	r25
    42a0:	9b 01       	movw	r18, r22
    42a2:	ac 01       	movw	r20, r24
    42a4:	bd 01       	movw	r22, r26
    42a6:	cf 01       	movw	r24, r30
    42a8:	08 95       	ret

000042aa <__umulhisi3>:
    42aa:	a2 9f       	mul	r26, r18
    42ac:	b0 01       	movw	r22, r0
    42ae:	b3 9f       	mul	r27, r19
    42b0:	c0 01       	movw	r24, r0
    42b2:	a3 9f       	mul	r26, r19
    42b4:	70 0d       	add	r23, r0
    42b6:	81 1d       	adc	r24, r1
    42b8:	11 24       	eor	r1, r1
    42ba:	91 1d       	adc	r25, r1
    42bc:	b2 9f       	mul	r27, r18
    42be:	70 0d       	add	r23, r0
    42c0:	81 1d       	adc	r24, r1
    42c2:	11 24       	eor	r1, r1
    42c4:	91 1d       	adc	r25, r1
    42c6:	08 95       	ret

000042c8 <_exit>:
    42c8:	f8 94       	cli

000042ca <__stop_program>:
    42ca:	ff cf       	rjmp	.-2      	; 0x42ca <__stop_program>
