
Gateway.elf:     file format elf32-avr

Sections:
Idx Name          Size      VMA       LMA       File off  Algn
  0 .data         000003e8  00800100  00005af8  00005b8c  2**0
                  CONTENTS, ALLOC, LOAD, DATA
  1 .text         00005af8  00000000  00000000  00000094  2**1
                  CONTENTS, ALLOC, LOAD, READONLY, CODE
  2 .bss          00000009  008004e8  008004e8  00005f74  2**0
                  ALLOC
  3 .comment      00000030  00000000  00000000  00005f74  2**0
                  CONTENTS, READONLY
  4 .note.gnu.avr.deviceinfo 00000040  00000000  00000000  00005fa4  2**2
                  CONTENTS, READONLY
  5 .debug_aranges 00000498  00000000  00000000  00005fe4  2**0
                  CONTENTS, READONLY, DEBUGGING
  6 .debug_info   0000afd9  00000000  00000000  0000647c  2**0
                  CONTENTS, READONLY, DEBUGGING
  7 .debug_abbrev 00001dd2  00000000  00000000  00011455  2**0
                  CONTENTS, READONLY, DEBUGGING
  8 .debug_line   0000332a  00000000  00000000  00013227  2**0
                  CONTENTS, READONLY, DEBUGGING
  9 .debug_frame  000016ac  00000000  00000000  00016554  2**2
                  CONTENTS, READONLY, DEBUGGING
 10 .debug_str    00001466  00000000  00000000  00017c00  2**0
                  CONTENTS, READONLY, DEBUGGING
 11 .debug_loc    000085a0  00000000  00000000  00019066  2**0
                  CONTENTS, READONLY, DEBUGGING
 12 .debug_ranges 00000490  00000000  00000000  00021606  2**0
                  CONTENTS, READONLY, DEBUGGING

Disassembly of section .text:

00000000 <__vectors>:
       0:	39 c2       	rjmp	.+1138   	; 0x474 <__ctors_end>
       2:	00 00       	nop
       4:	56 c2       	rjmp	.+1196   	; 0x4b2 <__bad_interrupt>
       6:	00 00       	nop
       8:	54 c2       	rjmp	.+1192   	; 0x4b2 <__bad_interrupt>
       a:	00 00       	nop
       c:	52 c2       	rjmp	.+1188   	; 0x4b2 <__bad_interrupt>
       e:	00 00       	nop
      10:	50 c2       	rjmp	.+1184   	; 0x4b2 <__bad_interrupt>
      12:	00 00       	nop
      14:	4e c2       	rjmp	.+1180   	; 0x4b2 <__bad_interrupt>
      16:	00 00       	nop
      18:	4c c2       	rjmp	.+1176   	; 0x4b2 <__bad_interrupt>
      1a:	00 00       	nop
      1c:	4a c2       	rjmp	.+1172   	; 0x4b2 <__bad_interrupt>
      1e:	00 00       	nop
      20:	0c 94 32 18 	jmp	0x3064	; 0x3064 <__vector_8>
      24:	46 c2       	rjmp	.+1164   	; 0x4b2 <__bad_interrupt>
      26:	00 00       	nop
      28:	44 c2       	rjmp	.+1160   	; 0x4b2 <__bad_interrupt>
      2a:	00 00       	nop
      2c:	42 c2       	rjmp	.+1156   	; 0x4b2 <__bad_interrupt>
      2e:	00 00       	nop
      30:	40 c2       	rjmp	.+1152   	; 0x4b2 <__bad_interrupt>
      32:	00 00       	nop
      34:	3e c2       	rjmp	.+1148   	; 0x4b2 <__bad_interrupt>
      36:	00 00       	nop
      38:	3c c2       	rjmp	.+1144   	; 0x4b2 <__bad_interrupt>
      3a:	00 00       	nop
      3c:	3a c2       	rjmp	.+1140   	; 0x4b2 <__bad_interrupt>
      3e:	00 00       	nop
      40:	38 c2       	rjmp	.+1136   	; 0x4b2 <__bad_interrupt>
      42:	00 00       	nop
      44:	36 c2       	rjmp	.+1132   	; 0x4b2 <__bad_interrupt>
      46:	00 00       	nop
      48:	34 c2       	rjmp	.+1128   	; 0x4b2 <__bad_interrupt>
      4a:	00 00       	nop
      4c:	32 c2       	rjmp	.+1124   	; 0x4b2 <__bad_interrupt>
      4e:	00 00       	nop
      50:	30 c2       	rjmp	.+1120   	; 0x4b2 <__bad_interrupt>
      52:	00 00       	nop
      54:	2e c2       	rjmp	.+1116   	; 0x4b2 <__bad_interrupt>
      56:	00 00       	nop
      58:	2c c2       	rjmp	.+1112   	; 0x4b2 <__bad_interrupt>
      5a:	00 00       	nop
      5c:	2a c2       	rjmp	.+1108   	; 0x4b2 <__bad_interrupt>
      5e:	00 00       	nop
      60:	28 c2       	rjmp	.+1104   	; 0x4b2 <__bad_interrupt>
      62:	00 00       	nop
      64:	26 c2       	rjmp	.+1100   	; 0x4b2 <__bad_interrupt>
      66:	00 00       	nop
      68:	24 c2       	rjmp	.+1096   	; 0x4b2 <__bad_interrupt>
      6a:	00 00       	nop
      6c:	22 c2       	rjmp	.+1092   	; 0x4b2 <__bad_interrupt>
      6e:	00 00       	nop
      70:	20 c2       	rjmp	.+1088   	; 0x4b2 <__bad_interrupt>
      72:	00 00       	nop
      74:	1e c2       	rjmp	.+1084   	; 0x4b2 <__bad_interrupt>
      76:	00 00       	nop
      78:	1c c2       	rjmp	.+1080   	; 0x4b2 <__bad_interrupt>
      7a:	00 00       	nop
      7c:	1a c2       	rjmp	.+1076   	; 0x4b2 <__bad_interrupt>
      7e:	00 00       	nop
      80:	18 c2       	rjmp	.+1072   	; 0x4b2 <__bad_interrupt>
      82:	00 00       	nop
      84:	16 c2       	rjmp	.+1068   	; 0x4b2 <__bad_interrupt>
      86:	00 00       	nop
      88:	14 c2       	rjmp	.+1064   	; 0x4b2 <__bad_interrupt>
      8a:	00 00       	nop
      8c:	12 c2       	rjmp	.+1060   	; 0x4b2 <__bad_interrupt>
      8e:	00 00       	nop
      90:	10 c2       	rjmp	.+1056   	; 0x4b2 <__bad_interrupt>
	...

00000094 <__trampolines_end>:
      94:	67 e6       	ldi	r22, 0x67	; 103
      96:	09 6a       	ori	r16, 0xA9	; 169
      98:	85 ae       	std	Z+61, r8	; 0x3d
      9a:	67 bb       	out	0x17, r22	; 23
      9c:	72 f3       	brmi	.-36     	; 0x7a <__SREG__+0x3b>
      9e:	6e 3c       	cpi	r22, 0xCE	; 206
      a0:	3a f5       	brpl	.+78     	; 0xf0 <sha2_large_common_const+0x3c>
      a2:	4f a5       	ldd	r20, Y+47	; 0x2f
      a4:	7f 52       	subi	r23, 0x2F	; 47
      a6:	0e 51       	subi	r16, 0x1E	; 30
      a8:	8c 68       	ori	r24, 0x8C	; 140
      aa:	05 9b       	sbis	0x00, 5	; 0
      ac:	ab d9       	rcall	.-3242   	; 0xfffff404 <__eeprom_end+0xff7ef404>
      ae:	83 1f       	adc	r24, r19
      b0:	19 cd       	rjmp	.-1486   	; 0xfffffae4 <__eeprom_end+0xff7efae4>
      b2:	e0 5b       	subi	r30, 0xB0	; 176

000000b4 <sha2_large_common_const>:
      b4:	22 ae 28 d7 98 2f 8a 42 cd 65 ef 23 91 44 37 71     ".(../.B.e.#.D7q
      c4:	2f 3b 4d ec cf fb c0 b5 bc db 89 81 a5 db b5 e9     /;M.............
      d4:	38 b5 48 f3 5b c2 56 39 19 d0 05 b6 f1 11 f1 59     8.H.[.V9.......Y
      e4:	9b 4f 19 af a4 82 3f 92 18 81 6d da d5 5e 1c ab     .O....?...m..^..
      f4:	42 02 03 a3 98 aa 07 d8 be 6f 70 45 01 5b 83 12     B........opE.[..
     104:	8c b2 e4 4e be 85 31 24 e2 b4 ff d5 c3 7d 0c 55     ...N..1$.....}.U
     114:	6f 89 7b f2 74 5d be 72 b1 96 16 3b fe b1 de 80     o.{.t].r...;....
     124:	35 12 c7 25 a7 06 dc 9b 94 26 69 cf 74 f1 9b c1     5..%.....&i.t...
     134:	d2 4a f1 9e c1 69 9b e4 e3 25 4f 38 86 47 be ef     .J...i...%O8.G..
     144:	b5 d5 8c 8b c6 9d c1 0f 65 9c ac 77 cc a1 0c 24     ........e..w...$
     154:	75 02 2b 59 6f 2c e9 2d 83 e4 a6 6e aa 84 74 4a     u.+Yo,.-...n..tJ
     164:	d4 fb 41 bd dc a9 b0 5c b5 53 11 83 da 88 f9 76     ..A....\.S.....v
     174:	ab df 66 ee 52 51 3e 98 10 32 b4 2d 6d c6 31 a8     ..f.RQ>..2.-m.1.
     184:	3f 21 fb 98 c8 27 03 b0 e4 0e ef be c7 7f 59 bf     ?!...'........Y.
     194:	c2 8f a8 3d f3 0b e0 c6 25 a7 0a 93 47 91 a7 d5     ...=....%...G...
     1a4:	6f 82 03 e0 51 63 ca 06 70 6e 0e 0a 67 29 29 14     o...Qc..pn..g)).
     1b4:	fc 2f d2 46 85 0a b7 27 26 c9 26 5c 38 21 1b 2e     ./.F...'&.&\8!..
     1c4:	ed 2a c4 5a fc 6d 2c 4d df b3 95 9d 13 0d 38 53     .*.Z.m,M......8S
     1d4:	de 63 af 8b 54 73 0a 65 a8 b2 77 3c bb 0a 6a 76     .c..Ts.e..w<..jv
     1e4:	e6 ae ed 47 2e c9 c2 81 3b 35 82 14 85 2c 72 92     ...G....;5...,r.
     1f4:	64 03 f1 4c a1 e8 bf a2 01 30 42 bc 4b 66 1a a8     d..L.....0B.Kf..
     204:	91 97 f8 d0 70 8b 4b c2 30 be 54 06 a3 51 6c c7     ....p.K.0.T..Ql.
     214:	18 52 ef d6 19 e8 92 d1 10 a9 65 55 24 06 99 d6     .R........eU$...
     224:	2a 20 71 57 85 35 0e f4 b8 d1 bb 32 70 a0 6a 10     * qW.5.....2p.j.
     234:	c8 d0 d2 b8 16 c1 a4 19 53 ab 41 51 08 6c 37 1e     ........S.AQ.l7.
     244:	99 eb 8e df 4c 77 48 27 a8 48 9b e1 b5 bc b0 34     ....LwH'.H.....4
     254:	63 5a c9 c5 b3 0c 1c 39 cb 8a 41 e3 4a aa d8 4e     cZ.....9..A.J..N
     264:	73 e3 63 77 4f ca 9c 5b a3 b8 b2 d6 f3 6f 2e 68     s.cwO..[.....o.h
     274:	fc b2 ef 5d ee 82 8f 74 60 2f 17 43 6f 63 a5 78     ...]...t`/.Coc.x
     284:	72 ab f0 a1 14 78 c8 84 ec 39 64 1a 08 02 c7 8c     r....x...9d.....
     294:	28 1e 63 23 fa ff be 90 e9 bd 82 de eb 6c 50 a4     (.c#.........lP.
     2a4:	15 79 c6 b2 f7 a3 f9 be 2b 53 72 e3 f2 78 71 c6     .y......+Sr..xq.
     2b4:	9c 61 26 ea ce 3e 27 ca 07 c2 c0 21 c7 b8 86 d1     .a&..>'....!....
     2c4:	1e eb e0 cd d6 7d da ea 78 d1 6e ee 7f 4f 7d f5     .....}..x.n..O}.
     2d4:	ba 6f 17 72 aa 67 f0 06 a6 98 c8 a2 c5 7d 63 0a     .o.r.g.......}c.
     2e4:	ae 0d f9 be 04 98 3f 11 1b 47 1c 13 35 0b 71 1b     ......?..G..5.q.
     2f4:	84 7d 04 23 f5 77 db 28 93 24 c7 40 7b ab ca 32     .}.#.w.(.$.@{..2
     304:	bc be c9 15 0a be 9e 3c 4c 0d 10 9c c4 67 1d 43     .......<L....g.C
     314:	b6 42 3e cb be d4 c5 4c 2a 7e 65 fc 9c 29 7f 59     .B>....L*~e..).Y
     324:	ec fa d6 3a ab 6f cb 5f 17 58 47 4a 8c 19 44 6c     ...:.o._.XGJ..Dl

00000334 <k>:
     334:	98 2f 8a 42 91 44 37 71 cf fb c0 b5 a5 db b5 e9     ./.B.D7q........
     344:	5b c2 56 39 f1 11 f1 59 a4 82 3f 92 d5 5e 1c ab     [.V9...Y..?..^..
     354:	98 aa 07 d8 01 5b 83 12 be 85 31 24 c3 7d 0c 55     .....[....1$.}.U
     364:	74 5d be 72 fe b1 de 80 a7 06 dc 9b 74 f1 9b c1     t].r........t...
     374:	c1 69 9b e4 86 47 be ef c6 9d c1 0f cc a1 0c 24     .i...G.........$
     384:	6f 2c e9 2d aa 84 74 4a dc a9 b0 5c da 88 f9 76     o,.-..tJ...\...v
     394:	52 51 3e 98 6d c6 31 a8 c8 27 03 b0 c7 7f 59 bf     RQ>.m.1..'....Y.
     3a4:	f3 0b e0 c6 47 91 a7 d5 51 63 ca 06 67 29 29 14     ....G...Qc..g)).
     3b4:	85 0a b7 27 38 21 1b 2e fc 6d 2c 4d 13 0d 38 53     ...'8!...m,M..8S
     3c4:	54 73 0a 65 bb 0a 6a 76 2e c9 c2 81 85 2c 72 92     Ts.e..jv.....,r.
     3d4:	a1 e8 bf a2 4b 66 1a a8 70 8b 4b c2 a3 51 6c c7     ....Kf..p.K..Ql.
     3e4:	19 e8 92 d1 24 06 99 d6 85 35 0e f4 70 a0 6a 10     ....$....5..p.j.
     3f4:	16 c1 a4 19 08 6c 37 1e 4c 77 48 27 b5 bc b0 34     .....l7.LwH'...4
     404:	b3 0c 1c 39 4a aa d8 4e 4f ca 9c 5b f3 6f 2e 68     ...9J..NO..[.o.h
     414:	ee 82 8f 74 6f 63 a5 78 14 78 c8 84 08 02 c7 8c     ...toc.x.x......
     424:	fa ff be 90 eb 6c 50 a4 f7 a3 f9 be f2 78 71 c6     .....lP......xq.

00000434 <sha512_init_values>:
     434:	08 c9 bc f3 67 e6 09 6a 3b a7 ca 84 85 ae 67 bb     ....g..j;.....g.
     444:	2b f8 94 fe 72 f3 6e 3c f1 36 1d 5f 3a f5 4f a5     +...r.n<.6._:.O.
     454:	d1 82 e6 ad 7f 52 0e 51 1f 6c 3e 2b 8c 68 05 9b     .....R.Q.l>+.h..
     464:	6b bd 41 fb ab d9 83 1f 79 21 7e 13 19 cd e0 5b     k.A.....y!~....[

00000474 <__ctors_end>:
     474:	11 24       	eor	r1, r1
     476:	1f be       	out	0x3f, r1	; 63
     478:	cf ef       	ldi	r28, 0xFF	; 255
     47a:	d0 e1       	ldi	r29, 0x10	; 16
     47c:	de bf       	out	0x3e, r29	; 62
     47e:	cd bf       	out	0x3d, r28	; 61

00000480 <__do_copy_data>:
     480:	14 e0       	ldi	r17, 0x04	; 4
     482:	a0 e0       	ldi	r26, 0x00	; 0
     484:	b1 e0       	ldi	r27, 0x01	; 1
     486:	e8 ef       	ldi	r30, 0xF8	; 248
     488:	fa e5       	ldi	r31, 0x5A	; 90
     48a:	00 e0       	ldi	r16, 0x00	; 0
     48c:	0b bf       	out	0x3b, r16	; 59
     48e:	02 c0       	rjmp	.+4      	; 0x494 <__do_copy_data+0x14>
     490:	07 90       	elpm	r0, Z+
     492:	0d 92       	st	X+, r0
     494:	a8 3e       	cpi	r26, 0xE8	; 232
     496:	b1 07       	cpc	r27, r17
     498:	d9 f7       	brne	.-10     	; 0x490 <__do_copy_data+0x10>

0000049a <__do_clear_bss>:
     49a:	24 e0       	ldi	r18, 0x04	; 4
     49c:	a8 ee       	ldi	r26, 0xE8	; 232
     49e:	b4 e0       	ldi	r27, 0x04	; 4
     4a0:	01 c0       	rjmp	.+2      	; 0x4a4 <.do_clear_bss_start>

000004a2 <.do_clear_bss_loop>:
     4a2:	1d 92       	st	X+, r1

000004a4 <.do_clear_bss_start>:
     4a4:	a1 3f       	cpi	r26, 0xF1	; 241
     4a6:	b2 07       	cpc	r27, r18
     4a8:	e1 f7       	brne	.-8      	; 0x4a2 <.do_clear_bss_loop>
     4aa:	0e 94 0c 1a 	call	0x3418	; 0x3418 <main>
     4ae:	0c 94 7a 2d 	jmp	0x5af4	; 0x5af4 <_exit>

000004b2 <__bad_interrupt>:
     4b2:	a6 cd       	rjmp	.-1204   	; 0x0 <__vectors>

000004b4 <set_page>:
	uint8_t message[8] = {0};
	can_get_message(mobnr , message);
	char hex[16] = "";
	bytes_to_hex(message, 8, hex);
	uart_puts(hex);
}
     4b4:	20 e1       	ldi	r18, 0x10	; 16
     4b6:	82 9f       	mul	r24, r18
     4b8:	c0 01       	movw	r24, r0
     4ba:	11 24       	eor	r1, r1
     4bc:	88 60       	ori	r24, 0x08	; 8
     4be:	80 93 ed 00 	sts	0x00ED, r24	; 0x8000ed <__TEXT_REGION_LENGTH__+0x7e00ed>
     4c2:	08 95       	ret

000004c4 <can_init>:
     4c4:	cf 93       	push	r28
     4c6:	df 93       	push	r29
     4c8:	f8 94       	cli
     4ca:	81 e0       	ldi	r24, 0x01	; 1
     4cc:	80 93 d8 00 	sts	0x00D8, r24	; 0x8000d8 <__TEXT_REGION_LENGTH__+0x7e00d8>
     4d0:	84 e3       	ldi	r24, 0x34	; 52
     4d2:	80 93 db 00 	sts	0x00DB, r24	; 0x8000db <__TEXT_REGION_LENGTH__+0x7e00db>
     4d6:	10 92 da 00 	sts	0x00DA, r1	; 0x8000da <__TEXT_REGION_LENGTH__+0x7e00da>
     4da:	20 e0       	ldi	r18, 0x00	; 0
     4dc:	4d ee       	ldi	r20, 0xED	; 237
     4de:	50 e0       	ldi	r21, 0x00	; 0
     4e0:	cf ee       	ldi	r28, 0xEF	; 239
     4e2:	d0 e0       	ldi	r29, 0x00	; 0
     4e4:	6e ee       	ldi	r22, 0xEE	; 238
     4e6:	70 e0       	ldi	r23, 0x00	; 0
     4e8:	ea ef       	ldi	r30, 0xFA	; 250
     4ea:	f0 e0       	ldi	r31, 0x00	; 0
     4ec:	82 2f       	mov	r24, r18
     4ee:	82 95       	swap	r24
     4f0:	80 7f       	andi	r24, 0xF0	; 240
     4f2:	da 01       	movw	r26, r20
     4f4:	8c 93       	st	X, r24
     4f6:	18 82       	st	Y, r1
     4f8:	db 01       	movw	r26, r22
     4fa:	1c 92       	st	X, r1
     4fc:	88 e0       	ldi	r24, 0x08	; 8
     4fe:	90 e0       	ldi	r25, 0x00	; 0
     500:	10 82       	st	Z, r1
     502:	01 97       	sbiw	r24, 0x01	; 1
     504:	e9 f7       	brne	.-6      	; 0x500 <can_init+0x3c>
     506:	2f 5f       	subi	r18, 0xFF	; 255
     508:	2f 30       	cpi	r18, 0x0F	; 15
     50a:	81 f7       	brne	.-32     	; 0x4ec <can_init+0x28>
     50c:	88 e0       	ldi	r24, 0x08	; 8
     50e:	80 93 ed 00 	sts	0x00ED, r24	; 0x8000ed <__TEXT_REGION_LENGTH__+0x7e00ed>
     512:	86 e0       	ldi	r24, 0x06	; 6
     514:	80 93 e2 00 	sts	0x00E2, r24	; 0x8000e2 <__TEXT_REGION_LENGTH__+0x7e00e2>
     518:	8c e0       	ldi	r24, 0x0C	; 12
     51a:	80 93 e3 00 	sts	0x00E3, r24	; 0x8000e3 <__TEXT_REGION_LENGTH__+0x7e00e3>
     51e:	87 e3       	ldi	r24, 0x37	; 55
     520:	80 93 e4 00 	sts	0x00E4, r24	; 0x8000e4 <__TEXT_REGION_LENGTH__+0x7e00e4>
     524:	10 92 e5 00 	sts	0x00E5, r1	; 0x8000e5 <__TEXT_REGION_LENGTH__+0x7e00e5>
     528:	82 e0       	ldi	r24, 0x02	; 2
     52a:	80 93 d8 00 	sts	0x00D8, r24	; 0x8000d8 <__TEXT_REGION_LENGTH__+0x7e00d8>
     52e:	78 94       	sei
     530:	df 91       	pop	r29
     532:	cf 91       	pop	r28
     534:	08 95       	ret

00000536 <can_get_message>:
     536:	1f 93       	push	r17
     538:	cf 93       	push	r28
     53a:	df 93       	push	r29
     53c:	18 2f       	mov	r17, r24
     53e:	eb 01       	movw	r28, r22
     540:	b9 df       	rcall	.-142    	; 0x4b4 <set_page>
     542:	20 e1       	ldi	r18, 0x10	; 16
     544:	12 9f       	mul	r17, r18
     546:	c0 01       	movw	r24, r0
     548:	11 24       	eor	r1, r1
     54a:	88 60       	ori	r24, 0x08	; 8
     54c:	90 e0       	ldi	r25, 0x00	; 0
     54e:	ad ee       	ldi	r26, 0xED	; 237
     550:	b0 e0       	ldi	r27, 0x00	; 0
     552:	ea ef       	ldi	r30, 0xFA	; 250
     554:	f0 e0       	ldi	r31, 0x00	; 0
     556:	29 2f       	mov	r18, r25
     558:	28 2b       	or	r18, r24
     55a:	2c 93       	st	X, r18
     55c:	20 81       	ld	r18, Z
     55e:	29 93       	st	Y+, r18
     560:	9f 5f       	subi	r25, 0xFF	; 255
     562:	98 30       	cpi	r25, 0x08	; 8
     564:	c1 f7       	brne	.-16     	; 0x556 <can_get_message+0x20>
     566:	80 93 ed 00 	sts	0x00ED, r24	; 0x8000ed <__TEXT_REGION_LENGTH__+0x7e00ed>
     56a:	df 91       	pop	r29
     56c:	cf 91       	pop	r28
     56e:	1f 91       	pop	r17
     570:	08 95       	ret

00000572 <can_get_frame_buffer>:
     572:	0f 93       	push	r16
     574:	1f 93       	push	r17
     576:	cf 93       	push	r28
     578:	df 93       	push	r29
     57a:	8c 01       	movw	r16, r24
     57c:	d6 2f       	mov	r29, r22
     57e:	66 23       	and	r22, r22
     580:	49 f0       	breq	.+18     	; 0x594 <can_get_frame_buffer+0x22>
     582:	c0 e0       	ldi	r28, 0x00	; 0
     584:	b8 01       	movw	r22, r16
     586:	8c 2f       	mov	r24, r28
     588:	d6 df       	rcall	.-84     	; 0x536 <can_get_message>
     58a:	08 5f       	subi	r16, 0xF8	; 248
     58c:	1f 4f       	sbci	r17, 0xFF	; 255
     58e:	cf 5f       	subi	r28, 0xFF	; 255
     590:	dc 13       	cpse	r29, r28
     592:	f8 cf       	rjmp	.-16     	; 0x584 <can_get_frame_buffer+0x12>
     594:	df 91       	pop	r29
     596:	cf 91       	pop	r28
     598:	1f 91       	pop	r17
     59a:	0f 91       	pop	r16
     59c:	08 95       	ret

0000059e <can_get_id>:

void can_get_id(uint8_t mobnr, can_id_t id){
     59e:	cf 93       	push	r28
     5a0:	df 93       	push	r29
     5a2:	eb 01       	movw	r28, r22
	set_page(mobnr);
     5a4:	87 df       	rcall	.-242    	; 0x4b4 <set_page>
	id[0] = CANIDT2 >> 5 | CANIDT1 << 3;
     5a6:	90 91 f2 00 	lds	r25, 0x00F2	; 0x8000f2 <__TEXT_REGION_LENGTH__+0x7e00f2>
     5aa:	e3 ef       	ldi	r30, 0xF3	; 243
     5ac:	f0 e0       	ldi	r31, 0x00	; 0
     5ae:	80 81       	ld	r24, Z
     5b0:	92 95       	swap	r25
     5b2:	96 95       	lsr	r25
     5b4:	97 70       	andi	r25, 0x07	; 7
     5b6:	88 0f       	add	r24, r24
     5b8:	88 0f       	add	r24, r24
     5ba:	88 0f       	add	r24, r24
     5bc:	89 2b       	or	r24, r25
     5be:	88 83       	st	Y, r24
	id[1] = CANIDT1 >> 5;
     5c0:	80 81       	ld	r24, Z
     5c2:	82 95       	swap	r24
     5c4:	86 95       	lsr	r24
     5c6:	87 70       	andi	r24, 0x07	; 7
     5c8:	89 83       	std	Y+1, r24	; 0x01
}
     5ca:	df 91       	pop	r29
     5cc:	cf 91       	pop	r28
     5ce:	08 95       	ret

000005d0 <can_init_id>:

void can_init_id ( can_id_t id){
     5d0:	fc 01       	movw	r30, r24
	CANIDT2 = id[0] << 5;
     5d2:	80 81       	ld	r24, Z
     5d4:	82 95       	swap	r24
     5d6:	88 0f       	add	r24, r24
     5d8:	80 7e       	andi	r24, 0xE0	; 224
     5da:	80 93 f2 00 	sts	0x00F2, r24	; 0x8000f2 <__TEXT_REGION_LENGTH__+0x7e00f2>
	CANIDT1 = id[0] >> 3 | id[1] << 5;
     5de:	20 81       	ld	r18, Z
     5e0:	26 95       	lsr	r18
     5e2:	26 95       	lsr	r18
     5e4:	26 95       	lsr	r18
     5e6:	91 81       	ldd	r25, Z+1	; 0x01
     5e8:	30 e2       	ldi	r19, 0x20	; 32
     5ea:	93 9f       	mul	r25, r19
     5ec:	c0 01       	movw	r24, r0
     5ee:	11 24       	eor	r1, r1
     5f0:	82 2b       	or	r24, r18
     5f2:	80 93 f3 00 	sts	0x00F3, r24	; 0x8000f3 <__TEXT_REGION_LENGTH__+0x7e00f3>
	//not a remote frame.
	CANIDT4 = 0 << RTRTAG;
     5f6:	10 92 f0 00 	sts	0x00F0, r1	; 0x8000f0 <__TEXT_REGION_LENGTH__+0x7e00f0>
     5fa:	08 95       	ret

000005fc <can_init_mask>:
	CANIDM2 = 255;
	CANIDM4 = (0 << RTRMSK) | (0 << IDEMSK);
}
*/

void can_init_mask (can_mask_t mask){
     5fc:	fc 01       	movw	r30, r24
	CANIDM2 = mask[0] << 5;
     5fe:	80 81       	ld	r24, Z
     600:	82 95       	swap	r24
     602:	88 0f       	add	r24, r24
     604:	80 7e       	andi	r24, 0xE0	; 224
     606:	80 93 f6 00 	sts	0x00F6, r24	; 0x8000f6 <__TEXT_REGION_LENGTH__+0x7e00f6>
	CANIDM1 = mask[0] >> 3 | mask[1] << 5;
     60a:	20 81       	ld	r18, Z
     60c:	26 95       	lsr	r18
     60e:	26 95       	lsr	r18
     610:	26 95       	lsr	r18
     612:	91 81       	ldd	r25, Z+1	; 0x01
     614:	30 e2       	ldi	r19, 0x20	; 32
     616:	93 9f       	mul	r25, r19
     618:	c0 01       	movw	r24, r0
     61a:	11 24       	eor	r1, r1
     61c:	82 2b       	or	r24, r18
     61e:	80 93 f7 00 	sts	0x00F7, r24	; 0x8000f7 <__TEXT_REGION_LENGTH__+0x7e00f7>
	//RTRMSK = 0 : We don't use remote frames ever.
	//IDEMSK = 0 : we don't use the extended format.
	CANIDM4 = (0 << RTRMSK) | (0 << IDEMSK);
     622:	10 92 f4 00 	sts	0x00F4, r1	; 0x8000f4 <__TEXT_REGION_LENGTH__+0x7e00f4>
     626:	08 95       	ret

00000628 <can_init_message>:
}

void can_init_message( uint8_t *message , uint8_t mobnr){
     628:	1f 93       	push	r17
     62a:	cf 93       	push	r28
     62c:	df 93       	push	r29
     62e:	ec 01       	movw	r28, r24
     630:	16 2f       	mov	r17, r22
	set_page(mobnr);
     632:	86 2f       	mov	r24, r22
     634:	3f df       	rcall	.-386    	; 0x4b4 <set_page>
     636:	80 e1       	ldi	r24, 0x10	; 16
     638:	18 9f       	mul	r17, r24
     63a:	b0 01       	movw	r22, r0
     63c:	11 24       	eor	r1, r1
     63e:	68 60       	ori	r22, 0x08	; 8
	uint8_t j;
	for(j=0; j<8; j++){
     640:	80 e0       	ldi	r24, 0x00	; 0
static void set_page(uint8_t mobnr){
	CANPAGE = (mobnr << 4) | PAGE_MASK;
}

static void set_page_indx(uint8_t indx, uint8_t mobnr){
	CANPAGE = (mobnr << 4) | PAGE_MASK | indx;
     642:	ad ee       	ldi	r26, 0xED	; 237
     644:	b0 e0       	ldi	r27, 0x00	; 0
void can_init_message( uint8_t *message , uint8_t mobnr){
	set_page(mobnr);
	uint8_t j;
	for(j=0; j<8; j++){
		set_page_indx(j, mobnr);
		CANMSG = *message;
     646:	ea ef       	ldi	r30, 0xFA	; 250
     648:	f0 e0       	ldi	r31, 0x00	; 0
static void set_page(uint8_t mobnr){
	CANPAGE = (mobnr << 4) | PAGE_MASK;
}

static void set_page_indx(uint8_t indx, uint8_t mobnr){
	CANPAGE = (mobnr << 4) | PAGE_MASK | indx;
     64a:	98 2f       	mov	r25, r24
     64c:	96 2b       	or	r25, r22
     64e:	9c 93       	st	X, r25
void can_init_message( uint8_t *message , uint8_t mobnr){
	set_page(mobnr);
	uint8_t j;
	for(j=0; j<8; j++){
		set_page_indx(j, mobnr);
		CANMSG = *message;
     650:	99 91       	ld	r25, Y+
     652:	90 83       	st	Z, r25
}

void can_init_message( uint8_t *message , uint8_t mobnr){
	set_page(mobnr);
	uint8_t j;
	for(j=0; j<8; j++){
     654:	8f 5f       	subi	r24, 0xFF	; 255
     656:	88 30       	cpi	r24, 0x08	; 8
     658:	c1 f7       	brne	.-16     	; 0x64a <can_init_message+0x22>
static void set_page(uint8_t mobnr){
	CANPAGE = (mobnr << 4) | PAGE_MASK;
}

static void set_page_indx(uint8_t indx, uint8_t mobnr){
	CANPAGE = (mobnr << 4) | PAGE_MASK | indx;
     65a:	60 93 ed 00 	sts	0x00ED, r22	; 0x8000ed <__TEXT_REGION_LENGTH__+0x7e00ed>
		set_page_indx(j, mobnr);
		CANMSG = *message;
		message++;
	}
	set_page_indx(0, mobnr);
}
     65e:	df 91       	pop	r29
     660:	cf 91       	pop	r28
     662:	1f 91       	pop	r17
     664:	08 95       	ret

00000666 <can_send_message>:

int can_send_message( uint8_t mobnr , can_id_t id, can_msg_t message ){
     666:	ef 92       	push	r14
     668:	ff 92       	push	r15
     66a:	0f 93       	push	r16
     66c:	1f 93       	push	r17
     66e:	cf 93       	push	r28
     670:	c8 2f       	mov	r28, r24
     672:	7b 01       	movw	r14, r22
     674:	8a 01       	movw	r16, r20
	//select mob.
	set_page(mobnr);
     676:	1e df       	rcall	.-452    	; 0x4b4 <set_page>
	//copy ID.
	can_init_id(id);
     678:	c7 01       	movw	r24, r14
     67a:	aa df       	rcall	.-172    	; 0x5d0 <can_init_id>
	//copy message.
	can_init_message(message, mobnr);
     67c:	6c 2f       	mov	r22, r28
     67e:	c8 01       	movw	r24, r16
     680:	d3 df       	rcall	.-90     	; 0x628 <can_init_message>
	//enable transmission.
	CANCDMOB = (1 << CONMOB0) | (1 << DLC3);
     682:	88 e4       	ldi	r24, 0x48	; 72
     684:	80 93 ef 00 	sts	0x00EF, r24	; 0x8000ef <__TEXT_REGION_LENGTH__+0x7e00ef>
	//wait for transmission.
	while(CANSTMOB != (1 << TXOK));
     688:	ee ee       	ldi	r30, 0xEE	; 238
     68a:	f0 e0       	ldi	r31, 0x00	; 0
     68c:	80 81       	ld	r24, Z
     68e:	80 34       	cpi	r24, 0x40	; 64
     690:	e9 f7       	brne	.-6      	; 0x68c <can_send_message+0x26>
	//reset mob.
	CANSTMOB = 0x00;
     692:	10 92 ee 00 	sts	0x00EE, r1	; 0x8000ee <__TEXT_REGION_LENGTH__+0x7e00ee>
	CANCDMOB = 0x00;
     696:	10 92 ef 00 	sts	0x00EF, r1	; 0x8000ef <__TEXT_REGION_LENGTH__+0x7e00ef>
	return 0;
}
     69a:	80 e0       	ldi	r24, 0x00	; 0
     69c:	90 e0       	ldi	r25, 0x00	; 0
     69e:	cf 91       	pop	r28
     6a0:	1f 91       	pop	r17
     6a2:	0f 91       	pop	r16
     6a4:	ff 90       	pop	r15
     6a6:	ef 90       	pop	r14
     6a8:	08 95       	ret

000006aa <can_receive_message>:

int can_receive_message( uint8_t mobnr, can_id_t id, can_mask_t mask, can_msg_t message){
     6aa:	cf 92       	push	r12
     6ac:	df 92       	push	r13
     6ae:	ef 92       	push	r14
     6b0:	ff 92       	push	r15
     6b2:	0f 93       	push	r16
     6b4:	1f 93       	push	r17
     6b6:	cf 93       	push	r28
     6b8:	c8 2f       	mov	r28, r24
     6ba:	6b 01       	movw	r12, r22
     6bc:	7a 01       	movw	r14, r20
     6be:	89 01       	movw	r16, r18
	set_page(mobnr);
     6c0:	f9 de       	rcall	.-526    	; 0x4b4 <set_page>
	CANIE2 = (1 << mobnr);
     6c2:	81 e0       	ldi	r24, 0x01	; 1
     6c4:	90 e0       	ldi	r25, 0x00	; 0
     6c6:	0c 2e       	mov	r0, r28
     6c8:	02 c0       	rjmp	.+4      	; 0x6ce <can_receive_message+0x24>
     6ca:	88 0f       	add	r24, r24
     6cc:	99 1f       	adc	r25, r25
     6ce:	0a 94       	dec	r0
     6d0:	e2 f7       	brpl	.-8      	; 0x6ca <can_receive_message+0x20>
     6d2:	80 93 de 00 	sts	0x00DE, r24	; 0x8000de <__TEXT_REGION_LENGTH__+0x7e00de>
	can_init_id(id);
     6d6:	c6 01       	movw	r24, r12
     6d8:	7b df       	rcall	.-266    	; 0x5d0 <can_init_id>
	can_init_mask(mask);
     6da:	c7 01       	movw	r24, r14
     6dc:	8f df       	rcall	.-226    	; 0x5fc <can_init_mask>
     6de:	88 e8       	ldi	r24, 0x88	; 136
	//CAN standard rev 2.0 A (identifiers length = 11 bits)
	CANCDMOB = (1 << CONMOB1) | (1 << DLC3); //enable reception and data length code = 8 bytes
     6e0:	80 93 ef 00 	sts	0x00EF, r24	; 0x8000ef <__TEXT_REGION_LENGTH__+0x7e00ef>
     6e4:	ea ed       	ldi	r30, 0xDA	; 218
	//wait for interrupt
	while((CANGIT & INTR_MASK) != (1 << CANIT));
     6e6:	f0 e0       	ldi	r31, 0x00	; 0
     6e8:	80 81       	ld	r24, Z
     6ea:	88 23       	and	r24, r24
     6ec:	ec f7       	brge	.-6      	; 0x6e8 <can_receive_message+0x3e>
     6ee:	80 91 ee 00 	lds	r24, 0x00EE	; 0x8000ee <__TEXT_REGION_LENGTH__+0x7e00ee>
	//check if it is the right interrupt.
	if((CANSTMOB & RXOK_MASK) != (1 << RXOK)) return 1;
     6f2:	85 ff       	sbrs	r24, 5
     6f4:	10 c0       	rjmp	.+32     	; 0x716 <can_receive_message+0x6c>
     6f6:	10 92 ee 00 	sts	0x00EE, r1	; 0x8000ee <__TEXT_REGION_LENGTH__+0x7e00ee>
	//reset mob.
	CANSTMOB = 0x00;
     6fa:	10 92 ef 00 	sts	0x00EF, r1	; 0x8000ef <__TEXT_REGION_LENGTH__+0x7e00ef>
	CANCDMOB = 0x00;
     6fe:	10 92 de 00 	sts	0x00DE, r1	; 0x8000de <__TEXT_REGION_LENGTH__+0x7e00de>
	//reset interrupt enable
	CANIE2 = 0x00;
     702:	ea ed       	ldi	r30, 0xDA	; 218
	//reset interrupt register.
	CANGIT = CANGIT;
     704:	f0 e0       	ldi	r31, 0x00	; 0
     706:	80 81       	ld	r24, Z
     708:	80 83       	st	Z, r24
	//retrieve message.
	can_get_message(mobnr, message);
     70a:	b8 01       	movw	r22, r16
     70c:	8c 2f       	mov	r24, r28
     70e:	13 df       	rcall	.-474    	; 0x536 <can_get_message>
     710:	80 e0       	ldi	r24, 0x00	; 0
	return 0;
     712:	90 e0       	ldi	r25, 0x00	; 0
     714:	02 c0       	rjmp	.+4      	; 0x71a <can_receive_message+0x70>
     716:	81 e0       	ldi	r24, 0x01	; 1
	//CAN standard rev 2.0 A (identifiers length = 11 bits)
	CANCDMOB = (1 << CONMOB1) | (1 << DLC3); //enable reception and data length code = 8 bytes
	//wait for interrupt
	while((CANGIT & INTR_MASK) != (1 << CANIT));
	//check if it is the right interrupt.
	if((CANSTMOB & RXOK_MASK) != (1 << RXOK)) return 1;
     718:	90 e0       	ldi	r25, 0x00	; 0
     71a:	cf 91       	pop	r28
	//reset interrupt register.
	CANGIT = CANGIT;
	//retrieve message.
	can_get_message(mobnr, message);
	return 0;
}
     71c:	1f 91       	pop	r17
     71e:	0f 91       	pop	r16
     720:	ff 90       	pop	r15
     722:	ef 90       	pop	r14
     724:	df 90       	pop	r13
     726:	cf 90       	pop	r12
     728:	08 95       	ret

0000072a <can_send_frame_buffer>:
     72a:	ef 92       	push	r14

int can_send_frame_buffer( uint8_t *message, uint8_t buff_len ){
     72c:	ff 92       	push	r15
     72e:	0f 93       	push	r16
     730:	1f 93       	push	r17
     732:	cf 93       	push	r28
     734:	df 93       	push	r29
     736:	00 d0       	rcall	.+0      	; 0x738 <can_send_frame_buffer+0xe>
     738:	cd b7       	in	r28, 0x3d	; 61
     73a:	de b7       	in	r29, 0x3e	; 62
     73c:	7c 01       	movw	r14, r24
     73e:	06 2f       	mov	r16, r22
	uint8_t j = 0;
	for(j=0; j<buff_len; j++){
     740:	66 23       	and	r22, r22
     742:	79 f0       	breq	.+30     	; 0x762 <can_send_frame_buffer+0x38>
     744:	10 e0       	ldi	r17, 0x00	; 0
		can_id_t id = {j , 0x00};
     746:	19 83       	std	Y+1, r17	; 0x01
     748:	1a 82       	std	Y+2, r1	; 0x02
		can_send_message(j,id,message);
     74a:	a7 01       	movw	r20, r14
     74c:	be 01       	movw	r22, r28
     74e:	6f 5f       	subi	r22, 0xFF	; 255
     750:	7f 4f       	sbci	r23, 0xFF	; 255
     752:	81 2f       	mov	r24, r17
     754:	88 df       	rcall	.-240    	; 0x666 <can_send_message>
		message = message + 8;
     756:	88 e0       	ldi	r24, 0x08	; 8
     758:	e8 0e       	add	r14, r24
     75a:	f1 1c       	adc	r15, r1
	return 0;
}

int can_send_frame_buffer( uint8_t *message, uint8_t buff_len ){
	uint8_t j = 0;
	for(j=0; j<buff_len; j++){
     75c:	1f 5f       	subi	r17, 0xFF	; 255
     75e:	01 13       	cpse	r16, r17
     760:	f2 cf       	rjmp	.-28     	; 0x746 <can_send_frame_buffer+0x1c>
		can_id_t id = {j , 0x00};
		can_send_message(j,id,message);
		message = message + 8;
	}
	return 0;
}
     762:	80 e0       	ldi	r24, 0x00	; 0
     764:	90 e0       	ldi	r25, 0x00	; 0
     766:	0f 90       	pop	r0
     768:	0f 90       	pop	r0
     76a:	df 91       	pop	r29
     76c:	cf 91       	pop	r28
     76e:	1f 91       	pop	r17
     770:	0f 91       	pop	r16
     772:	ff 90       	pop	r15
     774:	ef 90       	pop	r14
     776:	08 95       	ret

00000778 <can_receive_frame_buffer>:

int can_receive_frame_buffer( uint8_t *message , uint8_t buff_len){
     778:	8f 92       	push	r8
     77a:	9f 92       	push	r9
     77c:	af 92       	push	r10
     77e:	bf 92       	push	r11
     780:	cf 92       	push	r12
     782:	df 92       	push	r13
     784:	ef 92       	push	r14
     786:	ff 92       	push	r15
     788:	0f 93       	push	r16
     78a:	1f 93       	push	r17
     78c:	cf 93       	push	r28
     78e:	df 93       	push	r29
     790:	00 d0       	rcall	.+0      	; 0x792 <can_receive_frame_buffer+0x1a>
     792:	00 d0       	rcall	.+0      	; 0x794 <can_receive_frame_buffer+0x1c>
     794:	cd b7       	in	r28, 0x3d	; 61
     796:	de b7       	in	r29, 0x3e	; 62
     798:	6c 01       	movw	r12, r24
     79a:	f6 2e       	mov	r15, r22
	//Enable buffer receive interrupt.
	CANGIE |= (1 << ENBX);
     79c:	eb ed       	ldi	r30, 0xDB	; 219
     79e:	f0 e0       	ldi	r31, 0x00	; 0
     7a0:	80 81       	ld	r24, Z
     7a2:	84 60       	ori	r24, 0x04	; 4
     7a4:	80 83       	st	Z, r24
	uint8_t j;
	for(j=0; j<buff_len; j++){
     7a6:	66 23       	and	r22, r22
     7a8:	e1 f0       	breq	.+56     	; 0x7e2 <can_receive_frame_buffer+0x6a>
     7aa:	10 e0       	ldi	r17, 0x00	; 0
		set_page(j);
		can_id_t id = { j , 0};
		can_init_id(id);
		// Mask = 255
		can_mask_t mask = { 255, 255 };
     7ac:	0f ef       	ldi	r16, 0xFF	; 255
		can_init_mask(mask);
		//set mob in buffer receive mode.
		CANCDMOB = (1 << CONMOB0) | (1 << CONMOB1) | (1 << DLC3);
     7ae:	0f 2e       	mov	r0, r31
     7b0:	ff ee       	ldi	r31, 0xEF	; 239
     7b2:	af 2e       	mov	r10, r31
     7b4:	b1 2c       	mov	r11, r1
     7b6:	f0 2d       	mov	r31, r0
     7b8:	0f 2e       	mov	r0, r31
     7ba:	f8 ec       	ldi	r31, 0xC8	; 200
     7bc:	ef 2e       	mov	r14, r31
     7be:	f0 2d       	mov	r31, r0
int can_receive_frame_buffer( uint8_t *message , uint8_t buff_len){
	//Enable buffer receive interrupt.
	CANGIE |= (1 << ENBX);
	uint8_t j;
	for(j=0; j<buff_len; j++){
		set_page(j);
     7c0:	81 2f       	mov	r24, r17
     7c2:	78 de       	rcall	.-784    	; 0x4b4 <set_page>
		can_id_t id = { j , 0};
     7c4:	1b 83       	std	Y+3, r17	; 0x03
     7c6:	1c 82       	std	Y+4, r1	; 0x04
		can_init_id(id);
     7c8:	ce 01       	movw	r24, r28
     7ca:	03 96       	adiw	r24, 0x03	; 3
     7cc:	01 df       	rcall	.-510    	; 0x5d0 <can_init_id>
		// Mask = 255
		can_mask_t mask = { 255, 255 };
     7ce:	09 83       	std	Y+1, r16	; 0x01
     7d0:	0a 83       	std	Y+2, r16	; 0x02
		can_init_mask(mask);
     7d2:	ce 01       	movw	r24, r28
     7d4:	01 96       	adiw	r24, 0x01	; 1
     7d6:	12 df       	rcall	.-476    	; 0x5fc <can_init_mask>
		//set mob in buffer receive mode.
		CANCDMOB = (1 << CONMOB0) | (1 << CONMOB1) | (1 << DLC3);
     7d8:	f5 01       	movw	r30, r10
     7da:	e0 82       	st	Z, r14

int can_receive_frame_buffer( uint8_t *message , uint8_t buff_len){
	//Enable buffer receive interrupt.
	CANGIE |= (1 << ENBX);
	uint8_t j;
	for(j=0; j<buff_len; j++){
     7dc:	1f 5f       	subi	r17, 0xFF	; 255
     7de:	f1 12       	cpse	r15, r17
     7e0:	ef cf       	rjmp	.-34     	; 0x7c0 <can_receive_frame_buffer+0x48>
		can_init_mask(mask);
		//set mob in buffer receive mode.
		CANCDMOB = (1 << CONMOB0) | (1 << CONMOB1) | (1 << DLC3);
	}
	//wait for interrupt.
	while((CANGIT & INTR_MASK) != (1 << CANIT));
     7e2:	ea ed       	ldi	r30, 0xDA	; 218
     7e4:	f0 e0       	ldi	r31, 0x00	; 0
     7e6:	80 81       	ld	r24, Z
     7e8:	88 23       	and	r24, r24
     7ea:	ec f7       	brge	.-6      	; 0x7e6 <can_receive_frame_buffer+0x6e>
	//Check if interrupt is the right one (BXOK).
	if((CANGIT & BXOK_MASK) != (1 << BXOK)) return 1;
     7ec:	80 91 da 00 	lds	r24, 0x00DA	; 0x8000da <__TEXT_REGION_LENGTH__+0x7e00da>
     7f0:	84 ff       	sbrs	r24, 4
     7f2:	20 c0       	rjmp	.+64     	; 0x834 <can_receive_frame_buffer+0xbc>
	//reset mob RXOK flags
	for(j=0; j<buff_len; j++){
     7f4:	ff 20       	and	r15, r15
     7f6:	a1 f0       	breq	.+40     	; 0x820 <can_receive_frame_buffer+0xa8>
     7f8:	10 e0       	ldi	r17, 0x00	; 0
		set_page(j);
		CANCDMOB = 0x00;
     7fa:	0f 2e       	mov	r0, r31
     7fc:	ff ee       	ldi	r31, 0xEF	; 239
     7fe:	8f 2e       	mov	r8, r31
     800:	91 2c       	mov	r9, r1
     802:	f0 2d       	mov	r31, r0
		CANSTMOB = 0x00;
     804:	0f 2e       	mov	r0, r31
     806:	fe ee       	ldi	r31, 0xEE	; 238
     808:	af 2e       	mov	r10, r31
     80a:	b1 2c       	mov	r11, r1
	while((CANGIT & INTR_MASK) != (1 << CANIT));
	//Check if interrupt is the right one (BXOK).
	if((CANGIT & BXOK_MASK) != (1 << BXOK)) return 1;
	//reset mob RXOK flags
	for(j=0; j<buff_len; j++){
		set_page(j);
     80c:	f0 2d       	mov	r31, r0
     80e:	81 2f       	mov	r24, r17
     810:	51 de       	rcall	.-862    	; 0x4b4 <set_page>
		CANCDMOB = 0x00;
     812:	f4 01       	movw	r30, r8
     814:	10 82       	st	Z, r1
		CANSTMOB = 0x00;
     816:	f5 01       	movw	r30, r10
     818:	10 82       	st	Z, r1
	//wait for interrupt.
	while((CANGIT & INTR_MASK) != (1 << CANIT));
	//Check if interrupt is the right one (BXOK).
	if((CANGIT & BXOK_MASK) != (1 << BXOK)) return 1;
	//reset mob RXOK flags
	for(j=0; j<buff_len; j++){
     81a:	1f 5f       	subi	r17, 0xFF	; 255
     81c:	f1 12       	cpse	r15, r17
     81e:	f7 cf       	rjmp	.-18     	; 0x80e <can_receive_frame_buffer+0x96>
		set_page(j);
		CANCDMOB = 0x00;
		CANSTMOB = 0x00;
	}
	//Reset interrupt register.
	CANGIT = CANGIT;
     820:	ea ed       	ldi	r30, 0xDA	; 218
     822:	f0 e0       	ldi	r31, 0x00	; 0
     824:	80 81       	ld	r24, Z
	//retrieve message.
	can_get_frame_buffer(message, buff_len);
     826:	80 83       	st	Z, r24
     828:	6f 2d       	mov	r22, r15
     82a:	c6 01       	movw	r24, r12
     82c:	a2 de       	rcall	.-700    	; 0x572 <can_get_frame_buffer>
	return 0;
     82e:	80 e0       	ldi	r24, 0x00	; 0
     830:	90 e0       	ldi	r25, 0x00	; 0
     832:	02 c0       	rjmp	.+4      	; 0x838 <can_receive_frame_buffer+0xc0>
		CANCDMOB = (1 << CONMOB0) | (1 << CONMOB1) | (1 << DLC3);
	}
	//wait for interrupt.
	while((CANGIT & INTR_MASK) != (1 << CANIT));
	//Check if interrupt is the right one (BXOK).
	if((CANGIT & BXOK_MASK) != (1 << BXOK)) return 1;
     834:	81 e0       	ldi	r24, 0x01	; 1
     836:	90 e0       	ldi	r25, 0x00	; 0
	//Reset interrupt register.
	CANGIT = CANGIT;
	//retrieve message.
	can_get_frame_buffer(message, buff_len);
	return 0;
}
     838:	0f 90       	pop	r0
     83a:	0f 90       	pop	r0
     83c:	0f 90       	pop	r0
     83e:	0f 90       	pop	r0
     840:	df 91       	pop	r29
     842:	cf 91       	pop	r28
     844:	1f 91       	pop	r17
     846:	0f 91       	pop	r16
     848:	ff 90       	pop	r15
     84a:	ef 90       	pop	r14
     84c:	df 90       	pop	r13
     84e:	cf 90       	pop	r12
     850:	bf 90       	pop	r11
     852:	af 90       	pop	r10
     854:	9f 90       	pop	r9
     856:	8f 90       	pop	r8
     858:	08 95       	ret

0000085a <uECC_vli_clear>:
        HMAC_finish(hash_context, K, K);

        update_V(hash_context, K, V);
    }
    return 0;
}
     85a:	dc 01       	movw	r26, r24
     85c:	e3 e5       	ldi	r30, 0x53	; 83
     85e:	f4 e0       	ldi	r31, 0x04	; 4
     860:	e6 1b       	sub	r30, r22
     862:	f1 09       	sbc	r31, r1
     864:	09 94       	ijmp
     866:	1d 92       	st	X+, r1
     868:	1d 92       	st	X+, r1
     86a:	1d 92       	st	X+, r1
     86c:	1d 92       	st	X+, r1
     86e:	1d 92       	st	X+, r1
     870:	1d 92       	st	X+, r1
     872:	1d 92       	st	X+, r1
     874:	1d 92       	st	X+, r1
     876:	1d 92       	st	X+, r1
     878:	1d 92       	st	X+, r1
     87a:	1d 92       	st	X+, r1
     87c:	1d 92       	st	X+, r1
     87e:	1d 92       	st	X+, r1
     880:	1d 92       	st	X+, r1
     882:	1d 92       	st	X+, r1
     884:	1d 92       	st	X+, r1
     886:	1d 92       	st	X+, r1
     888:	1d 92       	st	X+, r1
     88a:	1d 92       	st	X+, r1
     88c:	1d 92       	st	X+, r1
     88e:	1d 92       	st	X+, r1
     890:	1d 92       	st	X+, r1
     892:	1d 92       	st	X+, r1
     894:	1d 92       	st	X+, r1
     896:	1d 92       	st	X+, r1
     898:	1d 92       	st	X+, r1
     89a:	1d 92       	st	X+, r1
     89c:	1d 92       	st	X+, r1
     89e:	1d 92       	st	X+, r1
     8a0:	1d 92       	st	X+, r1
     8a2:	1d 92       	st	X+, r1
     8a4:	1d 92       	st	X+, r1
     8a6:	08 95       	ret

000008a8 <uECC_vli_set>:
     8a8:	cf 93       	push	r28
     8aa:	df 93       	push	r29
     8ac:	44 0f       	add	r20, r20
     8ae:	eb 01       	movw	r28, r22
     8b0:	dc 01       	movw	r26, r24
     8b2:	ee e9       	ldi	r30, 0x9E	; 158
     8b4:	f4 e0       	ldi	r31, 0x04	; 4
     8b6:	e4 1b       	sub	r30, r20
     8b8:	f1 09       	sbc	r31, r1
     8ba:	09 94       	ijmp
     8bc:	09 90       	ld	r0, Y+
     8be:	0d 92       	st	X+, r0
     8c0:	09 90       	ld	r0, Y+
     8c2:	0d 92       	st	X+, r0
     8c4:	09 90       	ld	r0, Y+
     8c6:	0d 92       	st	X+, r0
     8c8:	09 90       	ld	r0, Y+
     8ca:	0d 92       	st	X+, r0
     8cc:	09 90       	ld	r0, Y+
     8ce:	0d 92       	st	X+, r0
     8d0:	09 90       	ld	r0, Y+
     8d2:	0d 92       	st	X+, r0
     8d4:	09 90       	ld	r0, Y+
     8d6:	0d 92       	st	X+, r0
     8d8:	09 90       	ld	r0, Y+
     8da:	0d 92       	st	X+, r0
     8dc:	09 90       	ld	r0, Y+
     8de:	0d 92       	st	X+, r0
     8e0:	09 90       	ld	r0, Y+
     8e2:	0d 92       	st	X+, r0
     8e4:	09 90       	ld	r0, Y+
     8e6:	0d 92       	st	X+, r0
     8e8:	09 90       	ld	r0, Y+
     8ea:	0d 92       	st	X+, r0
     8ec:	09 90       	ld	r0, Y+
     8ee:	0d 92       	st	X+, r0
     8f0:	09 90       	ld	r0, Y+
     8f2:	0d 92       	st	X+, r0
     8f4:	09 90       	ld	r0, Y+
     8f6:	0d 92       	st	X+, r0
     8f8:	09 90       	ld	r0, Y+
     8fa:	0d 92       	st	X+, r0
     8fc:	09 90       	ld	r0, Y+
     8fe:	0d 92       	st	X+, r0
     900:	09 90       	ld	r0, Y+
     902:	0d 92       	st	X+, r0
     904:	09 90       	ld	r0, Y+
     906:	0d 92       	st	X+, r0
     908:	09 90       	ld	r0, Y+
     90a:	0d 92       	st	X+, r0
     90c:	09 90       	ld	r0, Y+
     90e:	0d 92       	st	X+, r0
     910:	09 90       	ld	r0, Y+
     912:	0d 92       	st	X+, r0
     914:	09 90       	ld	r0, Y+
     916:	0d 92       	st	X+, r0
     918:	09 90       	ld	r0, Y+
     91a:	0d 92       	st	X+, r0
     91c:	09 90       	ld	r0, Y+
     91e:	0d 92       	st	X+, r0
     920:	09 90       	ld	r0, Y+
     922:	0d 92       	st	X+, r0
     924:	09 90       	ld	r0, Y+
     926:	0d 92       	st	X+, r0
     928:	09 90       	ld	r0, Y+
     92a:	0d 92       	st	X+, r0
     92c:	09 90       	ld	r0, Y+
     92e:	0d 92       	st	X+, r0
     930:	09 90       	ld	r0, Y+
     932:	0d 92       	st	X+, r0
     934:	09 90       	ld	r0, Y+
     936:	0d 92       	st	X+, r0
     938:	09 90       	ld	r0, Y+
     93a:	0d 92       	st	X+, r0
     93c:	df 91       	pop	r29
     93e:	cf 91       	pop	r28
     940:	08 95       	ret

00000942 <uECC_vli_rshift1>:
     942:	26 2f       	mov	r18, r22
     944:	06 2e       	mov	r0, r22
     946:	00 0c       	add	r0, r0
     948:	33 0b       	sbc	r19, r19
     94a:	21 50       	subi	r18, 0x01	; 1
     94c:	31 09       	sbc	r19, r1
     94e:	32 2f       	mov	r19, r18
     950:	33 0f       	add	r19, r19
     952:	23 0f       	add	r18, r19
     954:	dc 01       	movw	r26, r24
     956:	e2 e1       	ldi	r30, 0x12	; 18
     958:	f5 e0       	ldi	r31, 0x05	; 5
     95a:	e2 1b       	sub	r30, r18
     95c:	f1 09       	sbc	r31, r1
     95e:	a6 0f       	add	r26, r22
     960:	b1 1d       	adc	r27, r1
     962:	0e 90       	ld	r0, -X
     964:	06 94       	lsr	r0
     966:	0c 92       	st	X, r0
     968:	09 94       	ijmp
     96a:	0e 90       	ld	r0, -X
     96c:	07 94       	ror	r0
     96e:	0c 92       	st	X, r0
     970:	0e 90       	ld	r0, -X
     972:	07 94       	ror	r0
     974:	0c 92       	st	X, r0
     976:	0e 90       	ld	r0, -X
     978:	07 94       	ror	r0
     97a:	0c 92       	st	X, r0
     97c:	0e 90       	ld	r0, -X
     97e:	07 94       	ror	r0
     980:	0c 92       	st	X, r0
     982:	0e 90       	ld	r0, -X
     984:	07 94       	ror	r0
     986:	0c 92       	st	X, r0
     988:	0e 90       	ld	r0, -X
     98a:	07 94       	ror	r0
     98c:	0c 92       	st	X, r0
     98e:	0e 90       	ld	r0, -X
     990:	07 94       	ror	r0
     992:	0c 92       	st	X, r0
     994:	0e 90       	ld	r0, -X
     996:	07 94       	ror	r0
     998:	0c 92       	st	X, r0
     99a:	0e 90       	ld	r0, -X
     99c:	07 94       	ror	r0
     99e:	0c 92       	st	X, r0
     9a0:	0e 90       	ld	r0, -X
     9a2:	07 94       	ror	r0
     9a4:	0c 92       	st	X, r0
     9a6:	0e 90       	ld	r0, -X
     9a8:	07 94       	ror	r0
     9aa:	0c 92       	st	X, r0
     9ac:	0e 90       	ld	r0, -X
     9ae:	07 94       	ror	r0
     9b0:	0c 92       	st	X, r0
     9b2:	0e 90       	ld	r0, -X
     9b4:	07 94       	ror	r0
     9b6:	0c 92       	st	X, r0
     9b8:	0e 90       	ld	r0, -X
     9ba:	07 94       	ror	r0
     9bc:	0c 92       	st	X, r0
     9be:	0e 90       	ld	r0, -X
     9c0:	07 94       	ror	r0
     9c2:	0c 92       	st	X, r0
     9c4:	0e 90       	ld	r0, -X
     9c6:	07 94       	ror	r0
     9c8:	0c 92       	st	X, r0
     9ca:	0e 90       	ld	r0, -X
     9cc:	07 94       	ror	r0
     9ce:	0c 92       	st	X, r0
     9d0:	0e 90       	ld	r0, -X
     9d2:	07 94       	ror	r0
     9d4:	0c 92       	st	X, r0
     9d6:	0e 90       	ld	r0, -X
     9d8:	07 94       	ror	r0
     9da:	0c 92       	st	X, r0
     9dc:	0e 90       	ld	r0, -X
     9de:	07 94       	ror	r0
     9e0:	0c 92       	st	X, r0
     9e2:	0e 90       	ld	r0, -X
     9e4:	07 94       	ror	r0
     9e6:	0c 92       	st	X, r0
     9e8:	0e 90       	ld	r0, -X
     9ea:	07 94       	ror	r0
     9ec:	0c 92       	st	X, r0
     9ee:	0e 90       	ld	r0, -X
     9f0:	07 94       	ror	r0
     9f2:	0c 92       	st	X, r0
     9f4:	0e 90       	ld	r0, -X
     9f6:	07 94       	ror	r0
     9f8:	0c 92       	st	X, r0
     9fa:	0e 90       	ld	r0, -X
     9fc:	07 94       	ror	r0
     9fe:	0c 92       	st	X, r0
     a00:	0e 90       	ld	r0, -X
     a02:	07 94       	ror	r0
     a04:	0c 92       	st	X, r0
     a06:	0e 90       	ld	r0, -X
     a08:	07 94       	ror	r0
     a0a:	0c 92       	st	X, r0
     a0c:	0e 90       	ld	r0, -X
     a0e:	07 94       	ror	r0
     a10:	0c 92       	st	X, r0
     a12:	0e 90       	ld	r0, -X
     a14:	07 94       	ror	r0
     a16:	0c 92       	st	X, r0
     a18:	0e 90       	ld	r0, -X
     a1a:	07 94       	ror	r0
     a1c:	0c 92       	st	X, r0
     a1e:	0e 90       	ld	r0, -X
     a20:	07 94       	ror	r0
     a22:	0c 92       	st	X, r0
     a24:	08 95       	ret

00000a26 <uECC_vli_add>:
     a26:	cf 93       	push	r28
     a28:	df 93       	push	r29
     a2a:	22 0f       	add	r18, r18
     a2c:	db 01       	movw	r26, r22
     a2e:	ea 01       	movw	r28, r20
     a30:	ac 01       	movw	r20, r24
     a32:	ef e5       	ldi	r30, 0x5F	; 95
     a34:	f5 e0       	ldi	r31, 0x05	; 5
     a36:	e2 1b       	sub	r30, r18
     a38:	f1 09       	sbc	r31, r1
     a3a:	88 94       	clc
     a3c:	09 94       	ijmp
     a3e:	fa 01       	movw	r30, r20
     a40:	3e c0       	rjmp	.+124    	; 0xabe <add_89_32>
     a42:	fa 01       	movw	r30, r20
     a44:	40 c0       	rjmp	.+128    	; 0xac6 <add_89_31>
     a46:	fa 01       	movw	r30, r20
     a48:	42 c0       	rjmp	.+132    	; 0xace <add_89_30>
     a4a:	fa 01       	movw	r30, r20
     a4c:	44 c0       	rjmp	.+136    	; 0xad6 <add_89_29>
     a4e:	fa 01       	movw	r30, r20
     a50:	46 c0       	rjmp	.+140    	; 0xade <add_89_28>
     a52:	fa 01       	movw	r30, r20
     a54:	48 c0       	rjmp	.+144    	; 0xae6 <add_89_27>
     a56:	fa 01       	movw	r30, r20
     a58:	4a c0       	rjmp	.+148    	; 0xaee <add_89_26>
     a5a:	fa 01       	movw	r30, r20
     a5c:	4c c0       	rjmp	.+152    	; 0xaf6 <add_89_25>
     a5e:	fa 01       	movw	r30, r20
     a60:	4e c0       	rjmp	.+156    	; 0xafe <add_89_24>
     a62:	fa 01       	movw	r30, r20
     a64:	50 c0       	rjmp	.+160    	; 0xb06 <add_89_23>
     a66:	fa 01       	movw	r30, r20
     a68:	52 c0       	rjmp	.+164    	; 0xb0e <add_89_22>
     a6a:	fa 01       	movw	r30, r20
     a6c:	54 c0       	rjmp	.+168    	; 0xb16 <add_89_21>
     a6e:	fa 01       	movw	r30, r20
     a70:	56 c0       	rjmp	.+172    	; 0xb1e <add_89_20>
     a72:	fa 01       	movw	r30, r20
     a74:	58 c0       	rjmp	.+176    	; 0xb26 <add_89_19>
     a76:	fa 01       	movw	r30, r20
     a78:	5a c0       	rjmp	.+180    	; 0xb2e <add_89_18>
     a7a:	fa 01       	movw	r30, r20
     a7c:	5c c0       	rjmp	.+184    	; 0xb36 <add_89_17>
     a7e:	fa 01       	movw	r30, r20
     a80:	5e c0       	rjmp	.+188    	; 0xb3e <add_89_16>
     a82:	fa 01       	movw	r30, r20
     a84:	60 c0       	rjmp	.+192    	; 0xb46 <add_89_15>
     a86:	fa 01       	movw	r30, r20
     a88:	62 c0       	rjmp	.+196    	; 0xb4e <add_89_14>
     a8a:	fa 01       	movw	r30, r20
     a8c:	64 c0       	rjmp	.+200    	; 0xb56 <add_89_13>
     a8e:	fa 01       	movw	r30, r20
     a90:	66 c0       	rjmp	.+204    	; 0xb5e <add_89_12>
     a92:	fa 01       	movw	r30, r20
     a94:	68 c0       	rjmp	.+208    	; 0xb66 <add_89_11>
     a96:	fa 01       	movw	r30, r20
     a98:	6a c0       	rjmp	.+212    	; 0xb6e <add_89_10>
     a9a:	fa 01       	movw	r30, r20
     a9c:	6c c0       	rjmp	.+216    	; 0xb76 <add_89_9>
     a9e:	fa 01       	movw	r30, r20
     aa0:	6e c0       	rjmp	.+220    	; 0xb7e <add_89_8>
     aa2:	fa 01       	movw	r30, r20
     aa4:	70 c0       	rjmp	.+224    	; 0xb86 <add_89_7>
     aa6:	fa 01       	movw	r30, r20
     aa8:	72 c0       	rjmp	.+228    	; 0xb8e <add_89_6>
     aaa:	fa 01       	movw	r30, r20
     aac:	74 c0       	rjmp	.+232    	; 0xb96 <add_89_5>
     aae:	fa 01       	movw	r30, r20
     ab0:	76 c0       	rjmp	.+236    	; 0xb9e <add_89_4>
     ab2:	fa 01       	movw	r30, r20
     ab4:	78 c0       	rjmp	.+240    	; 0xba6 <add_89_3>
     ab6:	fa 01       	movw	r30, r20
     ab8:	7a c0       	rjmp	.+244    	; 0xbae <add_89_2>
     aba:	fa 01       	movw	r30, r20
     abc:	7c c0       	rjmp	.+248    	; 0xbb6 <add_89_1>

00000abe <add_89_32>:
     abe:	8d 91       	ld	r24, X+
     ac0:	99 91       	ld	r25, Y+
     ac2:	89 1f       	adc	r24, r25
     ac4:	81 93       	st	Z+, r24

00000ac6 <add_89_31>:
     ac6:	8d 91       	ld	r24, X+
     ac8:	99 91       	ld	r25, Y+
     aca:	89 1f       	adc	r24, r25
     acc:	81 93       	st	Z+, r24

00000ace <add_89_30>:
     ace:	8d 91       	ld	r24, X+
     ad0:	99 91       	ld	r25, Y+
     ad2:	89 1f       	adc	r24, r25
     ad4:	81 93       	st	Z+, r24

00000ad6 <add_89_29>:
     ad6:	8d 91       	ld	r24, X+
     ad8:	99 91       	ld	r25, Y+
     ada:	89 1f       	adc	r24, r25
     adc:	81 93       	st	Z+, r24

00000ade <add_89_28>:
     ade:	8d 91       	ld	r24, X+
     ae0:	99 91       	ld	r25, Y+
     ae2:	89 1f       	adc	r24, r25
     ae4:	81 93       	st	Z+, r24

00000ae6 <add_89_27>:
     ae6:	8d 91       	ld	r24, X+
     ae8:	99 91       	ld	r25, Y+
     aea:	89 1f       	adc	r24, r25
     aec:	81 93       	st	Z+, r24

00000aee <add_89_26>:
     aee:	8d 91       	ld	r24, X+
     af0:	99 91       	ld	r25, Y+
     af2:	89 1f       	adc	r24, r25
     af4:	81 93       	st	Z+, r24

00000af6 <add_89_25>:
     af6:	8d 91       	ld	r24, X+
     af8:	99 91       	ld	r25, Y+
     afa:	89 1f       	adc	r24, r25
     afc:	81 93       	st	Z+, r24

00000afe <add_89_24>:
     afe:	8d 91       	ld	r24, X+
     b00:	99 91       	ld	r25, Y+
     b02:	89 1f       	adc	r24, r25
     b04:	81 93       	st	Z+, r24

00000b06 <add_89_23>:
     b06:	8d 91       	ld	r24, X+
     b08:	99 91       	ld	r25, Y+
     b0a:	89 1f       	adc	r24, r25
     b0c:	81 93       	st	Z+, r24

00000b0e <add_89_22>:
     b0e:	8d 91       	ld	r24, X+
     b10:	99 91       	ld	r25, Y+
     b12:	89 1f       	adc	r24, r25
     b14:	81 93       	st	Z+, r24

00000b16 <add_89_21>:
     b16:	8d 91       	ld	r24, X+
     b18:	99 91       	ld	r25, Y+
     b1a:	89 1f       	adc	r24, r25
     b1c:	81 93       	st	Z+, r24

00000b1e <add_89_20>:
     b1e:	8d 91       	ld	r24, X+
     b20:	99 91       	ld	r25, Y+
     b22:	89 1f       	adc	r24, r25
     b24:	81 93       	st	Z+, r24

00000b26 <add_89_19>:
     b26:	8d 91       	ld	r24, X+
     b28:	99 91       	ld	r25, Y+
     b2a:	89 1f       	adc	r24, r25
     b2c:	81 93       	st	Z+, r24

00000b2e <add_89_18>:
     b2e:	8d 91       	ld	r24, X+
     b30:	99 91       	ld	r25, Y+
     b32:	89 1f       	adc	r24, r25
     b34:	81 93       	st	Z+, r24

00000b36 <add_89_17>:
     b36:	8d 91       	ld	r24, X+
     b38:	99 91       	ld	r25, Y+
     b3a:	89 1f       	adc	r24, r25
     b3c:	81 93       	st	Z+, r24

00000b3e <add_89_16>:
     b3e:	8d 91       	ld	r24, X+
     b40:	99 91       	ld	r25, Y+
     b42:	89 1f       	adc	r24, r25
     b44:	81 93       	st	Z+, r24

00000b46 <add_89_15>:
     b46:	8d 91       	ld	r24, X+
     b48:	99 91       	ld	r25, Y+
     b4a:	89 1f       	adc	r24, r25
     b4c:	81 93       	st	Z+, r24

00000b4e <add_89_14>:
     b4e:	8d 91       	ld	r24, X+
     b50:	99 91       	ld	r25, Y+
     b52:	89 1f       	adc	r24, r25
     b54:	81 93       	st	Z+, r24

00000b56 <add_89_13>:
     b56:	8d 91       	ld	r24, X+
     b58:	99 91       	ld	r25, Y+
     b5a:	89 1f       	adc	r24, r25
     b5c:	81 93       	st	Z+, r24

00000b5e <add_89_12>:
     b5e:	8d 91       	ld	r24, X+
     b60:	99 91       	ld	r25, Y+
     b62:	89 1f       	adc	r24, r25
     b64:	81 93       	st	Z+, r24

00000b66 <add_89_11>:
     b66:	8d 91       	ld	r24, X+
     b68:	99 91       	ld	r25, Y+
     b6a:	89 1f       	adc	r24, r25
     b6c:	81 93       	st	Z+, r24

00000b6e <add_89_10>:
     b6e:	8d 91       	ld	r24, X+
     b70:	99 91       	ld	r25, Y+
     b72:	89 1f       	adc	r24, r25
     b74:	81 93       	st	Z+, r24

00000b76 <add_89_9>:
     b76:	8d 91       	ld	r24, X+
     b78:	99 91       	ld	r25, Y+
     b7a:	89 1f       	adc	r24, r25
     b7c:	81 93       	st	Z+, r24

00000b7e <add_89_8>:
     b7e:	8d 91       	ld	r24, X+
     b80:	99 91       	ld	r25, Y+
     b82:	89 1f       	adc	r24, r25
     b84:	81 93       	st	Z+, r24

00000b86 <add_89_7>:
     b86:	8d 91       	ld	r24, X+
     b88:	99 91       	ld	r25, Y+
     b8a:	89 1f       	adc	r24, r25
     b8c:	81 93       	st	Z+, r24

00000b8e <add_89_6>:
     b8e:	8d 91       	ld	r24, X+
     b90:	99 91       	ld	r25, Y+
     b92:	89 1f       	adc	r24, r25
     b94:	81 93       	st	Z+, r24

00000b96 <add_89_5>:
     b96:	8d 91       	ld	r24, X+
     b98:	99 91       	ld	r25, Y+
     b9a:	89 1f       	adc	r24, r25
     b9c:	81 93       	st	Z+, r24

00000b9e <add_89_4>:
     b9e:	8d 91       	ld	r24, X+
     ba0:	99 91       	ld	r25, Y+
     ba2:	89 1f       	adc	r24, r25
     ba4:	81 93       	st	Z+, r24

00000ba6 <add_89_3>:
     ba6:	8d 91       	ld	r24, X+
     ba8:	99 91       	ld	r25, Y+
     baa:	89 1f       	adc	r24, r25
     bac:	81 93       	st	Z+, r24

00000bae <add_89_2>:
     bae:	8d 91       	ld	r24, X+
     bb0:	99 91       	ld	r25, Y+
     bb2:	89 1f       	adc	r24, r25
     bb4:	81 93       	st	Z+, r24

00000bb6 <add_89_1>:
     bb6:	8d 91       	ld	r24, X+
     bb8:	99 91       	ld	r25, Y+
     bba:	89 1f       	adc	r24, r25
     bbc:	81 93       	st	Z+, r24
     bbe:	81 2d       	mov	r24, r1
     bc0:	88 1f       	adc	r24, r24
     bc2:	df 91       	pop	r29
     bc4:	cf 91       	pop	r28
     bc6:	08 95       	ret

00000bc8 <uECC_vli_sub>:
     bc8:	cf 93       	push	r28
     bca:	df 93       	push	r29
     bcc:	22 0f       	add	r18, r18
     bce:	db 01       	movw	r26, r22
     bd0:	ea 01       	movw	r28, r20
     bd2:	ac 01       	movw	r20, r24
     bd4:	e0 e3       	ldi	r30, 0x30	; 48
     bd6:	f6 e0       	ldi	r31, 0x06	; 6
     bd8:	e2 1b       	sub	r30, r18
     bda:	f1 09       	sbc	r31, r1
     bdc:	88 94       	clc
     bde:	09 94       	ijmp
     be0:	fa 01       	movw	r30, r20
     be2:	3e c0       	rjmp	.+124    	; 0xc60 <sub_129_32>
     be4:	fa 01       	movw	r30, r20
     be6:	40 c0       	rjmp	.+128    	; 0xc68 <sub_129_31>
     be8:	fa 01       	movw	r30, r20
     bea:	42 c0       	rjmp	.+132    	; 0xc70 <sub_129_30>
     bec:	fa 01       	movw	r30, r20
     bee:	44 c0       	rjmp	.+136    	; 0xc78 <sub_129_29>
     bf0:	fa 01       	movw	r30, r20
     bf2:	46 c0       	rjmp	.+140    	; 0xc80 <sub_129_28>
     bf4:	fa 01       	movw	r30, r20
     bf6:	48 c0       	rjmp	.+144    	; 0xc88 <sub_129_27>
     bf8:	fa 01       	movw	r30, r20
     bfa:	4a c0       	rjmp	.+148    	; 0xc90 <sub_129_26>
     bfc:	fa 01       	movw	r30, r20
     bfe:	4c c0       	rjmp	.+152    	; 0xc98 <sub_129_25>
     c00:	fa 01       	movw	r30, r20
     c02:	4e c0       	rjmp	.+156    	; 0xca0 <sub_129_24>
     c04:	fa 01       	movw	r30, r20
     c06:	50 c0       	rjmp	.+160    	; 0xca8 <sub_129_23>
     c08:	fa 01       	movw	r30, r20
     c0a:	52 c0       	rjmp	.+164    	; 0xcb0 <sub_129_22>
     c0c:	fa 01       	movw	r30, r20
     c0e:	54 c0       	rjmp	.+168    	; 0xcb8 <sub_129_21>
     c10:	fa 01       	movw	r30, r20
     c12:	56 c0       	rjmp	.+172    	; 0xcc0 <sub_129_20>
     c14:	fa 01       	movw	r30, r20
     c16:	58 c0       	rjmp	.+176    	; 0xcc8 <sub_129_19>
     c18:	fa 01       	movw	r30, r20
     c1a:	5a c0       	rjmp	.+180    	; 0xcd0 <sub_129_18>
     c1c:	fa 01       	movw	r30, r20
     c1e:	5c c0       	rjmp	.+184    	; 0xcd8 <sub_129_17>
     c20:	fa 01       	movw	r30, r20
     c22:	5e c0       	rjmp	.+188    	; 0xce0 <sub_129_16>
     c24:	fa 01       	movw	r30, r20
     c26:	60 c0       	rjmp	.+192    	; 0xce8 <sub_129_15>
     c28:	fa 01       	movw	r30, r20
     c2a:	62 c0       	rjmp	.+196    	; 0xcf0 <sub_129_14>
     c2c:	fa 01       	movw	r30, r20
     c2e:	64 c0       	rjmp	.+200    	; 0xcf8 <sub_129_13>
     c30:	fa 01       	movw	r30, r20
     c32:	66 c0       	rjmp	.+204    	; 0xd00 <sub_129_12>
     c34:	fa 01       	movw	r30, r20
     c36:	68 c0       	rjmp	.+208    	; 0xd08 <sub_129_11>
     c38:	fa 01       	movw	r30, r20
     c3a:	6a c0       	rjmp	.+212    	; 0xd10 <sub_129_10>
     c3c:	fa 01       	movw	r30, r20
     c3e:	6c c0       	rjmp	.+216    	; 0xd18 <sub_129_9>
     c40:	fa 01       	movw	r30, r20
     c42:	6e c0       	rjmp	.+220    	; 0xd20 <sub_129_8>
     c44:	fa 01       	movw	r30, r20
     c46:	70 c0       	rjmp	.+224    	; 0xd28 <sub_129_7>
     c48:	fa 01       	movw	r30, r20
     c4a:	72 c0       	rjmp	.+228    	; 0xd30 <sub_129_6>
     c4c:	fa 01       	movw	r30, r20
     c4e:	74 c0       	rjmp	.+232    	; 0xd38 <sub_129_5>
     c50:	fa 01       	movw	r30, r20
     c52:	76 c0       	rjmp	.+236    	; 0xd40 <sub_129_4>
     c54:	fa 01       	movw	r30, r20
     c56:	78 c0       	rjmp	.+240    	; 0xd48 <sub_129_3>
     c58:	fa 01       	movw	r30, r20
     c5a:	7a c0       	rjmp	.+244    	; 0xd50 <sub_129_2>
     c5c:	fa 01       	movw	r30, r20
     c5e:	7c c0       	rjmp	.+248    	; 0xd58 <sub_129_1>

00000c60 <sub_129_32>:
     c60:	8d 91       	ld	r24, X+
     c62:	99 91       	ld	r25, Y+
     c64:	89 0b       	sbc	r24, r25
     c66:	81 93       	st	Z+, r24

00000c68 <sub_129_31>:
     c68:	8d 91       	ld	r24, X+
     c6a:	99 91       	ld	r25, Y+
     c6c:	89 0b       	sbc	r24, r25
     c6e:	81 93       	st	Z+, r24

00000c70 <sub_129_30>:
     c70:	8d 91       	ld	r24, X+
     c72:	99 91       	ld	r25, Y+
     c74:	89 0b       	sbc	r24, r25
     c76:	81 93       	st	Z+, r24

00000c78 <sub_129_29>:
     c78:	8d 91       	ld	r24, X+
     c7a:	99 91       	ld	r25, Y+
     c7c:	89 0b       	sbc	r24, r25
     c7e:	81 93       	st	Z+, r24

00000c80 <sub_129_28>:
     c80:	8d 91       	ld	r24, X+
     c82:	99 91       	ld	r25, Y+
     c84:	89 0b       	sbc	r24, r25
     c86:	81 93       	st	Z+, r24

00000c88 <sub_129_27>:
     c88:	8d 91       	ld	r24, X+
     c8a:	99 91       	ld	r25, Y+
     c8c:	89 0b       	sbc	r24, r25
     c8e:	81 93       	st	Z+, r24

00000c90 <sub_129_26>:
     c90:	8d 91       	ld	r24, X+
     c92:	99 91       	ld	r25, Y+
     c94:	89 0b       	sbc	r24, r25
     c96:	81 93       	st	Z+, r24

00000c98 <sub_129_25>:
     c98:	8d 91       	ld	r24, X+
     c9a:	99 91       	ld	r25, Y+
     c9c:	89 0b       	sbc	r24, r25
     c9e:	81 93       	st	Z+, r24

00000ca0 <sub_129_24>:
     ca0:	8d 91       	ld	r24, X+
     ca2:	99 91       	ld	r25, Y+
     ca4:	89 0b       	sbc	r24, r25
     ca6:	81 93       	st	Z+, r24

00000ca8 <sub_129_23>:
     ca8:	8d 91       	ld	r24, X+
     caa:	99 91       	ld	r25, Y+
     cac:	89 0b       	sbc	r24, r25
     cae:	81 93       	st	Z+, r24

00000cb0 <sub_129_22>:
     cb0:	8d 91       	ld	r24, X+
     cb2:	99 91       	ld	r25, Y+
     cb4:	89 0b       	sbc	r24, r25
     cb6:	81 93       	st	Z+, r24

00000cb8 <sub_129_21>:
     cb8:	8d 91       	ld	r24, X+
     cba:	99 91       	ld	r25, Y+
     cbc:	89 0b       	sbc	r24, r25
     cbe:	81 93       	st	Z+, r24

00000cc0 <sub_129_20>:
     cc0:	8d 91       	ld	r24, X+
     cc2:	99 91       	ld	r25, Y+
     cc4:	89 0b       	sbc	r24, r25
     cc6:	81 93       	st	Z+, r24

00000cc8 <sub_129_19>:
     cc8:	8d 91       	ld	r24, X+
     cca:	99 91       	ld	r25, Y+
     ccc:	89 0b       	sbc	r24, r25
     cce:	81 93       	st	Z+, r24

00000cd0 <sub_129_18>:
     cd0:	8d 91       	ld	r24, X+
     cd2:	99 91       	ld	r25, Y+
     cd4:	89 0b       	sbc	r24, r25
     cd6:	81 93       	st	Z+, r24

00000cd8 <sub_129_17>:
     cd8:	8d 91       	ld	r24, X+
     cda:	99 91       	ld	r25, Y+
     cdc:	89 0b       	sbc	r24, r25
     cde:	81 93       	st	Z+, r24

00000ce0 <sub_129_16>:
     ce0:	8d 91       	ld	r24, X+
     ce2:	99 91       	ld	r25, Y+
     ce4:	89 0b       	sbc	r24, r25
     ce6:	81 93       	st	Z+, r24

00000ce8 <sub_129_15>:
     ce8:	8d 91       	ld	r24, X+
     cea:	99 91       	ld	r25, Y+
     cec:	89 0b       	sbc	r24, r25
     cee:	81 93       	st	Z+, r24

00000cf0 <sub_129_14>:
     cf0:	8d 91       	ld	r24, X+
     cf2:	99 91       	ld	r25, Y+
     cf4:	89 0b       	sbc	r24, r25
     cf6:	81 93       	st	Z+, r24

00000cf8 <sub_129_13>:
     cf8:	8d 91       	ld	r24, X+
     cfa:	99 91       	ld	r25, Y+
     cfc:	89 0b       	sbc	r24, r25
     cfe:	81 93       	st	Z+, r24

00000d00 <sub_129_12>:
     d00:	8d 91       	ld	r24, X+
     d02:	99 91       	ld	r25, Y+
     d04:	89 0b       	sbc	r24, r25
     d06:	81 93       	st	Z+, r24

00000d08 <sub_129_11>:
     d08:	8d 91       	ld	r24, X+
     d0a:	99 91       	ld	r25, Y+
     d0c:	89 0b       	sbc	r24, r25
     d0e:	81 93       	st	Z+, r24

00000d10 <sub_129_10>:
     d10:	8d 91       	ld	r24, X+
     d12:	99 91       	ld	r25, Y+
     d14:	89 0b       	sbc	r24, r25
     d16:	81 93       	st	Z+, r24

00000d18 <sub_129_9>:
     d18:	8d 91       	ld	r24, X+
     d1a:	99 91       	ld	r25, Y+
     d1c:	89 0b       	sbc	r24, r25
     d1e:	81 93       	st	Z+, r24

00000d20 <sub_129_8>:
     d20:	8d 91       	ld	r24, X+
     d22:	99 91       	ld	r25, Y+
     d24:	89 0b       	sbc	r24, r25
     d26:	81 93       	st	Z+, r24

00000d28 <sub_129_7>:
     d28:	8d 91       	ld	r24, X+
     d2a:	99 91       	ld	r25, Y+
     d2c:	89 0b       	sbc	r24, r25
     d2e:	81 93       	st	Z+, r24

00000d30 <sub_129_6>:
     d30:	8d 91       	ld	r24, X+
     d32:	99 91       	ld	r25, Y+
     d34:	89 0b       	sbc	r24, r25
     d36:	81 93       	st	Z+, r24

00000d38 <sub_129_5>:
     d38:	8d 91       	ld	r24, X+
     d3a:	99 91       	ld	r25, Y+
     d3c:	89 0b       	sbc	r24, r25
     d3e:	81 93       	st	Z+, r24

00000d40 <sub_129_4>:
     d40:	8d 91       	ld	r24, X+
     d42:	99 91       	ld	r25, Y+
     d44:	89 0b       	sbc	r24, r25
     d46:	81 93       	st	Z+, r24

00000d48 <sub_129_3>:
     d48:	8d 91       	ld	r24, X+
     d4a:	99 91       	ld	r25, Y+
     d4c:	89 0b       	sbc	r24, r25
     d4e:	81 93       	st	Z+, r24

00000d50 <sub_129_2>:
     d50:	8d 91       	ld	r24, X+
     d52:	99 91       	ld	r25, Y+
     d54:	89 0b       	sbc	r24, r25
     d56:	81 93       	st	Z+, r24

00000d58 <sub_129_1>:
     d58:	8d 91       	ld	r24, X+
     d5a:	99 91       	ld	r25, Y+
     d5c:	89 0b       	sbc	r24, r25
     d5e:	81 93       	st	Z+, r24
     d60:	81 2d       	mov	r24, r1
     d62:	88 1f       	adc	r24, r24
     d64:	df 91       	pop	r29
     d66:	cf 91       	pop	r28
     d68:	08 95       	ret

00000d6a <uECC_vli_mult>:
     d6a:	cf 93       	push	r28
     d6c:	df 93       	push	r29
     d6e:	fc 01       	movw	r30, r24
     d70:	db 01       	movw	r26, r22
     d72:	ea 01       	movw	r28, r20
     d74:	90 e0       	ldi	r25, 0x00	; 0
     d76:	89 2f       	mov	r24, r25
     d78:	39 2f       	mov	r19, r25
     d7a:	49 2f       	mov	r20, r25
     d7c:	51 e0       	ldi	r21, 0x01	; 1
     d7e:	60 e0       	ldi	r22, 0x00	; 0
     d80:	c5 0f       	add	r28, r21
     d82:	d4 1f       	adc	r29, r20
     d84:	0d 90       	ld	r0, X+
     d86:	1a 90       	ld	r1, -Y
     d88:	01 9c       	mul	r0, r1
     d8a:	90 0d       	add	r25, r0
     d8c:	81 1d       	adc	r24, r1
     d8e:	34 1f       	adc	r19, r20
     d90:	63 95       	inc	r22
     d92:	65 17       	cp	r22, r21
     d94:	b8 f3       	brcs	.-18     	; 0xd84 <uECC_vli_mult+0x1a>
     d96:	a5 1b       	sub	r26, r21
     d98:	b4 0b       	sbc	r27, r20
     d9a:	91 93       	st	Z+, r25
     d9c:	98 2f       	mov	r25, r24
     d9e:	83 2f       	mov	r24, r19
     da0:	34 2f       	mov	r19, r20
     da2:	53 95       	inc	r21
     da4:	52 17       	cp	r21, r18
     da6:	58 f3       	brcs	.-42     	; 0xd7e <uECC_vli_mult+0x14>
     da8:	52 2f       	mov	r21, r18
     daa:	c2 0f       	add	r28, r18
     dac:	d4 1f       	adc	r29, r20
     dae:	60 e0       	ldi	r22, 0x00	; 0
     db0:	0d 90       	ld	r0, X+
     db2:	1a 90       	ld	r1, -Y
     db4:	01 9c       	mul	r0, r1
     db6:	90 0d       	add	r25, r0
     db8:	81 1d       	adc	r24, r1
     dba:	34 1f       	adc	r19, r20
     dbc:	63 95       	inc	r22
     dbe:	65 17       	cp	r22, r21
     dc0:	b8 f3       	brcs	.-18     	; 0xdb0 <uECC_vli_mult+0x46>
     dc2:	c5 0f       	add	r28, r21
     dc4:	d4 1f       	adc	r29, r20
     dc6:	91 93       	st	Z+, r25
     dc8:	98 2f       	mov	r25, r24
     dca:	83 2f       	mov	r24, r19
     dcc:	34 2f       	mov	r19, r20
     dce:	5a 95       	dec	r21
     dd0:	a5 1b       	sub	r26, r21
     dd2:	b4 0b       	sbc	r27, r20
     dd4:	54 17       	cp	r21, r20
     dd6:	59 f7       	brne	.-42     	; 0xdae <uECC_vli_mult+0x44>
     dd8:	91 93       	st	Z+, r25
     dda:	11 24       	eor	r1, r1
     ddc:	df 91       	pop	r29
     dde:	cf 91       	pop	r28
     de0:	08 95       	ret

00000de2 <uECC_vli_isZero>:
     de2:	16 16       	cp	r1, r22
     de4:	7c f4       	brge	.+30     	; 0xe04 <uECC_vli_isZero+0x22>
     de6:	fc 01       	movw	r30, r24
     de8:	61 50       	subi	r22, 0x01	; 1
     dea:	46 2f       	mov	r20, r22
     dec:	50 e0       	ldi	r21, 0x00	; 0
     dee:	4f 5f       	subi	r20, 0xFF	; 255
     df0:	5f 4f       	sbci	r21, 0xFF	; 255
     df2:	48 0f       	add	r20, r24
     df4:	59 1f       	adc	r21, r25
     df6:	90 e0       	ldi	r25, 0x00	; 0
     df8:	21 91       	ld	r18, Z+
     dfa:	92 2b       	or	r25, r18
     dfc:	e4 17       	cp	r30, r20
     dfe:	f5 07       	cpc	r31, r21
     e00:	d9 f7       	brne	.-10     	; 0xdf8 <uECC_vli_isZero+0x16>
     e02:	01 c0       	rjmp	.+2      	; 0xe06 <uECC_vli_isZero+0x24>
     e04:	90 e0       	ldi	r25, 0x00	; 0
     e06:	81 e0       	ldi	r24, 0x01	; 1
     e08:	91 11       	cpse	r25, r1
     e0a:	80 e0       	ldi	r24, 0x00	; 0
     e0c:	08 95       	ret

00000e0e <uECC_vli_testBit>:
     e0e:	9b 01       	movw	r18, r22
     e10:	35 95       	asr	r19
     e12:	27 95       	ror	r18
     e14:	35 95       	asr	r19
     e16:	27 95       	ror	r18
     e18:	35 95       	asr	r19
     e1a:	27 95       	ror	r18
     e1c:	82 0f       	add	r24, r18
     e1e:	93 1f       	adc	r25, r19
     e20:	67 70       	andi	r22, 0x07	; 7
     e22:	77 27       	eor	r23, r23
     e24:	21 e0       	ldi	r18, 0x01	; 1
     e26:	30 e0       	ldi	r19, 0x00	; 0
     e28:	02 c0       	rjmp	.+4      	; 0xe2e <uECC_vli_testBit+0x20>
     e2a:	22 0f       	add	r18, r18
     e2c:	33 1f       	adc	r19, r19
     e2e:	6a 95       	dec	r22
     e30:	e2 f7       	brpl	.-8      	; 0xe2a <uECC_vli_testBit+0x1c>
     e32:	fc 01       	movw	r30, r24
     e34:	80 81       	ld	r24, Z
     e36:	82 23       	and	r24, r18
     e38:	08 95       	ret

00000e3a <uECC_vli_numBits>:
     e3a:	9c 01       	movw	r18, r24
     e3c:	61 50       	subi	r22, 0x01	; 1
     e3e:	92 f0       	brmi	.+36     	; 0xe64 <uECC_vli_numBits+0x2a>
     e40:	fc 01       	movw	r30, r24
     e42:	e6 0f       	add	r30, r22
     e44:	f1 1d       	adc	r31, r1
     e46:	67 fd       	sbrc	r22, 7
     e48:	fa 95       	dec	r31
     e4a:	80 81       	ld	r24, Z
     e4c:	81 11       	cpse	r24, r1
     e4e:	0a c0       	rjmp	.+20     	; 0xe64 <uECC_vli_numBits+0x2a>
     e50:	61 50       	subi	r22, 0x01	; 1
     e52:	42 f0       	brmi	.+16     	; 0xe64 <uECC_vli_numBits+0x2a>
     e54:	f9 01       	movw	r30, r18
     e56:	e6 0f       	add	r30, r22
     e58:	f1 1d       	adc	r31, r1
     e5a:	67 fd       	sbrc	r22, 7
     e5c:	fa 95       	dec	r31
     e5e:	90 81       	ld	r25, Z
     e60:	99 23       	and	r25, r25
     e62:	b1 f3       	breq	.-20     	; 0xe50 <uECC_vli_numBits+0x16>
     e64:	6f 5f       	subi	r22, 0xFF	; 255
     e66:	e9 f0       	breq	.+58     	; 0xea2 <uECC_vli_numBits+0x68>
     e68:	26 0f       	add	r18, r22
     e6a:	31 1d       	adc	r19, r1
     e6c:	67 fd       	sbrc	r22, 7
     e6e:	3a 95       	dec	r19
     e70:	f9 01       	movw	r30, r18
     e72:	31 97       	sbiw	r30, 0x01	; 1
     e74:	80 81       	ld	r24, Z
     e76:	88 23       	and	r24, r24
     e78:	31 f0       	breq	.+12     	; 0xe86 <uECC_vli_numBits+0x4c>
     e7a:	20 e0       	ldi	r18, 0x00	; 0
     e7c:	86 95       	lsr	r24
     e7e:	2f 5f       	subi	r18, 0xFF	; 255
     e80:	81 11       	cpse	r24, r1
     e82:	fc cf       	rjmp	.-8      	; 0xe7c <uECC_vli_numBits+0x42>
     e84:	01 c0       	rjmp	.+2      	; 0xe88 <uECC_vli_numBits+0x4e>
     e86:	20 e0       	ldi	r18, 0x00	; 0
     e88:	86 2f       	mov	r24, r22
     e8a:	66 0f       	add	r22, r22
     e8c:	99 0b       	sbc	r25, r25
     e8e:	01 97       	sbiw	r24, 0x01	; 1
     e90:	88 0f       	add	r24, r24
     e92:	99 1f       	adc	r25, r25
     e94:	88 0f       	add	r24, r24
     e96:	99 1f       	adc	r25, r25
     e98:	88 0f       	add	r24, r24
     e9a:	99 1f       	adc	r25, r25
     e9c:	82 0f       	add	r24, r18
     e9e:	91 1d       	adc	r25, r1
     ea0:	08 95       	ret
     ea2:	80 e0       	ldi	r24, 0x00	; 0
     ea4:	90 e0       	ldi	r25, 0x00	; 0
     ea6:	08 95       	ret

00000ea8 <uECC_vli_cmp_unsafe>:
     ea8:	dc 01       	movw	r26, r24
     eaa:	41 50       	subi	r20, 0x01	; 1
     eac:	2a f1       	brmi	.+74     	; 0xef8 <uECC_vli_cmp_unsafe+0x50>
     eae:	84 2f       	mov	r24, r20
     eb0:	04 2e       	mov	r0, r20
     eb2:	00 0c       	add	r0, r0
     eb4:	99 0b       	sbc	r25, r25
     eb6:	fd 01       	movw	r30, r26
     eb8:	e8 0f       	add	r30, r24
     eba:	f9 1f       	adc	r31, r25
     ebc:	20 81       	ld	r18, Z
     ebe:	fb 01       	movw	r30, r22
     ec0:	e8 0f       	add	r30, r24
     ec2:	f9 1f       	adc	r31, r25
     ec4:	80 81       	ld	r24, Z
     ec6:	82 17       	cp	r24, r18
     ec8:	c8 f0       	brcs	.+50     	; 0xefc <uECC_vli_cmp_unsafe+0x54>
     eca:	28 17       	cp	r18, r24
     ecc:	88 f4       	brcc	.+34     	; 0xef0 <uECC_vli_cmp_unsafe+0x48>
     ece:	18 c0       	rjmp	.+48     	; 0xf00 <uECC_vli_cmp_unsafe+0x58>
     ed0:	24 2f       	mov	r18, r20
     ed2:	04 2e       	mov	r0, r20
     ed4:	00 0c       	add	r0, r0
     ed6:	33 0b       	sbc	r19, r19
     ed8:	fd 01       	movw	r30, r26
     eda:	e2 0f       	add	r30, r18
     edc:	f3 1f       	adc	r31, r19
     ede:	50 81       	ld	r21, Z
     ee0:	fb 01       	movw	r30, r22
     ee2:	e2 0f       	add	r30, r18
     ee4:	f3 1f       	adc	r31, r19
     ee6:	90 81       	ld	r25, Z
     ee8:	95 17       	cp	r25, r21
     eea:	60 f0       	brcs	.+24     	; 0xf04 <uECC_vli_cmp_unsafe+0x5c>
     eec:	59 17       	cp	r21, r25
     eee:	60 f0       	brcs	.+24     	; 0xf08 <uECC_vli_cmp_unsafe+0x60>
     ef0:	41 50       	subi	r20, 0x01	; 1
     ef2:	72 f7       	brpl	.-36     	; 0xed0 <uECC_vli_cmp_unsafe+0x28>
     ef4:	80 e0       	ldi	r24, 0x00	; 0
     ef6:	08 95       	ret
     ef8:	80 e0       	ldi	r24, 0x00	; 0
     efa:	08 95       	ret
     efc:	81 e0       	ldi	r24, 0x01	; 1
     efe:	08 95       	ret
     f00:	8f ef       	ldi	r24, 0xFF	; 255
     f02:	08 95       	ret
     f04:	81 e0       	ldi	r24, 0x01	; 1
     f06:	08 95       	ret
     f08:	8f ef       	ldi	r24, 0xFF	; 255
     f0a:	08 95       	ret

00000f0c <uECC_vli_cmp>:
     f0c:	0f 93       	push	r16
     f0e:	1f 93       	push	r17
     f10:	cf 93       	push	r28
     f12:	df 93       	push	r29
     f14:	cd b7       	in	r28, 0x3d	; 61
     f16:	de b7       	in	r29, 0x3e	; 62
     f18:	a0 97       	sbiw	r28, 0x20	; 32
     f1a:	0f b6       	in	r0, 0x3f	; 63
     f1c:	f8 94       	cli
     f1e:	de bf       	out	0x3e, r29	; 62
     f20:	0f be       	out	0x3f, r0	; 63
     f22:	cd bf       	out	0x3d, r28	; 61
     f24:	14 2f       	mov	r17, r20
     f26:	24 2f       	mov	r18, r20
     f28:	ab 01       	movw	r20, r22
     f2a:	bc 01       	movw	r22, r24
     f2c:	ce 01       	movw	r24, r28
     f2e:	01 96       	adiw	r24, 0x01	; 1
     f30:	4b de       	rcall	.-874    	; 0xbc8 <uECC_vli_sub>
     f32:	08 2f       	mov	r16, r24
     f34:	61 2f       	mov	r22, r17
     f36:	ce 01       	movw	r24, r28
     f38:	01 96       	adiw	r24, 0x01	; 1
     f3a:	53 df       	rcall	.-346    	; 0xde2 <uECC_vli_isZero>
     f3c:	91 e0       	ldi	r25, 0x01	; 1
     f3e:	81 11       	cpse	r24, r1
     f40:	90 e0       	ldi	r25, 0x00	; 0
     f42:	81 e0       	ldi	r24, 0x01	; 1
     f44:	01 11       	cpse	r16, r1
     f46:	01 c0       	rjmp	.+2      	; 0xf4a <uECC_vli_cmp+0x3e>
     f48:	80 e0       	ldi	r24, 0x00	; 0
     f4a:	88 0f       	add	r24, r24
     f4c:	98 1b       	sub	r25, r24
     f4e:	89 2f       	mov	r24, r25
     f50:	a0 96       	adiw	r28, 0x20	; 32
     f52:	0f b6       	in	r0, 0x3f	; 63
     f54:	f8 94       	cli
     f56:	de bf       	out	0x3e, r29	; 62
     f58:	0f be       	out	0x3f, r0	; 63
     f5a:	cd bf       	out	0x3d, r28	; 61
     f5c:	df 91       	pop	r29
     f5e:	cf 91       	pop	r28
     f60:	1f 91       	pop	r17
     f62:	0f 91       	pop	r16
     f64:	08 95       	ret

00000f66 <uECC_vli_modAdd>:
     f66:	ef 92       	push	r14
     f68:	ff 92       	push	r15
     f6a:	0f 93       	push	r16
     f6c:	cf 93       	push	r28
     f6e:	df 93       	push	r29
     f70:	ec 01       	movw	r28, r24
     f72:	79 01       	movw	r14, r18
     f74:	20 2f       	mov	r18, r16
     f76:	57 dd       	rcall	.-1362   	; 0xa26 <uECC_vli_add>
     f78:	81 11       	cpse	r24, r1
     f7a:	06 c0       	rjmp	.+12     	; 0xf88 <uECC_vli_modAdd+0x22>
     f7c:	40 2f       	mov	r20, r16
     f7e:	be 01       	movw	r22, r28
     f80:	c7 01       	movw	r24, r14
     f82:	92 df       	rcall	.-220    	; 0xea8 <uECC_vli_cmp_unsafe>
     f84:	81 30       	cpi	r24, 0x01	; 1
     f86:	29 f0       	breq	.+10     	; 0xf92 <uECC_vli_modAdd+0x2c>
     f88:	20 2f       	mov	r18, r16
     f8a:	a7 01       	movw	r20, r14
     f8c:	be 01       	movw	r22, r28
     f8e:	ce 01       	movw	r24, r28
     f90:	1b de       	rcall	.-970    	; 0xbc8 <uECC_vli_sub>
     f92:	df 91       	pop	r29
     f94:	cf 91       	pop	r28
     f96:	0f 91       	pop	r16
     f98:	ff 90       	pop	r15
     f9a:	ef 90       	pop	r14
     f9c:	08 95       	ret

00000f9e <uECC_vli_modSub>:
     f9e:	ef 92       	push	r14
     fa0:	ff 92       	push	r15
     fa2:	0f 93       	push	r16
     fa4:	cf 93       	push	r28
     fa6:	df 93       	push	r29
     fa8:	ec 01       	movw	r28, r24
     faa:	79 01       	movw	r14, r18
     fac:	20 2f       	mov	r18, r16
     fae:	0c de       	rcall	.-1000   	; 0xbc8 <uECC_vli_sub>
     fb0:	88 23       	and	r24, r24
     fb2:	29 f0       	breq	.+10     	; 0xfbe <uECC_vli_modSub+0x20>
     fb4:	20 2f       	mov	r18, r16
     fb6:	a7 01       	movw	r20, r14
     fb8:	be 01       	movw	r22, r28
     fba:	ce 01       	movw	r24, r28
     fbc:	34 dd       	rcall	.-1432   	; 0xa26 <uECC_vli_add>
     fbe:	df 91       	pop	r29
     fc0:	cf 91       	pop	r28
     fc2:	0f 91       	pop	r16
     fc4:	ff 90       	pop	r15
     fc6:	ef 90       	pop	r14
     fc8:	08 95       	ret

00000fca <uECC_vli_modMult>:
     fca:	2f 92       	push	r2
     fcc:	3f 92       	push	r3
     fce:	4f 92       	push	r4
     fd0:	5f 92       	push	r5
     fd2:	6f 92       	push	r6
     fd4:	7f 92       	push	r7
     fd6:	8f 92       	push	r8
     fd8:	9f 92       	push	r9
     fda:	af 92       	push	r10
     fdc:	bf 92       	push	r11
     fde:	cf 92       	push	r12
     fe0:	df 92       	push	r13
     fe2:	ef 92       	push	r14
     fe4:	ff 92       	push	r15
     fe6:	0f 93       	push	r16
     fe8:	1f 93       	push	r17
     fea:	cf 93       	push	r28
     fec:	df 93       	push	r29
     fee:	cd b7       	in	r28, 0x3d	; 61
     ff0:	de b7       	in	r29, 0x3e	; 62
     ff2:	cc 5c       	subi	r28, 0xCC	; 204
     ff4:	d1 09       	sbc	r29, r1
     ff6:	0f b6       	in	r0, 0x3f	; 63
     ff8:	f8 94       	cli
     ffa:	de bf       	out	0x3e, r29	; 62
     ffc:	0f be       	out	0x3f, r0	; 63
     ffe:	cd bf       	out	0x3d, r28	; 61
    1000:	c7 53       	subi	r28, 0x37	; 55
    1002:	df 4f       	sbci	r29, 0xFF	; 255
    1004:	99 83       	std	Y+1, r25	; 0x01
    1006:	88 83       	st	Y, r24
    1008:	c9 5c       	subi	r28, 0xC9	; 201
    100a:	d0 40       	sbci	r29, 0x00	; 0
    100c:	c2 2e       	mov	r12, r18
    100e:	d3 2e       	mov	r13, r19
    1010:	a0 2e       	mov	r10, r16
    1012:	20 2f       	mov	r18, r16
    1014:	8e 01       	movw	r16, r28
    1016:	0f 5f       	subi	r16, 0xFF	; 255
    1018:	1f 4f       	sbci	r17, 0xFF	; 255
    101a:	c8 01       	movw	r24, r16
    101c:	a6 de       	rcall	.-692    	; 0xd6a <uECC_vli_mult>
    101e:	ce 01       	movw	r24, r28
    1020:	8f 5b       	subi	r24, 0xBF	; 191
    1022:	9f 4f       	sbci	r25, 0xFF	; 255
    1024:	cf 53       	subi	r28, 0x3F	; 63
    1026:	df 4f       	sbci	r29, 0xFF	; 255
    1028:	99 83       	std	Y+1, r25	; 0x01
    102a:	88 83       	st	Y, r24
    102c:	c1 5c       	subi	r28, 0xC1	; 193
    102e:	d0 40       	sbci	r29, 0x00	; 0
    1030:	cd 53       	subi	r28, 0x3D	; 61
    1032:	df 4f       	sbci	r29, 0xFF	; 255
    1034:	19 83       	std	Y+1, r17	; 0x01
    1036:	08 83       	st	Y, r16
    1038:	c3 5c       	subi	r28, 0xC3	; 195
    103a:	d0 40       	sbci	r29, 0x00	; 0
    103c:	8a 2c       	mov	r8, r10
    103e:	0a 2c       	mov	r0, r10
    1040:	00 0c       	add	r0, r0
    1042:	99 08       	sbc	r9, r9
    1044:	6a 2d       	mov	r22, r10
    1046:	8c 2d       	mov	r24, r12
    1048:	9d 2d       	mov	r25, r13
    104a:	f7 de       	rcall	.-530    	; 0xe3a <uECC_vli_numBits>
    104c:	34 01       	movw	r6, r8
    104e:	66 0c       	add	r6, r6
    1050:	77 1c       	adc	r7, r7
    1052:	66 0c       	add	r6, r6
    1054:	77 1c       	adc	r7, r7
    1056:	66 0c       	add	r6, r6
    1058:	77 1c       	adc	r7, r7
    105a:	66 0c       	add	r6, r6
    105c:	77 1c       	adc	r7, r7
    105e:	68 1a       	sub	r6, r24
    1060:	79 0a       	sbc	r7, r25
    1062:	73 01       	movw	r14, r6
    1064:	1a f4       	brpl	.+6      	; 0x106c <uECC_vli_modMult+0xa2>
    1066:	27 e0       	ldi	r18, 0x07	; 7
    1068:	e2 0e       	add	r14, r18
    106a:	f1 1c       	adc	r15, r1
    106c:	f5 94       	asr	r15
    106e:	e7 94       	ror	r14
    1070:	f5 94       	asr	r15
    1072:	e7 94       	ror	r14
    1074:	f5 94       	asr	r15
    1076:	e7 94       	ror	r14
    1078:	c3 01       	movw	r24, r6
    107a:	87 70       	andi	r24, 0x07	; 7
    107c:	90 78       	andi	r25, 0x80	; 128
    107e:	99 23       	and	r25, r25
    1080:	24 f4       	brge	.+8      	; 0x108a <uECC_vli_modMult+0xc0>
    1082:	01 97       	sbiw	r24, 0x01	; 1
    1084:	88 6f       	ori	r24, 0xF8	; 248
    1086:	9f 6f       	ori	r25, 0xFF	; 255
    1088:	01 96       	adiw	r24, 0x01	; 1
    108a:	18 2f       	mov	r17, r24
    108c:	6e 2d       	mov	r22, r14
    108e:	ce 01       	movw	r24, r28
    1090:	8f 57       	subi	r24, 0x7F	; 127
    1092:	9f 4f       	sbci	r25, 0xFF	; 255
    1094:	e2 db       	rcall	.-2108   	; 0x85a <uECC_vli_clear>
    1096:	11 16       	cp	r1, r17
    1098:	c4 f5       	brge	.+112    	; 0x110a <__stack+0xb>
    109a:	aa 20       	and	r10, r10
    109c:	09 f4       	brne	.+2      	; 0x10a0 <uECC_vli_modMult+0xd6>
    109e:	41 c0       	rjmp	.+130    	; 0x1122 <__stack+0x23>
    10a0:	ac 2d       	mov	r26, r12
    10a2:	bd 2d       	mov	r27, r13
    10a4:	0e 2c       	mov	r0, r14
    10a6:	00 0c       	add	r0, r0
    10a8:	ff 08       	sbc	r15, r15
    10aa:	e1 e8       	ldi	r30, 0x81	; 129
    10ac:	f0 e0       	ldi	r31, 0x00	; 0
    10ae:	ec 0f       	add	r30, r28
    10b0:	fd 1f       	adc	r31, r29
    10b2:	ee 0d       	add	r30, r14
    10b4:	ff 1d       	adc	r31, r15
    10b6:	8f ef       	ldi	r24, 0xFF	; 255
    10b8:	8a 0d       	add	r24, r10
    10ba:	90 e0       	ldi	r25, 0x00	; 0
    10bc:	01 96       	adiw	r24, 0x01	; 1
    10be:	e8 0e       	add	r14, r24
    10c0:	f9 1e       	adc	r15, r25
    10c2:	41 e8       	ldi	r20, 0x81	; 129
    10c4:	50 e0       	ldi	r21, 0x00	; 0
    10c6:	4c 0f       	add	r20, r28
    10c8:	5d 1f       	adc	r21, r29
    10ca:	4e 0d       	add	r20, r14
    10cc:	5f 1d       	adc	r21, r15
    10ce:	00 e0       	ldi	r16, 0x00	; 0
    10d0:	68 e0       	ldi	r22, 0x08	; 8
    10d2:	70 e0       	ldi	r23, 0x00	; 0
    10d4:	61 1b       	sub	r22, r17
    10d6:	71 09       	sbc	r23, r1
    10d8:	17 fd       	sbrc	r17, 7
    10da:	73 95       	inc	r23
    10dc:	9d 91       	ld	r25, X+
    10de:	89 2f       	mov	r24, r25
    10e0:	90 e0       	ldi	r25, 0x00	; 0
    10e2:	9c 01       	movw	r18, r24
    10e4:	01 2e       	mov	r0, r17
    10e6:	02 c0       	rjmp	.+4      	; 0x10ec <uECC_vli_modMult+0x122>
    10e8:	22 0f       	add	r18, r18
    10ea:	33 1f       	adc	r19, r19
    10ec:	0a 94       	dec	r0
    10ee:	e2 f7       	brpl	.-8      	; 0x10e8 <uECC_vli_modMult+0x11e>
    10f0:	20 2b       	or	r18, r16
    10f2:	21 93       	st	Z+, r18
    10f4:	06 2e       	mov	r0, r22
    10f6:	02 c0       	rjmp	.+4      	; 0x10fc <uECC_vli_modMult+0x132>
    10f8:	95 95       	asr	r25
    10fa:	87 95       	ror	r24
    10fc:	0a 94       	dec	r0
    10fe:	e2 f7       	brpl	.-8      	; 0x10f8 <uECC_vli_modMult+0x12e>
    1100:	08 2f       	mov	r16, r24
    1102:	e4 17       	cp	r30, r20
    1104:	f5 07       	cpc	r31, r21
    1106:	51 f7       	brne	.-44     	; 0x10dc <uECC_vli_modMult+0x112>
    1108:	0c c0       	rjmp	.+24     	; 0x1122 <__stack+0x23>
    110a:	4a 2d       	mov	r20, r10
    110c:	6c 2d       	mov	r22, r12
    110e:	7d 2d       	mov	r23, r13
    1110:	81 e8       	ldi	r24, 0x81	; 129
    1112:	90 e0       	ldi	r25, 0x00	; 0
    1114:	8c 0f       	add	r24, r28
    1116:	9d 1f       	adc	r25, r29
    1118:	8e 0d       	add	r24, r14
    111a:	91 1d       	adc	r25, r1
    111c:	e7 fc       	sbrc	r14, 7
    111e:	9a 95       	dec	r25
    1120:	c3 db       	rcall	.-2170   	; 0x8a8 <uECC_vli_set>
    1122:	77 20       	and	r7, r7
    1124:	0c f4       	brge	.+2      	; 0x1128 <__stack+0x29>
    1126:	a6 c0       	rjmp	.+332    	; 0x1274 <__stack+0x175>
    1128:	84 01       	movw	r16, r8
    112a:	00 0f       	add	r16, r16
    112c:	11 1f       	adc	r17, r17
    112e:	bb 24       	eor	r11, r11
    1130:	b3 94       	inc	r11
    1132:	44 24       	eor	r4, r4
    1134:	43 94       	inc	r4
    1136:	51 2c       	mov	r5, r1
    1138:	7e 01       	movw	r14, r28
    113a:	31 e8       	ldi	r19, 0x81	; 129
    113c:	e3 0e       	add	r14, r19
    113e:	f1 1c       	adc	r15, r1
    1140:	c9 53       	subi	r28, 0x39	; 57
    1142:	df 4f       	sbci	r29, 0xFF	; 255
    1144:	e8 82       	st	Y, r14
    1146:	c7 5c       	subi	r28, 0xC7	; 199
    1148:	d0 40       	sbci	r29, 0x00	; 0
    114a:	c8 53       	subi	r28, 0x38	; 56
    114c:	df 4f       	sbci	r29, 0xFF	; 255
    114e:	f8 82       	st	Y, r15
    1150:	c8 5c       	subi	r28, 0xC8	; 200
    1152:	d0 40       	sbci	r29, 0x00	; 0
    1154:	dd 24       	eor	r13, r13
    1156:	d3 94       	inc	r13
    1158:	c1 2c       	mov	r12, r1
    115a:	c4 01       	movw	r24, r8
    115c:	01 97       	sbiw	r24, 0x01	; 1
    115e:	17 01       	movw	r2, r14
    1160:	28 0e       	add	r2, r24
    1162:	39 1e       	adc	r3, r25
    1164:	8e 0c       	add	r8, r14
    1166:	9f 1c       	adc	r9, r15
    1168:	c7 01       	movw	r24, r14
    116a:	8a 0d       	add	r24, r10
    116c:	91 1d       	adc	r25, r1
    116e:	a7 fc       	sbrc	r10, 7
    1170:	9a 95       	dec	r25
    1172:	cb 53       	subi	r28, 0x3B	; 59
    1174:	df 4f       	sbci	r29, 0xFF	; 255
    1176:	99 83       	std	Y+1, r25	; 0x01
    1178:	88 83       	st	Y, r24
    117a:	c5 5c       	subi	r28, 0xC5	; 197
    117c:	d0 40       	sbci	r29, 0x00	; 0
    117e:	57 c0       	rjmp	.+174    	; 0x122e <__stack+0x12f>
    1180:	e6 2f       	mov	r30, r22
    1182:	06 2e       	mov	r0, r22
    1184:	00 0c       	add	r0, r0
    1186:	ff 0b       	sbc	r31, r31
    1188:	da 01       	movw	r26, r20
    118a:	ae 0f       	add	r26, r30
    118c:	bf 1f       	adc	r27, r31
    118e:	bc 90       	ld	r11, X
    1190:	c5 53       	subi	r28, 0x35	; 53
    1192:	df 4f       	sbci	r29, 0xFF	; 255
    1194:	b8 82       	st	Y, r11
    1196:	cb 5c       	subi	r28, 0xCB	; 203
    1198:	d0 40       	sbci	r29, 0x00	; 0
    119a:	8e 0d       	add	r24, r14
    119c:	9f 1d       	adc	r25, r15
    119e:	dc 01       	movw	r26, r24
    11a0:	8c 91       	ld	r24, X
    11a2:	b8 1a       	sub	r11, r24
    11a4:	8b 2d       	mov	r24, r11
    11a6:	87 1b       	sub	r24, r23
    11a8:	c5 53       	subi	r28, 0x35	; 53
    11aa:	df 4f       	sbci	r29, 0xFF	; 255
    11ac:	b8 81       	ld	r27, Y
    11ae:	cb 5c       	subi	r28, 0xCB	; 203
    11b0:	d0 40       	sbci	r29, 0x00	; 0
    11b2:	b8 17       	cp	r27, r24
    11b4:	21 f0       	breq	.+8      	; 0x11be <__stack+0xbf>
    11b6:	7d 2d       	mov	r23, r13
    11b8:	b8 17       	cp	r27, r24
    11ba:	08 f0       	brcs	.+2      	; 0x11be <__stack+0xbf>
    11bc:	7c 2d       	mov	r23, r12
    11be:	e2 0f       	add	r30, r18
    11c0:	f3 1f       	adc	r31, r19
    11c2:	80 83       	st	Z, r24
    11c4:	6f 5f       	subi	r22, 0xFF	; 255
    11c6:	86 2f       	mov	r24, r22
    11c8:	06 2e       	mov	r0, r22
    11ca:	00 0c       	add	r0, r0
    11cc:	99 0b       	sbc	r25, r25
    11ce:	80 17       	cp	r24, r16
    11d0:	91 07       	cpc	r25, r17
    11d2:	b4 f2       	brlt	.-84     	; 0x1180 <__stack+0x81>
    11d4:	c4 53       	subi	r28, 0x34	; 52
    11d6:	df 4f       	sbci	r29, 0xFF	; 255
    11d8:	b8 80       	ld	r11, Y
    11da:	cc 5c       	subi	r28, 0xCC	; 204
    11dc:	d0 40       	sbci	r29, 0x00	; 0
    11de:	01 c0       	rjmp	.+2      	; 0x11e2 <__stack+0xe3>
    11e0:	70 e0       	ldi	r23, 0x00	; 0
    11e2:	81 e0       	ldi	r24, 0x01	; 1
    11e4:	b7 12       	cpse	r11, r23
    11e6:	80 e0       	ldi	r24, 0x00	; 0
    11e8:	b8 2e       	mov	r11, r24
    11ea:	6a 2d       	mov	r22, r10
    11ec:	c9 53       	subi	r28, 0x39	; 57
    11ee:	df 4f       	sbci	r29, 0xFF	; 255
    11f0:	88 81       	ld	r24, Y
    11f2:	c7 5c       	subi	r28, 0xC7	; 199
    11f4:	d0 40       	sbci	r29, 0x00	; 0
    11f6:	c8 53       	subi	r28, 0x38	; 56
    11f8:	df 4f       	sbci	r29, 0xFF	; 255
    11fa:	98 81       	ld	r25, Y
    11fc:	c8 5c       	subi	r28, 0xC8	; 200
    11fe:	d0 40       	sbci	r29, 0x00	; 0
    1200:	a0 db       	rcall	.-2240   	; 0x942 <uECC_vli_rshift1>
    1202:	f4 01       	movw	r30, r8
    1204:	80 81       	ld	r24, Z
    1206:	f0 e8       	ldi	r31, 0x80	; 128
    1208:	8f 9f       	mul	r24, r31
    120a:	c0 01       	movw	r24, r0
    120c:	11 24       	eor	r1, r1
    120e:	d1 01       	movw	r26, r2
    1210:	9c 91       	ld	r25, X
    1212:	89 2b       	or	r24, r25
    1214:	8c 93       	st	X, r24
    1216:	6a 2d       	mov	r22, r10
    1218:	cb 53       	subi	r28, 0x3B	; 59
    121a:	df 4f       	sbci	r29, 0xFF	; 255
    121c:	88 81       	ld	r24, Y
    121e:	99 81       	ldd	r25, Y+1	; 0x01
    1220:	c5 5c       	subi	r28, 0xC5	; 197
    1222:	d0 40       	sbci	r29, 0x00	; 0
    1224:	8e db       	rcall	.-2276   	; 0x942 <uECC_vli_rshift1>
    1226:	b1 e0       	ldi	r27, 0x01	; 1
    1228:	6b 1a       	sub	r6, r27
    122a:	71 08       	sbc	r7, r1
    122c:	28 f1       	brcs	.+74     	; 0x1278 <__stack+0x179>
    122e:	10 16       	cp	r1, r16
    1230:	11 06       	cpc	r1, r17
    1232:	b4 f6       	brge	.-84     	; 0x11e0 <__stack+0xe1>
    1234:	8b 2d       	mov	r24, r11
    1236:	90 e0       	ldi	r25, 0x00	; 0
    1238:	fc 01       	movw	r30, r24
    123a:	ee 0f       	add	r30, r30
    123c:	ff 1f       	adc	r31, r31
    123e:	21 ec       	ldi	r18, 0xC1	; 193
    1240:	30 e0       	ldi	r19, 0x00	; 0
    1242:	2c 0f       	add	r18, r28
    1244:	3d 1f       	adc	r19, r29
    1246:	e2 0f       	add	r30, r18
    1248:	f3 1f       	adc	r31, r19
    124a:	40 81       	ld	r20, Z
    124c:	51 81       	ldd	r21, Z+1	; 0x01
    124e:	f2 01       	movw	r30, r4
    1250:	e8 1b       	sub	r30, r24
    1252:	f9 0b       	sbc	r31, r25
    1254:	ee 0f       	add	r30, r30
    1256:	ff 1f       	adc	r31, r31
    1258:	e2 0f       	add	r30, r18
    125a:	f3 1f       	adc	r31, r19
    125c:	20 81       	ld	r18, Z
    125e:	31 81       	ldd	r19, Z+1	; 0x01
    1260:	70 e0       	ldi	r23, 0x00	; 0
    1262:	80 e0       	ldi	r24, 0x00	; 0
    1264:	90 e0       	ldi	r25, 0x00	; 0
    1266:	60 e0       	ldi	r22, 0x00	; 0
    1268:	c4 53       	subi	r28, 0x34	; 52
    126a:	df 4f       	sbci	r29, 0xFF	; 255
    126c:	b8 82       	st	Y, r11
    126e:	cc 5c       	subi	r28, 0xCC	; 204
    1270:	d0 40       	sbci	r29, 0x00	; 0
    1272:	86 cf       	rjmp	.-244    	; 0x1180 <__stack+0x81>
    1274:	bb 24       	eor	r11, r11
    1276:	b3 94       	inc	r11
    1278:	eb 2d       	mov	r30, r11
    127a:	f0 e0       	ldi	r31, 0x00	; 0
    127c:	ee 0f       	add	r30, r30
    127e:	ff 1f       	adc	r31, r31
    1280:	81 ec       	ldi	r24, 0xC1	; 193
    1282:	90 e0       	ldi	r25, 0x00	; 0
    1284:	8c 0f       	add	r24, r28
    1286:	9d 1f       	adc	r25, r29
    1288:	e8 0f       	add	r30, r24
    128a:	f9 1f       	adc	r31, r25
    128c:	60 81       	ld	r22, Z
    128e:	71 81       	ldd	r23, Z+1	; 0x01
    1290:	4a 2d       	mov	r20, r10
    1292:	c7 53       	subi	r28, 0x37	; 55
    1294:	df 4f       	sbci	r29, 0xFF	; 255
    1296:	88 81       	ld	r24, Y
    1298:	99 81       	ldd	r25, Y+1	; 0x01
    129a:	c9 5c       	subi	r28, 0xC9	; 201
    129c:	d0 40       	sbci	r29, 0x00	; 0
    129e:	04 db       	rcall	.-2552   	; 0x8a8 <uECC_vli_set>
    12a0:	c4 53       	subi	r28, 0x34	; 52
    12a2:	df 4f       	sbci	r29, 0xFF	; 255
    12a4:	0f b6       	in	r0, 0x3f	; 63
    12a6:	f8 94       	cli
    12a8:	de bf       	out	0x3e, r29	; 62
    12aa:	0f be       	out	0x3f, r0	; 63
    12ac:	cd bf       	out	0x3d, r28	; 61
    12ae:	df 91       	pop	r29
    12b0:	cf 91       	pop	r28
    12b2:	1f 91       	pop	r17
    12b4:	0f 91       	pop	r16
    12b6:	ff 90       	pop	r15
    12b8:	ef 90       	pop	r14
    12ba:	df 90       	pop	r13
    12bc:	cf 90       	pop	r12
    12be:	bf 90       	pop	r11
    12c0:	af 90       	pop	r10
    12c2:	9f 90       	pop	r9
    12c4:	8f 90       	pop	r8
    12c6:	7f 90       	pop	r7
    12c8:	6f 90       	pop	r6
    12ca:	5f 90       	pop	r5
    12cc:	4f 90       	pop	r4
    12ce:	3f 90       	pop	r3
    12d0:	2f 90       	pop	r2
    12d2:	08 95       	ret

000012d4 <uECC_vli_modMult_fast>:
    12d4:	ef 92       	push	r14
    12d6:	ff 92       	push	r15
    12d8:	0f 93       	push	r16
    12da:	1f 93       	push	r17
    12dc:	cf 93       	push	r28
    12de:	df 93       	push	r29
    12e0:	cd b7       	in	r28, 0x3d	; 61
    12e2:	de b7       	in	r29, 0x3e	; 62
    12e4:	c0 54       	subi	r28, 0x40	; 64
    12e6:	d1 09       	sbc	r29, r1
    12e8:	0f b6       	in	r0, 0x3f	; 63
    12ea:	f8 94       	cli
    12ec:	de bf       	out	0x3e, r29	; 62
    12ee:	0f be       	out	0x3f, r0	; 63
    12f0:	cd bf       	out	0x3d, r28	; 61
    12f2:	7c 01       	movw	r14, r24
    12f4:	89 01       	movw	r16, r18
    12f6:	f9 01       	movw	r30, r18
    12f8:	20 81       	ld	r18, Z
    12fa:	ce 01       	movw	r24, r28
    12fc:	01 96       	adiw	r24, 0x01	; 1
    12fe:	35 dd       	rcall	.-1430   	; 0xd6a <uECC_vli_mult>
    1300:	f8 01       	movw	r30, r16
    1302:	e6 55       	subi	r30, 0x56	; 86
    1304:	ff 4f       	sbci	r31, 0xFF	; 255
    1306:	01 90       	ld	r0, Z+
    1308:	f0 81       	ld	r31, Z
    130a:	e0 2d       	mov	r30, r0
    130c:	be 01       	movw	r22, r28
    130e:	6f 5f       	subi	r22, 0xFF	; 255
    1310:	7f 4f       	sbci	r23, 0xFF	; 255
    1312:	c7 01       	movw	r24, r14
    1314:	09 95       	icall
    1316:	c0 5c       	subi	r28, 0xC0	; 192
    1318:	df 4f       	sbci	r29, 0xFF	; 255
    131a:	0f b6       	in	r0, 0x3f	; 63
    131c:	f8 94       	cli
    131e:	de bf       	out	0x3e, r29	; 62
    1320:	0f be       	out	0x3f, r0	; 63
    1322:	cd bf       	out	0x3d, r28	; 61
    1324:	df 91       	pop	r29
    1326:	cf 91       	pop	r28
    1328:	1f 91       	pop	r17
    132a:	0f 91       	pop	r16
    132c:	ff 90       	pop	r15
    132e:	ef 90       	pop	r14
    1330:	08 95       	ret

00001332 <uECC_vli_modSquare_fast>:
    1332:	9a 01       	movw	r18, r20
    1334:	ab 01       	movw	r20, r22
    1336:	ce cf       	rjmp	.-100    	; 0x12d4 <uECC_vli_modMult_fast>
    1338:	08 95       	ret

0000133a <vli_modInv_update>:
    133a:	0f 93       	push	r16
    133c:	1f 93       	push	r17
    133e:	cf 93       	push	r28
    1340:	df 93       	push	r29
    1342:	8c 01       	movw	r16, r24
    1344:	c4 2f       	mov	r28, r20
    1346:	fc 01       	movw	r30, r24
    1348:	80 81       	ld	r24, Z
    134a:	80 ff       	sbrs	r24, 0
    134c:	15 c0       	rjmp	.+42     	; 0x1378 <vli_modInv_update+0x3e>
    134e:	24 2f       	mov	r18, r20
    1350:	ab 01       	movw	r20, r22
    1352:	b8 01       	movw	r22, r16
    1354:	c8 01       	movw	r24, r16
    1356:	67 db       	rcall	.-2354   	; 0xa26 <uECC_vli_add>
    1358:	d8 2f       	mov	r29, r24
    135a:	6c 2f       	mov	r22, r28
    135c:	c8 01       	movw	r24, r16
    135e:	f1 da       	rcall	.-2590   	; 0x942 <uECC_vli_rshift1>
    1360:	dd 23       	and	r29, r29
    1362:	69 f0       	breq	.+26     	; 0x137e <vli_modInv_update+0x44>
    1364:	ec 2f       	mov	r30, r28
    1366:	cc 0f       	add	r28, r28
    1368:	ff 0b       	sbc	r31, r31
    136a:	31 97       	sbiw	r30, 0x01	; 1
    136c:	e0 0f       	add	r30, r16
    136e:	f1 1f       	adc	r31, r17
    1370:	80 81       	ld	r24, Z
    1372:	80 68       	ori	r24, 0x80	; 128
    1374:	80 83       	st	Z, r24
    1376:	03 c0       	rjmp	.+6      	; 0x137e <vli_modInv_update+0x44>
    1378:	64 2f       	mov	r22, r20
    137a:	c8 01       	movw	r24, r16
    137c:	e2 da       	rcall	.-2620   	; 0x942 <uECC_vli_rshift1>
    137e:	df 91       	pop	r29
    1380:	cf 91       	pop	r28
    1382:	1f 91       	pop	r17
    1384:	0f 91       	pop	r16
    1386:	08 95       	ret

00001388 <uECC_vli_modInv>:
    1388:	af 92       	push	r10
    138a:	bf 92       	push	r11
    138c:	cf 92       	push	r12
    138e:	df 92       	push	r13
    1390:	ef 92       	push	r14
    1392:	ff 92       	push	r15
    1394:	1f 93       	push	r17
    1396:	cf 93       	push	r28
    1398:	df 93       	push	r29
    139a:	cd b7       	in	r28, 0x3d	; 61
    139c:	de b7       	in	r29, 0x3e	; 62
    139e:	c0 58       	subi	r28, 0x80	; 128
    13a0:	d1 09       	sbc	r29, r1
    13a2:	0f b6       	in	r0, 0x3f	; 63
    13a4:	f8 94       	cli
    13a6:	de bf       	out	0x3e, r29	; 62
    13a8:	0f be       	out	0x3f, r0	; 63
    13aa:	cd bf       	out	0x3d, r28	; 61
    13ac:	5c 01       	movw	r10, r24
    13ae:	6b 01       	movw	r12, r22
    13b0:	7a 01       	movw	r14, r20
    13b2:	12 2f       	mov	r17, r18
    13b4:	62 2f       	mov	r22, r18
    13b6:	c6 01       	movw	r24, r12
    13b8:	14 dd       	rcall	.-1496   	; 0xde2 <uECC_vli_isZero>
    13ba:	88 23       	and	r24, r24
    13bc:	21 f0       	breq	.+8      	; 0x13c6 <uECC_vli_modInv+0x3e>
    13be:	61 2f       	mov	r22, r17
    13c0:	c5 01       	movw	r24, r10
    13c2:	4b da       	rcall	.-2922   	; 0x85a <uECC_vli_clear>
    13c4:	a1 c0       	rjmp	.+322    	; 0x1508 <uECC_vli_modInv+0x180>
    13c6:	41 2f       	mov	r20, r17
    13c8:	b6 01       	movw	r22, r12
    13ca:	ce 01       	movw	r24, r28
    13cc:	01 96       	adiw	r24, 0x01	; 1
    13ce:	6c da       	rcall	.-2856   	; 0x8a8 <uECC_vli_set>
    13d0:	41 2f       	mov	r20, r17
    13d2:	b7 01       	movw	r22, r14
    13d4:	ce 01       	movw	r24, r28
    13d6:	81 96       	adiw	r24, 0x21	; 33
    13d8:	67 da       	rcall	.-2866   	; 0x8a8 <uECC_vli_set>
    13da:	61 2f       	mov	r22, r17
    13dc:	ce 01       	movw	r24, r28
    13de:	8f 5b       	subi	r24, 0xBF	; 191
    13e0:	9f 4f       	sbci	r25, 0xFF	; 255
    13e2:	3b da       	rcall	.-2954   	; 0x85a <uECC_vli_clear>
    13e4:	81 e0       	ldi	r24, 0x01	; 1
    13e6:	22 96       	adiw	r28, 0x02	; 2
    13e8:	8f af       	std	Y+63, r24	; 0x3f
    13ea:	22 97       	sbiw	r28, 0x02	; 2
    13ec:	61 2f       	mov	r22, r17
    13ee:	ce 01       	movw	r24, r28
    13f0:	8f 59       	subi	r24, 0x9F	; 159
    13f2:	9f 4f       	sbci	r25, 0xFF	; 255
    13f4:	32 da       	rcall	.-2972   	; 0x85a <uECC_vli_clear>
    13f6:	79 c0       	rjmp	.+242    	; 0x14ea <uECC_vli_modInv+0x162>
    13f8:	99 81       	ldd	r25, Y+1	; 0x01
    13fa:	90 fd       	sbrc	r25, 0
    13fc:	0b c0       	rjmp	.+22     	; 0x1414 <uECC_vli_modInv+0x8c>
    13fe:	61 2f       	mov	r22, r17
    1400:	ce 01       	movw	r24, r28
    1402:	01 96       	adiw	r24, 0x01	; 1
    1404:	9e da       	rcall	.-2756   	; 0x942 <uECC_vli_rshift1>
    1406:	41 2f       	mov	r20, r17
    1408:	b7 01       	movw	r22, r14
    140a:	ce 01       	movw	r24, r28
    140c:	8f 5b       	subi	r24, 0xBF	; 191
    140e:	9f 4f       	sbci	r25, 0xFF	; 255
    1410:	94 df       	rcall	.-216    	; 0x133a <vli_modInv_update>
    1412:	6b c0       	rjmp	.+214    	; 0x14ea <uECC_vli_modInv+0x162>
    1414:	99 a1       	ldd	r25, Y+33	; 0x21
    1416:	90 fd       	sbrc	r25, 0
    1418:	0b c0       	rjmp	.+22     	; 0x1430 <uECC_vli_modInv+0xa8>
    141a:	61 2f       	mov	r22, r17
    141c:	ce 01       	movw	r24, r28
    141e:	81 96       	adiw	r24, 0x21	; 33
    1420:	90 da       	rcall	.-2784   	; 0x942 <uECC_vli_rshift1>
    1422:	41 2f       	mov	r20, r17
    1424:	b7 01       	movw	r22, r14
    1426:	ce 01       	movw	r24, r28
    1428:	8f 59       	subi	r24, 0x9F	; 159
    142a:	9f 4f       	sbci	r25, 0xFF	; 255
    142c:	86 df       	rcall	.-244    	; 0x133a <vli_modInv_update>
    142e:	5d c0       	rjmp	.+186    	; 0x14ea <uECC_vli_modInv+0x162>
    1430:	18 16       	cp	r1, r24
    1432:	74 f5       	brge	.+92     	; 0x1490 <uECC_vli_modInv+0x108>
    1434:	21 2f       	mov	r18, r17
    1436:	ae 01       	movw	r20, r28
    1438:	4f 5d       	subi	r20, 0xDF	; 223
    143a:	5f 4f       	sbci	r21, 0xFF	; 255
    143c:	be 01       	movw	r22, r28
    143e:	6f 5f       	subi	r22, 0xFF	; 255
    1440:	7f 4f       	sbci	r23, 0xFF	; 255
    1442:	cb 01       	movw	r24, r22
    1444:	c1 db       	rcall	.-2174   	; 0xbc8 <uECC_vli_sub>
    1446:	61 2f       	mov	r22, r17
    1448:	ce 01       	movw	r24, r28
    144a:	01 96       	adiw	r24, 0x01	; 1
    144c:	7a da       	rcall	.-2828   	; 0x942 <uECC_vli_rshift1>
    144e:	41 2f       	mov	r20, r17
    1450:	be 01       	movw	r22, r28
    1452:	6f 59       	subi	r22, 0x9F	; 159
    1454:	7f 4f       	sbci	r23, 0xFF	; 255
    1456:	ce 01       	movw	r24, r28
    1458:	8f 5b       	subi	r24, 0xBF	; 191
    145a:	9f 4f       	sbci	r25, 0xFF	; 255
    145c:	25 dd       	rcall	.-1462   	; 0xea8 <uECC_vli_cmp_unsafe>
    145e:	88 23       	and	r24, r24
    1460:	3c f4       	brge	.+14     	; 0x1470 <uECC_vli_modInv+0xe8>
    1462:	21 2f       	mov	r18, r17
    1464:	a7 01       	movw	r20, r14
    1466:	be 01       	movw	r22, r28
    1468:	6f 5b       	subi	r22, 0xBF	; 191
    146a:	7f 4f       	sbci	r23, 0xFF	; 255
    146c:	cb 01       	movw	r24, r22
    146e:	db da       	rcall	.-2634   	; 0xa26 <uECC_vli_add>
    1470:	21 2f       	mov	r18, r17
    1472:	ae 01       	movw	r20, r28
    1474:	4f 59       	subi	r20, 0x9F	; 159
    1476:	5f 4f       	sbci	r21, 0xFF	; 255
    1478:	be 01       	movw	r22, r28
    147a:	6f 5b       	subi	r22, 0xBF	; 191
    147c:	7f 4f       	sbci	r23, 0xFF	; 255
    147e:	cb 01       	movw	r24, r22
    1480:	a3 db       	rcall	.-2234   	; 0xbc8 <uECC_vli_sub>
    1482:	41 2f       	mov	r20, r17
    1484:	b7 01       	movw	r22, r14
    1486:	ce 01       	movw	r24, r28
    1488:	8f 5b       	subi	r24, 0xBF	; 191
    148a:	9f 4f       	sbci	r25, 0xFF	; 255
    148c:	56 df       	rcall	.-340    	; 0x133a <vli_modInv_update>
    148e:	2d c0       	rjmp	.+90     	; 0x14ea <uECC_vli_modInv+0x162>
    1490:	21 2f       	mov	r18, r17
    1492:	ae 01       	movw	r20, r28
    1494:	4f 5f       	subi	r20, 0xFF	; 255
    1496:	5f 4f       	sbci	r21, 0xFF	; 255
    1498:	be 01       	movw	r22, r28
    149a:	6f 5d       	subi	r22, 0xDF	; 223
    149c:	7f 4f       	sbci	r23, 0xFF	; 255
    149e:	cb 01       	movw	r24, r22
    14a0:	93 db       	rcall	.-2266   	; 0xbc8 <uECC_vli_sub>
    14a2:	61 2f       	mov	r22, r17
    14a4:	ce 01       	movw	r24, r28
    14a6:	81 96       	adiw	r24, 0x21	; 33
    14a8:	4c da       	rcall	.-2920   	; 0x942 <uECC_vli_rshift1>
    14aa:	41 2f       	mov	r20, r17
    14ac:	be 01       	movw	r22, r28
    14ae:	6f 5b       	subi	r22, 0xBF	; 191
    14b0:	7f 4f       	sbci	r23, 0xFF	; 255
    14b2:	ce 01       	movw	r24, r28
    14b4:	8f 59       	subi	r24, 0x9F	; 159
    14b6:	9f 4f       	sbci	r25, 0xFF	; 255
    14b8:	f7 dc       	rcall	.-1554   	; 0xea8 <uECC_vli_cmp_unsafe>
    14ba:	88 23       	and	r24, r24
    14bc:	3c f4       	brge	.+14     	; 0x14cc <uECC_vli_modInv+0x144>
    14be:	21 2f       	mov	r18, r17
    14c0:	a7 01       	movw	r20, r14
    14c2:	be 01       	movw	r22, r28
    14c4:	6f 59       	subi	r22, 0x9F	; 159
    14c6:	7f 4f       	sbci	r23, 0xFF	; 255
    14c8:	cb 01       	movw	r24, r22
    14ca:	ad da       	rcall	.-2726   	; 0xa26 <uECC_vli_add>
    14cc:	21 2f       	mov	r18, r17
    14ce:	ae 01       	movw	r20, r28
    14d0:	4f 5b       	subi	r20, 0xBF	; 191
    14d2:	5f 4f       	sbci	r21, 0xFF	; 255
    14d4:	be 01       	movw	r22, r28
    14d6:	6f 59       	subi	r22, 0x9F	; 159
    14d8:	7f 4f       	sbci	r23, 0xFF	; 255
    14da:	cb 01       	movw	r24, r22
    14dc:	75 db       	rcall	.-2326   	; 0xbc8 <uECC_vli_sub>
    14de:	41 2f       	mov	r20, r17
    14e0:	b7 01       	movw	r22, r14
    14e2:	ce 01       	movw	r24, r28
    14e4:	8f 59       	subi	r24, 0x9F	; 159
    14e6:	9f 4f       	sbci	r25, 0xFF	; 255
    14e8:	28 df       	rcall	.-432    	; 0x133a <vli_modInv_update>
    14ea:	41 2f       	mov	r20, r17
    14ec:	be 01       	movw	r22, r28
    14ee:	6f 5d       	subi	r22, 0xDF	; 223
    14f0:	7f 4f       	sbci	r23, 0xFF	; 255
    14f2:	ce 01       	movw	r24, r28
    14f4:	01 96       	adiw	r24, 0x01	; 1
    14f6:	d8 dc       	rcall	.-1616   	; 0xea8 <uECC_vli_cmp_unsafe>
    14f8:	81 11       	cpse	r24, r1
    14fa:	7e cf       	rjmp	.-260    	; 0x13f8 <uECC_vli_modInv+0x70>
    14fc:	41 2f       	mov	r20, r17
    14fe:	be 01       	movw	r22, r28
    1500:	6f 5b       	subi	r22, 0xBF	; 191
    1502:	7f 4f       	sbci	r23, 0xFF	; 255
    1504:	c5 01       	movw	r24, r10
    1506:	d0 d9       	rcall	.-3168   	; 0x8a8 <uECC_vli_set>
    1508:	c0 58       	subi	r28, 0x80	; 128
    150a:	df 4f       	sbci	r29, 0xFF	; 255
    150c:	0f b6       	in	r0, 0x3f	; 63
    150e:	f8 94       	cli
    1510:	de bf       	out	0x3e, r29	; 62
    1512:	0f be       	out	0x3f, r0	; 63
    1514:	cd bf       	out	0x3d, r28	; 61
    1516:	df 91       	pop	r29
    1518:	cf 91       	pop	r28
    151a:	1f 91       	pop	r17
    151c:	ff 90       	pop	r15
    151e:	ef 90       	pop	r14
    1520:	df 90       	pop	r13
    1522:	cf 90       	pop	r12
    1524:	bf 90       	pop	r11
    1526:	af 90       	pop	r10
    1528:	08 95       	ret

0000152a <double_jacobian_default>:
    152a:	6f 92       	push	r6
    152c:	7f 92       	push	r7
    152e:	8f 92       	push	r8
    1530:	9f 92       	push	r9
    1532:	af 92       	push	r10
    1534:	bf 92       	push	r11
    1536:	cf 92       	push	r12
    1538:	df 92       	push	r13
    153a:	ef 92       	push	r14
    153c:	ff 92       	push	r15
    153e:	0f 93       	push	r16
    1540:	1f 93       	push	r17
    1542:	cf 93       	push	r28
    1544:	df 93       	push	r29
    1546:	cd b7       	in	r28, 0x3d	; 61
    1548:	de b7       	in	r29, 0x3e	; 62
    154a:	c0 54       	subi	r28, 0x40	; 64
    154c:	d1 09       	sbc	r29, r1
    154e:	0f b6       	in	r0, 0x3f	; 63
    1550:	f8 94       	cli
    1552:	de bf       	out	0x3e, r29	; 62
    1554:	0f be       	out	0x3f, r0	; 63
    1556:	cd bf       	out	0x3d, r28	; 61
    1558:	6c 01       	movw	r12, r24
    155a:	3b 01       	movw	r6, r22
    155c:	7a 01       	movw	r14, r20
    155e:	59 01       	movw	r10, r18
    1560:	f9 01       	movw	r30, r18
    1562:	10 81       	ld	r17, Z
    1564:	61 2f       	mov	r22, r17
    1566:	ca 01       	movw	r24, r20
    1568:	3c dc       	rcall	.-1928   	; 0xde2 <uECC_vli_isZero>
    156a:	81 11       	cpse	r24, r1
    156c:	96 c0       	rjmp	.+300    	; 0x169a <double_jacobian_default+0x170>
    156e:	a5 01       	movw	r20, r10
    1570:	b3 01       	movw	r22, r6
    1572:	ce 01       	movw	r24, r28
    1574:	01 96       	adiw	r24, 0x01	; 1
    1576:	dd de       	rcall	.-582    	; 0x1332 <uECC_vli_modSquare_fast>
    1578:	95 01       	movw	r18, r10
    157a:	ae 01       	movw	r20, r28
    157c:	4f 5f       	subi	r20, 0xFF	; 255
    157e:	5f 4f       	sbci	r21, 0xFF	; 255
    1580:	b6 01       	movw	r22, r12
    1582:	ce 01       	movw	r24, r28
    1584:	81 96       	adiw	r24, 0x21	; 33
    1586:	a6 de       	rcall	.-692    	; 0x12d4 <uECC_vli_modMult_fast>
    1588:	a5 01       	movw	r20, r10
    158a:	be 01       	movw	r22, r28
    158c:	6f 5f       	subi	r22, 0xFF	; 255
    158e:	7f 4f       	sbci	r23, 0xFF	; 255
    1590:	cb 01       	movw	r24, r22
    1592:	cf de       	rcall	.-610    	; 0x1332 <uECC_vli_modSquare_fast>
    1594:	95 01       	movw	r18, r10
    1596:	a7 01       	movw	r20, r14
    1598:	b3 01       	movw	r22, r6
    159a:	c3 01       	movw	r24, r6
    159c:	9b de       	rcall	.-714    	; 0x12d4 <uECC_vli_modMult_fast>
    159e:	a5 01       	movw	r20, r10
    15a0:	b7 01       	movw	r22, r14
    15a2:	c7 01       	movw	r24, r14
    15a4:	c6 de       	rcall	.-628    	; 0x1332 <uECC_vli_modSquare_fast>
    15a6:	45 01       	movw	r8, r10
    15a8:	f4 e0       	ldi	r31, 0x04	; 4
    15aa:	8f 0e       	add	r8, r31
    15ac:	91 1c       	adc	r9, r1
    15ae:	01 2f       	mov	r16, r17
    15b0:	94 01       	movw	r18, r8
    15b2:	a7 01       	movw	r20, r14
    15b4:	b6 01       	movw	r22, r12
    15b6:	c6 01       	movw	r24, r12
    15b8:	d6 dc       	rcall	.-1620   	; 0xf66 <uECC_vli_modAdd>
    15ba:	94 01       	movw	r18, r8
    15bc:	a7 01       	movw	r20, r14
    15be:	b7 01       	movw	r22, r14
    15c0:	c7 01       	movw	r24, r14
    15c2:	d1 dc       	rcall	.-1630   	; 0xf66 <uECC_vli_modAdd>
    15c4:	94 01       	movw	r18, r8
    15c6:	a7 01       	movw	r20, r14
    15c8:	b6 01       	movw	r22, r12
    15ca:	c7 01       	movw	r24, r14
    15cc:	e8 dc       	rcall	.-1584   	; 0xf9e <uECC_vli_modSub>
    15ce:	95 01       	movw	r18, r10
    15d0:	a7 01       	movw	r20, r14
    15d2:	b6 01       	movw	r22, r12
    15d4:	c6 01       	movw	r24, r12
    15d6:	7e de       	rcall	.-772    	; 0x12d4 <uECC_vli_modMult_fast>
    15d8:	94 01       	movw	r18, r8
    15da:	a6 01       	movw	r20, r12
    15dc:	b6 01       	movw	r22, r12
    15de:	c7 01       	movw	r24, r14
    15e0:	c2 dc       	rcall	.-1660   	; 0xf66 <uECC_vli_modAdd>
    15e2:	94 01       	movw	r18, r8
    15e4:	a7 01       	movw	r20, r14
    15e6:	b6 01       	movw	r22, r12
    15e8:	c6 01       	movw	r24, r12
    15ea:	bd dc       	rcall	.-1670   	; 0xf66 <uECC_vli_modAdd>
    15ec:	60 e0       	ldi	r22, 0x00	; 0
    15ee:	70 e0       	ldi	r23, 0x00	; 0
    15f0:	c6 01       	movw	r24, r12
    15f2:	0d dc       	rcall	.-2022   	; 0xe0e <uECC_vli_testBit>
    15f4:	88 23       	and	r24, r24
    15f6:	c1 f0       	breq	.+48     	; 0x1628 <double_jacobian_default+0xfe>
    15f8:	21 2f       	mov	r18, r17
    15fa:	a4 01       	movw	r20, r8
    15fc:	b6 01       	movw	r22, r12
    15fe:	c6 01       	movw	r24, r12
    1600:	12 da       	rcall	.-3036   	; 0xa26 <uECC_vli_add>
    1602:	08 2f       	mov	r16, r24
    1604:	61 2f       	mov	r22, r17
    1606:	c6 01       	movw	r24, r12
    1608:	9c d9       	rcall	.-3272   	; 0x942 <uECC_vli_rshift1>
    160a:	e1 2f       	mov	r30, r17
    160c:	01 2e       	mov	r0, r17
    160e:	00 0c       	add	r0, r0
    1610:	ff 0b       	sbc	r31, r31
    1612:	31 97       	sbiw	r30, 0x01	; 1
    1614:	ec 0d       	add	r30, r12
    1616:	fd 1d       	adc	r31, r13
    1618:	20 e8       	ldi	r18, 0x80	; 128
    161a:	02 9f       	mul	r16, r18
    161c:	c0 01       	movw	r24, r0
    161e:	11 24       	eor	r1, r1
    1620:	00 81       	ld	r16, Z
    1622:	08 2b       	or	r16, r24
    1624:	00 83       	st	Z, r16
    1626:	03 c0       	rjmp	.+6      	; 0x162e <double_jacobian_default+0x104>
    1628:	61 2f       	mov	r22, r17
    162a:	c6 01       	movw	r24, r12
    162c:	8a d9       	rcall	.-3308   	; 0x942 <uECC_vli_rshift1>
    162e:	a5 01       	movw	r20, r10
    1630:	b6 01       	movw	r22, r12
    1632:	c7 01       	movw	r24, r14
    1634:	7e de       	rcall	.-772    	; 0x1332 <uECC_vli_modSquare_fast>
    1636:	01 2f       	mov	r16, r17
    1638:	94 01       	movw	r18, r8
    163a:	ae 01       	movw	r20, r28
    163c:	4f 5d       	subi	r20, 0xDF	; 223
    163e:	5f 4f       	sbci	r21, 0xFF	; 255
    1640:	b7 01       	movw	r22, r14
    1642:	c7 01       	movw	r24, r14
    1644:	ac dc       	rcall	.-1704   	; 0xf9e <uECC_vli_modSub>
    1646:	94 01       	movw	r18, r8
    1648:	ae 01       	movw	r20, r28
    164a:	4f 5d       	subi	r20, 0xDF	; 223
    164c:	5f 4f       	sbci	r21, 0xFF	; 255
    164e:	b7 01       	movw	r22, r14
    1650:	c7 01       	movw	r24, r14
    1652:	a5 dc       	rcall	.-1718   	; 0xf9e <uECC_vli_modSub>
    1654:	94 01       	movw	r18, r8
    1656:	a7 01       	movw	r20, r14
    1658:	be 01       	movw	r22, r28
    165a:	6f 5d       	subi	r22, 0xDF	; 223
    165c:	7f 4f       	sbci	r23, 0xFF	; 255
    165e:	cb 01       	movw	r24, r22
    1660:	9e dc       	rcall	.-1732   	; 0xf9e <uECC_vli_modSub>
    1662:	95 01       	movw	r18, r10
    1664:	ae 01       	movw	r20, r28
    1666:	4f 5d       	subi	r20, 0xDF	; 223
    1668:	5f 4f       	sbci	r21, 0xFF	; 255
    166a:	b6 01       	movw	r22, r12
    166c:	c6 01       	movw	r24, r12
    166e:	32 de       	rcall	.-924    	; 0x12d4 <uECC_vli_modMult_fast>
    1670:	94 01       	movw	r18, r8
    1672:	ae 01       	movw	r20, r28
    1674:	4f 5f       	subi	r20, 0xFF	; 255
    1676:	5f 4f       	sbci	r21, 0xFF	; 255
    1678:	b6 01       	movw	r22, r12
    167a:	ca 01       	movw	r24, r20
    167c:	90 dc       	rcall	.-1760   	; 0xf9e <uECC_vli_modSub>
    167e:	41 2f       	mov	r20, r17
    1680:	b7 01       	movw	r22, r14
    1682:	c6 01       	movw	r24, r12
    1684:	11 d9       	rcall	.-3550   	; 0x8a8 <uECC_vli_set>
    1686:	41 2f       	mov	r20, r17
    1688:	b3 01       	movw	r22, r6
    168a:	c7 01       	movw	r24, r14
    168c:	0d d9       	rcall	.-3558   	; 0x8a8 <uECC_vli_set>
    168e:	41 2f       	mov	r20, r17
    1690:	be 01       	movw	r22, r28
    1692:	6f 5f       	subi	r22, 0xFF	; 255
    1694:	7f 4f       	sbci	r23, 0xFF	; 255
    1696:	c3 01       	movw	r24, r6
    1698:	07 d9       	rcall	.-3570   	; 0x8a8 <uECC_vli_set>
    169a:	c0 5c       	subi	r28, 0xC0	; 192
    169c:	df 4f       	sbci	r29, 0xFF	; 255
    169e:	0f b6       	in	r0, 0x3f	; 63
    16a0:	f8 94       	cli
    16a2:	de bf       	out	0x3e, r29	; 62
    16a4:	0f be       	out	0x3f, r0	; 63
    16a6:	cd bf       	out	0x3d, r28	; 61
    16a8:	df 91       	pop	r29
    16aa:	cf 91       	pop	r28
    16ac:	1f 91       	pop	r17
    16ae:	0f 91       	pop	r16
    16b0:	ff 90       	pop	r15
    16b2:	ef 90       	pop	r14
    16b4:	df 90       	pop	r13
    16b6:	cf 90       	pop	r12
    16b8:	bf 90       	pop	r11
    16ba:	af 90       	pop	r10
    16bc:	9f 90       	pop	r9
    16be:	8f 90       	pop	r8
    16c0:	7f 90       	pop	r7
    16c2:	6f 90       	pop	r6
    16c4:	08 95       	ret

000016c6 <x_side_default>:
    16c6:	6f 92       	push	r6
    16c8:	7f 92       	push	r7
    16ca:	8f 92       	push	r8
    16cc:	9f 92       	push	r9
    16ce:	af 92       	push	r10
    16d0:	bf 92       	push	r11
    16d2:	cf 92       	push	r12
    16d4:	df 92       	push	r13
    16d6:	ef 92       	push	r14
    16d8:	ff 92       	push	r15
    16da:	0f 93       	push	r16
    16dc:	1f 93       	push	r17
    16de:	cf 93       	push	r28
    16e0:	df 93       	push	r29
    16e2:	cd b7       	in	r28, 0x3d	; 61
    16e4:	de b7       	in	r29, 0x3e	; 62
    16e6:	a0 97       	sbiw	r28, 0x20	; 32
    16e8:	0f b6       	in	r0, 0x3f	; 63
    16ea:	f8 94       	cli
    16ec:	de bf       	out	0x3e, r29	; 62
    16ee:	0f be       	out	0x3f, r0	; 63
    16f0:	cd bf       	out	0x3d, r28	; 61
    16f2:	7c 01       	movw	r14, r24
    16f4:	4b 01       	movw	r8, r22
    16f6:	6a 01       	movw	r12, r20
    16f8:	ce 01       	movw	r24, r28
    16fa:	01 96       	adiw	r24, 0x01	; 1
    16fc:	3c 01       	movw	r6, r24
    16fe:	80 e2       	ldi	r24, 0x20	; 32
    1700:	f3 01       	movw	r30, r6
    1702:	11 92       	st	Z+, r1
    1704:	8a 95       	dec	r24
    1706:	e9 f7       	brne	.-6      	; 0x1702 <x_side_default+0x3c>
    1708:	83 e0       	ldi	r24, 0x03	; 3
    170a:	89 83       	std	Y+1, r24	; 0x01
    170c:	fa 01       	movw	r30, r20
    170e:	10 81       	ld	r17, Z
    1710:	c7 01       	movw	r24, r14
    1712:	0f de       	rcall	.-994    	; 0x1332 <uECC_vli_modSquare_fast>
    1714:	56 01       	movw	r10, r12
    1716:	f4 e0       	ldi	r31, 0x04	; 4
    1718:	af 0e       	add	r10, r31
    171a:	b1 1c       	adc	r11, r1
    171c:	01 2f       	mov	r16, r17
    171e:	95 01       	movw	r18, r10
    1720:	a3 01       	movw	r20, r6
    1722:	b7 01       	movw	r22, r14
    1724:	c7 01       	movw	r24, r14
    1726:	3b dc       	rcall	.-1930   	; 0xf9e <uECC_vli_modSub>
    1728:	96 01       	movw	r18, r12
    172a:	a4 01       	movw	r20, r8
    172c:	b7 01       	movw	r22, r14
    172e:	c7 01       	movw	r24, r14
    1730:	d1 dd       	rcall	.-1118   	; 0x12d4 <uECC_vli_modMult_fast>
    1732:	a6 01       	movw	r20, r12
    1734:	4c 57       	subi	r20, 0x7C	; 124
    1736:	5f 4f       	sbci	r21, 0xFF	; 255
    1738:	95 01       	movw	r18, r10
    173a:	b7 01       	movw	r22, r14
    173c:	c7 01       	movw	r24, r14
    173e:	13 dc       	rcall	.-2010   	; 0xf66 <uECC_vli_modAdd>
    1740:	a0 96       	adiw	r28, 0x20	; 32
    1742:	0f b6       	in	r0, 0x3f	; 63
    1744:	f8 94       	cli
    1746:	de bf       	out	0x3e, r29	; 62
    1748:	0f be       	out	0x3f, r0	; 63
    174a:	cd bf       	out	0x3d, r28	; 61
    174c:	df 91       	pop	r29
    174e:	cf 91       	pop	r28
    1750:	1f 91       	pop	r17
    1752:	0f 91       	pop	r16
    1754:	ff 90       	pop	r15
    1756:	ef 90       	pop	r14
    1758:	df 90       	pop	r13
    175a:	cf 90       	pop	r12
    175c:	bf 90       	pop	r11
    175e:	af 90       	pop	r10
    1760:	9f 90       	pop	r9
    1762:	8f 90       	pop	r8
    1764:	7f 90       	pop	r7
    1766:	6f 90       	pop	r6
    1768:	08 95       	ret

0000176a <mod_sqrt_default>:
    176a:	bf 92       	push	r11
    176c:	cf 92       	push	r12
    176e:	df 92       	push	r13
    1770:	ef 92       	push	r14
    1772:	ff 92       	push	r15
    1774:	0f 93       	push	r16
    1776:	1f 93       	push	r17
    1778:	cf 93       	push	r28
    177a:	df 93       	push	r29
    177c:	cd b7       	in	r28, 0x3d	; 61
    177e:	de b7       	in	r29, 0x3e	; 62
    1780:	c0 54       	subi	r28, 0x40	; 64
    1782:	d1 09       	sbc	r29, r1
    1784:	0f b6       	in	r0, 0x3f	; 63
    1786:	f8 94       	cli
    1788:	de bf       	out	0x3e, r29	; 62
    178a:	0f be       	out	0x3f, r0	; 63
    178c:	cd bf       	out	0x3d, r28	; 61
    178e:	6c 01       	movw	r12, r24
    1790:	7b 01       	movw	r14, r22
    1792:	90 e2       	ldi	r25, 0x20	; 32
    1794:	8e 01       	movw	r16, r28
    1796:	0f 5f       	subi	r16, 0xFF	; 255
    1798:	1f 4f       	sbci	r17, 0xFF	; 255
    179a:	d8 01       	movw	r26, r16
    179c:	e9 2f       	mov	r30, r25
    179e:	1d 92       	st	X+, r1
    17a0:	ea 95       	dec	r30
    17a2:	e9 f7       	brne	.-6      	; 0x179e <mod_sqrt_default+0x34>
    17a4:	81 e0       	ldi	r24, 0x01	; 1
    17a6:	89 83       	std	Y+1, r24	; 0x01
    17a8:	fe 01       	movw	r30, r28
    17aa:	b1 96       	adiw	r30, 0x21	; 33
    17ac:	df 01       	movw	r26, r30
    17ae:	1d 92       	st	X+, r1
    17b0:	9a 95       	dec	r25
    17b2:	e9 f7       	brne	.-6      	; 0x17ae <mod_sqrt_default+0x44>
    17b4:	89 a3       	std	Y+33, r24	; 0x21
    17b6:	fb 01       	movw	r30, r22
    17b8:	b0 80       	ld	r11, Z
    17ba:	6c 5f       	subi	r22, 0xFC	; 252
    17bc:	7f 4f       	sbci	r23, 0xFF	; 255
    17be:	2b 2d       	mov	r18, r11
    17c0:	a8 01       	movw	r20, r16
    17c2:	c8 01       	movw	r24, r16
    17c4:	30 d9       	rcall	.-3488   	; 0xa26 <uECC_vli_add>
    17c6:	6b 2d       	mov	r22, r11
    17c8:	c8 01       	movw	r24, r16
    17ca:	37 db       	rcall	.-2450   	; 0xe3a <uECC_vli_numBits>
    17cc:	8c 01       	movw	r16, r24
    17ce:	01 50       	subi	r16, 0x01	; 1
    17d0:	11 09       	sbc	r17, r1
    17d2:	02 30       	cpi	r16, 0x02	; 2
    17d4:	11 05       	cpc	r17, r1
    17d6:	c4 f0       	brlt	.+48     	; 0x1808 <mod_sqrt_default+0x9e>
    17d8:	a7 01       	movw	r20, r14
    17da:	be 01       	movw	r22, r28
    17dc:	6f 5d       	subi	r22, 0xDF	; 223
    17de:	7f 4f       	sbci	r23, 0xFF	; 255
    17e0:	cb 01       	movw	r24, r22
    17e2:	a7 dd       	rcall	.-1202   	; 0x1332 <uECC_vli_modSquare_fast>
    17e4:	b8 01       	movw	r22, r16
    17e6:	ce 01       	movw	r24, r28
    17e8:	01 96       	adiw	r24, 0x01	; 1
    17ea:	11 db       	rcall	.-2526   	; 0xe0e <uECC_vli_testBit>
    17ec:	88 23       	and	r24, r24
    17ee:	39 f0       	breq	.+14     	; 0x17fe <mod_sqrt_default+0x94>
    17f0:	97 01       	movw	r18, r14
    17f2:	a6 01       	movw	r20, r12
    17f4:	be 01       	movw	r22, r28
    17f6:	6f 5d       	subi	r22, 0xDF	; 223
    17f8:	7f 4f       	sbci	r23, 0xFF	; 255
    17fa:	cb 01       	movw	r24, r22
    17fc:	6b dd       	rcall	.-1322   	; 0x12d4 <uECC_vli_modMult_fast>
    17fe:	01 50       	subi	r16, 0x01	; 1
    1800:	11 09       	sbc	r17, r1
    1802:	01 30       	cpi	r16, 0x01	; 1
    1804:	11 05       	cpc	r17, r1
    1806:	41 f7       	brne	.-48     	; 0x17d8 <mod_sqrt_default+0x6e>
    1808:	4b 2d       	mov	r20, r11
    180a:	be 01       	movw	r22, r28
    180c:	6f 5d       	subi	r22, 0xDF	; 223
    180e:	7f 4f       	sbci	r23, 0xFF	; 255
    1810:	c6 01       	movw	r24, r12
    1812:	4a d8       	rcall	.-3948   	; 0x8a8 <uECC_vli_set>
    1814:	c0 5c       	subi	r28, 0xC0	; 192
    1816:	df 4f       	sbci	r29, 0xFF	; 255
    1818:	0f b6       	in	r0, 0x3f	; 63
    181a:	f8 94       	cli
    181c:	de bf       	out	0x3e, r29	; 62
    181e:	0f be       	out	0x3f, r0	; 63
    1820:	cd bf       	out	0x3d, r28	; 61
    1822:	df 91       	pop	r29
    1824:	cf 91       	pop	r28
    1826:	1f 91       	pop	r17
    1828:	0f 91       	pop	r16
    182a:	ff 90       	pop	r15
    182c:	ef 90       	pop	r14
    182e:	df 90       	pop	r13
    1830:	cf 90       	pop	r12
    1832:	bf 90       	pop	r11
    1834:	08 95       	ret

00001836 <vli_mmod_fast_secp256r1>:
    1836:	cf 92       	push	r12
    1838:	df 92       	push	r13
    183a:	ff 92       	push	r15
    183c:	0f 93       	push	r16
    183e:	1f 93       	push	r17
    1840:	cf 93       	push	r28
    1842:	df 93       	push	r29
    1844:	cd b7       	in	r28, 0x3d	; 61
    1846:	de b7       	in	r29, 0x3e	; 62
    1848:	a0 97       	sbiw	r28, 0x20	; 32
    184a:	0f b6       	in	r0, 0x3f	; 63
    184c:	f8 94       	cli
    184e:	de bf       	out	0x3e, r29	; 62
    1850:	0f be       	out	0x3f, r0	; 63
    1852:	cd bf       	out	0x3d, r28	; 61
    1854:	6c 01       	movw	r12, r24
    1856:	8b 01       	movw	r16, r22
    1858:	40 e2       	ldi	r20, 0x20	; 32
    185a:	26 d8       	rcall	.-4020   	; 0x8a8 <uECC_vli_set>
    185c:	1c 82       	std	Y+4, r1	; 0x04
    185e:	1b 82       	std	Y+3, r1	; 0x03
    1860:	1a 82       	std	Y+2, r1	; 0x02
    1862:	19 82       	std	Y+1, r1	; 0x01
    1864:	18 86       	std	Y+8, r1	; 0x08
    1866:	1f 82       	std	Y+7, r1	; 0x07
    1868:	1e 82       	std	Y+6, r1	; 0x06
    186a:	1d 82       	std	Y+5, r1	; 0x05
    186c:	1c 86       	std	Y+12, r1	; 0x0c
    186e:	1b 86       	std	Y+11, r1	; 0x0b
    1870:	1a 86       	std	Y+10, r1	; 0x0a
    1872:	19 86       	std	Y+9, r1	; 0x09
    1874:	f8 01       	movw	r30, r16
    1876:	84 a5       	ldd	r24, Z+44	; 0x2c
    1878:	8d 87       	std	Y+13, r24	; 0x0d
    187a:	85 a5       	ldd	r24, Z+45	; 0x2d
    187c:	8e 87       	std	Y+14, r24	; 0x0e
    187e:	86 a5       	ldd	r24, Z+46	; 0x2e
    1880:	8f 87       	std	Y+15, r24	; 0x0f
    1882:	87 a5       	ldd	r24, Z+47	; 0x2f
    1884:	88 8b       	std	Y+16, r24	; 0x10
    1886:	80 a9       	ldd	r24, Z+48	; 0x30
    1888:	89 8b       	std	Y+17, r24	; 0x11
    188a:	81 a9       	ldd	r24, Z+49	; 0x31
    188c:	8a 8b       	std	Y+18, r24	; 0x12
    188e:	82 a9       	ldd	r24, Z+50	; 0x32
    1890:	8b 8b       	std	Y+19, r24	; 0x13
    1892:	83 a9       	ldd	r24, Z+51	; 0x33
    1894:	8c 8b       	std	Y+20, r24	; 0x14
    1896:	84 a9       	ldd	r24, Z+52	; 0x34
    1898:	8d 8b       	std	Y+21, r24	; 0x15
    189a:	85 a9       	ldd	r24, Z+53	; 0x35
    189c:	8e 8b       	std	Y+22, r24	; 0x16
    189e:	86 a9       	ldd	r24, Z+54	; 0x36
    18a0:	8f 8b       	std	Y+23, r24	; 0x17
    18a2:	87 a9       	ldd	r24, Z+55	; 0x37
    18a4:	88 8f       	std	Y+24, r24	; 0x18
    18a6:	80 ad       	ldd	r24, Z+56	; 0x38
    18a8:	89 8f       	std	Y+25, r24	; 0x19
    18aa:	81 ad       	ldd	r24, Z+57	; 0x39
    18ac:	8a 8f       	std	Y+26, r24	; 0x1a
    18ae:	82 ad       	ldd	r24, Z+58	; 0x3a
    18b0:	8b 8f       	std	Y+27, r24	; 0x1b
    18b2:	83 ad       	ldd	r24, Z+59	; 0x3b
    18b4:	8c 8f       	std	Y+28, r24	; 0x1c
    18b6:	84 ad       	ldd	r24, Z+60	; 0x3c
    18b8:	8d 8f       	std	Y+29, r24	; 0x1d
    18ba:	85 ad       	ldd	r24, Z+61	; 0x3d
    18bc:	8e 8f       	std	Y+30, r24	; 0x1e
    18be:	86 ad       	ldd	r24, Z+62	; 0x3e
    18c0:	8f 8f       	std	Y+31, r24	; 0x1f
    18c2:	87 ad       	ldd	r24, Z+63	; 0x3f
    18c4:	88 a3       	std	Y+32, r24	; 0x20
    18c6:	20 e2       	ldi	r18, 0x20	; 32
    18c8:	ae 01       	movw	r20, r28
    18ca:	4f 5f       	subi	r20, 0xFF	; 255
    18cc:	5f 4f       	sbci	r21, 0xFF	; 255
    18ce:	ba 01       	movw	r22, r20
    18d0:	ca 01       	movw	r24, r20
    18d2:	a9 d8       	rcall	.-3758   	; 0xa26 <uECC_vli_add>
    18d4:	f8 2e       	mov	r15, r24
    18d6:	20 e2       	ldi	r18, 0x20	; 32
    18d8:	ae 01       	movw	r20, r28
    18da:	4f 5f       	subi	r20, 0xFF	; 255
    18dc:	5f 4f       	sbci	r21, 0xFF	; 255
    18de:	b6 01       	movw	r22, r12
    18e0:	c6 01       	movw	r24, r12
    18e2:	a1 d8       	rcall	.-3774   	; 0xa26 <uECC_vli_add>
    18e4:	f8 0e       	add	r15, r24
    18e6:	f8 01       	movw	r30, r16
    18e8:	80 a9       	ldd	r24, Z+48	; 0x30
    18ea:	8d 87       	std	Y+13, r24	; 0x0d
    18ec:	81 a9       	ldd	r24, Z+49	; 0x31
    18ee:	8e 87       	std	Y+14, r24	; 0x0e
    18f0:	82 a9       	ldd	r24, Z+50	; 0x32
    18f2:	8f 87       	std	Y+15, r24	; 0x0f
    18f4:	83 a9       	ldd	r24, Z+51	; 0x33
    18f6:	88 8b       	std	Y+16, r24	; 0x10
    18f8:	84 a9       	ldd	r24, Z+52	; 0x34
    18fa:	89 8b       	std	Y+17, r24	; 0x11
    18fc:	85 a9       	ldd	r24, Z+53	; 0x35
    18fe:	8a 8b       	std	Y+18, r24	; 0x12
    1900:	86 a9       	ldd	r24, Z+54	; 0x36
    1902:	8b 8b       	std	Y+19, r24	; 0x13
    1904:	87 a9       	ldd	r24, Z+55	; 0x37
    1906:	8c 8b       	std	Y+20, r24	; 0x14
    1908:	80 ad       	ldd	r24, Z+56	; 0x38
    190a:	8d 8b       	std	Y+21, r24	; 0x15
    190c:	81 ad       	ldd	r24, Z+57	; 0x39
    190e:	8e 8b       	std	Y+22, r24	; 0x16
    1910:	82 ad       	ldd	r24, Z+58	; 0x3a
    1912:	8f 8b       	std	Y+23, r24	; 0x17
    1914:	83 ad       	ldd	r24, Z+59	; 0x3b
    1916:	88 8f       	std	Y+24, r24	; 0x18
    1918:	84 ad       	ldd	r24, Z+60	; 0x3c
    191a:	89 8f       	std	Y+25, r24	; 0x19
    191c:	85 ad       	ldd	r24, Z+61	; 0x3d
    191e:	8a 8f       	std	Y+26, r24	; 0x1a
    1920:	86 ad       	ldd	r24, Z+62	; 0x3e
    1922:	8b 8f       	std	Y+27, r24	; 0x1b
    1924:	87 ad       	ldd	r24, Z+63	; 0x3f
    1926:	8c 8f       	std	Y+28, r24	; 0x1c
    1928:	18 a2       	std	Y+32, r1	; 0x20
    192a:	1f 8e       	std	Y+31, r1	; 0x1f
    192c:	1e 8e       	std	Y+30, r1	; 0x1e
    192e:	1d 8e       	std	Y+29, r1	; 0x1d
    1930:	20 e2       	ldi	r18, 0x20	; 32
    1932:	ae 01       	movw	r20, r28
    1934:	4f 5f       	subi	r20, 0xFF	; 255
    1936:	5f 4f       	sbci	r21, 0xFF	; 255
    1938:	ba 01       	movw	r22, r20
    193a:	ca 01       	movw	r24, r20
    193c:	74 d8       	rcall	.-3864   	; 0xa26 <uECC_vli_add>
    193e:	f8 0e       	add	r15, r24
    1940:	20 e2       	ldi	r18, 0x20	; 32
    1942:	ae 01       	movw	r20, r28
    1944:	4f 5f       	subi	r20, 0xFF	; 255
    1946:	5f 4f       	sbci	r21, 0xFF	; 255
    1948:	b6 01       	movw	r22, r12
    194a:	c6 01       	movw	r24, r12
    194c:	6c d8       	rcall	.-3880   	; 0xa26 <uECC_vli_add>
    194e:	f8 0e       	add	r15, r24
    1950:	f8 01       	movw	r30, r16
    1952:	80 a1       	ldd	r24, Z+32	; 0x20
    1954:	89 83       	std	Y+1, r24	; 0x01
    1956:	81 a1       	ldd	r24, Z+33	; 0x21
    1958:	8a 83       	std	Y+2, r24	; 0x02
    195a:	82 a1       	ldd	r24, Z+34	; 0x22
    195c:	8b 83       	std	Y+3, r24	; 0x03
    195e:	83 a1       	ldd	r24, Z+35	; 0x23
    1960:	8c 83       	std	Y+4, r24	; 0x04
    1962:	84 a1       	ldd	r24, Z+36	; 0x24
    1964:	8d 83       	std	Y+5, r24	; 0x05
    1966:	85 a1       	ldd	r24, Z+37	; 0x25
    1968:	8e 83       	std	Y+6, r24	; 0x06
    196a:	86 a1       	ldd	r24, Z+38	; 0x26
    196c:	8f 83       	std	Y+7, r24	; 0x07
    196e:	87 a1       	ldd	r24, Z+39	; 0x27
    1970:	88 87       	std	Y+8, r24	; 0x08
    1972:	80 a5       	ldd	r24, Z+40	; 0x28
    1974:	89 87       	std	Y+9, r24	; 0x09
    1976:	81 a5       	ldd	r24, Z+41	; 0x29
    1978:	8a 87       	std	Y+10, r24	; 0x0a
    197a:	82 a5       	ldd	r24, Z+42	; 0x2a
    197c:	8b 87       	std	Y+11, r24	; 0x0b
    197e:	83 a5       	ldd	r24, Z+43	; 0x2b
    1980:	8c 87       	std	Y+12, r24	; 0x0c
    1982:	18 8a       	std	Y+16, r1	; 0x10
    1984:	1f 86       	std	Y+15, r1	; 0x0f
    1986:	1e 86       	std	Y+14, r1	; 0x0e
    1988:	1d 86       	std	Y+13, r1	; 0x0d
    198a:	1c 8a       	std	Y+20, r1	; 0x14
    198c:	1b 8a       	std	Y+19, r1	; 0x13
    198e:	1a 8a       	std	Y+18, r1	; 0x12
    1990:	19 8a       	std	Y+17, r1	; 0x11
    1992:	18 8e       	std	Y+24, r1	; 0x18
    1994:	1f 8a       	std	Y+23, r1	; 0x17
    1996:	1e 8a       	std	Y+22, r1	; 0x16
    1998:	1d 8a       	std	Y+21, r1	; 0x15
    199a:	80 ad       	ldd	r24, Z+56	; 0x38
    199c:	89 8f       	std	Y+25, r24	; 0x19
    199e:	81 ad       	ldd	r24, Z+57	; 0x39
    19a0:	8a 8f       	std	Y+26, r24	; 0x1a
    19a2:	82 ad       	ldd	r24, Z+58	; 0x3a
    19a4:	8b 8f       	std	Y+27, r24	; 0x1b
    19a6:	83 ad       	ldd	r24, Z+59	; 0x3b
    19a8:	8c 8f       	std	Y+28, r24	; 0x1c
    19aa:	84 ad       	ldd	r24, Z+60	; 0x3c
    19ac:	8d 8f       	std	Y+29, r24	; 0x1d
    19ae:	85 ad       	ldd	r24, Z+61	; 0x3d
    19b0:	8e 8f       	std	Y+30, r24	; 0x1e
    19b2:	86 ad       	ldd	r24, Z+62	; 0x3e
    19b4:	8f 8f       	std	Y+31, r24	; 0x1f
    19b6:	87 ad       	ldd	r24, Z+63	; 0x3f
    19b8:	88 a3       	std	Y+32, r24	; 0x20
    19ba:	20 e2       	ldi	r18, 0x20	; 32
    19bc:	ae 01       	movw	r20, r28
    19be:	4f 5f       	subi	r20, 0xFF	; 255
    19c0:	5f 4f       	sbci	r21, 0xFF	; 255
    19c2:	b6 01       	movw	r22, r12
    19c4:	c6 01       	movw	r24, r12
    19c6:	2f d8       	rcall	.-4002   	; 0xa26 <uECC_vli_add>
    19c8:	f8 0e       	add	r15, r24
    19ca:	f8 01       	movw	r30, r16
    19cc:	84 a1       	ldd	r24, Z+36	; 0x24
    19ce:	89 83       	std	Y+1, r24	; 0x01
    19d0:	85 a1       	ldd	r24, Z+37	; 0x25
    19d2:	8a 83       	std	Y+2, r24	; 0x02
    19d4:	86 a1       	ldd	r24, Z+38	; 0x26
    19d6:	8b 83       	std	Y+3, r24	; 0x03
    19d8:	87 a1       	ldd	r24, Z+39	; 0x27
    19da:	8c 83       	std	Y+4, r24	; 0x04
    19dc:	80 a5       	ldd	r24, Z+40	; 0x28
    19de:	8d 83       	std	Y+5, r24	; 0x05
    19e0:	81 a5       	ldd	r24, Z+41	; 0x29
    19e2:	8e 83       	std	Y+6, r24	; 0x06
    19e4:	82 a5       	ldd	r24, Z+42	; 0x2a
    19e6:	8f 83       	std	Y+7, r24	; 0x07
    19e8:	83 a5       	ldd	r24, Z+43	; 0x2b
    19ea:	88 87       	std	Y+8, r24	; 0x08
    19ec:	84 a5       	ldd	r24, Z+44	; 0x2c
    19ee:	89 87       	std	Y+9, r24	; 0x09
    19f0:	85 a5       	ldd	r24, Z+45	; 0x2d
    19f2:	8a 87       	std	Y+10, r24	; 0x0a
    19f4:	86 a5       	ldd	r24, Z+46	; 0x2e
    19f6:	8b 87       	std	Y+11, r24	; 0x0b
    19f8:	87 a5       	ldd	r24, Z+47	; 0x2f
    19fa:	8c 87       	std	Y+12, r24	; 0x0c
    19fc:	34 a9       	ldd	r19, Z+52	; 0x34
    19fe:	3d 87       	std	Y+13, r19	; 0x0d
    1a00:	25 a9       	ldd	r18, Z+53	; 0x35
    1a02:	2e 87       	std	Y+14, r18	; 0x0e
    1a04:	96 a9       	ldd	r25, Z+54	; 0x36
    1a06:	9f 87       	std	Y+15, r25	; 0x0f
    1a08:	87 a9       	ldd	r24, Z+55	; 0x37
    1a0a:	88 8b       	std	Y+16, r24	; 0x10
    1a0c:	40 ad       	ldd	r20, Z+56	; 0x38
    1a0e:	49 8b       	std	Y+17, r20	; 0x11
    1a10:	41 ad       	ldd	r20, Z+57	; 0x39
    1a12:	4a 8b       	std	Y+18, r20	; 0x12
    1a14:	42 ad       	ldd	r20, Z+58	; 0x3a
    1a16:	4b 8b       	std	Y+19, r20	; 0x13
    1a18:	43 ad       	ldd	r20, Z+59	; 0x3b
    1a1a:	4c 8b       	std	Y+20, r20	; 0x14
    1a1c:	44 ad       	ldd	r20, Z+60	; 0x3c
    1a1e:	4d 8b       	std	Y+21, r20	; 0x15
    1a20:	45 ad       	ldd	r20, Z+61	; 0x3d
    1a22:	4e 8b       	std	Y+22, r20	; 0x16
    1a24:	46 ad       	ldd	r20, Z+62	; 0x3e
    1a26:	4f 8b       	std	Y+23, r20	; 0x17
    1a28:	47 ad       	ldd	r20, Z+63	; 0x3f
    1a2a:	48 8f       	std	Y+24, r20	; 0x18
    1a2c:	39 8f       	std	Y+25, r19	; 0x19
    1a2e:	2a 8f       	std	Y+26, r18	; 0x1a
    1a30:	9b 8f       	std	Y+27, r25	; 0x1b
    1a32:	8c 8f       	std	Y+28, r24	; 0x1c
    1a34:	80 a1       	ldd	r24, Z+32	; 0x20
    1a36:	8d 8f       	std	Y+29, r24	; 0x1d
    1a38:	81 a1       	ldd	r24, Z+33	; 0x21
    1a3a:	8e 8f       	std	Y+30, r24	; 0x1e
    1a3c:	82 a1       	ldd	r24, Z+34	; 0x22
    1a3e:	8f 8f       	std	Y+31, r24	; 0x1f
    1a40:	83 a1       	ldd	r24, Z+35	; 0x23
    1a42:	88 a3       	std	Y+32, r24	; 0x20
    1a44:	20 e2       	ldi	r18, 0x20	; 32
    1a46:	ae 01       	movw	r20, r28
    1a48:	4f 5f       	subi	r20, 0xFF	; 255
    1a4a:	5f 4f       	sbci	r21, 0xFF	; 255
    1a4c:	b6 01       	movw	r22, r12
    1a4e:	c6 01       	movw	r24, r12
    1a50:	0e 94 13 05 	call	0xa26	; 0xa26 <uECC_vli_add>
    1a54:	f8 0e       	add	r15, r24
    1a56:	f8 01       	movw	r30, r16
    1a58:	84 a5       	ldd	r24, Z+44	; 0x2c
    1a5a:	89 83       	std	Y+1, r24	; 0x01
    1a5c:	85 a5       	ldd	r24, Z+45	; 0x2d
    1a5e:	8a 83       	std	Y+2, r24	; 0x02
    1a60:	86 a5       	ldd	r24, Z+46	; 0x2e
    1a62:	8b 83       	std	Y+3, r24	; 0x03
    1a64:	87 a5       	ldd	r24, Z+47	; 0x2f
    1a66:	8c 83       	std	Y+4, r24	; 0x04
    1a68:	80 a9       	ldd	r24, Z+48	; 0x30
    1a6a:	8d 83       	std	Y+5, r24	; 0x05
    1a6c:	81 a9       	ldd	r24, Z+49	; 0x31
    1a6e:	8e 83       	std	Y+6, r24	; 0x06
    1a70:	82 a9       	ldd	r24, Z+50	; 0x32
    1a72:	8f 83       	std	Y+7, r24	; 0x07
    1a74:	83 a9       	ldd	r24, Z+51	; 0x33
    1a76:	88 87       	std	Y+8, r24	; 0x08
    1a78:	84 a9       	ldd	r24, Z+52	; 0x34
    1a7a:	89 87       	std	Y+9, r24	; 0x09
    1a7c:	85 a9       	ldd	r24, Z+53	; 0x35
    1a7e:	8a 87       	std	Y+10, r24	; 0x0a
    1a80:	86 a9       	ldd	r24, Z+54	; 0x36
    1a82:	8b 87       	std	Y+11, r24	; 0x0b
    1a84:	87 a9       	ldd	r24, Z+55	; 0x37
    1a86:	8c 87       	std	Y+12, r24	; 0x0c
    1a88:	18 8a       	std	Y+16, r1	; 0x10
    1a8a:	1f 86       	std	Y+15, r1	; 0x0f
    1a8c:	1e 86       	std	Y+14, r1	; 0x0e
    1a8e:	1d 86       	std	Y+13, r1	; 0x0d
    1a90:	1c 8a       	std	Y+20, r1	; 0x14
    1a92:	1b 8a       	std	Y+19, r1	; 0x13
    1a94:	1a 8a       	std	Y+18, r1	; 0x12
    1a96:	19 8a       	std	Y+17, r1	; 0x11
    1a98:	18 8e       	std	Y+24, r1	; 0x18
    1a9a:	1f 8a       	std	Y+23, r1	; 0x17
    1a9c:	1e 8a       	std	Y+22, r1	; 0x16
    1a9e:	1d 8a       	std	Y+21, r1	; 0x15
    1aa0:	80 a1       	ldd	r24, Z+32	; 0x20
    1aa2:	89 8f       	std	Y+25, r24	; 0x19
    1aa4:	81 a1       	ldd	r24, Z+33	; 0x21
    1aa6:	8a 8f       	std	Y+26, r24	; 0x1a
    1aa8:	82 a1       	ldd	r24, Z+34	; 0x22
    1aaa:	8b 8f       	std	Y+27, r24	; 0x1b
    1aac:	83 a1       	ldd	r24, Z+35	; 0x23
    1aae:	8c 8f       	std	Y+28, r24	; 0x1c
    1ab0:	80 a5       	ldd	r24, Z+40	; 0x28
    1ab2:	8d 8f       	std	Y+29, r24	; 0x1d
    1ab4:	81 a5       	ldd	r24, Z+41	; 0x29
    1ab6:	8e 8f       	std	Y+30, r24	; 0x1e
    1ab8:	82 a5       	ldd	r24, Z+42	; 0x2a
    1aba:	8f 8f       	std	Y+31, r24	; 0x1f
    1abc:	83 a5       	ldd	r24, Z+43	; 0x2b
    1abe:	88 a3       	std	Y+32, r24	; 0x20
    1ac0:	20 e2       	ldi	r18, 0x20	; 32
    1ac2:	ae 01       	movw	r20, r28
    1ac4:	4f 5f       	subi	r20, 0xFF	; 255
    1ac6:	5f 4f       	sbci	r21, 0xFF	; 255
    1ac8:	b6 01       	movw	r22, r12
    1aca:	c6 01       	movw	r24, r12
    1acc:	7d d8       	rcall	.-3846   	; 0xbc8 <uECC_vli_sub>
    1ace:	f8 1a       	sub	r15, r24
    1ad0:	f8 01       	movw	r30, r16
    1ad2:	80 a9       	ldd	r24, Z+48	; 0x30
    1ad4:	89 83       	std	Y+1, r24	; 0x01
    1ad6:	81 a9       	ldd	r24, Z+49	; 0x31
    1ad8:	8a 83       	std	Y+2, r24	; 0x02
    1ada:	82 a9       	ldd	r24, Z+50	; 0x32
    1adc:	8b 83       	std	Y+3, r24	; 0x03
    1ade:	83 a9       	ldd	r24, Z+51	; 0x33
    1ae0:	8c 83       	std	Y+4, r24	; 0x04
    1ae2:	84 a9       	ldd	r24, Z+52	; 0x34
    1ae4:	8d 83       	std	Y+5, r24	; 0x05
    1ae6:	85 a9       	ldd	r24, Z+53	; 0x35
    1ae8:	8e 83       	std	Y+6, r24	; 0x06
    1aea:	86 a9       	ldd	r24, Z+54	; 0x36
    1aec:	8f 83       	std	Y+7, r24	; 0x07
    1aee:	87 a9       	ldd	r24, Z+55	; 0x37
    1af0:	88 87       	std	Y+8, r24	; 0x08
    1af2:	80 ad       	ldd	r24, Z+56	; 0x38
    1af4:	89 87       	std	Y+9, r24	; 0x09
    1af6:	81 ad       	ldd	r24, Z+57	; 0x39
    1af8:	8a 87       	std	Y+10, r24	; 0x0a
    1afa:	82 ad       	ldd	r24, Z+58	; 0x3a
    1afc:	8b 87       	std	Y+11, r24	; 0x0b
    1afe:	83 ad       	ldd	r24, Z+59	; 0x3b
    1b00:	8c 87       	std	Y+12, r24	; 0x0c
    1b02:	84 ad       	ldd	r24, Z+60	; 0x3c
    1b04:	8d 87       	std	Y+13, r24	; 0x0d
    1b06:	85 ad       	ldd	r24, Z+61	; 0x3d
    1b08:	8e 87       	std	Y+14, r24	; 0x0e
    1b0a:	86 ad       	ldd	r24, Z+62	; 0x3e
    1b0c:	8f 87       	std	Y+15, r24	; 0x0f
    1b0e:	87 ad       	ldd	r24, Z+63	; 0x3f
    1b10:	88 8b       	std	Y+16, r24	; 0x10
    1b12:	1c 8a       	std	Y+20, r1	; 0x14
    1b14:	1b 8a       	std	Y+19, r1	; 0x13
    1b16:	1a 8a       	std	Y+18, r1	; 0x12
    1b18:	19 8a       	std	Y+17, r1	; 0x11
    1b1a:	18 8e       	std	Y+24, r1	; 0x18
    1b1c:	1f 8a       	std	Y+23, r1	; 0x17
    1b1e:	1e 8a       	std	Y+22, r1	; 0x16
    1b20:	1d 8a       	std	Y+21, r1	; 0x15
    1b22:	84 a1       	ldd	r24, Z+36	; 0x24
    1b24:	89 8f       	std	Y+25, r24	; 0x19
    1b26:	85 a1       	ldd	r24, Z+37	; 0x25
    1b28:	8a 8f       	std	Y+26, r24	; 0x1a
    1b2a:	86 a1       	ldd	r24, Z+38	; 0x26
    1b2c:	8b 8f       	std	Y+27, r24	; 0x1b
    1b2e:	87 a1       	ldd	r24, Z+39	; 0x27
    1b30:	8c 8f       	std	Y+28, r24	; 0x1c
    1b32:	84 a5       	ldd	r24, Z+44	; 0x2c
    1b34:	8d 8f       	std	Y+29, r24	; 0x1d
    1b36:	85 a5       	ldd	r24, Z+45	; 0x2d
    1b38:	8e 8f       	std	Y+30, r24	; 0x1e
    1b3a:	86 a5       	ldd	r24, Z+46	; 0x2e
    1b3c:	8f 8f       	std	Y+31, r24	; 0x1f
    1b3e:	87 a5       	ldd	r24, Z+47	; 0x2f
    1b40:	88 a3       	std	Y+32, r24	; 0x20
    1b42:	20 e2       	ldi	r18, 0x20	; 32
    1b44:	ae 01       	movw	r20, r28
    1b46:	4f 5f       	subi	r20, 0xFF	; 255
    1b48:	5f 4f       	sbci	r21, 0xFF	; 255
    1b4a:	b6 01       	movw	r22, r12
    1b4c:	c6 01       	movw	r24, r12
    1b4e:	3c d8       	rcall	.-3976   	; 0xbc8 <uECC_vli_sub>
    1b50:	f8 1a       	sub	r15, r24
    1b52:	f8 01       	movw	r30, r16
    1b54:	84 a9       	ldd	r24, Z+52	; 0x34
    1b56:	89 83       	std	Y+1, r24	; 0x01
    1b58:	85 a9       	ldd	r24, Z+53	; 0x35
    1b5a:	8a 83       	std	Y+2, r24	; 0x02
    1b5c:	86 a9       	ldd	r24, Z+54	; 0x36
    1b5e:	8b 83       	std	Y+3, r24	; 0x03
    1b60:	87 a9       	ldd	r24, Z+55	; 0x37
    1b62:	8c 83       	std	Y+4, r24	; 0x04
    1b64:	80 ad       	ldd	r24, Z+56	; 0x38
    1b66:	8d 83       	std	Y+5, r24	; 0x05
    1b68:	81 ad       	ldd	r24, Z+57	; 0x39
    1b6a:	8e 83       	std	Y+6, r24	; 0x06
    1b6c:	82 ad       	ldd	r24, Z+58	; 0x3a
    1b6e:	8f 83       	std	Y+7, r24	; 0x07
    1b70:	83 ad       	ldd	r24, Z+59	; 0x3b
    1b72:	88 87       	std	Y+8, r24	; 0x08
    1b74:	84 ad       	ldd	r24, Z+60	; 0x3c
    1b76:	89 87       	std	Y+9, r24	; 0x09
    1b78:	85 ad       	ldd	r24, Z+61	; 0x3d
    1b7a:	8a 87       	std	Y+10, r24	; 0x0a
    1b7c:	86 ad       	ldd	r24, Z+62	; 0x3e
    1b7e:	8b 87       	std	Y+11, r24	; 0x0b
    1b80:	87 ad       	ldd	r24, Z+63	; 0x3f
    1b82:	8c 87       	std	Y+12, r24	; 0x0c
    1b84:	80 a1       	ldd	r24, Z+32	; 0x20
    1b86:	8d 87       	std	Y+13, r24	; 0x0d
    1b88:	81 a1       	ldd	r24, Z+33	; 0x21
    1b8a:	8e 87       	std	Y+14, r24	; 0x0e
    1b8c:	82 a1       	ldd	r24, Z+34	; 0x22
    1b8e:	8f 87       	std	Y+15, r24	; 0x0f
    1b90:	83 a1       	ldd	r24, Z+35	; 0x23
    1b92:	88 8b       	std	Y+16, r24	; 0x10
    1b94:	84 a1       	ldd	r24, Z+36	; 0x24
    1b96:	89 8b       	std	Y+17, r24	; 0x11
    1b98:	85 a1       	ldd	r24, Z+37	; 0x25
    1b9a:	8a 8b       	std	Y+18, r24	; 0x12
    1b9c:	86 a1       	ldd	r24, Z+38	; 0x26
    1b9e:	8b 8b       	std	Y+19, r24	; 0x13
    1ba0:	87 a1       	ldd	r24, Z+39	; 0x27
    1ba2:	8c 8b       	std	Y+20, r24	; 0x14
    1ba4:	80 a5       	ldd	r24, Z+40	; 0x28
    1ba6:	8d 8b       	std	Y+21, r24	; 0x15
    1ba8:	81 a5       	ldd	r24, Z+41	; 0x29
    1baa:	8e 8b       	std	Y+22, r24	; 0x16
    1bac:	82 a5       	ldd	r24, Z+42	; 0x2a
    1bae:	8f 8b       	std	Y+23, r24	; 0x17
    1bb0:	83 a5       	ldd	r24, Z+43	; 0x2b
    1bb2:	88 8f       	std	Y+24, r24	; 0x18
    1bb4:	1c 8e       	std	Y+28, r1	; 0x1c
    1bb6:	1b 8e       	std	Y+27, r1	; 0x1b
    1bb8:	1a 8e       	std	Y+26, r1	; 0x1a
    1bba:	19 8e       	std	Y+25, r1	; 0x19
    1bbc:	80 a9       	ldd	r24, Z+48	; 0x30
    1bbe:	8d 8f       	std	Y+29, r24	; 0x1d
    1bc0:	81 a9       	ldd	r24, Z+49	; 0x31
    1bc2:	8e 8f       	std	Y+30, r24	; 0x1e
    1bc4:	82 a9       	ldd	r24, Z+50	; 0x32
    1bc6:	8f 8f       	std	Y+31, r24	; 0x1f
    1bc8:	83 a9       	ldd	r24, Z+51	; 0x33
    1bca:	88 a3       	std	Y+32, r24	; 0x20
    1bcc:	20 e2       	ldi	r18, 0x20	; 32
    1bce:	ae 01       	movw	r20, r28
    1bd0:	4f 5f       	subi	r20, 0xFF	; 255
    1bd2:	5f 4f       	sbci	r21, 0xFF	; 255
    1bd4:	b6 01       	movw	r22, r12
    1bd6:	c6 01       	movw	r24, r12
    1bd8:	0e 94 e4 05 	call	0xbc8	; 0xbc8 <uECC_vli_sub>
    1bdc:	f8 1a       	sub	r15, r24
    1bde:	f8 01       	movw	r30, r16
    1be0:	80 ad       	ldd	r24, Z+56	; 0x38
    1be2:	89 83       	std	Y+1, r24	; 0x01
    1be4:	81 ad       	ldd	r24, Z+57	; 0x39
    1be6:	8a 83       	std	Y+2, r24	; 0x02
    1be8:	82 ad       	ldd	r24, Z+58	; 0x3a
    1bea:	8b 83       	std	Y+3, r24	; 0x03
    1bec:	83 ad       	ldd	r24, Z+59	; 0x3b
    1bee:	8c 83       	std	Y+4, r24	; 0x04
    1bf0:	84 ad       	ldd	r24, Z+60	; 0x3c
    1bf2:	8d 83       	std	Y+5, r24	; 0x05
    1bf4:	85 ad       	ldd	r24, Z+61	; 0x3d
    1bf6:	8e 83       	std	Y+6, r24	; 0x06
    1bf8:	86 ad       	ldd	r24, Z+62	; 0x3e
    1bfa:	8f 83       	std	Y+7, r24	; 0x07
    1bfc:	87 ad       	ldd	r24, Z+63	; 0x3f
    1bfe:	88 87       	std	Y+8, r24	; 0x08
    1c00:	1c 86       	std	Y+12, r1	; 0x0c
    1c02:	1b 86       	std	Y+11, r1	; 0x0b
    1c04:	1a 86       	std	Y+10, r1	; 0x0a
    1c06:	19 86       	std	Y+9, r1	; 0x09
    1c08:	84 a1       	ldd	r24, Z+36	; 0x24
    1c0a:	8d 87       	std	Y+13, r24	; 0x0d
    1c0c:	85 a1       	ldd	r24, Z+37	; 0x25
    1c0e:	8e 87       	std	Y+14, r24	; 0x0e
    1c10:	86 a1       	ldd	r24, Z+38	; 0x26
    1c12:	8f 87       	std	Y+15, r24	; 0x0f
    1c14:	87 a1       	ldd	r24, Z+39	; 0x27
    1c16:	88 8b       	std	Y+16, r24	; 0x10
    1c18:	80 a5       	ldd	r24, Z+40	; 0x28
    1c1a:	89 8b       	std	Y+17, r24	; 0x11
    1c1c:	81 a5       	ldd	r24, Z+41	; 0x29
    1c1e:	8a 8b       	std	Y+18, r24	; 0x12
    1c20:	82 a5       	ldd	r24, Z+42	; 0x2a
    1c22:	8b 8b       	std	Y+19, r24	; 0x13
    1c24:	83 a5       	ldd	r24, Z+43	; 0x2b
    1c26:	8c 8b       	std	Y+20, r24	; 0x14
    1c28:	84 a5       	ldd	r24, Z+44	; 0x2c
    1c2a:	8d 8b       	std	Y+21, r24	; 0x15
    1c2c:	85 a5       	ldd	r24, Z+45	; 0x2d
    1c2e:	8e 8b       	std	Y+22, r24	; 0x16
    1c30:	86 a5       	ldd	r24, Z+46	; 0x2e
    1c32:	8f 8b       	std	Y+23, r24	; 0x17
    1c34:	87 a5       	ldd	r24, Z+47	; 0x2f
    1c36:	88 8f       	std	Y+24, r24	; 0x18
    1c38:	1c 8e       	std	Y+28, r1	; 0x1c
    1c3a:	1b 8e       	std	Y+27, r1	; 0x1b
    1c3c:	1a 8e       	std	Y+26, r1	; 0x1a
    1c3e:	19 8e       	std	Y+25, r1	; 0x19
    1c40:	84 a9       	ldd	r24, Z+52	; 0x34
    1c42:	8d 8f       	std	Y+29, r24	; 0x1d
    1c44:	85 a9       	ldd	r24, Z+53	; 0x35
    1c46:	8e 8f       	std	Y+30, r24	; 0x1e
    1c48:	86 a9       	ldd	r24, Z+54	; 0x36
    1c4a:	8f 8f       	std	Y+31, r24	; 0x1f
    1c4c:	87 a9       	ldd	r24, Z+55	; 0x37
    1c4e:	88 a3       	std	Y+32, r24	; 0x20
    1c50:	20 e2       	ldi	r18, 0x20	; 32
    1c52:	ae 01       	movw	r20, r28
    1c54:	4f 5f       	subi	r20, 0xFF	; 255
    1c56:	5f 4f       	sbci	r21, 0xFF	; 255
    1c58:	b6 01       	movw	r22, r12
    1c5a:	c6 01       	movw	r24, r12
    1c5c:	0e 94 e4 05 	call	0xbc8	; 0xbc8 <uECC_vli_sub>
    1c60:	1f 2d       	mov	r17, r15
    1c62:	18 1b       	sub	r17, r24
    1c64:	92 f4       	brpl	.+36     	; 0x1c8a <vli_mmod_fast_secp256r1+0x454>
    1c66:	20 e2       	ldi	r18, 0x20	; 32
    1c68:	4e e0       	ldi	r20, 0x0E	; 14
    1c6a:	51 e0       	ldi	r21, 0x01	; 1
    1c6c:	b6 01       	movw	r22, r12
    1c6e:	c6 01       	movw	r24, r12
    1c70:	0e 94 13 05 	call	0xa26	; 0xa26 <uECC_vli_add>
    1c74:	18 0f       	add	r17, r24
    1c76:	ba f3       	brmi	.-18     	; 0x1c66 <vli_mmod_fast_secp256r1+0x430>
    1c78:	11 c0       	rjmp	.+34     	; 0x1c9c <vli_mmod_fast_secp256r1+0x466>
    1c7a:	20 e2       	ldi	r18, 0x20	; 32
    1c7c:	4e e0       	ldi	r20, 0x0E	; 14
    1c7e:	51 e0       	ldi	r21, 0x01	; 1
    1c80:	b6 01       	movw	r22, r12
    1c82:	c6 01       	movw	r24, r12
    1c84:	0e 94 e4 05 	call	0xbc8	; 0xbc8 <uECC_vli_sub>
    1c88:	18 1b       	sub	r17, r24
    1c8a:	11 11       	cpse	r17, r1
    1c8c:	f6 cf       	rjmp	.-20     	; 0x1c7a <vli_mmod_fast_secp256r1+0x444>
    1c8e:	40 e2       	ldi	r20, 0x20	; 32
    1c90:	b6 01       	movw	r22, r12
    1c92:	8e e0       	ldi	r24, 0x0E	; 14
    1c94:	91 e0       	ldi	r25, 0x01	; 1
    1c96:	08 d9       	rcall	.-3568   	; 0xea8 <uECC_vli_cmp_unsafe>
    1c98:	81 30       	cpi	r24, 0x01	; 1
    1c9a:	79 f7       	brne	.-34     	; 0x1c7a <vli_mmod_fast_secp256r1+0x444>
    1c9c:	a0 96       	adiw	r28, 0x20	; 32
    1c9e:	0f b6       	in	r0, 0x3f	; 63
    1ca0:	f8 94       	cli
    1ca2:	de bf       	out	0x3e, r29	; 62
    1ca4:	0f be       	out	0x3f, r0	; 63
    1ca6:	cd bf       	out	0x3d, r28	; 61
    1ca8:	df 91       	pop	r29
    1caa:	cf 91       	pop	r28
    1cac:	1f 91       	pop	r17
    1cae:	0f 91       	pop	r16
    1cb0:	ff 90       	pop	r15
    1cb2:	df 90       	pop	r13
    1cb4:	cf 90       	pop	r12
    1cb6:	08 95       	ret

00001cb8 <apply_z>:
    1cb8:	af 92       	push	r10
    1cba:	bf 92       	push	r11
    1cbc:	cf 92       	push	r12
    1cbe:	df 92       	push	r13
    1cc0:	ef 92       	push	r14
    1cc2:	ff 92       	push	r15
    1cc4:	0f 93       	push	r16
    1cc6:	1f 93       	push	r17
    1cc8:	cf 93       	push	r28
    1cca:	df 93       	push	r29
    1ccc:	cd b7       	in	r28, 0x3d	; 61
    1cce:	de b7       	in	r29, 0x3e	; 62
    1cd0:	a0 97       	sbiw	r28, 0x20	; 32
    1cd2:	0f b6       	in	r0, 0x3f	; 63
    1cd4:	f8 94       	cli
    1cd6:	de bf       	out	0x3e, r29	; 62
    1cd8:	0f be       	out	0x3f, r0	; 63
    1cda:	cd bf       	out	0x3d, r28	; 61
    1cdc:	5c 01       	movw	r10, r24
    1cde:	7b 01       	movw	r14, r22
    1ce0:	6a 01       	movw	r12, r20
    1ce2:	89 01       	movw	r16, r18
    1ce4:	a9 01       	movw	r20, r18
    1ce6:	b6 01       	movw	r22, r12
    1ce8:	ce 01       	movw	r24, r28
    1cea:	01 96       	adiw	r24, 0x01	; 1
    1cec:	22 db       	rcall	.-2492   	; 0x1332 <uECC_vli_modSquare_fast>
    1cee:	98 01       	movw	r18, r16
    1cf0:	ae 01       	movw	r20, r28
    1cf2:	4f 5f       	subi	r20, 0xFF	; 255
    1cf4:	5f 4f       	sbci	r21, 0xFF	; 255
    1cf6:	b5 01       	movw	r22, r10
    1cf8:	c5 01       	movw	r24, r10
    1cfa:	ec da       	rcall	.-2600   	; 0x12d4 <uECC_vli_modMult_fast>
    1cfc:	98 01       	movw	r18, r16
    1cfe:	a6 01       	movw	r20, r12
    1d00:	be 01       	movw	r22, r28
    1d02:	6f 5f       	subi	r22, 0xFF	; 255
    1d04:	7f 4f       	sbci	r23, 0xFF	; 255
    1d06:	cb 01       	movw	r24, r22
    1d08:	e5 da       	rcall	.-2614   	; 0x12d4 <uECC_vli_modMult_fast>
    1d0a:	98 01       	movw	r18, r16
    1d0c:	ae 01       	movw	r20, r28
    1d0e:	4f 5f       	subi	r20, 0xFF	; 255
    1d10:	5f 4f       	sbci	r21, 0xFF	; 255
    1d12:	b7 01       	movw	r22, r14
    1d14:	c7 01       	movw	r24, r14
    1d16:	de da       	rcall	.-2628   	; 0x12d4 <uECC_vli_modMult_fast>
    1d18:	a0 96       	adiw	r28, 0x20	; 32
    1d1a:	0f b6       	in	r0, 0x3f	; 63
    1d1c:	f8 94       	cli
    1d1e:	de bf       	out	0x3e, r29	; 62
    1d20:	0f be       	out	0x3f, r0	; 63
    1d22:	cd bf       	out	0x3d, r28	; 61
    1d24:	df 91       	pop	r29
    1d26:	cf 91       	pop	r28
    1d28:	1f 91       	pop	r17
    1d2a:	0f 91       	pop	r16
    1d2c:	ff 90       	pop	r15
    1d2e:	ef 90       	pop	r14
    1d30:	df 90       	pop	r13
    1d32:	cf 90       	pop	r12
    1d34:	bf 90       	pop	r11
    1d36:	af 90       	pop	r10
    1d38:	08 95       	ret

00001d3a <XYcZ_add>:
    1d3a:	4f 92       	push	r4
    1d3c:	5f 92       	push	r5
    1d3e:	6f 92       	push	r6
    1d40:	7f 92       	push	r7
    1d42:	8f 92       	push	r8
    1d44:	9f 92       	push	r9
    1d46:	af 92       	push	r10
    1d48:	bf 92       	push	r11
    1d4a:	cf 92       	push	r12
    1d4c:	df 92       	push	r13
    1d4e:	ef 92       	push	r14
    1d50:	ff 92       	push	r15
    1d52:	0f 93       	push	r16
    1d54:	1f 93       	push	r17
    1d56:	cf 93       	push	r28
    1d58:	df 93       	push	r29
    1d5a:	cd b7       	in	r28, 0x3d	; 61
    1d5c:	de b7       	in	r29, 0x3e	; 62
    1d5e:	a0 97       	sbiw	r28, 0x20	; 32
    1d60:	0f b6       	in	r0, 0x3f	; 63
    1d62:	f8 94       	cli
    1d64:	de bf       	out	0x3e, r29	; 62
    1d66:	0f be       	out	0x3f, r0	; 63
    1d68:	cd bf       	out	0x3d, r28	; 61
    1d6a:	3c 01       	movw	r6, r24
    1d6c:	2b 01       	movw	r4, r22
    1d6e:	7a 01       	movw	r14, r20
    1d70:	59 01       	movw	r10, r18
    1d72:	68 01       	movw	r12, r16
    1d74:	f8 01       	movw	r30, r16
    1d76:	10 81       	ld	r17, Z
    1d78:	46 01       	movw	r8, r12
    1d7a:	f4 e0       	ldi	r31, 0x04	; 4
    1d7c:	8f 0e       	add	r8, r31
    1d7e:	91 1c       	adc	r9, r1
    1d80:	01 2f       	mov	r16, r17
    1d82:	94 01       	movw	r18, r8
    1d84:	ac 01       	movw	r20, r24
    1d86:	b7 01       	movw	r22, r14
    1d88:	ce 01       	movw	r24, r28
    1d8a:	01 96       	adiw	r24, 0x01	; 1
    1d8c:	08 d9       	rcall	.-3568   	; 0xf9e <uECC_vli_modSub>
    1d8e:	a6 01       	movw	r20, r12
    1d90:	be 01       	movw	r22, r28
    1d92:	6f 5f       	subi	r22, 0xFF	; 255
    1d94:	7f 4f       	sbci	r23, 0xFF	; 255
    1d96:	cb 01       	movw	r24, r22
    1d98:	cc da       	rcall	.-2664   	; 0x1332 <uECC_vli_modSquare_fast>
    1d9a:	96 01       	movw	r18, r12
    1d9c:	ae 01       	movw	r20, r28
    1d9e:	4f 5f       	subi	r20, 0xFF	; 255
    1da0:	5f 4f       	sbci	r21, 0xFF	; 255
    1da2:	b3 01       	movw	r22, r6
    1da4:	c3 01       	movw	r24, r6
    1da6:	96 da       	rcall	.-2772   	; 0x12d4 <uECC_vli_modMult_fast>
    1da8:	96 01       	movw	r18, r12
    1daa:	ae 01       	movw	r20, r28
    1dac:	4f 5f       	subi	r20, 0xFF	; 255
    1dae:	5f 4f       	sbci	r21, 0xFF	; 255
    1db0:	b7 01       	movw	r22, r14
    1db2:	c7 01       	movw	r24, r14
    1db4:	8f da       	rcall	.-2786   	; 0x12d4 <uECC_vli_modMult_fast>
    1db6:	94 01       	movw	r18, r8
    1db8:	a2 01       	movw	r20, r4
    1dba:	b5 01       	movw	r22, r10
    1dbc:	c5 01       	movw	r24, r10
    1dbe:	ef d8       	rcall	.-3618   	; 0xf9e <uECC_vli_modSub>
    1dc0:	a6 01       	movw	r20, r12
    1dc2:	b5 01       	movw	r22, r10
    1dc4:	ce 01       	movw	r24, r28
    1dc6:	01 96       	adiw	r24, 0x01	; 1
    1dc8:	b4 da       	rcall	.-2712   	; 0x1332 <uECC_vli_modSquare_fast>
    1dca:	94 01       	movw	r18, r8
    1dcc:	a3 01       	movw	r20, r6
    1dce:	be 01       	movw	r22, r28
    1dd0:	6f 5f       	subi	r22, 0xFF	; 255
    1dd2:	7f 4f       	sbci	r23, 0xFF	; 255
    1dd4:	cb 01       	movw	r24, r22
    1dd6:	e3 d8       	rcall	.-3642   	; 0xf9e <uECC_vli_modSub>
    1dd8:	94 01       	movw	r18, r8
    1dda:	a7 01       	movw	r20, r14
    1ddc:	be 01       	movw	r22, r28
    1dde:	6f 5f       	subi	r22, 0xFF	; 255
    1de0:	7f 4f       	sbci	r23, 0xFF	; 255
    1de2:	cb 01       	movw	r24, r22
    1de4:	dc d8       	rcall	.-3656   	; 0xf9e <uECC_vli_modSub>
    1de6:	94 01       	movw	r18, r8
    1de8:	a3 01       	movw	r20, r6
    1dea:	b7 01       	movw	r22, r14
    1dec:	c7 01       	movw	r24, r14
    1dee:	d7 d8       	rcall	.-3666   	; 0xf9e <uECC_vli_modSub>
    1df0:	96 01       	movw	r18, r12
    1df2:	a7 01       	movw	r20, r14
    1df4:	b2 01       	movw	r22, r4
    1df6:	c2 01       	movw	r24, r4
    1df8:	6d da       	rcall	.-2854   	; 0x12d4 <uECC_vli_modMult_fast>
    1dfa:	94 01       	movw	r18, r8
    1dfc:	ae 01       	movw	r20, r28
    1dfe:	4f 5f       	subi	r20, 0xFF	; 255
    1e00:	5f 4f       	sbci	r21, 0xFF	; 255
    1e02:	b3 01       	movw	r22, r6
    1e04:	c7 01       	movw	r24, r14
    1e06:	cb d8       	rcall	.-3690   	; 0xf9e <uECC_vli_modSub>
    1e08:	96 01       	movw	r18, r12
    1e0a:	a7 01       	movw	r20, r14
    1e0c:	b5 01       	movw	r22, r10
    1e0e:	c5 01       	movw	r24, r10
    1e10:	61 da       	rcall	.-2878   	; 0x12d4 <uECC_vli_modMult_fast>
    1e12:	94 01       	movw	r18, r8
    1e14:	a2 01       	movw	r20, r4
    1e16:	b5 01       	movw	r22, r10
    1e18:	c5 01       	movw	r24, r10
    1e1a:	c1 d8       	rcall	.-3710   	; 0xf9e <uECC_vli_modSub>
    1e1c:	41 2f       	mov	r20, r17
    1e1e:	be 01       	movw	r22, r28
    1e20:	6f 5f       	subi	r22, 0xFF	; 255
    1e22:	7f 4f       	sbci	r23, 0xFF	; 255
    1e24:	c7 01       	movw	r24, r14
    1e26:	0e 94 54 04 	call	0x8a8	; 0x8a8 <uECC_vli_set>
    1e2a:	a0 96       	adiw	r28, 0x20	; 32
    1e2c:	0f b6       	in	r0, 0x3f	; 63
    1e2e:	f8 94       	cli
    1e30:	de bf       	out	0x3e, r29	; 62
    1e32:	0f be       	out	0x3f, r0	; 63
    1e34:	cd bf       	out	0x3d, r28	; 61
    1e36:	df 91       	pop	r29
    1e38:	cf 91       	pop	r28
    1e3a:	1f 91       	pop	r17
    1e3c:	0f 91       	pop	r16
    1e3e:	ff 90       	pop	r15
    1e40:	ef 90       	pop	r14
    1e42:	df 90       	pop	r13
    1e44:	cf 90       	pop	r12
    1e46:	bf 90       	pop	r11
    1e48:	af 90       	pop	r10
    1e4a:	9f 90       	pop	r9
    1e4c:	8f 90       	pop	r8
    1e4e:	7f 90       	pop	r7
    1e50:	6f 90       	pop	r6
    1e52:	5f 90       	pop	r5
    1e54:	4f 90       	pop	r4
    1e56:	08 95       	ret

00001e58 <XYcZ_addC>:
    1e58:	4f 92       	push	r4
    1e5a:	5f 92       	push	r5
    1e5c:	6f 92       	push	r6
    1e5e:	7f 92       	push	r7
    1e60:	8f 92       	push	r8
    1e62:	9f 92       	push	r9
    1e64:	af 92       	push	r10
    1e66:	bf 92       	push	r11
    1e68:	cf 92       	push	r12
    1e6a:	df 92       	push	r13
    1e6c:	ef 92       	push	r14
    1e6e:	ff 92       	push	r15
    1e70:	0f 93       	push	r16
    1e72:	1f 93       	push	r17
    1e74:	cf 93       	push	r28
    1e76:	df 93       	push	r29
    1e78:	cd b7       	in	r28, 0x3d	; 61
    1e7a:	de b7       	in	r29, 0x3e	; 62
    1e7c:	c0 56       	subi	r28, 0x60	; 96
    1e7e:	d1 09       	sbc	r29, r1
    1e80:	0f b6       	in	r0, 0x3f	; 63
    1e82:	f8 94       	cli
    1e84:	de bf       	out	0x3e, r29	; 62
    1e86:	0f be       	out	0x3f, r0	; 63
    1e88:	cd bf       	out	0x3d, r28	; 61
    1e8a:	4c 01       	movw	r8, r24
    1e8c:	2b 01       	movw	r4, r22
    1e8e:	5a 01       	movw	r10, r20
    1e90:	39 01       	movw	r6, r18
    1e92:	68 01       	movw	r12, r16
    1e94:	f8 01       	movw	r30, r16
    1e96:	10 81       	ld	r17, Z
    1e98:	76 01       	movw	r14, r12
    1e9a:	f4 e0       	ldi	r31, 0x04	; 4
    1e9c:	ef 0e       	add	r14, r31
    1e9e:	f1 1c       	adc	r15, r1
    1ea0:	01 2f       	mov	r16, r17
    1ea2:	97 01       	movw	r18, r14
    1ea4:	ac 01       	movw	r20, r24
    1ea6:	b5 01       	movw	r22, r10
    1ea8:	ce 01       	movw	r24, r28
    1eaa:	01 96       	adiw	r24, 0x01	; 1
    1eac:	78 d8       	rcall	.-3856   	; 0xf9e <uECC_vli_modSub>
    1eae:	a6 01       	movw	r20, r12
    1eb0:	be 01       	movw	r22, r28
    1eb2:	6f 5f       	subi	r22, 0xFF	; 255
    1eb4:	7f 4f       	sbci	r23, 0xFF	; 255
    1eb6:	cb 01       	movw	r24, r22
    1eb8:	3c da       	rcall	.-2952   	; 0x1332 <uECC_vli_modSquare_fast>
    1eba:	96 01       	movw	r18, r12
    1ebc:	ae 01       	movw	r20, r28
    1ebe:	4f 5f       	subi	r20, 0xFF	; 255
    1ec0:	5f 4f       	sbci	r21, 0xFF	; 255
    1ec2:	b4 01       	movw	r22, r8
    1ec4:	c4 01       	movw	r24, r8
    1ec6:	06 da       	rcall	.-3060   	; 0x12d4 <uECC_vli_modMult_fast>
    1ec8:	96 01       	movw	r18, r12
    1eca:	ae 01       	movw	r20, r28
    1ecc:	4f 5f       	subi	r20, 0xFF	; 255
    1ece:	5f 4f       	sbci	r21, 0xFF	; 255
    1ed0:	b5 01       	movw	r22, r10
    1ed2:	c5 01       	movw	r24, r10
    1ed4:	ff d9       	rcall	.-3074   	; 0x12d4 <uECC_vli_modMult_fast>
    1ed6:	97 01       	movw	r18, r14
    1ed8:	a2 01       	movw	r20, r4
    1eda:	b3 01       	movw	r22, r6
    1edc:	ce 01       	movw	r24, r28
    1ede:	01 96       	adiw	r24, 0x01	; 1
    1ee0:	42 d8       	rcall	.-3964   	; 0xf66 <uECC_vli_modAdd>
    1ee2:	97 01       	movw	r18, r14
    1ee4:	a2 01       	movw	r20, r4
    1ee6:	b3 01       	movw	r22, r6
    1ee8:	c3 01       	movw	r24, r6
    1eea:	59 d8       	rcall	.-3918   	; 0xf9e <uECC_vli_modSub>
    1eec:	97 01       	movw	r18, r14
    1eee:	a4 01       	movw	r20, r8
    1ef0:	b5 01       	movw	r22, r10
    1ef2:	ce 01       	movw	r24, r28
    1ef4:	81 96       	adiw	r24, 0x21	; 33
    1ef6:	53 d8       	rcall	.-3930   	; 0xf9e <uECC_vli_modSub>
    1ef8:	96 01       	movw	r18, r12
    1efa:	ae 01       	movw	r20, r28
    1efc:	4f 5d       	subi	r20, 0xDF	; 223
    1efe:	5f 4f       	sbci	r21, 0xFF	; 255
    1f00:	b2 01       	movw	r22, r4
    1f02:	c2 01       	movw	r24, r4
    1f04:	e7 d9       	rcall	.-3122   	; 0x12d4 <uECC_vli_modMult_fast>
    1f06:	97 01       	movw	r18, r14
    1f08:	a5 01       	movw	r20, r10
    1f0a:	b4 01       	movw	r22, r8
    1f0c:	ce 01       	movw	r24, r28
    1f0e:	81 96       	adiw	r24, 0x21	; 33
    1f10:	2a d8       	rcall	.-4012   	; 0xf66 <uECC_vli_modAdd>
    1f12:	a6 01       	movw	r20, r12
    1f14:	b3 01       	movw	r22, r6
    1f16:	c5 01       	movw	r24, r10
    1f18:	0c da       	rcall	.-3048   	; 0x1332 <uECC_vli_modSquare_fast>
    1f1a:	97 01       	movw	r18, r14
    1f1c:	ae 01       	movw	r20, r28
    1f1e:	4f 5d       	subi	r20, 0xDF	; 223
    1f20:	5f 4f       	sbci	r21, 0xFF	; 255
    1f22:	b5 01       	movw	r22, r10
    1f24:	c5 01       	movw	r24, r10
    1f26:	3b d8       	rcall	.-3978   	; 0xf9e <uECC_vli_modSub>
    1f28:	97 01       	movw	r18, r14
    1f2a:	a5 01       	movw	r20, r10
    1f2c:	b4 01       	movw	r22, r8
    1f2e:	ce 01       	movw	r24, r28
    1f30:	8f 5b       	subi	r24, 0xBF	; 191
    1f32:	9f 4f       	sbci	r25, 0xFF	; 255
    1f34:	34 d8       	rcall	.-3992   	; 0xf9e <uECC_vli_modSub>
    1f36:	96 01       	movw	r18, r12
    1f38:	ae 01       	movw	r20, r28
    1f3a:	4f 5b       	subi	r20, 0xBF	; 191
    1f3c:	5f 4f       	sbci	r21, 0xFF	; 255
    1f3e:	b3 01       	movw	r22, r6
    1f40:	c3 01       	movw	r24, r6
    1f42:	c8 d9       	rcall	.-3184   	; 0x12d4 <uECC_vli_modMult_fast>
    1f44:	97 01       	movw	r18, r14
    1f46:	a2 01       	movw	r20, r4
    1f48:	b3 01       	movw	r22, r6
    1f4a:	c3 01       	movw	r24, r6
    1f4c:	28 d8       	rcall	.-4016   	; 0xf9e <uECC_vli_modSub>
    1f4e:	a6 01       	movw	r20, r12
    1f50:	be 01       	movw	r22, r28
    1f52:	6f 5f       	subi	r22, 0xFF	; 255
    1f54:	7f 4f       	sbci	r23, 0xFF	; 255
    1f56:	ce 01       	movw	r24, r28
    1f58:	8f 5b       	subi	r24, 0xBF	; 191
    1f5a:	9f 4f       	sbci	r25, 0xFF	; 255
    1f5c:	ea d9       	rcall	.-3116   	; 0x1332 <uECC_vli_modSquare_fast>
    1f5e:	97 01       	movw	r18, r14
    1f60:	ae 01       	movw	r20, r28
    1f62:	4f 5d       	subi	r20, 0xDF	; 223
    1f64:	5f 4f       	sbci	r21, 0xFF	; 255
    1f66:	be 01       	movw	r22, r28
    1f68:	6f 5b       	subi	r22, 0xBF	; 191
    1f6a:	7f 4f       	sbci	r23, 0xFF	; 255
    1f6c:	cb 01       	movw	r24, r22
    1f6e:	17 d8       	rcall	.-4050   	; 0xf9e <uECC_vli_modSub>
    1f70:	97 01       	movw	r18, r14
    1f72:	a4 01       	movw	r20, r8
    1f74:	be 01       	movw	r22, r28
    1f76:	6f 5b       	subi	r22, 0xBF	; 191
    1f78:	7f 4f       	sbci	r23, 0xFF	; 255
    1f7a:	ce 01       	movw	r24, r28
    1f7c:	81 96       	adiw	r24, 0x21	; 33
    1f7e:	0f d8       	rcall	.-4066   	; 0xf9e <uECC_vli_modSub>
    1f80:	96 01       	movw	r18, r12
    1f82:	ae 01       	movw	r20, r28
    1f84:	4f 5f       	subi	r20, 0xFF	; 255
    1f86:	5f 4f       	sbci	r21, 0xFF	; 255
    1f88:	be 01       	movw	r22, r28
    1f8a:	6f 5d       	subi	r22, 0xDF	; 223
    1f8c:	7f 4f       	sbci	r23, 0xFF	; 255
    1f8e:	cb 01       	movw	r24, r22
    1f90:	a1 d9       	rcall	.-3262   	; 0x12d4 <uECC_vli_modMult_fast>
    1f92:	97 01       	movw	r18, r14
    1f94:	a2 01       	movw	r20, r4
    1f96:	be 01       	movw	r22, r28
    1f98:	6f 5d       	subi	r22, 0xDF	; 223
    1f9a:	7f 4f       	sbci	r23, 0xFF	; 255
    1f9c:	c2 01       	movw	r24, r4
    1f9e:	0e 94 cf 07 	call	0xf9e	; 0xf9e <uECC_vli_modSub>
    1fa2:	41 2f       	mov	r20, r17
    1fa4:	be 01       	movw	r22, r28
    1fa6:	6f 5b       	subi	r22, 0xBF	; 191
    1fa8:	7f 4f       	sbci	r23, 0xFF	; 255
    1faa:	c4 01       	movw	r24, r8
    1fac:	0e 94 54 04 	call	0x8a8	; 0x8a8 <uECC_vli_set>
    1fb0:	c0 5a       	subi	r28, 0xA0	; 160
    1fb2:	df 4f       	sbci	r29, 0xFF	; 255
    1fb4:	0f b6       	in	r0, 0x3f	; 63
    1fb6:	f8 94       	cli
    1fb8:	de bf       	out	0x3e, r29	; 62
    1fba:	0f be       	out	0x3f, r0	; 63
    1fbc:	cd bf       	out	0x3d, r28	; 61
    1fbe:	df 91       	pop	r29
    1fc0:	cf 91       	pop	r28
    1fc2:	1f 91       	pop	r17
    1fc4:	0f 91       	pop	r16
    1fc6:	ff 90       	pop	r15
    1fc8:	ef 90       	pop	r14
    1fca:	df 90       	pop	r13
    1fcc:	cf 90       	pop	r12
    1fce:	bf 90       	pop	r11
    1fd0:	af 90       	pop	r10
    1fd2:	9f 90       	pop	r9
    1fd4:	8f 90       	pop	r8
    1fd6:	7f 90       	pop	r7
    1fd8:	6f 90       	pop	r6
    1fda:	5f 90       	pop	r5
    1fdc:	4f 90       	pop	r4
    1fde:	08 95       	ret

00001fe0 <EccPoint_mult>:
    1fe0:	2f 92       	push	r2
    1fe2:	3f 92       	push	r3
    1fe4:	4f 92       	push	r4
    1fe6:	5f 92       	push	r5
    1fe8:	6f 92       	push	r6
    1fea:	7f 92       	push	r7
    1fec:	8f 92       	push	r8
    1fee:	9f 92       	push	r9
    1ff0:	af 92       	push	r10
    1ff2:	bf 92       	push	r11
    1ff4:	cf 92       	push	r12
    1ff6:	df 92       	push	r13
    1ff8:	ef 92       	push	r14
    1ffa:	ff 92       	push	r15
    1ffc:	0f 93       	push	r16
    1ffe:	1f 93       	push	r17
    2000:	cf 93       	push	r28
    2002:	df 93       	push	r29
    2004:	cd b7       	in	r28, 0x3d	; 61
    2006:	de b7       	in	r29, 0x3e	; 62
    2008:	cb 5c       	subi	r28, 0xCB	; 203
    200a:	d1 09       	sbc	r29, r1
    200c:	0f b6       	in	r0, 0x3f	; 63
    200e:	f8 94       	cli
    2010:	de bf       	out	0x3e, r29	; 62
    2012:	0f be       	out	0x3f, r0	; 63
    2014:	cd bf       	out	0x3d, r28	; 61
    2016:	c6 53       	subi	r28, 0x36	; 54
    2018:	df 4f       	sbci	r29, 0xFF	; 255
    201a:	99 83       	std	Y+1, r25	; 0x01
    201c:	88 83       	st	Y, r24
    201e:	ca 5c       	subi	r28, 0xCA	; 202
    2020:	d0 40       	sbci	r29, 0x00	; 0
    2022:	cc 53       	subi	r28, 0x3C	; 60
    2024:	df 4f       	sbci	r29, 0xFF	; 255
    2026:	79 83       	std	Y+1, r23	; 0x01
    2028:	68 83       	st	Y, r22
    202a:	c4 5c       	subi	r28, 0xC4	; 196
    202c:	d0 40       	sbci	r29, 0x00	; 0
    202e:	cf 53       	subi	r28, 0x3F	; 63
    2030:	df 4f       	sbci	r29, 0xFF	; 255
    2032:	59 83       	std	Y+1, r21	; 0x01
    2034:	48 83       	st	Y, r20
    2036:	c1 5c       	subi	r28, 0xC1	; 193
    2038:	d0 40       	sbci	r29, 0x00	; 0
    203a:	69 01       	movw	r12, r18
    203c:	17 01       	movw	r2, r14
    203e:	f7 01       	movw	r30, r14
    2040:	f0 81       	ld	r31, Z
    2042:	cd 53       	subi	r28, 0x3D	; 61
    2044:	df 4f       	sbci	r29, 0xFF	; 255
    2046:	f8 83       	st	Y, r31
    2048:	c3 5c       	subi	r28, 0xC3	; 195
    204a:	d0 40       	sbci	r29, 0x00	; 0
    204c:	4f 2f       	mov	r20, r31
    204e:	ce 01       	movw	r24, r28
    2050:	81 96       	adiw	r24, 0x21	; 33
    2052:	0e 94 54 04 	call	0x8a8	; 0x8a8 <uECC_vli_set>
    2056:	cd 53       	subi	r28, 0x3D	; 61
    2058:	df 4f       	sbci	r29, 0xFF	; 255
    205a:	28 81       	ld	r18, Y
    205c:	c3 5c       	subi	r28, 0xC3	; 195
    205e:	d0 40       	sbci	r29, 0x00	; 0
    2060:	02 2e       	mov	r0, r18
    2062:	00 0c       	add	r0, r0
    2064:	33 0b       	sbc	r19, r19
    2066:	ca 53       	subi	r28, 0x3A	; 58
    2068:	df 4f       	sbci	r29, 0xFF	; 255
    206a:	39 83       	std	Y+1, r19	; 0x01
    206c:	28 83       	st	Y, r18
    206e:	c6 5c       	subi	r28, 0xC6	; 198
    2070:	d0 40       	sbci	r29, 0x00	; 0
    2072:	cc 53       	subi	r28, 0x3C	; 60
    2074:	df 4f       	sbci	r29, 0xFF	; 255
    2076:	88 81       	ld	r24, Y
    2078:	99 81       	ldd	r25, Y+1	; 0x01
    207a:	c4 5c       	subi	r28, 0xC4	; 196
    207c:	d0 40       	sbci	r29, 0x00	; 0
    207e:	82 0f       	add	r24, r18
    2080:	93 1f       	adc	r25, r19
    2082:	c8 53       	subi	r28, 0x38	; 56
    2084:	df 4f       	sbci	r29, 0xFF	; 255
    2086:	99 83       	std	Y+1, r25	; 0x01
    2088:	88 83       	st	Y, r24
    208a:	c8 5c       	subi	r28, 0xC8	; 200
    208c:	d0 40       	sbci	r29, 0x00	; 0
    208e:	cd 53       	subi	r28, 0x3D	; 61
    2090:	df 4f       	sbci	r29, 0xFF	; 255
    2092:	48 81       	ld	r20, Y
    2094:	c3 5c       	subi	r28, 0xC3	; 195
    2096:	d0 40       	sbci	r29, 0x00	; 0
    2098:	bc 01       	movw	r22, r24
    209a:	ce 01       	movw	r24, r28
    209c:	8f 59       	subi	r24, 0x9F	; 159
    209e:	9f 4f       	sbci	r25, 0xFF	; 255
    20a0:	0e 94 54 04 	call	0x8a8	; 0x8a8 <uECC_vli_set>
    20a4:	f7 01       	movw	r30, r14
    20a6:	b0 80       	ld	r11, Z
    20a8:	c1 14       	cp	r12, r1
    20aa:	d1 04       	cpc	r13, r1
    20ac:	41 f0       	breq	.+16     	; 0x20be <EccPoint_mult+0xde>
    20ae:	4b 2d       	mov	r20, r11
    20b0:	b6 01       	movw	r22, r12
    20b2:	ce 01       	movw	r24, r28
    20b4:	8f 55       	subi	r24, 0x5F	; 95
    20b6:	9f 4f       	sbci	r25, 0xFF	; 255
    20b8:	0e 94 54 04 	call	0x8a8	; 0x8a8 <uECC_vli_set>
    20bc:	0c c0       	rjmp	.+24     	; 0x20d6 <EccPoint_mult+0xf6>
    20be:	6b 2d       	mov	r22, r11
    20c0:	ce 01       	movw	r24, r28
    20c2:	8f 55       	subi	r24, 0x5F	; 95
    20c4:	9f 4f       	sbci	r25, 0xFF	; 255
    20c6:	0e 94 2d 04 	call	0x85a	; 0x85a <uECC_vli_clear>
    20ca:	81 e0       	ldi	r24, 0x01	; 1
    20cc:	cf 55       	subi	r28, 0x5F	; 95
    20ce:	df 4f       	sbci	r29, 0xFF	; 255
    20d0:	88 83       	st	Y, r24
    20d2:	c1 5a       	subi	r28, 0xA1	; 161
    20d4:	d0 40       	sbci	r29, 0x00	; 0
    20d6:	4b 2d       	mov	r20, r11
    20d8:	be 01       	movw	r22, r28
    20da:	6f 5d       	subi	r22, 0xDF	; 223
    20dc:	7f 4f       	sbci	r23, 0xFF	; 255
    20de:	ce 01       	movw	r24, r28
    20e0:	01 96       	adiw	r24, 0x01	; 1
    20e2:	0e 94 54 04 	call	0x8a8	; 0x8a8 <uECC_vli_set>
    20e6:	0f 2e       	mov	r0, r31
    20e8:	f1 e4       	ldi	r31, 0x41	; 65
    20ea:	ef 2e       	mov	r14, r31
    20ec:	f1 2c       	mov	r15, r1
    20ee:	f0 2d       	mov	r31, r0
    20f0:	ec 0e       	add	r14, r28
    20f2:	fd 1e       	adc	r15, r29
    20f4:	f0 e2       	ldi	r31, 0x20	; 32
    20f6:	ef 0e       	add	r14, r31
    20f8:	f1 1c       	adc	r15, r1
    20fa:	4b 2d       	mov	r20, r11
    20fc:	b7 01       	movw	r22, r14
    20fe:	ce 01       	movw	r24, r28
    2100:	8f 5b       	subi	r24, 0xBF	; 191
    2102:	9f 4f       	sbci	r25, 0xFF	; 255
    2104:	0e 94 54 04 	call	0x8a8	; 0x8a8 <uECC_vli_set>
    2108:	91 01       	movw	r18, r2
    210a:	ae 01       	movw	r20, r28
    210c:	4f 55       	subi	r20, 0x5F	; 95
    210e:	5f 4f       	sbci	r21, 0xFF	; 255
    2110:	b7 01       	movw	r22, r14
    2112:	ce 01       	movw	r24, r28
    2114:	81 96       	adiw	r24, 0x21	; 33
    2116:	d0 dd       	rcall	.-1120   	; 0x1cb8 <apply_z>
    2118:	f1 01       	movw	r30, r2
    211a:	ec 55       	subi	r30, 0x5C	; 92
    211c:	ff 4f       	sbci	r31, 0xFF	; 255
    211e:	01 90       	ld	r0, Z+
    2120:	f0 81       	ld	r31, Z
    2122:	e0 2d       	mov	r30, r0
    2124:	91 01       	movw	r18, r2
    2126:	ae 01       	movw	r20, r28
    2128:	4f 55       	subi	r20, 0x5F	; 95
    212a:	5f 4f       	sbci	r21, 0xFF	; 255
    212c:	b7 01       	movw	r22, r14
    212e:	ce 01       	movw	r24, r28
    2130:	81 96       	adiw	r24, 0x21	; 33
    2132:	09 95       	icall
    2134:	91 01       	movw	r18, r2
    2136:	ae 01       	movw	r20, r28
    2138:	4f 55       	subi	r20, 0x5F	; 95
    213a:	5f 4f       	sbci	r21, 0xFF	; 255
    213c:	be 01       	movw	r22, r28
    213e:	6f 5b       	subi	r22, 0xBF	; 191
    2140:	7f 4f       	sbci	r23, 0xFF	; 255
    2142:	ce 01       	movw	r24, r28
    2144:	01 96       	adiw	r24, 0x01	; 1
    2146:	b8 dd       	rcall	.-1168   	; 0x1cb8 <apply_z>
    2148:	58 01       	movw	r10, r16
    214a:	22 e0       	ldi	r18, 0x02	; 2
    214c:	a2 1a       	sub	r10, r18
    214e:	b1 08       	sbc	r11, r1
    2150:	1a 14       	cp	r1, r10
    2152:	1b 04       	cpc	r1, r11
    2154:	0c f0       	brlt	.+2      	; 0x2158 <EccPoint_mult+0x178>
    2156:	53 c0       	rjmp	.+166    	; 0x21fe <EccPoint_mult+0x21e>
    2158:	44 24       	eor	r4, r4
    215a:	43 94       	inc	r4
    215c:	51 2c       	mov	r5, r1
    215e:	b5 01       	movw	r22, r10
    2160:	cf 53       	subi	r28, 0x3F	; 63
    2162:	df 4f       	sbci	r29, 0xFF	; 255
    2164:	88 81       	ld	r24, Y
    2166:	99 81       	ldd	r25, Y+1	; 0x01
    2168:	c1 5c       	subi	r28, 0xC1	; 193
    216a:	d0 40       	sbci	r29, 0x00	; 0
    216c:	0e 94 07 07 	call	0xe0e	; 0xe0e <uECC_vli_testBit>
    2170:	92 01       	movw	r18, r4
    2172:	88 23       	and	r24, r24
    2174:	11 f0       	breq	.+4      	; 0x217a <EccPoint_mult+0x19a>
    2176:	20 e0       	ldi	r18, 0x00	; 0
    2178:	30 e0       	ldi	r19, 0x00	; 0
    217a:	39 01       	movw	r6, r18
    217c:	66 0c       	add	r6, r6
    217e:	77 1c       	adc	r7, r7
    2180:	66 0c       	add	r6, r6
    2182:	77 1c       	adc	r7, r7
    2184:	66 0c       	add	r6, r6
    2186:	77 1c       	adc	r7, r7
    2188:	66 0c       	add	r6, r6
    218a:	77 1c       	adc	r7, r7
    218c:	66 0c       	add	r6, r6
    218e:	77 1c       	adc	r7, r7
    2190:	0f 2e       	mov	r0, r31
    2192:	f1 e4       	ldi	r31, 0x41	; 65
    2194:	cf 2e       	mov	r12, r31
    2196:	d1 2c       	mov	r13, r1
    2198:	f0 2d       	mov	r31, r0
    219a:	cc 0e       	add	r12, r28
    219c:	dd 1e       	adc	r13, r29
    219e:	c6 0c       	add	r12, r6
    21a0:	d7 1c       	adc	r13, r7
    21a2:	81 e0       	ldi	r24, 0x01	; 1
    21a4:	90 e0       	ldi	r25, 0x00	; 0
    21a6:	8c 0f       	add	r24, r28
    21a8:	9d 1f       	adc	r25, r29
    21aa:	68 0e       	add	r6, r24
    21ac:	79 1e       	adc	r7, r25
    21ae:	72 01       	movw	r14, r4
    21b0:	e2 1a       	sub	r14, r18
    21b2:	f3 0a       	sbc	r15, r19
    21b4:	ee 0c       	add	r14, r14
    21b6:	ff 1c       	adc	r15, r15
    21b8:	ee 0c       	add	r14, r14
    21ba:	ff 1c       	adc	r15, r15
    21bc:	ee 0c       	add	r14, r14
    21be:	ff 1c       	adc	r15, r15
    21c0:	ee 0c       	add	r14, r14
    21c2:	ff 1c       	adc	r15, r15
    21c4:	ee 0c       	add	r14, r14
    21c6:	ff 1c       	adc	r15, r15
    21c8:	0f 2e       	mov	r0, r31
    21ca:	f1 e4       	ldi	r31, 0x41	; 65
    21cc:	8f 2e       	mov	r8, r31
    21ce:	91 2c       	mov	r9, r1
    21d0:	f0 2d       	mov	r31, r0
    21d2:	8c 0e       	add	r8, r28
    21d4:	9d 1e       	adc	r9, r29
    21d6:	8e 0c       	add	r8, r14
    21d8:	9f 1c       	adc	r9, r15
    21da:	e8 0e       	add	r14, r24
    21dc:	f9 1e       	adc	r15, r25
    21de:	81 01       	movw	r16, r2
    21e0:	96 01       	movw	r18, r12
    21e2:	a3 01       	movw	r20, r6
    21e4:	b4 01       	movw	r22, r8
    21e6:	c7 01       	movw	r24, r14
    21e8:	37 de       	rcall	.-914    	; 0x1e58 <XYcZ_addC>
    21ea:	94 01       	movw	r18, r8
    21ec:	a7 01       	movw	r20, r14
    21ee:	b6 01       	movw	r22, r12
    21f0:	c3 01       	movw	r24, r6
    21f2:	a3 dd       	rcall	.-1210   	; 0x1d3a <XYcZ_add>
    21f4:	91 e0       	ldi	r25, 0x01	; 1
    21f6:	a9 1a       	sub	r10, r25
    21f8:	b1 08       	sbc	r11, r1
    21fa:	09 f0       	breq	.+2      	; 0x21fe <EccPoint_mult+0x21e>
    21fc:	b0 cf       	rjmp	.-160    	; 0x215e <EccPoint_mult+0x17e>
    21fe:	60 e0       	ldi	r22, 0x00	; 0
    2200:	70 e0       	ldi	r23, 0x00	; 0
    2202:	cf 53       	subi	r28, 0x3F	; 63
    2204:	df 4f       	sbci	r29, 0xFF	; 255
    2206:	88 81       	ld	r24, Y
    2208:	99 81       	ldd	r25, Y+1	; 0x01
    220a:	c1 5c       	subi	r28, 0xC1	; 193
    220c:	d0 40       	sbci	r29, 0x00	; 0
    220e:	0e 94 07 07 	call	0xe0e	; 0xe0e <uECC_vli_testBit>
    2212:	21 e0       	ldi	r18, 0x01	; 1
    2214:	30 e0       	ldi	r19, 0x00	; 0
    2216:	88 23       	and	r24, r24
    2218:	11 f0       	breq	.+4      	; 0x221e <EccPoint_mult+0x23e>
    221a:	20 e0       	ldi	r18, 0x00	; 0
    221c:	30 e0       	ldi	r19, 0x00	; 0
    221e:	69 01       	movw	r12, r18
    2220:	cc 0c       	add	r12, r12
    2222:	dd 1c       	adc	r13, r13
    2224:	cc 0c       	add	r12, r12
    2226:	dd 1c       	adc	r13, r13
    2228:	cc 0c       	add	r12, r12
    222a:	dd 1c       	adc	r13, r13
    222c:	cc 0c       	add	r12, r12
    222e:	dd 1c       	adc	r13, r13
    2230:	cc 0c       	add	r12, r12
    2232:	dd 1c       	adc	r13, r13
    2234:	0f 2e       	mov	r0, r31
    2236:	f1 e4       	ldi	r31, 0x41	; 65
    2238:	8f 2e       	mov	r8, r31
    223a:	91 2c       	mov	r9, r1
    223c:	f0 2d       	mov	r31, r0
    223e:	8c 0e       	add	r8, r28
    2240:	9d 1e       	adc	r9, r29
    2242:	8c 0c       	add	r8, r12
    2244:	9d 1c       	adc	r9, r13
    2246:	e1 e0       	ldi	r30, 0x01	; 1
    2248:	f0 e0       	ldi	r31, 0x00	; 0
    224a:	ec 0f       	add	r30, r28
    224c:	fd 1f       	adc	r31, r29
    224e:	ce 0e       	add	r12, r30
    2250:	df 1e       	adc	r13, r31
    2252:	81 e0       	ldi	r24, 0x01	; 1
    2254:	90 e0       	ldi	r25, 0x00	; 0
    2256:	7c 01       	movw	r14, r24
    2258:	e2 1a       	sub	r14, r18
    225a:	f3 0a       	sbc	r15, r19
    225c:	ee 0c       	add	r14, r14
    225e:	ff 1c       	adc	r15, r15
    2260:	ee 0c       	add	r14, r14
    2262:	ff 1c       	adc	r15, r15
    2264:	ee 0c       	add	r14, r14
    2266:	ff 1c       	adc	r15, r15
    2268:	ee 0c       	add	r14, r14
    226a:	ff 1c       	adc	r15, r15
    226c:	ee 0c       	add	r14, r14
    226e:	ff 1c       	adc	r15, r15
    2270:	0f 2e       	mov	r0, r31
    2272:	f1 e4       	ldi	r31, 0x41	; 65
    2274:	af 2e       	mov	r10, r31
    2276:	b1 2c       	mov	r11, r1
    2278:	f0 2d       	mov	r31, r0
    227a:	ac 0e       	add	r10, r28
    227c:	bd 1e       	adc	r11, r29
    227e:	ae 0c       	add	r10, r14
    2280:	bf 1c       	adc	r11, r15
    2282:	ee 0e       	add	r14, r30
    2284:	ff 1e       	adc	r15, r31
    2286:	81 01       	movw	r16, r2
    2288:	94 01       	movw	r18, r8
    228a:	a6 01       	movw	r20, r12
    228c:	b5 01       	movw	r22, r10
    228e:	c7 01       	movw	r24, r14
    2290:	e3 dd       	rcall	.-1082   	; 0x1e58 <XYcZ_addC>
    2292:	31 01       	movw	r6, r2
    2294:	f4 e0       	ldi	r31, 0x04	; 4
    2296:	6f 0e       	add	r6, r31
    2298:	71 1c       	adc	r7, r1
    229a:	cd 53       	subi	r28, 0x3D	; 61
    229c:	df 4f       	sbci	r29, 0xFF	; 255
    229e:	08 81       	ld	r16, Y
    22a0:	c3 5c       	subi	r28, 0xC3	; 195
    22a2:	d0 40       	sbci	r29, 0x00	; 0
    22a4:	93 01       	movw	r18, r6
    22a6:	ae 01       	movw	r20, r28
    22a8:	4f 5f       	subi	r20, 0xFF	; 255
    22aa:	5f 4f       	sbci	r21, 0xFF	; 255
    22ac:	be 01       	movw	r22, r28
    22ae:	6f 5d       	subi	r22, 0xDF	; 223
    22b0:	7f 4f       	sbci	r23, 0xFF	; 255
    22b2:	ce 01       	movw	r24, r28
    22b4:	8f 57       	subi	r24, 0x7F	; 127
    22b6:	9f 4f       	sbci	r25, 0xFF	; 255
    22b8:	0e 94 cf 07 	call	0xf9e	; 0xf9e <uECC_vli_modSub>
    22bc:	91 01       	movw	r18, r2
    22be:	a5 01       	movw	r20, r10
    22c0:	be 01       	movw	r22, r28
    22c2:	6f 57       	subi	r22, 0x7F	; 127
    22c4:	7f 4f       	sbci	r23, 0xFF	; 255
    22c6:	cb 01       	movw	r24, r22
    22c8:	05 d8       	rcall	.-4086   	; 0x12d4 <uECC_vli_modMult_fast>
    22ca:	91 01       	movw	r18, r2
    22cc:	cc 53       	subi	r28, 0x3C	; 60
    22ce:	df 4f       	sbci	r29, 0xFF	; 255
    22d0:	48 81       	ld	r20, Y
    22d2:	59 81       	ldd	r21, Y+1	; 0x01
    22d4:	c4 5c       	subi	r28, 0xC4	; 196
    22d6:	d0 40       	sbci	r29, 0x00	; 0
    22d8:	be 01       	movw	r22, r28
    22da:	6f 57       	subi	r22, 0x7F	; 127
    22dc:	7f 4f       	sbci	r23, 0xFF	; 255
    22de:	cb 01       	movw	r24, r22
    22e0:	0e 94 6a 09 	call	0x12d4	; 0x12d4 <uECC_vli_modMult_fast>
    22e4:	cd 53       	subi	r28, 0x3D	; 61
    22e6:	df 4f       	sbci	r29, 0xFF	; 255
    22e8:	28 81       	ld	r18, Y
    22ea:	c3 5c       	subi	r28, 0xC3	; 195
    22ec:	d0 40       	sbci	r29, 0x00	; 0
    22ee:	a3 01       	movw	r20, r6
    22f0:	be 01       	movw	r22, r28
    22f2:	6f 57       	subi	r22, 0x7F	; 127
    22f4:	7f 4f       	sbci	r23, 0xFF	; 255
    22f6:	cb 01       	movw	r24, r22
    22f8:	47 d8       	rcall	.-3954   	; 0x1388 <uECC_vli_modInv>
    22fa:	91 01       	movw	r18, r2
    22fc:	c8 53       	subi	r28, 0x38	; 56
    22fe:	df 4f       	sbci	r29, 0xFF	; 255
    2300:	48 81       	ld	r20, Y
    2302:	59 81       	ldd	r21, Y+1	; 0x01
    2304:	c8 5c       	subi	r28, 0xC8	; 200
    2306:	d0 40       	sbci	r29, 0x00	; 0
    2308:	be 01       	movw	r22, r28
    230a:	6f 57       	subi	r22, 0x7F	; 127
    230c:	7f 4f       	sbci	r23, 0xFF	; 255
    230e:	cb 01       	movw	r24, r22
    2310:	0e 94 6a 09 	call	0x12d4	; 0x12d4 <uECC_vli_modMult_fast>
    2314:	91 01       	movw	r18, r2
    2316:	a7 01       	movw	r20, r14
    2318:	be 01       	movw	r22, r28
    231a:	6f 57       	subi	r22, 0x7F	; 127
    231c:	7f 4f       	sbci	r23, 0xFF	; 255
    231e:	cb 01       	movw	r24, r22
    2320:	0e 94 6a 09 	call	0x12d4	; 0x12d4 <uECC_vli_modMult_fast>
    2324:	81 01       	movw	r16, r2
    2326:	95 01       	movw	r18, r10
    2328:	a7 01       	movw	r20, r14
    232a:	b4 01       	movw	r22, r8
    232c:	c6 01       	movw	r24, r12
    232e:	05 dd       	rcall	.-1526   	; 0x1d3a <XYcZ_add>
    2330:	91 01       	movw	r18, r2
    2332:	ae 01       	movw	r20, r28
    2334:	4f 57       	subi	r20, 0x7F	; 127
    2336:	5f 4f       	sbci	r21, 0xFF	; 255
    2338:	be 01       	movw	r22, r28
    233a:	6f 5b       	subi	r22, 0xBF	; 191
    233c:	7f 4f       	sbci	r23, 0xFF	; 255
    233e:	ce 01       	movw	r24, r28
    2340:	01 96       	adiw	r24, 0x01	; 1
    2342:	ba dc       	rcall	.-1676   	; 0x1cb8 <apply_z>
    2344:	cd 53       	subi	r28, 0x3D	; 61
    2346:	df 4f       	sbci	r29, 0xFF	; 255
    2348:	48 81       	ld	r20, Y
    234a:	c3 5c       	subi	r28, 0xC3	; 195
    234c:	d0 40       	sbci	r29, 0x00	; 0
    234e:	be 01       	movw	r22, r28
    2350:	6f 5f       	subi	r22, 0xFF	; 255
    2352:	7f 4f       	sbci	r23, 0xFF	; 255
    2354:	c6 53       	subi	r28, 0x36	; 54
    2356:	df 4f       	sbci	r29, 0xFF	; 255
    2358:	88 81       	ld	r24, Y
    235a:	99 81       	ldd	r25, Y+1	; 0x01
    235c:	ca 5c       	subi	r28, 0xCA	; 202
    235e:	d0 40       	sbci	r29, 0x00	; 0
    2360:	0e 94 54 04 	call	0x8a8	; 0x8a8 <uECC_vli_set>
    2364:	cd 53       	subi	r28, 0x3D	; 61
    2366:	df 4f       	sbci	r29, 0xFF	; 255
    2368:	48 81       	ld	r20, Y
    236a:	c3 5c       	subi	r28, 0xC3	; 195
    236c:	d0 40       	sbci	r29, 0x00	; 0
    236e:	be 01       	movw	r22, r28
    2370:	6f 5b       	subi	r22, 0xBF	; 191
    2372:	7f 4f       	sbci	r23, 0xFF	; 255
    2374:	c6 53       	subi	r28, 0x36	; 54
    2376:	df 4f       	sbci	r29, 0xFF	; 255
    2378:	88 81       	ld	r24, Y
    237a:	99 81       	ldd	r25, Y+1	; 0x01
    237c:	ca 5c       	subi	r28, 0xCA	; 202
    237e:	d0 40       	sbci	r29, 0x00	; 0
    2380:	ca 53       	subi	r28, 0x3A	; 58
    2382:	df 4f       	sbci	r29, 0xFF	; 255
    2384:	28 81       	ld	r18, Y
    2386:	39 81       	ldd	r19, Y+1	; 0x01
    2388:	c6 5c       	subi	r28, 0xC6	; 198
    238a:	d0 40       	sbci	r29, 0x00	; 0
    238c:	82 0f       	add	r24, r18
    238e:	93 1f       	adc	r25, r19
    2390:	0e 94 54 04 	call	0x8a8	; 0x8a8 <uECC_vli_set>
    2394:	c5 53       	subi	r28, 0x35	; 53
    2396:	df 4f       	sbci	r29, 0xFF	; 255
    2398:	0f b6       	in	r0, 0x3f	; 63
    239a:	f8 94       	cli
    239c:	de bf       	out	0x3e, r29	; 62
    239e:	0f be       	out	0x3f, r0	; 63
    23a0:	cd bf       	out	0x3d, r28	; 61
    23a2:	df 91       	pop	r29
    23a4:	cf 91       	pop	r28
    23a6:	1f 91       	pop	r17
    23a8:	0f 91       	pop	r16
    23aa:	ff 90       	pop	r15
    23ac:	ef 90       	pop	r14
    23ae:	df 90       	pop	r13
    23b0:	cf 90       	pop	r12
    23b2:	bf 90       	pop	r11
    23b4:	af 90       	pop	r10
    23b6:	9f 90       	pop	r9
    23b8:	8f 90       	pop	r8
    23ba:	7f 90       	pop	r7
    23bc:	6f 90       	pop	r6
    23be:	5f 90       	pop	r5
    23c0:	4f 90       	pop	r4
    23c2:	3f 90       	pop	r3
    23c4:	2f 90       	pop	r2
    23c6:	08 95       	ret

000023c8 <regularize_k>:
    23c8:	af 92       	push	r10
    23ca:	bf 92       	push	r11
    23cc:	cf 92       	push	r12
    23ce:	df 92       	push	r13
    23d0:	ef 92       	push	r14
    23d2:	ff 92       	push	r15
    23d4:	0f 93       	push	r16
    23d6:	1f 93       	push	r17
    23d8:	cf 93       	push	r28
    23da:	df 93       	push	r29
    23dc:	7b 01       	movw	r14, r22
    23de:	5a 01       	movw	r10, r20
    23e0:	f9 01       	movw	r30, r18
    23e2:	c2 80       	ldd	r12, Z+2	; 0x02
    23e4:	d3 80       	ldd	r13, Z+3	; 0x03
    23e6:	a6 01       	movw	r20, r12
    23e8:	49 5f       	subi	r20, 0xF9	; 249
    23ea:	5f 4f       	sbci	r21, 0xFF	; 255
    23ec:	ea 01       	movw	r28, r20
    23ee:	dd 23       	and	r29, r29
    23f0:	0c f4       	brge	.+2      	; 0x23f4 <regularize_k+0x2c>
    23f2:	27 96       	adiw	r28, 0x07	; 7
    23f4:	d5 95       	asr	r29
    23f6:	c7 95       	ror	r28
    23f8:	d5 95       	asr	r29
    23fa:	c7 95       	ror	r28
    23fc:	d5 95       	asr	r29
    23fe:	c7 95       	ror	r28
    2400:	89 01       	movw	r16, r18
    2402:	0c 5d       	subi	r16, 0xDC	; 220
    2404:	1f 4f       	sbci	r17, 0xFF	; 255
    2406:	2c 2f       	mov	r18, r28
    2408:	a8 01       	movw	r20, r16
    240a:	bc 01       	movw	r22, r24
    240c:	c7 01       	movw	r24, r14
    240e:	0e 94 13 05 	call	0xa26	; 0xa26 <uECC_vli_add>
    2412:	81 11       	cpse	r24, r1
    2414:	11 c0       	rjmp	.+34     	; 0x2438 <regularize_k+0x70>
    2416:	28 e0       	ldi	r18, 0x08	; 8
    2418:	c2 02       	muls	r28, r18
    241a:	c0 01       	movw	r24, r0
    241c:	11 24       	eor	r1, r1
    241e:	c8 16       	cp	r12, r24
    2420:	d9 06       	cpc	r13, r25
    2422:	6c f4       	brge	.+26     	; 0x243e <regularize_k+0x76>
    2424:	b6 01       	movw	r22, r12
    2426:	c7 01       	movw	r24, r14
    2428:	0e 94 07 07 	call	0xe0e	; 0xe0e <uECC_vli_testBit>
    242c:	91 e0       	ldi	r25, 0x01	; 1
    242e:	81 11       	cpse	r24, r1
    2430:	01 c0       	rjmp	.+2      	; 0x2434 <regularize_k+0x6c>
    2432:	90 e0       	ldi	r25, 0x00	; 0
    2434:	d9 2e       	mov	r13, r25
    2436:	04 c0       	rjmp	.+8      	; 0x2440 <regularize_k+0x78>
    2438:	dd 24       	eor	r13, r13
    243a:	d3 94       	inc	r13
    243c:	01 c0       	rjmp	.+2      	; 0x2440 <regularize_k+0x78>
    243e:	d1 2c       	mov	r13, r1
    2440:	2c 2f       	mov	r18, r28
    2442:	a8 01       	movw	r20, r16
    2444:	b7 01       	movw	r22, r14
    2446:	c5 01       	movw	r24, r10
    2448:	0e 94 13 05 	call	0xa26	; 0xa26 <uECC_vli_add>
    244c:	8d 2d       	mov	r24, r13
    244e:	df 91       	pop	r29
    2450:	cf 91       	pop	r28
    2452:	1f 91       	pop	r17
    2454:	0f 91       	pop	r16
    2456:	ff 90       	pop	r15
    2458:	ef 90       	pop	r14
    245a:	df 90       	pop	r13
    245c:	cf 90       	pop	r12
    245e:	bf 90       	pop	r11
    2460:	af 90       	pop	r10
    2462:	08 95       	ret

00002464 <EccPoint_compute_public_key>:
    2464:	af 92       	push	r10
    2466:	bf 92       	push	r11
    2468:	cf 92       	push	r12
    246a:	df 92       	push	r13
    246c:	ef 92       	push	r14
    246e:	ff 92       	push	r15
    2470:	0f 93       	push	r16
    2472:	1f 93       	push	r17
    2474:	cf 93       	push	r28
    2476:	df 93       	push	r29
    2478:	cd b7       	in	r28, 0x3d	; 61
    247a:	de b7       	in	r29, 0x3e	; 62
    247c:	c4 54       	subi	r28, 0x44	; 68
    247e:	d1 09       	sbc	r29, r1
    2480:	0f b6       	in	r0, 0x3f	; 63
    2482:	f8 94       	cli
    2484:	de bf       	out	0x3e, r29	; 62
    2486:	0f be       	out	0x3f, r0	; 63
    2488:	cd bf       	out	0x3d, r28	; 61
    248a:	5c 01       	movw	r10, r24
    248c:	cb 01       	movw	r24, r22
    248e:	6a 01       	movw	r12, r20
    2490:	7e 01       	movw	r14, r28
    2492:	21 e4       	ldi	r18, 0x41	; 65
    2494:	e2 0e       	add	r14, r18
    2496:	f1 1c       	adc	r15, r1
    2498:	be 01       	movw	r22, r28
    249a:	6f 5f       	subi	r22, 0xFF	; 255
    249c:	7f 4f       	sbci	r23, 0xFF	; 255
    249e:	f7 01       	movw	r30, r14
    24a0:	71 83       	std	Z+1, r23	; 0x01
    24a2:	60 83       	st	Z, r22
    24a4:	ae 01       	movw	r20, r28
    24a6:	4f 5d       	subi	r20, 0xDF	; 223
    24a8:	5f 4f       	sbci	r21, 0xFF	; 255
    24aa:	53 83       	std	Z+3, r21	; 0x03
    24ac:	42 83       	std	Z+2, r20	; 0x02
    24ae:	96 01       	movw	r18, r12
    24b0:	8b df       	rcall	.-234    	; 0x23c8 <regularize_k>
    24b2:	f6 01       	movw	r30, r12
    24b4:	02 81       	ldd	r16, Z+2	; 0x02
    24b6:	13 81       	ldd	r17, Z+3	; 0x03
    24b8:	0f 5f       	subi	r16, 0xFF	; 255
    24ba:	1f 4f       	sbci	r17, 0xFF	; 255
    24bc:	f7 01       	movw	r30, r14
    24be:	21 e0       	ldi	r18, 0x01	; 1
    24c0:	30 e0       	ldi	r19, 0x00	; 0
    24c2:	88 23       	and	r24, r24
    24c4:	11 f0       	breq	.+4      	; 0x24ca <EccPoint_compute_public_key+0x66>
    24c6:	20 e0       	ldi	r18, 0x00	; 0
    24c8:	30 e0       	ldi	r19, 0x00	; 0
    24ca:	22 0f       	add	r18, r18
    24cc:	33 1f       	adc	r19, r19
    24ce:	e2 0f       	add	r30, r18
    24d0:	f3 1f       	adc	r31, r19
    24d2:	40 81       	ld	r20, Z
    24d4:	51 81       	ldd	r21, Z+1	; 0x01
    24d6:	b6 01       	movw	r22, r12
    24d8:	6c 5b       	subi	r22, 0xBC	; 188
    24da:	7f 4f       	sbci	r23, 0xFF	; 255
    24dc:	76 01       	movw	r14, r12
    24de:	20 e0       	ldi	r18, 0x00	; 0
    24e0:	30 e0       	ldi	r19, 0x00	; 0
    24e2:	c5 01       	movw	r24, r10
    24e4:	7d dd       	rcall	.-1286   	; 0x1fe0 <EccPoint_mult>
    24e6:	f6 01       	movw	r30, r12
    24e8:	60 81       	ld	r22, Z
    24ea:	66 0f       	add	r22, r22
    24ec:	c5 01       	movw	r24, r10
    24ee:	0e 94 f1 06 	call	0xde2	; 0xde2 <uECC_vli_isZero>
    24f2:	91 e0       	ldi	r25, 0x01	; 1
    24f4:	81 11       	cpse	r24, r1
    24f6:	90 e0       	ldi	r25, 0x00	; 0
    24f8:	89 2f       	mov	r24, r25
    24fa:	cc 5b       	subi	r28, 0xBC	; 188
    24fc:	df 4f       	sbci	r29, 0xFF	; 255
    24fe:	0f b6       	in	r0, 0x3f	; 63
    2500:	f8 94       	cli
    2502:	de bf       	out	0x3e, r29	; 62
    2504:	0f be       	out	0x3f, r0	; 63
    2506:	cd bf       	out	0x3d, r28	; 61
    2508:	df 91       	pop	r29
    250a:	cf 91       	pop	r28
    250c:	1f 91       	pop	r17
    250e:	0f 91       	pop	r16
    2510:	ff 90       	pop	r15
    2512:	ef 90       	pop	r14
    2514:	df 90       	pop	r13
    2516:	cf 90       	pop	r12
    2518:	bf 90       	pop	r11
    251a:	af 90       	pop	r10
    251c:	08 95       	ret

0000251e <uECC_vli_nativeToBytes>:
    251e:	cf 93       	push	r28
    2520:	df 93       	push	r29
    2522:	dc 01       	movw	r26, r24
    2524:	16 16       	cp	r1, r22
    2526:	17 06       	cpc	r1, r23
    2528:	cc f4       	brge	.+50     	; 0x255c <uECC_vli_nativeToBytes+0x3e>
    252a:	20 e0       	ldi	r18, 0x00	; 0
    252c:	30 e0       	ldi	r19, 0x00	; 0
    252e:	90 e0       	ldi	r25, 0x00	; 0
    2530:	eb 01       	movw	r28, r22
    2532:	21 97       	sbiw	r28, 0x01	; 1
    2534:	fe 01       	movw	r30, r28
    2536:	e2 1b       	sub	r30, r18
    2538:	f3 0b       	sbc	r31, r19
    253a:	e4 0f       	add	r30, r20
    253c:	f5 1f       	adc	r31, r21
    253e:	20 81       	ld	r18, Z
    2540:	fd 01       	movw	r30, r26
    2542:	e9 0f       	add	r30, r25
    2544:	f1 1d       	adc	r31, r1
    2546:	97 fd       	sbrc	r25, 7
    2548:	fa 95       	dec	r31
    254a:	20 83       	st	Z, r18
    254c:	9f 5f       	subi	r25, 0xFF	; 255
    254e:	29 2f       	mov	r18, r25
    2550:	09 2e       	mov	r0, r25
    2552:	00 0c       	add	r0, r0
    2554:	33 0b       	sbc	r19, r19
    2556:	26 17       	cp	r18, r22
    2558:	37 07       	cpc	r19, r23
    255a:	64 f3       	brlt	.-40     	; 0x2534 <uECC_vli_nativeToBytes+0x16>
    255c:	df 91       	pop	r29
    255e:	cf 91       	pop	r28
    2560:	08 95       	ret

00002562 <uECC_generate_random_int>:
    2562:	9f 92       	push	r9
    2564:	af 92       	push	r10
    2566:	bf 92       	push	r11
    2568:	cf 92       	push	r12
    256a:	df 92       	push	r13
    256c:	ef 92       	push	r14
    256e:	ff 92       	push	r15
    2570:	0f 93       	push	r16
    2572:	1f 93       	push	r17
    2574:	cf 93       	push	r28
    2576:	df 93       	push	r29
    2578:	8c 01       	movw	r16, r24
    257a:	5b 01       	movw	r10, r22
    257c:	d4 2f       	mov	r29, r20
    257e:	64 2f       	mov	r22, r20
    2580:	c5 01       	movw	r24, r10
    2582:	0e 94 1d 07 	call	0xe3a	; 0xe3a <uECC_vli_numBits>
    2586:	20 91 e8 04 	lds	r18, 0x04E8	; 0x8004e8 <__data_end>
    258a:	30 91 e9 04 	lds	r19, 0x04E9	; 0x8004e9 <__data_end+0x1>
    258e:	23 2b       	or	r18, r19
    2590:	c1 f1       	breq	.+112    	; 0x2602 <uECC_generate_random_int+0xa0>
    2592:	48 e0       	ldi	r20, 0x08	; 8
    2594:	d4 02       	muls	r29, r20
    2596:	90 01       	movw	r18, r0
    2598:	11 24       	eor	r1, r1
    259a:	28 1b       	sub	r18, r24
    259c:	39 0b       	sbc	r19, r25
    259e:	8f ef       	ldi	r24, 0xFF	; 255
    25a0:	90 e0       	ldi	r25, 0x00	; 0
    25a2:	02 c0       	rjmp	.+4      	; 0x25a8 <uECC_generate_random_int+0x46>
    25a4:	95 95       	asr	r25
    25a6:	87 95       	ror	r24
    25a8:	2a 95       	dec	r18
    25aa:	e2 f7       	brpl	.-8      	; 0x25a4 <uECC_generate_random_int+0x42>
    25ac:	98 2e       	mov	r9, r24
    25ae:	c0 e4       	ldi	r28, 0x40	; 64
    25b0:	cd 2e       	mov	r12, r29
    25b2:	0d 2e       	mov	r0, r29
    25b4:	00 0c       	add	r0, r0
    25b6:	dd 08       	sbc	r13, r13
    25b8:	76 01       	movw	r14, r12
    25ba:	81 e0       	ldi	r24, 0x01	; 1
    25bc:	e8 1a       	sub	r14, r24
    25be:	f1 08       	sbc	r15, r1
    25c0:	e0 0e       	add	r14, r16
    25c2:	f1 1e       	adc	r15, r17
    25c4:	e0 91 e8 04 	lds	r30, 0x04E8	; 0x8004e8 <__data_end>
    25c8:	f0 91 e9 04 	lds	r31, 0x04E9	; 0x8004e9 <__data_end+0x1>
    25cc:	b6 01       	movw	r22, r12
    25ce:	c8 01       	movw	r24, r16
    25d0:	09 95       	icall
    25d2:	00 97       	sbiw	r24, 0x00	; 0
    25d4:	d9 f0       	breq	.+54     	; 0x260c <uECC_generate_random_int+0xaa>
    25d6:	f7 01       	movw	r30, r14
    25d8:	80 81       	ld	r24, Z
    25da:	89 21       	and	r24, r9
    25dc:	80 83       	st	Z, r24
    25de:	6d 2f       	mov	r22, r29
    25e0:	c8 01       	movw	r24, r16
    25e2:	0e 94 f1 06 	call	0xde2	; 0xde2 <uECC_vli_isZero>
    25e6:	81 11       	cpse	r24, r1
    25e8:	07 c0       	rjmp	.+14     	; 0x25f8 <uECC_generate_random_int+0x96>
    25ea:	4d 2f       	mov	r20, r29
    25ec:	b8 01       	movw	r22, r16
    25ee:	c5 01       	movw	r24, r10
    25f0:	0e 94 86 07 	call	0xf0c	; 0xf0c <uECC_vli_cmp>
    25f4:	81 30       	cpi	r24, 0x01	; 1
    25f6:	41 f0       	breq	.+16     	; 0x2608 <uECC_generate_random_int+0xa6>
    25f8:	c1 50       	subi	r28, 0x01	; 1
    25fa:	21 f7       	brne	.-56     	; 0x25c4 <uECC_generate_random_int+0x62>
    25fc:	80 e0       	ldi	r24, 0x00	; 0
    25fe:	90 e0       	ldi	r25, 0x00	; 0
    2600:	05 c0       	rjmp	.+10     	; 0x260c <uECC_generate_random_int+0xaa>
    2602:	80 e0       	ldi	r24, 0x00	; 0
    2604:	90 e0       	ldi	r25, 0x00	; 0
    2606:	02 c0       	rjmp	.+4      	; 0x260c <uECC_generate_random_int+0xaa>
    2608:	81 e0       	ldi	r24, 0x01	; 1
    260a:	90 e0       	ldi	r25, 0x00	; 0
    260c:	df 91       	pop	r29
    260e:	cf 91       	pop	r28
    2610:	1f 91       	pop	r17
    2612:	0f 91       	pop	r16
    2614:	ff 90       	pop	r15
    2616:	ef 90       	pop	r14
    2618:	df 90       	pop	r13
    261a:	cf 90       	pop	r12
    261c:	bf 90       	pop	r11
    261e:	af 90       	pop	r10
    2620:	9f 90       	pop	r9
    2622:	08 95       	ret

00002624 <bits2int>:
    2624:	8f 92       	push	r8
    2626:	9f 92       	push	r9
    2628:	af 92       	push	r10
    262a:	bf 92       	push	r11
    262c:	cf 92       	push	r12
    262e:	df 92       	push	r13
    2630:	ef 92       	push	r14
    2632:	ff 92       	push	r15
    2634:	0f 93       	push	r16
    2636:	1f 93       	push	r17
    2638:	cf 93       	push	r28
    263a:	df 93       	push	r29
    263c:	8c 01       	movw	r16, r24
    263e:	4b 01       	movw	r8, r22
    2640:	79 01       	movw	r14, r18
    2642:	f9 01       	movw	r30, r18
    2644:	82 81       	ldd	r24, Z+2	; 0x02
    2646:	93 81       	ldd	r25, Z+3	; 0x03
    2648:	07 96       	adiw	r24, 0x07	; 7
    264a:	ec 01       	movw	r28, r24
    264c:	0a f4       	brpl	.+2      	; 0x2650 <bits2int+0x2c>
    264e:	27 96       	adiw	r28, 0x07	; 7
    2650:	d5 95       	asr	r29
    2652:	c7 95       	ror	r28
    2654:	d5 95       	asr	r29
    2656:	c7 95       	ror	r28
    2658:	d5 95       	asr	r29
    265a:	c7 95       	ror	r28
    265c:	cc 2e       	mov	r12, r28
    265e:	dd 2e       	mov	r13, r29
    2660:	56 01       	movw	r10, r12
    2662:	4c 15       	cp	r20, r12
    2664:	5d 05       	cpc	r21, r13
    2666:	08 f4       	brcc	.+2      	; 0x266a <bits2int+0x46>
    2668:	5a 01       	movw	r10, r20
    266a:	6c 2f       	mov	r22, r28
    266c:	c8 01       	movw	r24, r16
    266e:	0e 94 2d 04 	call	0x85a	; 0x85a <uECC_vli_clear>
    2672:	a4 01       	movw	r20, r8
    2674:	b5 01       	movw	r22, r10
    2676:	c8 01       	movw	r24, r16
    2678:	52 df       	rcall	.-348    	; 0x251e <uECC_vli_nativeToBytes>
    267a:	aa 0c       	add	r10, r10
    267c:	bb 1c       	adc	r11, r11
    267e:	aa 0c       	add	r10, r10
    2680:	bb 1c       	adc	r11, r11
    2682:	aa 0c       	add	r10, r10
    2684:	bb 1c       	adc	r11, r11
    2686:	f7 01       	movw	r30, r14
    2688:	82 81       	ldd	r24, Z+2	; 0x02
    268a:	93 81       	ldd	r25, Z+3	; 0x03
    268c:	8a 15       	cp	r24, r10
    268e:	9b 05       	cpc	r25, r11
    2690:	a0 f5       	brcc	.+104    	; 0x26fa <bits2int+0xd6>
    2692:	b5 01       	movw	r22, r10
    2694:	68 1b       	sub	r22, r24
    2696:	79 0b       	sbc	r23, r25
    2698:	f8 01       	movw	r30, r16
    269a:	ec 0d       	add	r30, r12
    269c:	fd 1d       	adc	r31, r13
    269e:	0e 17       	cp	r16, r30
    26a0:	1f 07       	cpc	r17, r31
    26a2:	d8 f4       	brcc	.+54     	; 0x26da <bits2int+0xb6>
    26a4:	d8 01       	movw	r26, r16
    26a6:	d1 2c       	mov	r13, r1
    26a8:	48 e0       	ldi	r20, 0x08	; 8
    26aa:	50 e0       	ldi	r21, 0x00	; 0
    26ac:	46 1b       	sub	r20, r22
    26ae:	57 0b       	sbc	r21, r23
    26b0:	92 91       	ld	r25, -Z
    26b2:	29 2f       	mov	r18, r25
    26b4:	30 e0       	ldi	r19, 0x00	; 0
    26b6:	c9 01       	movw	r24, r18
    26b8:	06 2e       	mov	r0, r22
    26ba:	02 c0       	rjmp	.+4      	; 0x26c0 <bits2int+0x9c>
    26bc:	95 95       	asr	r25
    26be:	87 95       	ror	r24
    26c0:	0a 94       	dec	r0
    26c2:	e2 f7       	brpl	.-8      	; 0x26bc <bits2int+0x98>
    26c4:	8d 29       	or	r24, r13
    26c6:	80 83       	st	Z, r24
    26c8:	04 2e       	mov	r0, r20
    26ca:	01 c0       	rjmp	.+2      	; 0x26ce <bits2int+0xaa>
    26cc:	22 0f       	add	r18, r18
    26ce:	0a 94       	dec	r0
    26d0:	ea f7       	brpl	.-6      	; 0x26cc <bits2int+0xa8>
    26d2:	d2 2e       	mov	r13, r18
    26d4:	ae 17       	cp	r26, r30
    26d6:	bf 07       	cpc	r27, r31
    26d8:	59 f7       	brne	.-42     	; 0x26b0 <bits2int+0x8c>
    26da:	f4 e2       	ldi	r31, 0x24	; 36
    26dc:	ef 0e       	add	r14, r31
    26de:	f1 1c       	adc	r15, r1
    26e0:	4c 2f       	mov	r20, r28
    26e2:	b8 01       	movw	r22, r16
    26e4:	c7 01       	movw	r24, r14
    26e6:	0e 94 54 07 	call	0xea8	; 0xea8 <uECC_vli_cmp_unsafe>
    26ea:	81 30       	cpi	r24, 0x01	; 1
    26ec:	31 f0       	breq	.+12     	; 0x26fa <bits2int+0xd6>
    26ee:	2c 2f       	mov	r18, r28
    26f0:	a7 01       	movw	r20, r14
    26f2:	b8 01       	movw	r22, r16
    26f4:	c8 01       	movw	r24, r16
    26f6:	0e 94 e4 05 	call	0xbc8	; 0xbc8 <uECC_vli_sub>
    26fa:	df 91       	pop	r29
    26fc:	cf 91       	pop	r28
    26fe:	1f 91       	pop	r17
    2700:	0f 91       	pop	r16
    2702:	ff 90       	pop	r15
    2704:	ef 90       	pop	r14
    2706:	df 90       	pop	r13
    2708:	cf 90       	pop	r12
    270a:	bf 90       	pop	r11
    270c:	af 90       	pop	r10
    270e:	9f 90       	pop	r9
    2710:	8f 90       	pop	r8
    2712:	08 95       	ret

00002714 <uECC_set_rng>:
    2714:	90 93 e9 04 	sts	0x04E9, r25	; 0x8004e9 <__data_end+0x1>
    2718:	80 93 e8 04 	sts	0x04E8, r24	; 0x8004e8 <__data_end>
    271c:	08 95       	ret

0000271e <uECC_secp256r1>:
    271e:	8a e0       	ldi	r24, 0x0A	; 10
    2720:	91 e0       	ldi	r25, 0x01	; 1
    2722:	08 95       	ret

00002724 <uECC_make_key>:
    2724:	9f 92       	push	r9
    2726:	af 92       	push	r10
    2728:	bf 92       	push	r11
    272a:	cf 92       	push	r12
    272c:	df 92       	push	r13
    272e:	ef 92       	push	r14
    2730:	ff 92       	push	r15
    2732:	0f 93       	push	r16
    2734:	1f 93       	push	r17
    2736:	cf 93       	push	r28
    2738:	df 93       	push	r29
    273a:	cd b7       	in	r28, 0x3d	; 61
    273c:	de b7       	in	r29, 0x3e	; 62
    273e:	c0 56       	subi	r28, 0x60	; 96
    2740:	d1 09       	sbc	r29, r1
    2742:	0f b6       	in	r0, 0x3f	; 63
    2744:	f8 94       	cli
    2746:	de bf       	out	0x3e, r29	; 62
    2748:	0f be       	out	0x3f, r0	; 63
    274a:	cd bf       	out	0x3d, r28	; 61
    274c:	6c 01       	movw	r12, r24
    274e:	5b 01       	movw	r10, r22
    2750:	8a 01       	movw	r16, r20
    2752:	68 94       	set
    2754:	99 24       	eor	r9, r9
    2756:	96 f8       	bld	r9, 6
    2758:	7a 01       	movw	r14, r20
    275a:	84 e2       	ldi	r24, 0x24	; 36
    275c:	e8 0e       	add	r14, r24
    275e:	f1 1c       	adc	r15, r1
    2760:	f8 01       	movw	r30, r16
    2762:	82 81       	ldd	r24, Z+2	; 0x02
    2764:	93 81       	ldd	r25, Z+3	; 0x03
    2766:	07 96       	adiw	r24, 0x07	; 7
    2768:	ac 01       	movw	r20, r24
    276a:	12 f4       	brpl	.+4      	; 0x2770 <uECC_make_key+0x4c>
    276c:	49 5f       	subi	r20, 0xF9	; 249
    276e:	5f 4f       	sbci	r21, 0xFF	; 255
    2770:	55 95       	asr	r21
    2772:	47 95       	ror	r20
    2774:	55 95       	asr	r21
    2776:	47 95       	ror	r20
    2778:	55 95       	asr	r21
    277a:	47 95       	ror	r20
    277c:	b7 01       	movw	r22, r14
    277e:	ce 01       	movw	r24, r28
    2780:	01 96       	adiw	r24, 0x01	; 1
    2782:	ef de       	rcall	.-546    	; 0x2562 <uECC_generate_random_int>
    2784:	00 97       	sbiw	r24, 0x00	; 0
    2786:	09 f4       	brne	.+2      	; 0x278a <uECC_make_key+0x66>
    2788:	40 c0       	rjmp	.+128    	; 0x280a <uECC_make_key+0xe6>
    278a:	a8 01       	movw	r20, r16
    278c:	be 01       	movw	r22, r28
    278e:	6f 5f       	subi	r22, 0xFF	; 255
    2790:	7f 4f       	sbci	r23, 0xFF	; 255
    2792:	ce 01       	movw	r24, r28
    2794:	81 96       	adiw	r24, 0x21	; 33
    2796:	66 de       	rcall	.-820    	; 0x2464 <EccPoint_compute_public_key>
    2798:	88 23       	and	r24, r24
    279a:	91 f1       	breq	.+100    	; 0x2800 <uECC_make_key+0xdc>
    279c:	f8 01       	movw	r30, r16
    279e:	82 81       	ldd	r24, Z+2	; 0x02
    27a0:	93 81       	ldd	r25, Z+3	; 0x03
    27a2:	07 96       	adiw	r24, 0x07	; 7
    27a4:	bc 01       	movw	r22, r24
    27a6:	12 f4       	brpl	.+4      	; 0x27ac <uECC_make_key+0x88>
    27a8:	69 5f       	subi	r22, 0xF9	; 249
    27aa:	7f 4f       	sbci	r23, 0xFF	; 255
    27ac:	75 95       	asr	r23
    27ae:	67 95       	ror	r22
    27b0:	75 95       	asr	r23
    27b2:	67 95       	ror	r22
    27b4:	75 95       	asr	r23
    27b6:	67 95       	ror	r22
    27b8:	ae 01       	movw	r20, r28
    27ba:	4f 5f       	subi	r20, 0xFF	; 255
    27bc:	5f 4f       	sbci	r21, 0xFF	; 255
    27be:	c5 01       	movw	r24, r10
    27c0:	ae de       	rcall	.-676    	; 0x251e <uECC_vli_nativeToBytes>
    27c2:	f8 01       	movw	r30, r16
    27c4:	61 81       	ldd	r22, Z+1	; 0x01
    27c6:	06 2e       	mov	r0, r22
    27c8:	00 0c       	add	r0, r0
    27ca:	77 0b       	sbc	r23, r23
    27cc:	ae 01       	movw	r20, r28
    27ce:	4f 5d       	subi	r20, 0xDF	; 223
    27d0:	5f 4f       	sbci	r21, 0xFF	; 255
    27d2:	c6 01       	movw	r24, r12
    27d4:	a4 de       	rcall	.-696    	; 0x251e <uECC_vli_nativeToBytes>
    27d6:	f8 01       	movw	r30, r16
    27d8:	81 81       	ldd	r24, Z+1	; 0x01
    27da:	90 81       	ld	r25, Z
    27dc:	41 e2       	ldi	r20, 0x21	; 33
    27de:	50 e0       	ldi	r21, 0x00	; 0
    27e0:	4c 0f       	add	r20, r28
    27e2:	5d 1f       	adc	r21, r29
    27e4:	49 0f       	add	r20, r25
    27e6:	51 1d       	adc	r21, r1
    27e8:	97 fd       	sbrc	r25, 7
    27ea:	5a 95       	dec	r21
    27ec:	08 2e       	mov	r0, r24
    27ee:	00 0c       	add	r0, r0
    27f0:	99 0b       	sbc	r25, r25
    27f2:	bc 01       	movw	r22, r24
    27f4:	8c 0d       	add	r24, r12
    27f6:	9d 1d       	adc	r25, r13
    27f8:	92 de       	rcall	.-732    	; 0x251e <uECC_vli_nativeToBytes>
    27fa:	81 e0       	ldi	r24, 0x01	; 1
    27fc:	90 e0       	ldi	r25, 0x00	; 0
    27fe:	05 c0       	rjmp	.+10     	; 0x280a <uECC_make_key+0xe6>
    2800:	9a 94       	dec	r9
    2802:	91 10       	cpse	r9, r1
    2804:	ad cf       	rjmp	.-166    	; 0x2760 <uECC_make_key+0x3c>
    2806:	80 e0       	ldi	r24, 0x00	; 0
    2808:	90 e0       	ldi	r25, 0x00	; 0
    280a:	c0 5a       	subi	r28, 0xA0	; 160
    280c:	df 4f       	sbci	r29, 0xFF	; 255
    280e:	0f b6       	in	r0, 0x3f	; 63
    2810:	f8 94       	cli
    2812:	de bf       	out	0x3e, r29	; 62
    2814:	0f be       	out	0x3f, r0	; 63
    2816:	cd bf       	out	0x3d, r28	; 61
    2818:	df 91       	pop	r29
    281a:	cf 91       	pop	r28
    281c:	1f 91       	pop	r17
    281e:	0f 91       	pop	r16
    2820:	ff 90       	pop	r15
    2822:	ef 90       	pop	r14
    2824:	df 90       	pop	r13
    2826:	cf 90       	pop	r12
    2828:	bf 90       	pop	r11
    282a:	af 90       	pop	r10
    282c:	9f 90       	pop	r9
    282e:	08 95       	ret

00002830 <uECC_shared_secret>:
    2830:	6f 92       	push	r6
    2832:	7f 92       	push	r7
    2834:	8f 92       	push	r8
    2836:	9f 92       	push	r9
    2838:	af 92       	push	r10
    283a:	bf 92       	push	r11
    283c:	cf 92       	push	r12
    283e:	df 92       	push	r13
    2840:	ef 92       	push	r14
    2842:	ff 92       	push	r15
    2844:	0f 93       	push	r16
    2846:	1f 93       	push	r17
    2848:	cf 93       	push	r28
    284a:	df 93       	push	r29
    284c:	cd b7       	in	r28, 0x3d	; 61
    284e:	de b7       	in	r29, 0x3e	; 62
    2850:	c4 58       	subi	r28, 0x84	; 132
    2852:	d1 09       	sbc	r29, r1
    2854:	0f b6       	in	r0, 0x3f	; 63
    2856:	f8 94       	cli
    2858:	de bf       	out	0x3e, r29	; 62
    285a:	0f be       	out	0x3f, r0	; 63
    285c:	cd bf       	out	0x3d, r28	; 61
    285e:	8c 01       	movw	r16, r24
    2860:	4a 01       	movw	r8, r20
    2862:	69 01       	movw	r12, r18
    2864:	ce 01       	movw	r24, r28
    2866:	8f 5b       	subi	r24, 0xBF	; 191
    2868:	9f 4f       	sbci	r25, 0xFF	; 255
    286a:	cf 57       	subi	r28, 0x7F	; 127
    286c:	df 4f       	sbci	r29, 0xFF	; 255
    286e:	99 83       	std	Y+1, r25	; 0x01
    2870:	88 83       	st	Y, r24
    2872:	c1 58       	subi	r28, 0x81	; 129
    2874:	d0 40       	sbci	r29, 0x00	; 0
    2876:	80 96       	adiw	r24, 0x20	; 32
    2878:	cd 57       	subi	r28, 0x7D	; 125
    287a:	df 4f       	sbci	r29, 0xFF	; 255
    287c:	99 83       	std	Y+1, r25	; 0x01
    287e:	88 83       	st	Y, r24
    2880:	c3 58       	subi	r28, 0x83	; 131
    2882:	d0 40       	sbci	r29, 0x00	; 0
    2884:	f9 01       	movw	r30, r18
    2886:	f0 80       	ld	r15, Z
    2888:	a1 80       	ldd	r10, Z+1	; 0x01
    288a:	22 81       	ldd	r18, Z+2	; 0x02
    288c:	33 81       	ldd	r19, Z+3	; 0x03
    288e:	29 5f       	subi	r18, 0xF9	; 249
    2890:	3f 4f       	sbci	r19, 0xFF	; 255
    2892:	c9 01       	movw	r24, r18
    2894:	99 23       	and	r25, r25
    2896:	0c f4       	brge	.+2      	; 0x289a <uECC_shared_secret+0x6a>
    2898:	07 96       	adiw	r24, 0x07	; 7
    289a:	95 95       	asr	r25
    289c:	87 95       	ror	r24
    289e:	95 95       	asr	r25
    28a0:	87 95       	ror	r24
    28a2:	95 95       	asr	r25
    28a4:	87 95       	ror	r24
    28a6:	ab 01       	movw	r20, r22
    28a8:	bc 01       	movw	r22, r24
    28aa:	ce 01       	movw	r24, r28
    28ac:	8f 5b       	subi	r24, 0xBF	; 191
    28ae:	9f 4f       	sbci	r25, 0xFF	; 255
    28b0:	36 de       	rcall	.-916    	; 0x251e <uECC_vli_nativeToBytes>
    28b2:	0a 2c       	mov	r0, r10
    28b4:	00 0c       	add	r0, r0
    28b6:	bb 08       	sbc	r11, r11
    28b8:	a8 01       	movw	r20, r16
    28ba:	b5 01       	movw	r22, r10
    28bc:	ce 01       	movw	r24, r28
    28be:	01 96       	adiw	r24, 0x01	; 1
    28c0:	2e de       	rcall	.-932    	; 0x251e <uECC_vli_nativeToBytes>
    28c2:	a8 01       	movw	r20, r16
    28c4:	4a 0d       	add	r20, r10
    28c6:	5b 1d       	adc	r21, r11
    28c8:	b5 01       	movw	r22, r10
    28ca:	81 e0       	ldi	r24, 0x01	; 1
    28cc:	90 e0       	ldi	r25, 0x00	; 0
    28ce:	8c 0f       	add	r24, r28
    28d0:	9d 1f       	adc	r25, r29
    28d2:	8f 0d       	add	r24, r15
    28d4:	91 1d       	adc	r25, r1
    28d6:	f7 fc       	sbrc	r15, 7
    28d8:	9a 95       	dec	r25
    28da:	21 de       	rcall	.-958    	; 0x251e <uECC_vli_nativeToBytes>
    28dc:	96 01       	movw	r18, r12
    28de:	ae 01       	movw	r20, r28
    28e0:	4f 59       	subi	r20, 0x9F	; 159
    28e2:	5f 4f       	sbci	r21, 0xFF	; 255
    28e4:	be 01       	movw	r22, r28
    28e6:	6f 5b       	subi	r22, 0xBF	; 191
    28e8:	7f 4f       	sbci	r23, 0xFF	; 255
    28ea:	cb 01       	movw	r24, r22
    28ec:	6d dd       	rcall	.-1318   	; 0x23c8 <regularize_k>
    28ee:	18 2f       	mov	r17, r24
    28f0:	80 91 e8 04 	lds	r24, 0x04E8	; 0x8004e8 <__data_end>
    28f4:	90 91 e9 04 	lds	r25, 0x04E9	; 0x8004e9 <__data_end+0x1>
    28f8:	89 2b       	or	r24, r25
    28fa:	a9 f0       	breq	.+42     	; 0x2926 <uECC_shared_secret+0xf6>
    28fc:	e1 2f       	mov	r30, r17
    28fe:	f0 e0       	ldi	r31, 0x00	; 0
    2900:	ee 0f       	add	r30, r30
    2902:	ff 1f       	adc	r31, r31
    2904:	81 e8       	ldi	r24, 0x81	; 129
    2906:	90 e0       	ldi	r25, 0x00	; 0
    2908:	8c 0f       	add	r24, r28
    290a:	9d 1f       	adc	r25, r29
    290c:	e8 0f       	add	r30, r24
    290e:	f9 1f       	adc	r31, r25
    2910:	60 80       	ld	r6, Z
    2912:	71 80       	ldd	r7, Z+1	; 0x01
    2914:	4f 2d       	mov	r20, r15
    2916:	b6 01       	movw	r22, r12
    2918:	6c 5f       	subi	r22, 0xFC	; 252
    291a:	7f 4f       	sbci	r23, 0xFF	; 255
    291c:	c3 01       	movw	r24, r6
    291e:	21 de       	rcall	.-958    	; 0x2562 <uECC_generate_random_int>
    2920:	00 97       	sbiw	r24, 0x00	; 0
    2922:	19 f4       	brne	.+6      	; 0x292a <uECC_shared_secret+0xfa>
    2924:	32 c0       	rjmp	.+100    	; 0x298a <uECC_shared_secret+0x15a>
    2926:	61 2c       	mov	r6, r1
    2928:	71 2c       	mov	r7, r1
    292a:	f6 01       	movw	r30, r12
    292c:	22 81       	ldd	r18, Z+2	; 0x02
    292e:	33 81       	ldd	r19, Z+3	; 0x03
    2930:	2f 5f       	subi	r18, 0xFF	; 255
    2932:	3f 4f       	sbci	r19, 0xFF	; 255
    2934:	81 e0       	ldi	r24, 0x01	; 1
    2936:	90 e0       	ldi	r25, 0x00	; 0
    2938:	11 23       	and	r17, r17
    293a:	11 f0       	breq	.+4      	; 0x2940 <uECC_shared_secret+0x110>
    293c:	80 e0       	ldi	r24, 0x00	; 0
    293e:	90 e0       	ldi	r25, 0x00	; 0
    2940:	88 0f       	add	r24, r24
    2942:	99 1f       	adc	r25, r25
    2944:	e1 e8       	ldi	r30, 0x81	; 129
    2946:	f0 e0       	ldi	r31, 0x00	; 0
    2948:	ec 0f       	add	r30, r28
    294a:	fd 1f       	adc	r31, r29
    294c:	e8 0f       	add	r30, r24
    294e:	f9 1f       	adc	r31, r25
    2950:	40 81       	ld	r20, Z
    2952:	51 81       	ldd	r21, Z+1	; 0x01
    2954:	76 01       	movw	r14, r12
    2956:	89 01       	movw	r16, r18
    2958:	93 01       	movw	r18, r6
    295a:	be 01       	movw	r22, r28
    295c:	6f 5f       	subi	r22, 0xFF	; 255
    295e:	7f 4f       	sbci	r23, 0xFF	; 255
    2960:	cb 01       	movw	r24, r22
    2962:	3e db       	rcall	.-2436   	; 0x1fe0 <EccPoint_mult>
    2964:	ae 01       	movw	r20, r28
    2966:	4f 5f       	subi	r20, 0xFF	; 255
    2968:	5f 4f       	sbci	r21, 0xFF	; 255
    296a:	b5 01       	movw	r22, r10
    296c:	c4 01       	movw	r24, r8
    296e:	d7 dd       	rcall	.-1106   	; 0x251e <uECC_vli_nativeToBytes>
    2970:	f6 01       	movw	r30, r12
    2972:	60 81       	ld	r22, Z
    2974:	66 0f       	add	r22, r22
    2976:	ce 01       	movw	r24, r28
    2978:	01 96       	adiw	r24, 0x01	; 1
    297a:	0e 94 f1 06 	call	0xde2	; 0xde2 <uECC_vli_isZero>
    297e:	31 e0       	ldi	r19, 0x01	; 1
    2980:	20 e0       	ldi	r18, 0x00	; 0
    2982:	81 11       	cpse	r24, r1
    2984:	30 e0       	ldi	r19, 0x00	; 0
    2986:	83 2f       	mov	r24, r19
    2988:	92 2f       	mov	r25, r18
    298a:	cc 57       	subi	r28, 0x7C	; 124
    298c:	df 4f       	sbci	r29, 0xFF	; 255
    298e:	0f b6       	in	r0, 0x3f	; 63
    2990:	f8 94       	cli
    2992:	de bf       	out	0x3e, r29	; 62
    2994:	0f be       	out	0x3f, r0	; 63
    2996:	cd bf       	out	0x3d, r28	; 61
    2998:	df 91       	pop	r29
    299a:	cf 91       	pop	r28
    299c:	1f 91       	pop	r17
    299e:	0f 91       	pop	r16
    29a0:	ff 90       	pop	r15
    29a2:	ef 90       	pop	r14
    29a4:	df 90       	pop	r13
    29a6:	cf 90       	pop	r12
    29a8:	bf 90       	pop	r11
    29aa:	af 90       	pop	r10
    29ac:	9f 90       	pop	r9
    29ae:	8f 90       	pop	r8
    29b0:	7f 90       	pop	r7
    29b2:	6f 90       	pop	r6
    29b4:	08 95       	ret

000029b6 <uECC_verify>:

int uECC_verify(const uint8_t *public_key,
                const uint8_t *message_hash,
                unsigned hash_size,
                const uint8_t *signature,
                uECC_Curve curve) {
    29b6:	2f 92       	push	r2
    29b8:	3f 92       	push	r3
    29ba:	4f 92       	push	r4
    29bc:	5f 92       	push	r5
    29be:	6f 92       	push	r6
    29c0:	7f 92       	push	r7
    29c2:	8f 92       	push	r8
    29c4:	9f 92       	push	r9
    29c6:	af 92       	push	r10
    29c8:	bf 92       	push	r11
    29ca:	cf 92       	push	r12
    29cc:	df 92       	push	r13
    29ce:	ef 92       	push	r14
    29d0:	ff 92       	push	r15
    29d2:	0f 93       	push	r16
    29d4:	1f 93       	push	r17
    29d6:	cf 93       	push	r28
    29d8:	df 93       	push	r29
    29da:	cd b7       	in	r28, 0x3d	; 61
    29dc:	de b7       	in	r29, 0x3e	; 62
    29de:	cc 5c       	subi	r28, 0xCC	; 204
    29e0:	d1 40       	sbci	r29, 0x01	; 1
    29e2:	0f b6       	in	r0, 0x3f	; 63
    29e4:	f8 94       	cli
    29e6:	de bf       	out	0x3e, r29	; 62
    29e8:	0f be       	out	0x3f, r0	; 63
    29ea:	cd bf       	out	0x3d, r28	; 61
    29ec:	4c 01       	movw	r8, r24
    29ee:	c7 53       	subi	r28, 0x37	; 55
    29f0:	de 4f       	sbci	r29, 0xFE	; 254
    29f2:	79 83       	std	Y+1, r23	; 0x01
    29f4:	68 83       	st	Y, r22
    29f6:	c9 5c       	subi	r28, 0xC9	; 201
    29f8:	d1 40       	sbci	r29, 0x01	; 1
    29fa:	c5 53       	subi	r28, 0x35	; 53
    29fc:	de 4f       	sbci	r29, 0xFE	; 254
    29fe:	59 83       	std	Y+1, r21	; 0x01
    2a00:	48 83       	st	Y, r20
    2a02:	cb 5c       	subi	r28, 0xCB	; 203
    2a04:	d1 40       	sbci	r29, 0x01	; 1
    2a06:	59 01       	movw	r10, r18
    2a08:	78 01       	movw	r14, r16
    uECC_word_t *_public = (uECC_word_t *)public_key;
#else
    uECC_word_t _public[uECC_MAX_WORDS * 2];
#endif    
    uECC_word_t r[uECC_MAX_WORDS], s[uECC_MAX_WORDS];
    wordcount_t num_words = curve->num_words;
    2a0a:	d8 01       	movw	r26, r16
    2a0c:	3c 90       	ld	r3, X
    wordcount_t num_n_words = BITS_TO_WORDS(curve->num_n_bits);
    2a0e:	12 96       	adiw	r26, 0x02	; 2
    2a10:	8d 91       	ld	r24, X+
    2a12:	9c 91       	ld	r25, X
    2a14:	13 97       	sbiw	r26, 0x03	; 3
    2a16:	07 96       	adiw	r24, 0x07	; 7
    2a18:	6c 01       	movw	r12, r24
    2a1a:	1a f4       	brpl	.+6      	; 0x2a22 <uECC_verify+0x6c>
    2a1c:	b7 e0       	ldi	r27, 0x07	; 7
    2a1e:	cb 0e       	add	r12, r27
    2a20:	d1 1c       	adc	r13, r1
    2a22:	d5 94       	asr	r13
    2a24:	c7 94       	ror	r12
    2a26:	d5 94       	asr	r13
    2a28:	c7 94       	ror	r12
    2a2a:	d5 94       	asr	r13
    2a2c:	c7 94       	ror	r12

    rx[num_n_words - 1] = 0;
    2a2e:	0c 2d       	mov	r16, r12
    2a30:	0c 2c       	mov	r0, r12
    2a32:	00 0c       	add	r0, r0
    2a34:	11 0b       	sbc	r17, r17
    2a36:	01 50       	subi	r16, 0x01	; 1
    2a38:	11 09       	sbc	r17, r1
    2a3a:	e1 ea       	ldi	r30, 0xA1	; 161
    2a3c:	f0 e0       	ldi	r31, 0x00	; 0
    2a3e:	ec 0f       	add	r30, r28
    2a40:	fd 1f       	adc	r31, r29
    2a42:	e0 0f       	add	r30, r16
    2a44:	f1 1f       	adc	r31, r17
    2a46:	10 82       	st	Z, r1
    r[num_n_words - 1] = 0;
    2a48:	e9 e8       	ldi	r30, 0x89	; 137
    2a4a:	f1 e0       	ldi	r31, 0x01	; 1
    2a4c:	ec 0f       	add	r30, r28
    2a4e:	fd 1f       	adc	r31, r29
    2a50:	e0 0f       	add	r30, r16
    2a52:	f1 1f       	adc	r31, r17
    2a54:	10 82       	st	Z, r1
    s[num_n_words - 1] = 0;
    2a56:	e9 ea       	ldi	r30, 0xA9	; 169
    2a58:	f1 e0       	ldi	r31, 0x01	; 1
    2a5a:	ec 0f       	add	r30, r28
    2a5c:	fd 1f       	adc	r31, r29
    2a5e:	e0 0f       	add	r30, r16
    2a60:	f1 1f       	adc	r31, r17
    2a62:	10 82       	st	Z, r1
}

uECC_VLI_API void uECC_vli_bytesToNative(uint8_t *native,
                                         const uint8_t *bytes,
                                         int num_bytes) {
    uECC_vli_nativeToBytes(native, num_bytes, bytes);
    2a64:	f7 01       	movw	r30, r14
    2a66:	61 81       	ldd	r22, Z+1	; 0x01
    2a68:	06 2e       	mov	r0, r22
    2a6a:	00 0c       	add	r0, r0
    2a6c:	77 0b       	sbc	r23, r23
    2a6e:	a4 01       	movw	r20, r8
    2a70:	ce 01       	movw	r24, r28
    2a72:	87 5b       	subi	r24, 0xB7	; 183
    2a74:	9e 4f       	sbci	r25, 0xFE	; 254
    2a76:	53 dd       	rcall	.-1370   	; 0x251e <uECC_vli_nativeToBytes>
    bcopy((uint8_t *) r, signature, curve->num_bytes);
    bcopy((uint8_t *) s, signature + curve->num_bytes, curve->num_bytes);
#else
    uECC_vli_bytesToNative(_public, public_key, curve->num_bytes);
    uECC_vli_bytesToNative(
        _public + num_words, public_key + curve->num_bytes, curve->num_bytes);
    2a78:	d7 01       	movw	r26, r14
    2a7a:	11 96       	adiw	r26, 0x01	; 1
    2a7c:	6c 91       	ld	r22, X
#if uECC_VLI_NATIVE_LITTLE_ENDIAN
    bcopy((uint8_t *) r, signature, curve->num_bytes);
    bcopy((uint8_t *) s, signature + curve->num_bytes, curve->num_bytes);
#else
    uECC_vli_bytesToNative(_public, public_key, curve->num_bytes);
    uECC_vli_bytesToNative(
    2a7e:	63 2c       	mov	r6, r3
    2a80:	03 2c       	mov	r0, r3
    2a82:	00 0c       	add	r0, r0
    2a84:	77 08       	sbc	r7, r7
    2a86:	0f 2e       	mov	r0, r31
    2a88:	f9 e4       	ldi	r31, 0x49	; 73
    2a8a:	4f 2e       	mov	r4, r31
    2a8c:	55 24       	eor	r5, r5
    2a8e:	53 94       	inc	r5
    2a90:	f0 2d       	mov	r31, r0
    2a92:	4c 0e       	add	r4, r28
    2a94:	5d 1e       	adc	r5, r29
    2a96:	46 0c       	add	r4, r6
    2a98:	57 1c       	adc	r5, r7
}

uECC_VLI_API void uECC_vli_bytesToNative(uint8_t *native,
                                         const uint8_t *bytes,
                                         int num_bytes) {
    uECC_vli_nativeToBytes(native, num_bytes, bytes);
    2a9a:	06 2e       	mov	r0, r22
    2a9c:	00 0c       	add	r0, r0
    2a9e:	77 0b       	sbc	r23, r23
    2aa0:	a4 01       	movw	r20, r8
    2aa2:	46 0f       	add	r20, r22
    2aa4:	57 1f       	adc	r21, r23
    2aa6:	c2 01       	movw	r24, r4
    2aa8:	3a dd       	rcall	.-1420   	; 0x251e <uECC_vli_nativeToBytes>
    2aaa:	f7 01       	movw	r30, r14
    2aac:	61 81       	ldd	r22, Z+1	; 0x01
    2aae:	06 2e       	mov	r0, r22
    2ab0:	00 0c       	add	r0, r0
    2ab2:	77 0b       	sbc	r23, r23
    2ab4:	a5 01       	movw	r20, r10
    2ab6:	ce 01       	movw	r24, r28
    2ab8:	87 57       	subi	r24, 0x77	; 119
    2aba:	9e 4f       	sbci	r25, 0xFE	; 254
    2abc:	30 dd       	rcall	.-1440   	; 0x251e <uECC_vli_nativeToBytes>
#else
    uECC_vli_bytesToNative(_public, public_key, curve->num_bytes);
    uECC_vli_bytesToNative(
        _public + num_words, public_key + curve->num_bytes, curve->num_bytes);
    uECC_vli_bytesToNative(r, signature, curve->num_bytes);
    uECC_vli_bytesToNative(s, signature + curve->num_bytes, curve->num_bytes);
    2abe:	d7 01       	movw	r26, r14
    2ac0:	11 96       	adiw	r26, 0x01	; 1
    2ac2:	6c 91       	ld	r22, X
}

uECC_VLI_API void uECC_vli_bytesToNative(uint8_t *native,
                                         const uint8_t *bytes,
                                         int num_bytes) {
    uECC_vli_nativeToBytes(native, num_bytes, bytes);
    2ac4:	06 2e       	mov	r0, r22
    2ac6:	00 0c       	add	r0, r0
    2ac8:	77 0b       	sbc	r23, r23
    2aca:	a5 01       	movw	r20, r10
    2acc:	46 0f       	add	r20, r22
    2ace:	57 1f       	adc	r21, r23
    2ad0:	ce 01       	movw	r24, r28
    2ad2:	87 55       	subi	r24, 0x57	; 87
    2ad4:	9e 4f       	sbci	r25, 0xFE	; 254
    2ad6:	23 dd       	rcall	.-1466   	; 0x251e <uECC_vli_nativeToBytes>
    uECC_vli_bytesToNative(r, signature, curve->num_bytes);
    uECC_vli_bytesToNative(s, signature + curve->num_bytes, curve->num_bytes);
#endif

    /* r, s must not be 0. */
    if (uECC_vli_isZero(r, num_words) || uECC_vli_isZero(s, num_words)) {
    2ad8:	63 2d       	mov	r22, r3
    2ada:	ce 01       	movw	r24, r28
    2adc:	87 57       	subi	r24, 0x77	; 119
    2ade:	9e 4f       	sbci	r25, 0xFE	; 254
    2ae0:	0e 94 f1 06 	call	0xde2	; 0xde2 <uECC_vli_isZero>
    2ae4:	81 11       	cpse	r24, r1
    2ae6:	02 c2       	rjmp	.+1028   	; 0x2eec <uECC_verify+0x536>
    2ae8:	63 2d       	mov	r22, r3
    2aea:	ce 01       	movw	r24, r28
    2aec:	87 55       	subi	r24, 0x57	; 87
    2aee:	9e 4f       	sbci	r25, 0xFE	; 254
    2af0:	0e 94 f1 06 	call	0xde2	; 0xde2 <uECC_vli_isZero>
    2af4:	81 11       	cpse	r24, r1
    2af6:	fd c1       	rjmp	.+1018   	; 0x2ef2 <uECC_verify+0x53c>
        return 0;
    }

    /* r, s must be < n. */
    if (uECC_vli_cmp_unsafe(curve->n, r, num_n_words) != 1 ||
    2af8:	47 01       	movw	r8, r14
    2afa:	b4 e2       	ldi	r27, 0x24	; 36
    2afc:	8b 0e       	add	r8, r27
    2afe:	91 1c       	adc	r9, r1
    2b00:	4c 2d       	mov	r20, r12
    2b02:	be 01       	movw	r22, r28
    2b04:	67 57       	subi	r22, 0x77	; 119
    2b06:	7e 4f       	sbci	r23, 0xFE	; 254
    2b08:	c4 01       	movw	r24, r8
    2b0a:	0e 94 54 07 	call	0xea8	; 0xea8 <uECC_vli_cmp_unsafe>
    2b0e:	81 30       	cpi	r24, 0x01	; 1
    2b10:	09 f0       	breq	.+2      	; 0x2b14 <uECC_verify+0x15e>
    2b12:	f2 c1       	rjmp	.+996    	; 0x2ef8 <uECC_verify+0x542>
            uECC_vli_cmp_unsafe(curve->n, s, num_n_words) != 1) {
    2b14:	4c 2d       	mov	r20, r12
    2b16:	be 01       	movw	r22, r28
    2b18:	67 55       	subi	r22, 0x57	; 87
    2b1a:	7e 4f       	sbci	r23, 0xFE	; 254
    2b1c:	c4 01       	movw	r24, r8
    2b1e:	0e 94 54 07 	call	0xea8	; 0xea8 <uECC_vli_cmp_unsafe>
    if (uECC_vli_isZero(r, num_words) || uECC_vli_isZero(s, num_words)) {
        return 0;
    }

    /* r, s must be < n. */
    if (uECC_vli_cmp_unsafe(curve->n, r, num_n_words) != 1 ||
    2b22:	81 30       	cpi	r24, 0x01	; 1
    2b24:	09 f0       	breq	.+2      	; 0x2b28 <uECC_verify+0x172>
    2b26:	eb c1       	rjmp	.+982    	; 0x2efe <uECC_verify+0x548>
            uECC_vli_cmp_unsafe(curve->n, s, num_n_words) != 1) {
        return 0;
    }

    /* Calculate u1 and u2. */
    uECC_vli_modInv(z, s, curve->n, num_n_words); /* z = 1/s */
    2b28:	2c 2d       	mov	r18, r12
    2b2a:	a4 01       	movw	r20, r8
    2b2c:	be 01       	movw	r22, r28
    2b2e:	67 55       	subi	r22, 0x57	; 87
    2b30:	7e 4f       	sbci	r23, 0xFE	; 254
    2b32:	ce 01       	movw	r24, r28
    2b34:	8f 5b       	subi	r24, 0xBF	; 191
    2b36:	9f 4f       	sbci	r25, 0xFF	; 255
    2b38:	0e 94 c4 09 	call	0x1388	; 0x1388 <uECC_vli_modInv>
    u1[num_n_words - 1] = 0;
    2b3c:	e1 e0       	ldi	r30, 0x01	; 1
    2b3e:	f0 e0       	ldi	r31, 0x00	; 0
    2b40:	ec 0f       	add	r30, r28
    2b42:	fd 1f       	adc	r31, r29
    2b44:	e0 0f       	add	r30, r16
    2b46:	f1 1f       	adc	r31, r17
    2b48:	10 82       	st	Z, r1
    bits2int(u1, message_hash, hash_size, curve);
    2b4a:	97 01       	movw	r18, r14
    2b4c:	c5 53       	subi	r28, 0x35	; 53
    2b4e:	de 4f       	sbci	r29, 0xFE	; 254
    2b50:	48 81       	ld	r20, Y
    2b52:	59 81       	ldd	r21, Y+1	; 0x01
    2b54:	cb 5c       	subi	r28, 0xCB	; 203
    2b56:	d1 40       	sbci	r29, 0x01	; 1
    2b58:	c7 53       	subi	r28, 0x37	; 55
    2b5a:	de 4f       	sbci	r29, 0xFE	; 254
    2b5c:	68 81       	ld	r22, Y
    2b5e:	79 81       	ldd	r23, Y+1	; 0x01
    2b60:	c9 5c       	subi	r28, 0xC9	; 201
    2b62:	d1 40       	sbci	r29, 0x01	; 1
    2b64:	ce 01       	movw	r24, r28
    2b66:	01 96       	adiw	r24, 0x01	; 1
    2b68:	5d dd       	rcall	.-1350   	; 0x2624 <bits2int>
    uECC_vli_modMult(u1, u1, z, curve->n, num_n_words); /* u1 = e/s */
    2b6a:	0c 2d       	mov	r16, r12
    2b6c:	94 01       	movw	r18, r8
    2b6e:	ae 01       	movw	r20, r28
    2b70:	4f 5b       	subi	r20, 0xBF	; 191
    2b72:	5f 4f       	sbci	r21, 0xFF	; 255
    2b74:	be 01       	movw	r22, r28
    2b76:	6f 5f       	subi	r22, 0xFF	; 255
    2b78:	7f 4f       	sbci	r23, 0xFF	; 255
    2b7a:	cb 01       	movw	r24, r22
    2b7c:	0e 94 e5 07 	call	0xfca	; 0xfca <uECC_vli_modMult>
    uECC_vli_modMult(u2, r, z, curve->n, num_n_words); /* u2 = r/s */
    2b80:	94 01       	movw	r18, r8
    2b82:	ae 01       	movw	r20, r28
    2b84:	4f 5b       	subi	r20, 0xBF	; 191
    2b86:	5f 4f       	sbci	r21, 0xFF	; 255
    2b88:	be 01       	movw	r22, r28
    2b8a:	67 57       	subi	r22, 0x77	; 119
    2b8c:	7e 4f       	sbci	r23, 0xFE	; 254
    2b8e:	ce 01       	movw	r24, r28
    2b90:	81 96       	adiw	r24, 0x21	; 33
    2b92:	0e 94 e5 07 	call	0xfca	; 0xfca <uECC_vli_modMult>

    /* Calculate sum = G + Q. */
    uECC_vli_set(sum, _public, num_words);
    2b96:	5e 01       	movw	r10, r28
    2b98:	e1 e6       	ldi	r30, 0x61	; 97
    2b9a:	ae 0e       	add	r10, r30
    2b9c:	b1 1c       	adc	r11, r1
    2b9e:	43 2d       	mov	r20, r3
    2ba0:	be 01       	movw	r22, r28
    2ba2:	67 5b       	subi	r22, 0xB7	; 183
    2ba4:	7e 4f       	sbci	r23, 0xFE	; 254
    2ba6:	c5 01       	movw	r24, r10
    2ba8:	0e 94 54 04 	call	0x8a8	; 0x8a8 <uECC_vli_set>
    uECC_vli_set(sum + num_words, _public + num_words, num_words);
    2bac:	c5 01       	movw	r24, r10
    2bae:	86 0d       	add	r24, r6
    2bb0:	97 1d       	adc	r25, r7
    2bb2:	c5 53       	subi	r28, 0x35	; 53
    2bb4:	de 4f       	sbci	r29, 0xFE	; 254
    2bb6:	99 83       	std	Y+1, r25	; 0x01
    2bb8:	88 83       	st	Y, r24
    2bba:	cb 5c       	subi	r28, 0xCB	; 203
    2bbc:	d1 40       	sbci	r29, 0x01	; 1
    2bbe:	43 2d       	mov	r20, r3
    2bc0:	b2 01       	movw	r22, r4
    2bc2:	0e 94 54 04 	call	0x8a8	; 0x8a8 <uECC_vli_set>
    uECC_vli_set(tx, curve->G, num_words);
    2bc6:	43 2d       	mov	r20, r3
    2bc8:	27 01       	movw	r4, r14
    2bca:	94 e4       	ldi	r25, 0x44	; 68
    2bcc:	49 0e       	add	r4, r25
    2bce:	51 1c       	adc	r5, r1
    2bd0:	b2 01       	movw	r22, r4
    2bd2:	ce 01       	movw	r24, r28
    2bd4:	8f 51       	subi	r24, 0x1F	; 31
    2bd6:	9f 4f       	sbci	r25, 0xFF	; 255
    2bd8:	0e 94 54 04 	call	0x8a8	; 0x8a8 <uECC_vli_set>
    uECC_vli_set(ty, curve->G + num_words, num_words);
    2bdc:	b2 01       	movw	r22, r4
    2bde:	66 0d       	add	r22, r6
    2be0:	77 1d       	adc	r23, r7
    2be2:	43 2d       	mov	r20, r3
    2be4:	ce 01       	movw	r24, r28
    2be6:	8f 5f       	subi	r24, 0xFF	; 255
    2be8:	9e 4f       	sbci	r25, 0xFE	; 254
    2bea:	0e 94 54 04 	call	0x8a8	; 0x8a8 <uECC_vli_set>
    uECC_vli_modSub(z, sum, tx, curve->p, num_words); /* z = x2 - x1 */
    2bee:	d7 01       	movw	r26, r14
    2bf0:	14 96       	adiw	r26, 0x04	; 4
    2bf2:	c7 53       	subi	r28, 0x37	; 55
    2bf4:	de 4f       	sbci	r29, 0xFE	; 254
    2bf6:	b9 83       	std	Y+1, r27	; 0x01
    2bf8:	a8 83       	st	Y, r26
    2bfa:	c9 5c       	subi	r28, 0xC9	; 201
    2bfc:	d1 40       	sbci	r29, 0x01	; 1
    2bfe:	03 2d       	mov	r16, r3
    2c00:	9d 01       	movw	r18, r26
    2c02:	ae 01       	movw	r20, r28
    2c04:	4f 51       	subi	r20, 0x1F	; 31
    2c06:	5f 4f       	sbci	r21, 0xFF	; 255
    2c08:	b5 01       	movw	r22, r10
    2c0a:	ce 01       	movw	r24, r28
    2c0c:	8f 5b       	subi	r24, 0xBF	; 191
    2c0e:	9f 4f       	sbci	r25, 0xFF	; 255
    2c10:	0e 94 cf 07 	call	0xf9e	; 0xf9e <uECC_vli_modSub>
    XYcZ_add(tx, ty, sum, sum + num_words, curve);
    2c14:	87 01       	movw	r16, r14
    2c16:	c5 53       	subi	r28, 0x35	; 53
    2c18:	de 4f       	sbci	r29, 0xFE	; 254
    2c1a:	28 81       	ld	r18, Y
    2c1c:	39 81       	ldd	r19, Y+1	; 0x01
    2c1e:	cb 5c       	subi	r28, 0xCB	; 203
    2c20:	d1 40       	sbci	r29, 0x01	; 1
    2c22:	a5 01       	movw	r20, r10
    2c24:	be 01       	movw	r22, r28
    2c26:	6f 5f       	subi	r22, 0xFF	; 255
    2c28:	7e 4f       	sbci	r23, 0xFE	; 254
    2c2a:	ce 01       	movw	r24, r28
    2c2c:	8f 51       	subi	r24, 0x1F	; 31
    2c2e:	9f 4f       	sbci	r25, 0xFF	; 255
    2c30:	84 d8       	rcall	.-3832   	; 0x1d3a <XYcZ_add>
    uECC_vli_modInv(z, z, curve->p, num_words); /* z = 1/z */
    2c32:	23 2d       	mov	r18, r3
    2c34:	c7 53       	subi	r28, 0x37	; 55
    2c36:	de 4f       	sbci	r29, 0xFE	; 254
    2c38:	48 81       	ld	r20, Y
    2c3a:	59 81       	ldd	r21, Y+1	; 0x01
    2c3c:	c9 5c       	subi	r28, 0xC9	; 201
    2c3e:	d1 40       	sbci	r29, 0x01	; 1
    2c40:	be 01       	movw	r22, r28
    2c42:	6f 5b       	subi	r22, 0xBF	; 191
    2c44:	7f 4f       	sbci	r23, 0xFF	; 255
    2c46:	cb 01       	movw	r24, r22
    2c48:	0e 94 c4 09 	call	0x1388	; 0x1388 <uECC_vli_modInv>
    apply_z(sum, sum + num_words, z, curve);
    2c4c:	97 01       	movw	r18, r14
    2c4e:	ae 01       	movw	r20, r28
    2c50:	4f 5b       	subi	r20, 0xBF	; 191
    2c52:	5f 4f       	sbci	r21, 0xFF	; 255
    2c54:	c5 53       	subi	r28, 0x35	; 53
    2c56:	de 4f       	sbci	r29, 0xFE	; 254
    2c58:	68 81       	ld	r22, Y
    2c5a:	79 81       	ldd	r23, Y+1	; 0x01
    2c5c:	cb 5c       	subi	r28, 0xCB	; 203
    2c5e:	d1 40       	sbci	r29, 0x01	; 1
    2c60:	c5 01       	movw	r24, r10
    2c62:	2a d8       	rcall	.-4012   	; 0x1cb8 <apply_z>

    /* Use Shamir's trick to calculate u1*G + u2*Q */
    points[0] = 0;
    2c64:	cf 5b       	subi	r28, 0xBF	; 191
    2c66:	de 4f       	sbci	r29, 0xFE	; 254
    2c68:	19 82       	std	Y+1, r1	; 0x01
    2c6a:	18 82       	st	Y, r1
    2c6c:	c1 54       	subi	r28, 0x41	; 65
    2c6e:	d1 40       	sbci	r29, 0x01	; 1
    points[1] = curve->G;
    2c70:	cd 5b       	subi	r28, 0xBD	; 189
    2c72:	de 4f       	sbci	r29, 0xFE	; 254
    2c74:	59 82       	std	Y+1, r5	; 0x01
    2c76:	48 82       	st	Y, r4
    2c78:	c3 54       	subi	r28, 0x43	; 67
    2c7a:	d1 40       	sbci	r29, 0x01	; 1
    points[2] = _public;
    2c7c:	e9 e4       	ldi	r30, 0x49	; 73
    2c7e:	f1 e0       	ldi	r31, 0x01	; 1
    2c80:	ec 0f       	add	r30, r28
    2c82:	fd 1f       	adc	r31, r29
    2c84:	cb 5b       	subi	r28, 0xBB	; 187
    2c86:	de 4f       	sbci	r29, 0xFE	; 254
    2c88:	f9 83       	std	Y+1, r31	; 0x01
    2c8a:	e8 83       	st	Y, r30
    2c8c:	c5 54       	subi	r28, 0x45	; 69
    2c8e:	d1 40       	sbci	r29, 0x01	; 1
    points[3] = sum;
    2c90:	c9 5b       	subi	r28, 0xB9	; 185
    2c92:	de 4f       	sbci	r29, 0xFE	; 254
    2c94:	b9 82       	std	Y+1, r11	; 0x01
    2c96:	a8 82       	st	Y, r10
    2c98:	c7 54       	subi	r28, 0x47	; 71
    2c9a:	d1 40       	sbci	r29, 0x01	; 1
    num_bits = smax(uECC_vli_numBits(u1, num_n_words),
    2c9c:	6c 2d       	mov	r22, r12
    2c9e:	ce 01       	movw	r24, r28
    2ca0:	81 96       	adiw	r24, 0x21	; 33
    2ca2:	0e 94 1d 07 	call	0xe3a	; 0xe3a <uECC_vli_numBits>
    2ca6:	08 2f       	mov	r16, r24
    2ca8:	19 2f       	mov	r17, r25
    2caa:	6c 2d       	mov	r22, r12
    2cac:	ce 01       	movw	r24, r28
    2cae:	01 96       	adiw	r24, 0x01	; 1
    2cb0:	0e 94 1d 07 	call	0xe3a	; 0xe3a <uECC_vli_numBits>
    }
    return 0;
}

static bitcount_t smax(bitcount_t a, bitcount_t b) {
    return (a > b ? a : b);
    2cb4:	a0 2e       	mov	r10, r16
    2cb6:	b1 2e       	mov	r11, r17
    2cb8:	a8 16       	cp	r10, r24
    2cba:	b9 06       	cpc	r11, r25
    2cbc:	0c f4       	brge	.+2      	; 0x2cc0 <uECC_verify+0x30a>
    2cbe:	5c 01       	movw	r10, r24
    points[2] = _public;
    points[3] = sum;
    num_bits = smax(uECC_vli_numBits(u1, num_n_words),
                    uECC_vli_numBits(u2, num_n_words));

    point = points[(!!uECC_vli_testBit(u1, num_bits - 1)) |
    2cc0:	85 01       	movw	r16, r10
    2cc2:	01 50       	subi	r16, 0x01	; 1
    2cc4:	11 09       	sbc	r17, r1
    2cc6:	b8 01       	movw	r22, r16
    2cc8:	ce 01       	movw	r24, r28
    2cca:	01 96       	adiw	r24, 0x01	; 1
    2ccc:	0e 94 07 07 	call	0xe0e	; 0xe0e <uECC_vli_testBit>
    2cd0:	21 e0       	ldi	r18, 0x01	; 1
    2cd2:	90 e0       	ldi	r25, 0x00	; 0
    2cd4:	81 11       	cpse	r24, r1
    2cd6:	01 c0       	rjmp	.+2      	; 0x2cda <uECC_verify+0x324>
    2cd8:	20 e0       	ldi	r18, 0x00	; 0
    2cda:	42 2e       	mov	r4, r18
    2cdc:	59 2e       	mov	r5, r25
                   ((!!uECC_vli_testBit(u2, num_bits - 1)) << 1)];
    2cde:	b8 01       	movw	r22, r16
    2ce0:	ce 01       	movw	r24, r28
    2ce2:	81 96       	adiw	r24, 0x21	; 33
    2ce4:	0e 94 07 07 	call	0xe0e	; 0xe0e <uECC_vli_testBit>
    2ce8:	81 11       	cpse	r24, r1
    2cea:	03 c0       	rjmp	.+6      	; 0x2cf2 <uECC_verify+0x33c>
    2cec:	e0 e0       	ldi	r30, 0x00	; 0
    2cee:	f0 e0       	ldi	r31, 0x00	; 0
    2cf0:	02 c0       	rjmp	.+4      	; 0x2cf6 <uECC_verify+0x340>
    2cf2:	e2 e0       	ldi	r30, 0x02	; 2
    2cf4:	f0 e0       	ldi	r31, 0x00	; 0
    points[2] = _public;
    points[3] = sum;
    num_bits = smax(uECC_vli_numBits(u1, num_n_words),
                    uECC_vli_numBits(u2, num_n_words));

    point = points[(!!uECC_vli_testBit(u1, num_bits - 1)) |
    2cf6:	e4 29       	or	r30, r4
    2cf8:	f5 29       	or	r31, r5
    2cfa:	ee 0f       	add	r30, r30
    2cfc:	ff 1f       	adc	r31, r31
    2cfe:	81 e4       	ldi	r24, 0x41	; 65
    2d00:	91 e0       	ldi	r25, 0x01	; 1
    2d02:	8c 0f       	add	r24, r28
    2d04:	9d 1f       	adc	r25, r29
    2d06:	e8 0f       	add	r30, r24
    2d08:	f9 1f       	adc	r31, r25
    2d0a:	00 81       	ld	r16, Z
    2d0c:	11 81       	ldd	r17, Z+1	; 0x01
                   ((!!uECC_vli_testBit(u2, num_bits - 1)) << 1)];
    uECC_vli_set(rx, point, num_words);
    2d0e:	43 2d       	mov	r20, r3
    2d10:	b8 01       	movw	r22, r16
    2d12:	ce 01       	movw	r24, r28
    2d14:	8f 55       	subi	r24, 0x5F	; 95
    2d16:	9f 4f       	sbci	r25, 0xFF	; 255
    2d18:	0e 94 54 04 	call	0x8a8	; 0x8a8 <uECC_vli_set>
    uECC_vli_set(ry, point + num_words, num_words);
    2d1c:	b8 01       	movw	r22, r16
    2d1e:	66 0d       	add	r22, r6
    2d20:	77 1d       	adc	r23, r7
    2d22:	43 2d       	mov	r20, r3
    2d24:	ce 01       	movw	r24, r28
    2d26:	8f 53       	subi	r24, 0x3F	; 63
    2d28:	9f 4f       	sbci	r25, 0xFF	; 255
    2d2a:	0e 94 54 04 	call	0x8a8	; 0x8a8 <uECC_vli_set>
    uECC_vli_clear(z, num_words);
    2d2e:	63 2d       	mov	r22, r3
    2d30:	ce 01       	movw	r24, r28
    2d32:	8f 5b       	subi	r24, 0xBF	; 191
    2d34:	9f 4f       	sbci	r25, 0xFF	; 255
    2d36:	0e 94 2d 04 	call	0x85a	; 0x85a <uECC_vli_clear>
    z[0] = 1;
    2d3a:	81 e0       	ldi	r24, 0x01	; 1
    2d3c:	22 96       	adiw	r28, 0x02	; 2
    2d3e:	8f af       	std	Y+63, r24	; 0x3f
    2d40:	22 97       	sbiw	r28, 0x02	; 2

    for (i = num_bits - 2; i >= 0; --i) {
    2d42:	92 e0       	ldi	r25, 0x02	; 2
    2d44:	a9 1a       	sub	r10, r25
    2d46:	b1 08       	sbc	r11, r1
    2d48:	0a f4       	brpl	.+2      	; 0x2d4c <uECC_verify+0x396>
    2d4a:	83 c0       	rjmp	.+262    	; 0x2e52 <uECC_verify+0x49c>
        uECC_word_t index;
        curve->double_jacobian(rx, ry, z, curve);
    2d4c:	27 01       	movw	r4, r14
    2d4e:	a4 ea       	ldi	r26, 0xA4	; 164
    2d50:	4a 0e       	add	r4, r26
    2d52:	51 1c       	adc	r5, r1

        index = (!!uECC_vli_testBit(u1, i)) | ((!!uECC_vli_testBit(u2, i)) << 1);
    2d54:	21 2c       	mov	r2, r1
    uECC_vli_clear(z, num_words);
    z[0] = 1;

    for (i = num_bits - 2; i >= 0; --i) {
        uECC_word_t index;
        curve->double_jacobian(rx, ry, z, curve);
    2d56:	d2 01       	movw	r26, r4
    2d58:	ed 91       	ld	r30, X+
    2d5a:	fc 91       	ld	r31, X
    2d5c:	97 01       	movw	r18, r14
    2d5e:	ae 01       	movw	r20, r28
    2d60:	4f 5b       	subi	r20, 0xBF	; 191
    2d62:	5f 4f       	sbci	r21, 0xFF	; 255
    2d64:	be 01       	movw	r22, r28
    2d66:	6f 53       	subi	r22, 0x3F	; 63
    2d68:	7f 4f       	sbci	r23, 0xFF	; 255
    2d6a:	ce 01       	movw	r24, r28
    2d6c:	8f 55       	subi	r24, 0x5F	; 95
    2d6e:	9f 4f       	sbci	r25, 0xFF	; 255
    2d70:	09 95       	icall

        index = (!!uECC_vli_testBit(u1, i)) | ((!!uECC_vli_testBit(u2, i)) << 1);
    2d72:	b5 01       	movw	r22, r10
    2d74:	ce 01       	movw	r24, r28
    2d76:	01 96       	adiw	r24, 0x01	; 1
    2d78:	0e 94 07 07 	call	0xe0e	; 0xe0e <uECC_vli_testBit>
    2d7c:	11 e0       	ldi	r17, 0x01	; 1
    2d7e:	81 11       	cpse	r24, r1
    2d80:	01 c0       	rjmp	.+2      	; 0x2d84 <uECC_verify+0x3ce>
    2d82:	12 2d       	mov	r17, r2
    2d84:	b5 01       	movw	r22, r10
    2d86:	ce 01       	movw	r24, r28
    2d88:	81 96       	adiw	r24, 0x21	; 33
    2d8a:	0e 94 07 07 	call	0xe0e	; 0xe0e <uECC_vli_testBit>
    2d8e:	81 11       	cpse	r24, r1
    2d90:	02 c0       	rjmp	.+4      	; 0x2d96 <uECC_verify+0x3e0>
    2d92:	e2 2d       	mov	r30, r2
    2d94:	01 c0       	rjmp	.+2      	; 0x2d98 <uECC_verify+0x3e2>
    2d96:	e2 e0       	ldi	r30, 0x02	; 2
        point = points[index];
    2d98:	1e 2b       	or	r17, r30
    2d9a:	e1 2f       	mov	r30, r17
    2d9c:	f0 e0       	ldi	r31, 0x00	; 0
    2d9e:	ee 0f       	add	r30, r30
    2da0:	ff 1f       	adc	r31, r31
    2da2:	81 e4       	ldi	r24, 0x41	; 65
    2da4:	91 e0       	ldi	r25, 0x01	; 1
    2da6:	8c 0f       	add	r24, r28
    2da8:	9d 1f       	adc	r25, r29
    2daa:	e8 0f       	add	r30, r24
    2dac:	f9 1f       	adc	r31, r25
    2dae:	00 81       	ld	r16, Z
    2db0:	11 81       	ldd	r17, Z+1	; 0x01
        if (point) {
    2db2:	01 15       	cp	r16, r1
    2db4:	11 05       	cpc	r17, r1
    2db6:	09 f4       	brne	.+2      	; 0x2dba <uECC_verify+0x404>
    2db8:	47 c0       	rjmp	.+142    	; 0x2e48 <uECC_verify+0x492>
            uECC_vli_set(tx, point, num_words);
    2dba:	43 2d       	mov	r20, r3
    2dbc:	b8 01       	movw	r22, r16
    2dbe:	ce 01       	movw	r24, r28
    2dc0:	8f 51       	subi	r24, 0x1F	; 31
    2dc2:	9f 4f       	sbci	r25, 0xFF	; 255
    2dc4:	0e 94 54 04 	call	0x8a8	; 0x8a8 <uECC_vli_set>
            uECC_vli_set(ty, point + num_words, num_words);
    2dc8:	b8 01       	movw	r22, r16
    2dca:	66 0d       	add	r22, r6
    2dcc:	77 1d       	adc	r23, r7
    2dce:	43 2d       	mov	r20, r3
    2dd0:	ce 01       	movw	r24, r28
    2dd2:	8f 5f       	subi	r24, 0xFF	; 255
    2dd4:	9e 4f       	sbci	r25, 0xFE	; 254
    2dd6:	0e 94 54 04 	call	0x8a8	; 0x8a8 <uECC_vli_set>
            apply_z(tx, ty, z, curve);
    2dda:	97 01       	movw	r18, r14
    2ddc:	ae 01       	movw	r20, r28
    2dde:	4f 5b       	subi	r20, 0xBF	; 191
    2de0:	5f 4f       	sbci	r21, 0xFF	; 255
    2de2:	be 01       	movw	r22, r28
    2de4:	6f 5f       	subi	r22, 0xFF	; 255
    2de6:	7e 4f       	sbci	r23, 0xFE	; 254
    2de8:	ce 01       	movw	r24, r28
    2dea:	8f 51       	subi	r24, 0x1F	; 31
    2dec:	9f 4f       	sbci	r25, 0xFF	; 255
    2dee:	0e 94 5c 0e 	call	0x1cb8	; 0x1cb8 <apply_z>
            uECC_vli_modSub(tz, rx, tx, curve->p, num_words); /* Z = x2 - x1 */
    2df2:	03 2d       	mov	r16, r3
    2df4:	c7 53       	subi	r28, 0x37	; 55
    2df6:	de 4f       	sbci	r29, 0xFE	; 254
    2df8:	28 81       	ld	r18, Y
    2dfa:	39 81       	ldd	r19, Y+1	; 0x01
    2dfc:	c9 5c       	subi	r28, 0xC9	; 201
    2dfe:	d1 40       	sbci	r29, 0x01	; 1
    2e00:	ae 01       	movw	r20, r28
    2e02:	4f 51       	subi	r20, 0x1F	; 31
    2e04:	5f 4f       	sbci	r21, 0xFF	; 255
    2e06:	be 01       	movw	r22, r28
    2e08:	6f 55       	subi	r22, 0x5F	; 95
    2e0a:	7f 4f       	sbci	r23, 0xFF	; 255
    2e0c:	ce 01       	movw	r24, r28
    2e0e:	8f 5d       	subi	r24, 0xDF	; 223
    2e10:	9e 4f       	sbci	r25, 0xFE	; 254
    2e12:	0e 94 cf 07 	call	0xf9e	; 0xf9e <uECC_vli_modSub>
            XYcZ_add(tx, ty, rx, ry, curve);
    2e16:	87 01       	movw	r16, r14
    2e18:	9e 01       	movw	r18, r28
    2e1a:	2f 53       	subi	r18, 0x3F	; 63
    2e1c:	3f 4f       	sbci	r19, 0xFF	; 255
    2e1e:	ae 01       	movw	r20, r28
    2e20:	4f 55       	subi	r20, 0x5F	; 95
    2e22:	5f 4f       	sbci	r21, 0xFF	; 255
    2e24:	be 01       	movw	r22, r28
    2e26:	6f 5f       	subi	r22, 0xFF	; 255
    2e28:	7e 4f       	sbci	r23, 0xFE	; 254
    2e2a:	ce 01       	movw	r24, r28
    2e2c:	8f 51       	subi	r24, 0x1F	; 31
    2e2e:	9f 4f       	sbci	r25, 0xFF	; 255
    2e30:	0e 94 9d 0e 	call	0x1d3a	; 0x1d3a <XYcZ_add>
            uECC_vli_modMult_fast(z, z, tz, curve);
    2e34:	97 01       	movw	r18, r14
    2e36:	ae 01       	movw	r20, r28
    2e38:	4f 5d       	subi	r20, 0xDF	; 223
    2e3a:	5e 4f       	sbci	r21, 0xFE	; 254
    2e3c:	be 01       	movw	r22, r28
    2e3e:	6f 5b       	subi	r22, 0xBF	; 191
    2e40:	7f 4f       	sbci	r23, 0xFF	; 255
    2e42:	cb 01       	movw	r24, r22
    2e44:	0e 94 6a 09 	call	0x12d4	; 0x12d4 <uECC_vli_modMult_fast>
    uECC_vli_set(rx, point, num_words);
    uECC_vli_set(ry, point + num_words, num_words);
    uECC_vli_clear(z, num_words);
    z[0] = 1;

    for (i = num_bits - 2; i >= 0; --i) {
    2e48:	91 e0       	ldi	r25, 0x01	; 1
    2e4a:	a9 1a       	sub	r10, r25
    2e4c:	b1 08       	sbc	r11, r1
    2e4e:	08 f0       	brcs	.+2      	; 0x2e52 <uECC_verify+0x49c>
    2e50:	82 cf       	rjmp	.-252    	; 0x2d56 <uECC_verify+0x3a0>
            XYcZ_add(tx, ty, rx, ry, curve);
            uECC_vli_modMult_fast(z, z, tz, curve);
        }
    }

    uECC_vli_modInv(z, z, curve->p, num_words); /* Z = 1/Z */
    2e52:	23 2d       	mov	r18, r3
    2e54:	c7 53       	subi	r28, 0x37	; 55
    2e56:	de 4f       	sbci	r29, 0xFE	; 254
    2e58:	48 81       	ld	r20, Y
    2e5a:	59 81       	ldd	r21, Y+1	; 0x01
    2e5c:	c9 5c       	subi	r28, 0xC9	; 201
    2e5e:	d1 40       	sbci	r29, 0x01	; 1
    2e60:	be 01       	movw	r22, r28
    2e62:	6f 5b       	subi	r22, 0xBF	; 191
    2e64:	7f 4f       	sbci	r23, 0xFF	; 255
    2e66:	cb 01       	movw	r24, r22
    2e68:	0e 94 c4 09 	call	0x1388	; 0x1388 <uECC_vli_modInv>
    apply_z(rx, ry, z, curve);
    2e6c:	97 01       	movw	r18, r14
    2e6e:	ae 01       	movw	r20, r28
    2e70:	4f 5b       	subi	r20, 0xBF	; 191
    2e72:	5f 4f       	sbci	r21, 0xFF	; 255
    2e74:	be 01       	movw	r22, r28
    2e76:	6f 53       	subi	r22, 0x3F	; 63
    2e78:	7f 4f       	sbci	r23, 0xFF	; 255
    2e7a:	ce 01       	movw	r24, r28
    2e7c:	8f 55       	subi	r24, 0x5F	; 95
    2e7e:	9f 4f       	sbci	r25, 0xFF	; 255
    2e80:	0e 94 5c 0e 	call	0x1cb8	; 0x1cb8 <apply_z>

    /* v = x1 (mod n) */
    if (uECC_vli_cmp_unsafe(curve->n, rx, num_n_words) != 1) {
    2e84:	4c 2d       	mov	r20, r12
    2e86:	be 01       	movw	r22, r28
    2e88:	6f 55       	subi	r22, 0x5F	; 95
    2e8a:	7f 4f       	sbci	r23, 0xFF	; 255
    2e8c:	c4 01       	movw	r24, r8
    2e8e:	0e 94 54 07 	call	0xea8	; 0xea8 <uECC_vli_cmp_unsafe>
    2e92:	81 30       	cpi	r24, 0x01	; 1
    2e94:	41 f0       	breq	.+16     	; 0x2ea6 <uECC_verify+0x4f0>
        uECC_vli_sub(rx, rx, curve->n, num_n_words);
    2e96:	2c 2d       	mov	r18, r12
    2e98:	a4 01       	movw	r20, r8
    2e9a:	be 01       	movw	r22, r28
    2e9c:	6f 55       	subi	r22, 0x5F	; 95
    2e9e:	7f 4f       	sbci	r23, 0xFF	; 255
    2ea0:	cb 01       	movw	r24, r22
    2ea2:	0e 94 e4 05 	call	0xbc8	; 0xbc8 <uECC_vli_sub>
uECC_VLI_API uECC_word_t uECC_vli_equal(const uECC_word_t *left,
                                        const uECC_word_t *right,
                                        wordcount_t num_words) {
    uECC_word_t diff = 0;
    wordcount_t i;
    for (i = num_words - 1; i >= 0; --i) {
    2ea6:	3a 94       	dec	r3
    2ea8:	33 20       	and	r3, r3
    2eaa:	cc f0       	brlt	.+50     	; 0x2ede <uECC_verify+0x528>
    2eac:	20 e0       	ldi	r18, 0x00	; 0
        diff |= (left[i] ^ right[i]);
    2eae:	83 2d       	mov	r24, r3
    2eb0:	03 2c       	mov	r0, r3
    2eb2:	00 0c       	add	r0, r0
    2eb4:	99 0b       	sbc	r25, r25
    2eb6:	e1 ea       	ldi	r30, 0xA1	; 161
    2eb8:	f0 e0       	ldi	r31, 0x00	; 0
    2eba:	ec 0f       	add	r30, r28
    2ebc:	fd 1f       	adc	r31, r29
    2ebe:	e8 0f       	add	r30, r24
    2ec0:	f9 1f       	adc	r31, r25
    2ec2:	a9 e8       	ldi	r26, 0x89	; 137
    2ec4:	b1 e0       	ldi	r27, 0x01	; 1
    2ec6:	ac 0f       	add	r26, r28
    2ec8:	bd 1f       	adc	r27, r29
    2eca:	a8 0f       	add	r26, r24
    2ecc:	b9 1f       	adc	r27, r25
    2ece:	30 81       	ld	r19, Z
    2ed0:	8c 91       	ld	r24, X
    2ed2:	83 27       	eor	r24, r19
    2ed4:	28 2b       	or	r18, r24
    2ed6:	3a 94       	dec	r3
uECC_VLI_API uECC_word_t uECC_vli_equal(const uECC_word_t *left,
                                        const uECC_word_t *right,
                                        wordcount_t num_words) {
    uECC_word_t diff = 0;
    wordcount_t i;
    for (i = num_words - 1; i >= 0; --i) {
    2ed8:	33 20       	and	r3, r3
    2eda:	4c f7       	brge	.-46     	; 0x2eae <uECC_verify+0x4f8>
    2edc:	01 c0       	rjmp	.+2      	; 0x2ee0 <uECC_verify+0x52a>
/* Constant-time comparison function - secure way to compare long integers */
/* Returns one if left == right, zero otherwise. */
uECC_VLI_API uECC_word_t uECC_vli_equal(const uECC_word_t *left,
                                        const uECC_word_t *right,
                                        wordcount_t num_words) {
    uECC_word_t diff = 0;
    2ede:	20 e0       	ldi	r18, 0x00	; 0
    if (uECC_vli_cmp_unsafe(curve->n, rx, num_n_words) != 1) {
        uECC_vli_sub(rx, rx, curve->n, num_n_words);
    }

    /* Accept only if v == r. */
    return (int)(uECC_vli_equal(rx, r, num_words));
    2ee0:	81 e0       	ldi	r24, 0x01	; 1
    2ee2:	90 e0       	ldi	r25, 0x00	; 0
    2ee4:	22 23       	and	r18, r18
    2ee6:	69 f0       	breq	.+26     	; 0x2f02 <uECC_verify+0x54c>
    2ee8:	80 e0       	ldi	r24, 0x00	; 0
    2eea:	0b c0       	rjmp	.+22     	; 0x2f02 <uECC_verify+0x54c>
    uECC_vli_bytesToNative(s, signature + curve->num_bytes, curve->num_bytes);
#endif

    /* r, s must not be 0. */
    if (uECC_vli_isZero(r, num_words) || uECC_vli_isZero(s, num_words)) {
        return 0;
    2eec:	80 e0       	ldi	r24, 0x00	; 0
    2eee:	90 e0       	ldi	r25, 0x00	; 0
    2ef0:	08 c0       	rjmp	.+16     	; 0x2f02 <uECC_verify+0x54c>
    2ef2:	80 e0       	ldi	r24, 0x00	; 0
    2ef4:	90 e0       	ldi	r25, 0x00	; 0
    2ef6:	05 c0       	rjmp	.+10     	; 0x2f02 <uECC_verify+0x54c>
    }

    /* r, s must be < n. */
    if (uECC_vli_cmp_unsafe(curve->n, r, num_n_words) != 1 ||
            uECC_vli_cmp_unsafe(curve->n, s, num_n_words) != 1) {
        return 0;
    2ef8:	80 e0       	ldi	r24, 0x00	; 0
    2efa:	90 e0       	ldi	r25, 0x00	; 0
    2efc:	02 c0       	rjmp	.+4      	; 0x2f02 <uECC_verify+0x54c>
    2efe:	80 e0       	ldi	r24, 0x00	; 0
    2f00:	90 e0       	ldi	r25, 0x00	; 0
        uECC_vli_sub(rx, rx, curve->n, num_n_words);
    }

    /* Accept only if v == r. */
    return (int)(uECC_vli_equal(rx, r, num_words));
}
    2f02:	c4 53       	subi	r28, 0x34	; 52
    2f04:	de 4f       	sbci	r29, 0xFE	; 254
    2f06:	0f b6       	in	r0, 0x3f	; 63
    2f08:	f8 94       	cli
    2f0a:	de bf       	out	0x3e, r29	; 62
    2f0c:	0f be       	out	0x3f, r0	; 63
    2f0e:	cd bf       	out	0x3d, r28	; 61
    2f10:	df 91       	pop	r29
    2f12:	cf 91       	pop	r28
    2f14:	1f 91       	pop	r17
    2f16:	0f 91       	pop	r16
    2f18:	ff 90       	pop	r15
    2f1a:	ef 90       	pop	r14
    2f1c:	df 90       	pop	r13
    2f1e:	cf 90       	pop	r12
    2f20:	bf 90       	pop	r11
    2f22:	af 90       	pop	r10
    2f24:	9f 90       	pop	r9
    2f26:	8f 90       	pop	r8
    2f28:	7f 90       	pop	r7
    2f2a:	6f 90       	pop	r6
    2f2c:	5f 90       	pop	r5
    2f2e:	4f 90       	pop	r4
    2f30:	3f 90       	pop	r3
    2f32:	2f 90       	pop	r2
    2f34:	08 95       	ret

00002f36 <hex_to_bytes>:
		*dest++ = table[c >> 4];
		*dest++ = table[c & 0x0f];
	}
}

void hex_to_bytes(char* src, uint8_t slength, uint8_t dest[slength/2]) {
    2f36:	ff 92       	push	r15
    2f38:	0f 93       	push	r16
    2f3a:	1f 93       	push	r17
    2f3c:	cf 93       	push	r28
    2f3e:	df 93       	push	r29
    2f40:	f8 2e       	mov	r15, r24
    2f42:	09 2f       	mov	r16, r25
    2f44:	16 2f       	mov	r17, r22
    2f46:	ea 01       	movw	r28, r20
	memset(dest, 0, slength/2);
    2f48:	46 2f       	mov	r20, r22
    2f4a:	46 95       	lsr	r20
    2f4c:	50 e0       	ldi	r21, 0x00	; 0
    2f4e:	60 e0       	ldi	r22, 0x00	; 0
    2f50:	70 e0       	ldi	r23, 0x00	; 0
    2f52:	ce 01       	movw	r24, r28
    2f54:	0e 94 16 2d 	call	0x5a2c	; 0x5a2c <memset>
	uint8_t index = 0;
	while (index < slength) {
    2f58:	11 23       	and	r17, r17
    2f5a:	09 f4       	brne	.+2      	; 0x2f5e <hex_to_bytes+0x28>
    2f5c:	3f c0       	rjmp	.+126    	; 0x2fdc <hex_to_bytes+0xa6>
    2f5e:	ef 2d       	mov	r30, r15
    2f60:	f0 2f       	mov	r31, r16
    2f62:	20 e0       	ldi	r18, 0x00	; 0
    2f64:	30 e0       	ldi	r19, 0x00	; 0
		char c = src[index];
		int value = 0;
    2f66:	70 e0       	ldi	r23, 0x00	; 0
    2f68:	60 e0       	ldi	r22, 0x00	; 0
    2f6a:	42 2f       	mov	r20, r18

void hex_to_bytes(char* src, uint8_t slength, uint8_t dest[slength/2]) {
	memset(dest, 0, slength/2);
	uint8_t index = 0;
	while (index < slength) {
		char c = src[index];
    2f6c:	81 91       	ld	r24, Z+
    2f6e:	2f 5f       	subi	r18, 0xFF	; 255
    2f70:	3f 4f       	sbci	r19, 0xFF	; 255
		int value = 0;
		if(c >= '0' && c <= '9')
    2f72:	90 ed       	ldi	r25, 0xD0	; 208
    2f74:	98 0f       	add	r25, r24
    2f76:	9a 30       	cpi	r25, 0x0A	; 10
    2f78:	18 f4       	brcc	.+6      	; 0x2f80 <hex_to_bytes+0x4a>
		value = (c - '0');
    2f7a:	90 e0       	ldi	r25, 0x00	; 0
    2f7c:	c0 97       	sbiw	r24, 0x30	; 48
    2f7e:	11 c0       	rjmp	.+34     	; 0x2fa2 <hex_to_bytes+0x6c>
		else if (c >= 'A' && c <= 'F')
    2f80:	9f eb       	ldi	r25, 0xBF	; 191
    2f82:	98 0f       	add	r25, r24
    2f84:	96 30       	cpi	r25, 0x06	; 6
    2f86:	18 f4       	brcc	.+6      	; 0x2f8e <hex_to_bytes+0x58>
		value = (10 + (c - 'A'));
    2f88:	90 e0       	ldi	r25, 0x00	; 0
    2f8a:	c7 97       	sbiw	r24, 0x37	; 55
    2f8c:	0a c0       	rjmp	.+20     	; 0x2fa2 <hex_to_bytes+0x6c>
		else if (c >= 'a' && c <= 'f')
    2f8e:	9f e9       	ldi	r25, 0x9F	; 159
    2f90:	98 0f       	add	r25, r24
    2f92:	96 30       	cpi	r25, 0x06	; 6
    2f94:	20 f4       	brcc	.+8      	; 0x2f9e <hex_to_bytes+0x68>
		value = (10 + (c - 'a'));
    2f96:	90 e0       	ldi	r25, 0x00	; 0
    2f98:	87 55       	subi	r24, 0x57	; 87
    2f9a:	91 09       	sbc	r25, r1
    2f9c:	02 c0       	rjmp	.+4      	; 0x2fa2 <hex_to_bytes+0x6c>
void hex_to_bytes(char* src, uint8_t slength, uint8_t dest[slength/2]) {
	memset(dest, 0, slength/2);
	uint8_t index = 0;
	while (index < slength) {
		char c = src[index];
		int value = 0;
    2f9e:	87 2f       	mov	r24, r23
    2fa0:	96 2f       	mov	r25, r22
		else if (c >= 'A' && c <= 'F')
		value = (10 + (c - 'A'));
		else if (c >= 'a' && c <= 'f')
		value = (10 + (c - 'a'));

		dest[(index/2)] += value << (((index + 1) % 2) * 4);
    2fa2:	46 95       	lsr	r20
    2fa4:	de 01       	movw	r26, r28
    2fa6:	a4 0f       	add	r26, r20
    2fa8:	b1 1d       	adc	r27, r1
    2faa:	a9 01       	movw	r20, r18
    2fac:	41 70       	andi	r20, 0x01	; 1
    2fae:	50 78       	andi	r21, 0x80	; 128
    2fb0:	55 23       	and	r21, r21
    2fb2:	34 f4       	brge	.+12     	; 0x2fc0 <hex_to_bytes+0x8a>
    2fb4:	41 50       	subi	r20, 0x01	; 1
    2fb6:	51 09       	sbc	r21, r1
    2fb8:	4e 6f       	ori	r20, 0xFE	; 254
    2fba:	5f 6f       	ori	r21, 0xFF	; 255
    2fbc:	4f 5f       	subi	r20, 0xFF	; 255
    2fbe:	5f 4f       	sbci	r21, 0xFF	; 255
    2fc0:	44 0f       	add	r20, r20
    2fc2:	55 1f       	adc	r21, r21
    2fc4:	44 0f       	add	r20, r20
    2fc6:	55 1f       	adc	r21, r21
    2fc8:	02 c0       	rjmp	.+4      	; 0x2fce <hex_to_bytes+0x98>
    2fca:	88 0f       	add	r24, r24
    2fcc:	99 1f       	adc	r25, r25
    2fce:	4a 95       	dec	r20
    2fd0:	e2 f7       	brpl	.-8      	; 0x2fca <hex_to_bytes+0x94>
    2fd2:	9c 91       	ld	r25, X
    2fd4:	89 0f       	add	r24, r25
    2fd6:	8c 93       	st	X, r24
}

void hex_to_bytes(char* src, uint8_t slength, uint8_t dest[slength/2]) {
	memset(dest, 0, slength/2);
	uint8_t index = 0;
	while (index < slength) {
    2fd8:	21 17       	cp	r18, r17
    2fda:	38 f2       	brcs	.-114    	; 0x2f6a <hex_to_bytes+0x34>

		dest[(index/2)] += value << (((index + 1) % 2) * 4);

		index++;
	}
}
    2fdc:	df 91       	pop	r29
    2fde:	cf 91       	pop	r28
    2fe0:	1f 91       	pop	r17
    2fe2:	0f 91       	pop	r16
    2fe4:	ff 90       	pop	r15
    2fe6:	08 95       	ret

00002fe8 <get_public_key>:
	}
	return 1;
}

static void get_public_key(uint8_t role, uint8_t public[64]){
	switch (role)
    2fe8:	82 30       	cpi	r24, 0x02	; 2
    2fea:	79 f0       	breq	.+30     	; 0x300a <get_public_key+0x22>
    2fec:	18 f4       	brcc	.+6      	; 0x2ff4 <get_public_key+0xc>
    2fee:	81 30       	cpi	r24, 0x01	; 1
    2ff0:	31 f0       	breq	.+12     	; 0x2ffe <get_public_key+0x16>
    2ff2:	08 95       	ret
    2ff4:	84 30       	cpi	r24, 0x04	; 4
    2ff6:	79 f0       	breq	.+30     	; 0x3016 <get_public_key+0x2e>
    2ff8:	88 30       	cpi	r24, 0x08	; 8
    2ffa:	99 f0       	breq	.+38     	; 0x3022 <get_public_key+0x3a>
    2ffc:	08 95       	ret
	{
		case OWNER_ROLE :
		hex_to_bytes(public_key1_hex, 128, public);
    2ffe:	ab 01       	movw	r20, r22
    3000:	60 e8       	ldi	r22, 0x80	; 128
    3002:	83 e5       	ldi	r24, 0x53	; 83
    3004:	94 e0       	ldi	r25, 0x04	; 4
    3006:	97 cf       	rjmp	.-210    	; 0x2f36 <hex_to_bytes>
		break;
    3008:	08 95       	ret
		case REPAIRSHOP_ROLE :
		hex_to_bytes(public_key2_hex, 128, public);
    300a:	ab 01       	movw	r20, r22
    300c:	60 e8       	ldi	r22, 0x80	; 128
    300e:	83 ed       	ldi	r24, 0xD3	; 211
    3010:	93 e0       	ldi	r25, 0x03	; 3
    3012:	91 cf       	rjmp	.-222    	; 0x2f36 <hex_to_bytes>
		break;
    3014:	08 95       	ret
		case POLICEMAN_ROLE :
		hex_to_bytes(public_key3_hex, 128, public);
    3016:	ab 01       	movw	r20, r22
    3018:	60 e8       	ldi	r22, 0x80	; 128
    301a:	83 e5       	ldi	r24, 0x53	; 83
    301c:	93 e0       	ldi	r25, 0x03	; 3
    301e:	8b cf       	rjmp	.-234    	; 0x2f36 <hex_to_bytes>
		break;
    3020:	08 95       	ret
		case TESTER_ROLE :
		hex_to_bytes(public_key4_hex, 128, public);
    3022:	ab 01       	movw	r20, r22
    3024:	60 e8       	ldi	r22, 0x80	; 128
    3026:	83 ed       	ldi	r24, 0xD3	; 211
    3028:	92 e0       	ldi	r25, 0x02	; 2
    302a:	85 cf       	rjmp	.-246    	; 0x2f36 <hex_to_bytes>
    302c:	08 95       	ret

0000302e <RNG>:
	//EICRB = 1 << ISC40 | 1 << ISC41 | 1 << ISC50 | 1 << ISC51 | 1 << ISC60 | 1 << ISC61 | 1 << ISC70 | 1 << ISC71; // set interrupt on falling edge.
	EIMSK = 1 << INT4 | 1 << INT5 | 1 << INT6 | 1 << INT7;
	
}

static int RNG(uint8_t *dest, unsigned size) {
    302e:	ff 92       	push	r15
    3030:	0f 93       	push	r16
    3032:	1f 93       	push	r17
    3034:	cf 93       	push	r28
    3036:	df 93       	push	r29
    3038:	ec 01       	movw	r28, r24
    303a:	8b 01       	movw	r16, r22
	while(size){
    303c:	67 2b       	or	r22, r23
    303e:	51 f0       	breq	.+20     	; 0x3054 <RNG+0x26>
		uint8_t val = (uint8_t) rand() + rand();
    3040:	0e 94 d8 2c 	call	0x59b0	; 0x59b0 <rand>
    3044:	f8 2e       	mov	r15, r24
    3046:	0e 94 d8 2c 	call	0x59b0	; 0x59b0 <rand>
		*dest = val;
    304a:	8f 0d       	add	r24, r15
    304c:	89 93       	st	Y+, r24
		++dest;
		--size;
    304e:	01 50       	subi	r16, 0x01	; 1
    3050:	11 09       	sbc	r17, r1
	EIMSK = 1 << INT4 | 1 << INT5 | 1 << INT6 | 1 << INT7;
	
}

static int RNG(uint8_t *dest, unsigned size) {
	while(size){
    3052:	b1 f7       	brne	.-20     	; 0x3040 <RNG+0x12>
		*dest = val;
		++dest;
		--size;
	}
	return 1;
}
    3054:	81 e0       	ldi	r24, 0x01	; 1
    3056:	90 e0       	ldi	r25, 0x00	; 0
    3058:	df 91       	pop	r29
    305a:	cf 91       	pop	r28
    305c:	1f 91       	pop	r17
    305e:	0f 91       	pop	r16
    3060:	ff 90       	pop	r15
    3062:	08 95       	ret

00003064 <__vector_8>:
const can_mask_t default_mask = {255, 255};

volatile state_t state = IDLE_S;
volatile event_t event = NULL_E;

ISR(INT7_vect){
    3064:	1f 92       	push	r1
    3066:	0f 92       	push	r0
    3068:	0f b6       	in	r0, 0x3f	; 63
    306a:	0f 92       	push	r0
    306c:	11 24       	eor	r1, r1
    306e:	0b b6       	in	r0, 0x3b	; 59
    3070:	0f 92       	push	r0
    3072:	2f 93       	push	r18
    3074:	3f 93       	push	r19
    3076:	4f 93       	push	r20
    3078:	5f 93       	push	r21
    307a:	6f 93       	push	r22
    307c:	7f 93       	push	r23
    307e:	8f 93       	push	r24
    3080:	9f 93       	push	r25
    3082:	af 93       	push	r26
    3084:	bf 93       	push	r27
    3086:	ef 93       	push	r30
    3088:	ff 93       	push	r31
	EIMSK &= ~(1 << INT7);
    308a:	ef 98       	cbi	0x1d, 7	; 29
	#else
		//round up by default
		__ticks_dc = (uint32_t)(ceil(fabs(__tmp)));
	#endif

	__builtin_avr_delay_cycles(__ticks_dc);
    308c:	2f ef       	ldi	r18, 0xFF	; 255
    308e:	84 e3       	ldi	r24, 0x34	; 52
    3090:	9c e0       	ldi	r25, 0x0C	; 12
    3092:	21 50       	subi	r18, 0x01	; 1
    3094:	80 40       	sbci	r24, 0x00	; 0
    3096:	90 40       	sbci	r25, 0x00	; 0
    3098:	e1 f7       	brne	.-8      	; 0x3092 <__vector_8+0x2e>
    309a:	00 c0       	rjmp	.+0      	; 0x309c <__vector_8+0x38>
    309c:	00 00       	nop
	_delay_ms(500);
	switch(auth_protocol){
    309e:	80 91 ea 04 	lds	r24, 0x04EA	; 0x8004ea <auth_protocol>
    30a2:	88 23       	and	r24, r24
    30a4:	19 f0       	breq	.+6      	; 0x30ac <__vector_8+0x48>
    30a6:	81 30       	cpi	r24, 0x01	; 1
    30a8:	49 f0       	breq	.+18     	; 0x30bc <__vector_8+0x58>
    30aa:	0e c0       	rjmp	.+28     	; 0x30c8 <__vector_8+0x64>
		case SINGLE :
		auth_protocol = SESSION;
    30ac:	81 e0       	ldi	r24, 0x01	; 1
    30ae:	80 93 ea 04 	sts	0x04EA, r24	; 0x8004ea <auth_protocol>
		uart_puts("Switched to session Authentication protocol.");
    30b2:	86 eb       	ldi	r24, 0xB6	; 182
    30b4:	91 e0       	ldi	r25, 0x01	; 1
    30b6:	0e 94 d3 2a 	call	0x55a6	; 0x55a6 <uart_puts>
		break;
    30ba:	06 c0       	rjmp	.+12     	; 0x30c8 <__vector_8+0x64>
		case SESSION :
		auth_protocol = SINGLE;
    30bc:	10 92 ea 04 	sts	0x04EA, r1	; 0x8004ea <auth_protocol>
		uart_puts("Switched to single Authentication protocol.");
    30c0:	83 ee       	ldi	r24, 0xE3	; 227
    30c2:	91 e0       	ldi	r25, 0x01	; 1
    30c4:	0e 94 d3 2a 	call	0x55a6	; 0x55a6 <uart_puts>
		break;
	}
	EIMSK |= 1 << INT7;
    30c8:	ef 9a       	sbi	0x1d, 7	; 29
}
    30ca:	ff 91       	pop	r31
    30cc:	ef 91       	pop	r30
    30ce:	bf 91       	pop	r27
    30d0:	af 91       	pop	r26
    30d2:	9f 91       	pop	r25
    30d4:	8f 91       	pop	r24
    30d6:	7f 91       	pop	r23
    30d8:	6f 91       	pop	r22
    30da:	5f 91       	pop	r21
    30dc:	4f 91       	pop	r20
    30de:	3f 91       	pop	r19
    30e0:	2f 91       	pop	r18
    30e2:	0f 90       	pop	r0
    30e4:	0b be       	out	0x3b, r0	; 59
    30e6:	0f 90       	pop	r0
    30e8:	0f be       	out	0x3f, r0	; 63
    30ea:	0f 90       	pop	r0
    30ec:	1f 90       	pop	r1
    30ee:	18 95       	reti

000030f0 <buttons_init>:


void buttons_init(){
	DDRE = 0x00;
    30f0:	1d b8       	out	0x0d, r1	; 13
	PORTE = 1 << PE4 | 1 << PE5 | 1 << PE6 | 1 << PE7;
    30f2:	80 ef       	ldi	r24, 0xF0	; 240
    30f4:	8e b9       	out	0x0e, r24	; 14
	EICRB = 0x00;
    30f6:	10 92 6a 00 	sts	0x006A, r1	; 0x80006a <__TEXT_REGION_LENGTH__+0x7e006a>
	//EICRB = 1 << ISC40 | 1 << ISC41 | 1 << ISC50 | 1 << ISC51 | 1 << ISC60 | 1 << ISC61 | 1 << ISC70 | 1 << ISC71; // set interrupt on falling edge.
	EIMSK = 1 << INT4 | 1 << INT5 | 1 << INT6 | 1 << INT7;
    30fa:	8d bb       	out	0x1d, r24	; 29
    30fc:	08 95       	ret

000030fe <verify_signature>:
	}
}



int verify_signature(uint8_t challenge[64], uint8_t signature[64], permissions_t role){
    30fe:	af 92       	push	r10
    3100:	bf 92       	push	r11
    3102:	df 92       	push	r13
    3104:	ef 92       	push	r14
    3106:	ff 92       	push	r15
    3108:	0f 93       	push	r16
    310a:	1f 93       	push	r17
    310c:	cf 93       	push	r28
    310e:	df 93       	push	r29
    3110:	cd b7       	in	r28, 0x3d	; 61
    3112:	de b7       	in	r29, 0x3e	; 62
    3114:	c0 58       	subi	r28, 0x80	; 128
    3116:	d1 09       	sbc	r29, r1
    3118:	0f b6       	in	r0, 0x3f	; 63
    311a:	f8 94       	cli
    311c:	de bf       	out	0x3e, r29	; 62
    311e:	0f be       	out	0x3f, r0	; 63
    3120:	cd bf       	out	0x3d, r28	; 61
    3122:	5c 01       	movw	r10, r24
    3124:	7b 01       	movw	r14, r22
    3126:	d4 2e       	mov	r13, r20
	const struct uECC_Curve_t * curve = uECC_secp256r1();
    3128:	fa da       	rcall	.-2572   	; 0x271e <uECC_secp256r1>
    312a:	8c 01       	movw	r16, r24
	int result;
	uint8_t hash[64];
	sha512(hash, challenge,512);
    312c:	20 e0       	ldi	r18, 0x00	; 0
    312e:	32 e0       	ldi	r19, 0x02	; 2
    3130:	40 e0       	ldi	r20, 0x00	; 0
    3132:	50 e0       	ldi	r21, 0x00	; 0
    3134:	b5 01       	movw	r22, r10
    3136:	ce 01       	movw	r24, r28
    3138:	01 96       	adiw	r24, 0x01	; 1
    313a:	0e 94 51 2a 	call	0x54a2	; 0x54a2 <sha512>
	uint8_t public[64];
	get_public_key(role, public);
    313e:	be 01       	movw	r22, r28
    3140:	6f 5b       	subi	r22, 0xBF	; 191
    3142:	7f 4f       	sbci	r23, 0xFF	; 255
    3144:	8d 2d       	mov	r24, r13
    3146:	50 df       	rcall	.-352    	; 0x2fe8 <get_public_key>
	result = uECC_verify(public, hash, 64, signature, curve);
    3148:	97 01       	movw	r18, r14
    314a:	40 e4       	ldi	r20, 0x40	; 64
    314c:	50 e0       	ldi	r21, 0x00	; 0
    314e:	be 01       	movw	r22, r28
    3150:	6f 5f       	subi	r22, 0xFF	; 255
    3152:	7f 4f       	sbci	r23, 0xFF	; 255
    3154:	ce 01       	movw	r24, r28
    3156:	8f 5b       	subi	r24, 0xBF	; 191
    3158:	9f 4f       	sbci	r25, 0xFF	; 255
    315a:	2d dc       	rcall	.-1958   	; 0x29b6 <uECC_verify>
	return result;
}
    315c:	c0 58       	subi	r28, 0x80	; 128
    315e:	df 4f       	sbci	r29, 0xFF	; 255
    3160:	0f b6       	in	r0, 0x3f	; 63
    3162:	f8 94       	cli
    3164:	de bf       	out	0x3e, r29	; 62
    3166:	0f be       	out	0x3f, r0	; 63
    3168:	cd bf       	out	0x3d, r28	; 61
    316a:	df 91       	pop	r29
    316c:	cf 91       	pop	r28
    316e:	1f 91       	pop	r17
    3170:	0f 91       	pop	r16
    3172:	ff 90       	pop	r15
    3174:	ef 90       	pop	r14
    3176:	df 90       	pop	r13
    3178:	bf 90       	pop	r11
    317a:	af 90       	pop	r10
    317c:	08 95       	ret

0000317e <single_authentication>:

int single_authentication(permissions_t role)
{
    317e:	1f 93       	push	r17
    3180:	cf 93       	push	r28
    3182:	df 93       	push	r29
    3184:	cd b7       	in	r28, 0x3d	; 61
    3186:	de b7       	in	r29, 0x3e	; 62
    3188:	c3 59       	subi	r28, 0x93	; 147
    318a:	d1 09       	sbc	r29, r1
    318c:	0f b6       	in	r0, 0x3f	; 63
    318e:	f8 94       	cli
    3190:	de bf       	out	0x3e, r29	; 62
    3192:	0f be       	out	0x3f, r0	; 63
    3194:	cd bf       	out	0x3d, r28	; 61
    3196:	18 2f       	mov	r17, r24
	volatile uint8_t result;
	uart_puts("authentication started");
    3198:	8f e0       	ldi	r24, 0x0F	; 15
    319a:	92 e0       	ldi	r25, 0x02	; 2
    319c:	0e 94 d3 2a 	call	0x55a6	; 0x55a6 <uart_puts>
	can_buff_512_t challenge;
	RNG(challenge, 64);
    31a0:	60 e4       	ldi	r22, 0x40	; 64
    31a2:	70 e0       	ldi	r23, 0x00	; 0
    31a4:	ce 01       	movw	r24, r28
    31a6:	02 96       	adiw	r24, 0x02	; 2
    31a8:	42 df       	rcall	.-380    	; 0x302e <RNG>
	can_send_frame_buffer(challenge , 8);
    31aa:	68 e0       	ldi	r22, 0x08	; 8
    31ac:	ce 01       	movw	r24, r28
    31ae:	02 96       	adiw	r24, 0x02	; 2
    31b0:	0e 94 95 03 	call	0x72a	; 0x72a <can_send_frame_buffer>
	uart_puts("challenge sent");
    31b4:	86 e2       	ldi	r24, 0x26	; 38
    31b6:	92 e0       	ldi	r25, 0x02	; 2
    31b8:	0e 94 d3 2a 	call	0x55a6	; 0x55a6 <uart_puts>
	uint8_t signature[64];
	can_receive_frame_buffer(signature, 8);
    31bc:	68 e0       	ldi	r22, 0x08	; 8
    31be:	ce 01       	movw	r24, r28
    31c0:	8e 5b       	subi	r24, 0xBE	; 190
    31c2:	9f 4f       	sbci	r25, 0xFF	; 255
    31c4:	0e 94 bc 03 	call	0x778	; 0x778 <can_receive_frame_buffer>
	result = verify_signature(challenge, signature, role);
    31c8:	41 2f       	mov	r20, r17
    31ca:	be 01       	movw	r22, r28
    31cc:	6e 5b       	subi	r22, 0xBE	; 190
    31ce:	7f 4f       	sbci	r23, 0xFF	; 255
    31d0:	ce 01       	movw	r24, r28
    31d2:	02 96       	adiw	r24, 0x02	; 2
    31d4:	94 df       	rcall	.-216    	; 0x30fe <verify_signature>
    31d6:	89 83       	std	Y+1, r24	; 0x01
	can_msg_t ack;
	if(result==1) {
    31d8:	89 81       	ldd	r24, Y+1	; 0x01
    31da:	81 30       	cpi	r24, 0x01	; 1
    31dc:	51 f4       	brne	.+20     	; 0x31f2 <single_authentication+0x74>
		uart_puts("signature is valid!");
    31de:	85 e3       	ldi	r24, 0x35	; 53
    31e0:	92 e0       	ldi	r25, 0x02	; 2
    31e2:	0e 94 d3 2a 	call	0x55a6	; 0x55a6 <uart_puts>
		ack[0] = ACK_POS;
    31e6:	ce 57       	subi	r28, 0x7E	; 126
    31e8:	df 4f       	sbci	r29, 0xFF	; 255
    31ea:	18 82       	st	Y, r1
    31ec:	c2 58       	subi	r28, 0x82	; 130
    31ee:	d0 40       	sbci	r29, 0x00	; 0
    31f0:	0a c0       	rjmp	.+20     	; 0x3206 <single_authentication+0x88>
	}else{
		uart_puts("signature is false!");
    31f2:	89 e4       	ldi	r24, 0x49	; 73
    31f4:	92 e0       	ldi	r25, 0x02	; 2
    31f6:	0e 94 d3 2a 	call	0x55a6	; 0x55a6 <uart_puts>
		ack[0] = ACK_NEG;
    31fa:	81 e0       	ldi	r24, 0x01	; 1
    31fc:	ce 57       	subi	r28, 0x7E	; 126
    31fe:	df 4f       	sbci	r29, 0xFF	; 255
    3200:	88 83       	st	Y, r24
    3202:	c2 58       	subi	r28, 0x82	; 130
    3204:	d0 40       	sbci	r29, 0x00	; 0
	}
	can_send_message(0, 0x00, ack);
    3206:	ae 01       	movw	r20, r28
    3208:	4e 57       	subi	r20, 0x7E	; 126
    320a:	5f 4f       	sbci	r21, 0xFF	; 255
    320c:	60 e0       	ldi	r22, 0x00	; 0
    320e:	70 e0       	ldi	r23, 0x00	; 0
    3210:	80 e0       	ldi	r24, 0x00	; 0
    3212:	0e 94 33 03 	call	0x666	; 0x666 <can_send_message>
	can_msg_t message;
	can_receive_message(0, default_id, 0x00, message);
    3216:	9e 01       	movw	r18, r28
    3218:	26 57       	subi	r18, 0x76	; 118
    321a:	3f 4f       	sbci	r19, 0xFF	; 255
    321c:	40 e0       	ldi	r20, 0x00	; 0
    321e:	50 e0       	ldi	r21, 0x00	; 0
    3220:	61 ed       	ldi	r22, 0xD1	; 209
    3222:	72 e0       	ldi	r23, 0x02	; 2
    3224:	80 e0       	ldi	r24, 0x00	; 0
    3226:	0e 94 55 03 	call	0x6aa	; 0x6aa <can_receive_message>
	can_id_t id;
	can_get_id(0, id);
    322a:	be 01       	movw	r22, r28
    322c:	6e 56       	subi	r22, 0x6E	; 110
    322e:	7f 4f       	sbci	r23, 0xFF	; 255
    3230:	80 e0       	ldi	r24, 0x00	; 0
    3232:	0e 94 cf 02 	call	0x59e	; 0x59e <can_get_id>
	if (check_permission(id, role) == 0){
    3236:	61 2f       	mov	r22, r17
    3238:	ce 01       	movw	r24, r28
    323a:	8e 56       	subi	r24, 0x6E	; 110
    323c:	9f 4f       	sbci	r25, 0xFF	; 255
    323e:	b0 d1       	rcall	.+864    	; 0x35a0 <check_permission>
    3240:	89 2b       	or	r24, r25
    3242:	51 f4       	brne	.+20     	; 0x3258 <single_authentication+0xda>
		uart_puts("Permission Ok");
    3244:	8d e5       	ldi	r24, 0x5D	; 93
    3246:	92 e0       	ldi	r25, 0x02	; 2
    3248:	0e 94 d3 2a 	call	0x55a6	; 0x55a6 <uart_puts>
		ack[0] = ACK_POS;
    324c:	ce 57       	subi	r28, 0x7E	; 126
    324e:	df 4f       	sbci	r29, 0xFF	; 255
    3250:	18 82       	st	Y, r1
    3252:	c2 58       	subi	r28, 0x82	; 130
    3254:	d0 40       	sbci	r29, 0x00	; 0
    3256:	0a c0       	rjmp	.+20     	; 0x326c <single_authentication+0xee>
	}else{
		uart_puts("Permission Failed");
    3258:	8b e6       	ldi	r24, 0x6B	; 107
    325a:	92 e0       	ldi	r25, 0x02	; 2
    325c:	0e 94 d3 2a 	call	0x55a6	; 0x55a6 <uart_puts>
		ack[0] = ACK_NEG;
    3260:	81 e0       	ldi	r24, 0x01	; 1
    3262:	ce 57       	subi	r28, 0x7E	; 126
    3264:	df 4f       	sbci	r29, 0xFF	; 255
    3266:	88 83       	st	Y, r24
    3268:	c2 58       	subi	r28, 0x82	; 130
    326a:	d0 40       	sbci	r29, 0x00	; 0
	}
	can_send_message(0, 0x00, ack);
    326c:	ae 01       	movw	r20, r28
    326e:	4e 57       	subi	r20, 0x7E	; 126
    3270:	5f 4f       	sbci	r21, 0xFF	; 255
    3272:	60 e0       	ldi	r22, 0x00	; 0
    3274:	70 e0       	ldi	r23, 0x00	; 0
    3276:	80 e0       	ldi	r24, 0x00	; 0
    3278:	0e 94 33 03 	call	0x666	; 0x666 <can_send_message>
	return 0;
}
    327c:	80 e0       	ldi	r24, 0x00	; 0
    327e:	90 e0       	ldi	r25, 0x00	; 0
    3280:	cd 56       	subi	r28, 0x6D	; 109
    3282:	df 4f       	sbci	r29, 0xFF	; 255
    3284:	0f b6       	in	r0, 0x3f	; 63
    3286:	f8 94       	cli
    3288:	de bf       	out	0x3e, r29	; 62
    328a:	0f be       	out	0x3f, r0	; 63
    328c:	cd bf       	out	0x3d, r28	; 61
    328e:	df 91       	pop	r29
    3290:	cf 91       	pop	r28
    3292:	1f 91       	pop	r17
    3294:	08 95       	ret

00003296 <session_authentication>:

int session_authentication(permissions_t role){
    3296:	cf 93       	push	r28
    3298:	df 93       	push	r29
    329a:	cd b7       	in	r28, 0x3d	; 61
    329c:	de b7       	in	r29, 0x3e	; 62
    329e:	c3 52       	subi	r28, 0x23	; 35
    32a0:	d1 40       	sbci	r29, 0x01	; 1
    32a2:	0f b6       	in	r0, 0x3f	; 63
    32a4:	f8 94       	cli
    32a6:	de bf       	out	0x3e, r29	; 62
    32a8:	0f be       	out	0x3f, r0	; 63
    32aa:	cd bf       	out	0x3d, r28	; 61
    32ac:	d8 2e       	mov	r13, r24
	volatile uint8_t result;
	
	//---Shared Secret Establishment Starts Here---//
	uart_puts("authentication started");
    32ae:	8f e0       	ldi	r24, 0x0F	; 15
    32b0:	92 e0       	ldi	r25, 0x02	; 2
    32b2:	0e 94 d3 2a 	call	0x55a6	; 0x55a6 <uart_puts>
	uECC_set_rng(RNG);
    32b6:	87 e1       	ldi	r24, 0x17	; 23
    32b8:	98 e1       	ldi	r25, 0x18	; 24
    32ba:	2c da       	rcall	.-2984   	; 0x2714 <uECC_set_rng>
	volatile uint8_t private2[32];
	volatile uint8_t public2[64];
	const struct uECC_Curve_t * curve = uECC_secp256r1();
    32bc:	30 da       	rcall	.-2976   	; 0x271e <uECC_secp256r1>
    32be:	8c 01       	movw	r16, r24
    32c0:	ac 01       	movw	r20, r24
	result = uECC_make_key(public2, private2, curve);
    32c2:	be 01       	movw	r22, r28
    32c4:	6e 5f       	subi	r22, 0xFE	; 254
    32c6:	7f 4f       	sbci	r23, 0xFF	; 255
    32c8:	ce 01       	movw	r24, r28
    32ca:	82 96       	adiw	r24, 0x22	; 34
    32cc:	2b da       	rcall	.-2986   	; 0x2724 <uECC_make_key>
    32ce:	89 83       	std	Y+1, r24	; 0x01
    32d0:	be 01       	movw	r22, r28
	uint8_t secret_unhashed[32];
	uint8_t public[64];
	get_public_key(role, public);
    32d2:	6e 57       	subi	r22, 0x7E	; 126
    32d4:	7f 4f       	sbci	r23, 0xFF	; 255
    32d6:	8d 2d       	mov	r24, r13
    32d8:	87 de       	rcall	.-754    	; 0x2fe8 <get_public_key>
    32da:	98 01       	movw	r18, r16
	result = uECC_shared_secret(public, private2, secret_unhashed, curve);
    32dc:	ae 01       	movw	r20, r28
    32de:	4e 59       	subi	r20, 0x9E	; 158
    32e0:	5f 4f       	sbci	r21, 0xFF	; 255
    32e2:	be 01       	movw	r22, r28
    32e4:	6e 5f       	subi	r22, 0xFE	; 254
    32e6:	7f 4f       	sbci	r23, 0xFF	; 255
    32e8:	ce 01       	movw	r24, r28
    32ea:	8e 57       	subi	r24, 0x7E	; 126
    32ec:	9f 4f       	sbci	r25, 0xFF	; 255
    32ee:	a0 da       	rcall	.-2752   	; 0x2830 <uECC_shared_secret>
    32f0:	89 83       	std	Y+1, r24	; 0x01
    32f2:	20 e0       	ldi	r18, 0x00	; 0
	uint8_t secret[32];
	uint32_t len = 256;
	sha256(secret, secret_unhashed, len);
    32f4:	31 e0       	ldi	r19, 0x01	; 1
    32f6:	40 e0       	ldi	r20, 0x00	; 0
    32f8:	50 e0       	ldi	r21, 0x00	; 0
    32fa:	be 01       	movw	r22, r28
    32fc:	6e 59       	subi	r22, 0x9E	; 158
    32fe:	7f 4f       	sbci	r23, 0xFF	; 255
    3300:	ce 01       	movw	r24, r28
    3302:	8e 53       	subi	r24, 0x3E	; 62
    3304:	9f 4f       	sbci	r25, 0xFF	; 255
    3306:	7f d2       	rcall	.+1278   	; 0x3806 <sha256>
    3308:	68 e0       	ldi	r22, 0x08	; 8
	//---Secret Value Establishment Ends Here---//
	
	can_send_frame_buffer(public2, 8);
    330a:	ce 01       	movw	r24, r28
    330c:	82 96       	adiw	r24, 0x22	; 34
    330e:	0e 94 95 03 	call	0x72a	; 0x72a <can_send_frame_buffer>
    3312:	8d e7       	ldi	r24, 0x7D	; 125
	uart_puts("secret established");
    3314:	92 e0       	ldi	r25, 0x02	; 2
    3316:	0e 94 d3 2a 	call	0x55a6	; 0x55a6 <uart_puts>
    331a:	cc 24       	eor	r12, r12
		if(check_permission(id, role) == 0){
			uart_puts("Permission Ok");
			ack[0] = ACK_POS;
		}else{
			uart_puts("Permission Failed");
			ack[0] = ACK_NEG;
    331c:	c3 94       	inc	r12
    331e:	80 e9       	ldi	r24, 0x90	; 144
	//---Every iteration of this loop equals 1 message being authenticated using the shared secret---.
	while(1){
		can_id_t id;
		can_msg_t message;
		can_msg_t ack;
		uart_puts("test1");
    3320:	92 e0       	ldi	r25, 0x02	; 2
    3322:	0e 94 d3 2a 	call	0x55a6	; 0x55a6 <uart_puts>
    3326:	9e 01       	movw	r18, r28
		// Receive the message that the tester wants to send to the network.
		can_receive_message(0, default_id, zero_mask, message);
    3328:	26 5e       	subi	r18, 0xE6	; 230
    332a:	3e 4f       	sbci	r19, 0xFE	; 254
    332c:	4f ec       	ldi	r20, 0xCF	; 207
    332e:	52 e0       	ldi	r21, 0x02	; 2
    3330:	61 ed       	ldi	r22, 0xD1	; 209
    3332:	72 e0       	ldi	r23, 0x02	; 2
    3334:	80 e0       	ldi	r24, 0x00	; 0
    3336:	0e 94 55 03 	call	0x6aa	; 0x6aa <can_receive_message>
    333a:	86 e9       	ldi	r24, 0x96	; 150
		uart_puts("test2");
    333c:	92 e0       	ldi	r25, 0x02	; 2
    333e:	0e 94 d3 2a 	call	0x55a6	; 0x55a6 <uart_puts>
    3342:	be 01       	movw	r22, r28
		can_get_id(0, id);
    3344:	6e 5d       	subi	r22, 0xDE	; 222
    3346:	7e 4f       	sbci	r23, 0xFE	; 254
    3348:	80 e0       	ldi	r24, 0x00	; 0
    334a:	0e 94 cf 02 	call	0x59e	; 0x59e <can_get_id>
    334e:	8c e9       	ldi	r24, 0x9C	; 156
		//Check the Permission.
		uart_puts("test3");
    3350:	92 e0       	ldi	r25, 0x02	; 2
    3352:	0e 94 d3 2a 	call	0x55a6	; 0x55a6 <uart_puts>
		if(check_permission(id, role) == 0){
    3356:	6d 2d       	mov	r22, r13
    3358:	ce 01       	movw	r24, r28
    335a:	8e 5d       	subi	r24, 0xDE	; 222
    335c:	9e 4f       	sbci	r25, 0xFE	; 254
    335e:	20 d1       	rcall	.+576    	; 0x35a0 <check_permission>
    3360:	89 2b       	or	r24, r25
    3362:	51 f4       	brne	.+20     	; 0x3378 <session_authentication+0xe2>
    3364:	8d e5       	ldi	r24, 0x5D	; 93
			uart_puts("Permission Ok");
    3366:	92 e0       	ldi	r25, 0x02	; 2
    3368:	0e 94 d3 2a 	call	0x55a6	; 0x55a6 <uart_puts>
    336c:	ce 5e       	subi	r28, 0xEE	; 238
			ack[0] = ACK_POS;
    336e:	de 4f       	sbci	r29, 0xFE	; 254
    3370:	18 82       	st	Y, r1
    3372:	c2 51       	subi	r28, 0x12	; 18
    3374:	d1 40       	sbci	r29, 0x01	; 1
    3376:	09 c0       	rjmp	.+18     	; 0x338a <session_authentication+0xf4>
    3378:	8b e6       	ldi	r24, 0x6B	; 107
		}else{
			uart_puts("Permission Failed");
    337a:	92 e0       	ldi	r25, 0x02	; 2
    337c:	0e 94 d3 2a 	call	0x55a6	; 0x55a6 <uart_puts>
    3380:	ce 5e       	subi	r28, 0xEE	; 238
			ack[0] = ACK_NEG;
    3382:	de 4f       	sbci	r29, 0xFE	; 254
    3384:	c8 82       	st	Y, r12
    3386:	c2 51       	subi	r28, 0x12	; 18
    3388:	d1 40       	sbci	r29, 0x01	; 1
    338a:	ae 01       	movw	r20, r28
		}
		// Acknowledge permission.
		can_send_message(0, default_id, ack);
    338c:	4e 5e       	subi	r20, 0xEE	; 238
    338e:	5e 4f       	sbci	r21, 0xFE	; 254
    3390:	61 ed       	ldi	r22, 0xD1	; 209
    3392:	72 e0       	ldi	r23, 0x02	; 2
    3394:	80 e0       	ldi	r24, 0x00	; 0
    3396:	0e 94 33 03 	call	0x666	; 0x666 <can_send_message>
    339a:	62 e0       	ldi	r22, 0x02	; 2
		uint8_t mac[16];
		// Receive the MAC of the message
		can_receive_frame_buffer(mac,2);
    339c:	ce 01       	movw	r24, r28
    339e:	8e 5f       	subi	r24, 0xFE	; 254
    33a0:	9e 4f       	sbci	r25, 0xFE	; 254
    33a2:	0e 94 bc 03 	call	0x778	; 0x778 <can_receive_frame_buffer>
    33a6:	10 e4       	ldi	r17, 0x40	; 64
		uint8_t mac2[32];
		uint16_t klen = 256;
		uint32_t msglen = 64;
		hmac_sha256(mac2, secret, klen ,message , msglen);
    33a8:	e1 2e       	mov	r14, r17
    33aa:	f1 2c       	mov	r15, r1
    33ac:	00 e0       	ldi	r16, 0x00	; 0
    33ae:	10 e0       	ldi	r17, 0x00	; 0
    33b0:	9e 01       	movw	r18, r28
    33b2:	26 5e       	subi	r18, 0xE6	; 230
    33b4:	3e 4f       	sbci	r19, 0xFE	; 254
    33b6:	40 e0       	ldi	r20, 0x00	; 0
    33b8:	51 e0       	ldi	r21, 0x01	; 1
    33ba:	be 01       	movw	r22, r28
    33bc:	6e 53       	subi	r22, 0x3E	; 62
    33be:	7f 4f       	sbci	r23, 0xFF	; 255
    33c0:	ce 01       	movw	r24, r28
    33c2:	8e 51       	subi	r24, 0x1E	; 30
    33c4:	9f 4f       	sbci	r25, 0xFF	; 255
    33c6:	07 d1       	rcall	.+526    	; 0x35d6 <hmac_sha256>
    33c8:	40 e1       	ldi	r20, 0x10	; 16
		//Check the MAC.
		if(memcmp(mac, mac2, 16) == 0){
    33ca:	50 e0       	ldi	r21, 0x00	; 0
    33cc:	be 01       	movw	r22, r28
    33ce:	6e 51       	subi	r22, 0x1E	; 30
    33d0:	7f 4f       	sbci	r23, 0xFF	; 255
    33d2:	ce 01       	movw	r24, r28
    33d4:	8e 5f       	subi	r24, 0xFE	; 254
    33d6:	9e 4f       	sbci	r25, 0xFE	; 254
    33d8:	0e 94 ef 2c 	call	0x59de	; 0x59de <memcmp>
    33dc:	89 2b       	or	r24, r25
    33de:	51 f4       	brne	.+20     	; 0x33f4 <session_authentication+0x15e>
    33e0:	82 ea       	ldi	r24, 0xA2	; 162
			uart_puts("Authentication Ok");
    33e2:	92 e0       	ldi	r25, 0x02	; 2
    33e4:	0e 94 d3 2a 	call	0x55a6	; 0x55a6 <uart_puts>
    33e8:	ce 5e       	subi	r28, 0xEE	; 238
			ack[0] = ACK_POS;
    33ea:	de 4f       	sbci	r29, 0xFE	; 254
    33ec:	18 82       	st	Y, r1
    33ee:	c2 51       	subi	r28, 0x12	; 18
    33f0:	d1 40       	sbci	r29, 0x01	; 1
    33f2:	09 c0       	rjmp	.+18     	; 0x3406 <session_authentication+0x170>
    33f4:	84 eb       	ldi	r24, 0xB4	; 180
		}else{
			uart_puts("Authentication Failed");
    33f6:	92 e0       	ldi	r25, 0x02	; 2
    33f8:	0e 94 d3 2a 	call	0x55a6	; 0x55a6 <uart_puts>
    33fc:	ce 5e       	subi	r28, 0xEE	; 238
			ack[0] = ACK_NEG;
    33fe:	de 4f       	sbci	r29, 0xFE	; 254
    3400:	c8 82       	st	Y, r12
    3402:	c2 51       	subi	r28, 0x12	; 18
    3404:	d1 40       	sbci	r29, 0x01	; 1
    3406:	ae 01       	movw	r20, r28
		}
		can_send_message(0, default_id, ack);
    3408:	4e 5e       	subi	r20, 0xEE	; 238
    340a:	5e 4f       	sbci	r21, 0xFE	; 254
    340c:	61 ed       	ldi	r22, 0xD1	; 209
    340e:	72 e0       	ldi	r23, 0x02	; 2
    3410:	80 e0       	ldi	r24, 0x00	; 0
    3412:	0e 94 33 03 	call	0x666	; 0x666 <can_send_message>
    3416:	83 cf       	rjmp	.-250    	; 0x331e <session_authentication+0x88>

00003418 <main>:
	}
    3418:	cf 93       	push	r28
	
}


 int main()
 {
    341a:	df 93       	push	r29
    341c:	cd b7       	in	r28, 0x3d	; 61
    341e:	de b7       	in	r29, 0x3e	; 62
    3420:	28 97       	sbiw	r28, 0x08	; 8
    3422:	0f b6       	in	r0, 0x3f	; 63
    3424:	f8 94       	cli
    3426:	de bf       	out	0x3e, r29	; 62
    3428:	0f be       	out	0x3f, r0	; 63
    342a:	cd bf       	out	0x3d, r28	; 61
	uart_init();
    342c:	0e 94 c7 2a 	call	0x558e	; 0x558e <uart_init>
	buttons_init();
    3430:	5f de       	rcall	.-834    	; 0x30f0 <buttons_init>
	can_init();
    3432:	0e 94 62 02 	call	0x4c4	; 0x4c4 <can_init>
	init_permissions_table();
    3436:	69 d0       	rcall	.+210    	; 0x350a <init_permissions_table>
	uart_puts("idle");
    3438:	8a ec       	ldi	r24, 0xCA	; 202
    343a:	92 e0       	ldi	r25, 0x02	; 2
    343c:	0e 94 d3 2a 	call	0x55a6	; 0x55a6 <uart_puts>
	can_msg_t init;
	while(1){
		can_receive_message(0, default_id, zero_mask, init);
    3440:	9e 01       	movw	r18, r28
    3442:	2f 5f       	subi	r18, 0xFF	; 255
    3444:	3f 4f       	sbci	r19, 0xFF	; 255
    3446:	4f ec       	ldi	r20, 0xCF	; 207
    3448:	52 e0       	ldi	r21, 0x02	; 2
    344a:	61 ed       	ldi	r22, 0xD1	; 209
    344c:	72 e0       	ldi	r23, 0x02	; 2
    344e:	80 e0       	ldi	r24, 0x00	; 0
    3450:	0e 94 55 03 	call	0x6aa	; 0x6aa <can_receive_message>
		if(auth_protocol == SINGLE){
    3454:	80 91 ea 04 	lds	r24, 0x04EA	; 0x8004ea <auth_protocol>
    3458:	88 23       	and	r24, r24
			single_authentication(init[0]);
			return 0;
		}else{
			session_authentication(init[0]);
    345a:	11 f0       	breq	.+4      	; 0x3460 <main+0x48>
    345c:	89 81       	ldd	r24, Y+1	; 0x01
	uart_puts("idle");
	can_msg_t init;
	while(1){
		can_receive_message(0, default_id, zero_mask, init);
		if(auth_protocol == SINGLE){
			single_authentication(init[0]);
    345e:	1b df       	rcall	.-458    	; 0x3296 <session_authentication>
    3460:	89 81       	ldd	r24, Y+1	; 0x01
    3462:	8d de       	rcall	.-742    	; 0x317e <single_authentication>
		}else{
			session_authentication(init[0]);
			return 0;
		}
	}
 }
    3464:	80 e0       	ldi	r24, 0x00	; 0
    3466:	90 e0       	ldi	r25, 0x00	; 0
    3468:	28 96       	adiw	r28, 0x08	; 8
    346a:	0f b6       	in	r0, 0x3f	; 63
    346c:	f8 94       	cli
    346e:	de bf       	out	0x3e, r29	; 62
    3470:	0f be       	out	0x3f, r0	; 63
    3472:	cd bf       	out	0x3d, r28	; 61
    3474:	df 91       	pop	r29
    3476:	cf 91       	pop	r28
    3478:	08 95       	ret

0000347a <add_entry>:
	hex_to_bytes(hex, 4, id);
	add_entry(id, permissions);
	return 0;
}

int add_entry(can_id_t id, permissions_t permissions){
    347a:	1f 93       	push	r17
    347c:	cf 93       	push	r28
    347e:	df 93       	push	r29
    3480:	ec 01       	movw	r28, r24
    3482:	16 2f       	mov	r17, r22
	entry_t *new_entry; 
	new_entry = malloc(sizeof(entry_t));
    3484:	85 e0       	ldi	r24, 0x05	; 5
    3486:	90 e0       	ldi	r25, 0x00	; 0
    3488:	0e 94 70 2b 	call	0x56e0	; 0x56e0 <malloc>
    348c:	dc 01       	movw	r26, r24
	new_entry->permissions = permissions;
    348e:	12 96       	adiw	r26, 0x02	; 2
    3490:	1c 93       	st	X, r17
    3492:	12 97       	sbiw	r26, 0x02	; 2
	new_entry->successor = NULL;
    3494:	14 96       	adiw	r26, 0x04	; 4
    3496:	1c 92       	st	X, r1
    3498:	1e 92       	st	-X, r1
    349a:	13 97       	sbiw	r26, 0x03	; 3
	memcpy(new_entry->id, id, sizeof(can_id_t));
    349c:	88 81       	ld	r24, Y
    349e:	99 81       	ldd	r25, Y+1	; 0x01
    34a0:	11 96       	adiw	r26, 0x01	; 1
    34a2:	9c 93       	st	X, r25
    34a4:	8e 93       	st	-X, r24
	entry_t *curr = permission_table->head;
    34a6:	c0 91 eb 04 	lds	r28, 0x04EB	; 0x8004eb <permission_table>
    34aa:	d0 91 ec 04 	lds	r29, 0x04EC	; 0x8004ec <permission_table+0x1>
    34ae:	e8 81       	ld	r30, Y
    34b0:	f9 81       	ldd	r31, Y+1	; 0x01
	if(curr != NULL){
    34b2:	30 97       	sbiw	r30, 0x00	; 0
    34b4:	11 f4       	brne	.+4      	; 0x34ba <add_entry+0x40>
    34b6:	09 c0       	rjmp	.+18     	; 0x34ca <add_entry+0x50>
		while(curr->successor != NULL){
			curr = curr->successor;
    34b8:	f9 01       	movw	r30, r18
	new_entry->permissions = permissions;
	new_entry->successor = NULL;
	memcpy(new_entry->id, id, sizeof(can_id_t));
	entry_t *curr = permission_table->head;
	if(curr != NULL){
		while(curr->successor != NULL){
    34ba:	23 81       	ldd	r18, Z+3	; 0x03
    34bc:	34 81       	ldd	r19, Z+4	; 0x04
    34be:	21 15       	cp	r18, r1
    34c0:	31 05       	cpc	r19, r1
    34c2:	d1 f7       	brne	.-12     	; 0x34b8 <add_entry+0x3e>
			curr = curr->successor;
		}
		curr->successor = new_entry;
    34c4:	b4 83       	std	Z+4, r27	; 0x04
    34c6:	a3 83       	std	Z+3, r26	; 0x03
    34c8:	02 c0       	rjmp	.+4      	; 0x34ce <add_entry+0x54>
	}else{
		permission_table->head = new_entry;
    34ca:	b9 83       	std	Y+1, r27	; 0x01
    34cc:	a8 83       	st	Y, r26
	}
	return 0;
}
    34ce:	80 e0       	ldi	r24, 0x00	; 0
    34d0:	90 e0       	ldi	r25, 0x00	; 0
    34d2:	df 91       	pop	r29
    34d4:	cf 91       	pop	r28
    34d6:	1f 91       	pop	r17
    34d8:	08 95       	ret

000034da <add_entry_hex>:
	add_entry_hex("e007", permissions);
	add_entry_hex("2607", permissions);
	add_entry_hex("3007", permissions);
}

int add_entry_hex(char *hex, permissions_t permissions){
    34da:	1f 93       	push	r17
    34dc:	cf 93       	push	r28
    34de:	df 93       	push	r29
    34e0:	00 d0       	rcall	.+0      	; 0x34e2 <add_entry_hex+0x8>
    34e2:	cd b7       	in	r28, 0x3d	; 61
    34e4:	de b7       	in	r29, 0x3e	; 62
    34e6:	16 2f       	mov	r17, r22
	can_id_t id;
	hex_to_bytes(hex, 4, id);
    34e8:	ae 01       	movw	r20, r28
    34ea:	4f 5f       	subi	r20, 0xFF	; 255
    34ec:	5f 4f       	sbci	r21, 0xFF	; 255
    34ee:	64 e0       	ldi	r22, 0x04	; 4
    34f0:	22 dd       	rcall	.-1468   	; 0x2f36 <hex_to_bytes>
	add_entry(id, permissions);
    34f2:	61 2f       	mov	r22, r17
    34f4:	ce 01       	movw	r24, r28
    34f6:	01 96       	adiw	r24, 0x01	; 1
    34f8:	c0 df       	rcall	.-128    	; 0x347a <add_entry>
	return 0;
}
    34fa:	80 e0       	ldi	r24, 0x00	; 0
    34fc:	90 e0       	ldi	r25, 0x00	; 0
    34fe:	0f 90       	pop	r0
    3500:	0f 90       	pop	r0
    3502:	df 91       	pop	r29
    3504:	cf 91       	pop	r28
    3506:	1f 91       	pop	r17
    3508:	08 95       	ret

0000350a <init_permissions_table>:
#include <string.h>

permission_table_t *permission_table; 

void init_permissions_table(){
	permission_table = malloc(sizeof(permission_table_t));
    350a:	82 e0       	ldi	r24, 0x02	; 2
    350c:	90 e0       	ldi	r25, 0x00	; 0
    350e:	0e 94 70 2b 	call	0x56e0	; 0x56e0 <malloc>
    3512:	90 93 ec 04 	sts	0x04EC, r25	; 0x8004ec <permission_table+0x1>
    3516:	80 93 eb 04 	sts	0x04EB, r24	; 0x8004eb <permission_table>
	permission_table->head = NULL;
    351a:	fc 01       	movw	r30, r24
    351c:	11 82       	std	Z+1, r1	; 0x01
    351e:	10 82       	st	Z, r1
	permissions_t permissions = 0b00001111;
	add_entry_hex("b107", permissions);
    3520:	6f e0       	ldi	r22, 0x0F	; 15
    3522:	83 ed       	ldi	r24, 0xD3	; 211
    3524:	94 e0       	ldi	r25, 0x04	; 4
    3526:	d9 df       	rcall	.-78     	; 0x34da <add_entry_hex>
	add_entry_hex("e007", permissions);
    3528:	6f e0       	ldi	r22, 0x0F	; 15
    352a:	88 ed       	ldi	r24, 0xD8	; 216
    352c:	94 e0       	ldi	r25, 0x04	; 4
    352e:	d5 df       	rcall	.-86     	; 0x34da <add_entry_hex>
	add_entry_hex("2607", permissions);
    3530:	6f e0       	ldi	r22, 0x0F	; 15
    3532:	8d ed       	ldi	r24, 0xDD	; 221
    3534:	94 e0       	ldi	r25, 0x04	; 4
    3536:	d1 df       	rcall	.-94     	; 0x34da <add_entry_hex>
	add_entry_hex("3007", permissions);
    3538:	6f e0       	ldi	r22, 0x0F	; 15
    353a:	82 ee       	ldi	r24, 0xE2	; 226
    353c:	94 e0       	ldi	r25, 0x04	; 4
    353e:	cd cf       	rjmp	.-102    	; 0x34da <add_entry_hex>
    3540:	08 95       	ret

00003542 <entrycmp>:
	}
	return 0;
}

int entrycmp(entry_t *entry, can_id_t msg_id){
	return memcmp(entry->id, msg_id, 2);
    3542:	42 e0       	ldi	r20, 0x02	; 2
    3544:	50 e0       	ldi	r21, 0x00	; 0
    3546:	0c 94 ef 2c 	jmp	0x59de	; 0x59de <memcmp>
}
    354a:	08 95       	ret

0000354c <find_entry_permissions>:

int find_entry_permissions(can_id_t msg_id, permissions_t *dest){
    354c:	ef 92       	push	r14
    354e:	ff 92       	push	r15
    3550:	0f 93       	push	r16
    3552:	1f 93       	push	r17
    3554:	cf 93       	push	r28
    3556:	df 93       	push	r29
    3558:	8c 01       	movw	r16, r24
    355a:	7b 01       	movw	r14, r22
	entry_t *curr = permission_table->head;
    355c:	e0 91 eb 04 	lds	r30, 0x04EB	; 0x8004eb <permission_table>
    3560:	f0 91 ec 04 	lds	r31, 0x04EC	; 0x8004ec <permission_table+0x1>
    3564:	c0 81       	ld	r28, Z
    3566:	d1 81       	ldd	r29, Z+1	; 0x01
	while(curr != NULL){
    3568:	20 97       	sbiw	r28, 0x00	; 0
    356a:	89 f0       	breq	.+34     	; 0x358e <find_entry_permissions+0x42>
		if(entrycmp(curr, msg_id) == 0){
    356c:	b8 01       	movw	r22, r16
    356e:	ce 01       	movw	r24, r28
    3570:	e8 df       	rcall	.-48     	; 0x3542 <entrycmp>
    3572:	00 97       	sbiw	r24, 0x00	; 0
    3574:	21 f4       	brne	.+8      	; 0x357e <find_entry_permissions+0x32>
			*dest = curr->permissions;
    3576:	2a 81       	ldd	r18, Y+2	; 0x02
    3578:	f7 01       	movw	r30, r14
    357a:	20 83       	st	Z, r18
			return 0;
    357c:	0a c0       	rjmp	.+20     	; 0x3592 <find_entry_permissions+0x46>
		}else{
			curr = curr->successor;
    357e:	0b 80       	ldd	r0, Y+3	; 0x03
    3580:	dc 81       	ldd	r29, Y+4	; 0x04
    3582:	c0 2d       	mov	r28, r0
	return memcmp(entry->id, msg_id, 2);
}

int find_entry_permissions(can_id_t msg_id, permissions_t *dest){
	entry_t *curr = permission_table->head;
	while(curr != NULL){
    3584:	20 97       	sbiw	r28, 0x00	; 0
    3586:	91 f7       	brne	.-28     	; 0x356c <find_entry_permissions+0x20>
			return 0;
		}else{
			curr = curr->successor;
		}
	}
	return 1;
    3588:	81 e0       	ldi	r24, 0x01	; 1
    358a:	90 e0       	ldi	r25, 0x00	; 0
    358c:	02 c0       	rjmp	.+4      	; 0x3592 <find_entry_permissions+0x46>
    358e:	81 e0       	ldi	r24, 0x01	; 1
    3590:	90 e0       	ldi	r25, 0x00	; 0
}
    3592:	df 91       	pop	r29
    3594:	cf 91       	pop	r28
    3596:	1f 91       	pop	r17
    3598:	0f 91       	pop	r16
    359a:	ff 90       	pop	r15
    359c:	ef 90       	pop	r14
    359e:	08 95       	ret

000035a0 <check_permission>:

int check_permission(can_id_t msg_id, permissions_t role){
    35a0:	1f 93       	push	r17
    35a2:	cf 93       	push	r28
    35a4:	df 93       	push	r29
    35a6:	1f 92       	push	r1
    35a8:	cd b7       	in	r28, 0x3d	; 61
    35aa:	de b7       	in	r29, 0x3e	; 62
    35ac:	16 2f       	mov	r17, r22
	volatile permissions_t permissions;
	if(find_entry_permissions(msg_id, &permissions)) return 1;
    35ae:	be 01       	movw	r22, r28
    35b0:	6f 5f       	subi	r22, 0xFF	; 255
    35b2:	7f 4f       	sbci	r23, 0xFF	; 255
    35b4:	cb df       	rcall	.-106    	; 0x354c <find_entry_permissions>
    35b6:	00 97       	sbiw	r24, 0x00	; 0
    35b8:	39 f4       	brne	.+14     	; 0x35c8 <check_permission+0x28>
	if((permissions & role) == role) return 0; 
    35ba:	29 81       	ldd	r18, Y+1	; 0x01
    35bc:	21 23       	and	r18, r17
    35be:	12 17       	cp	r17, r18
    35c0:	29 f0       	breq	.+10     	; 0x35cc <check_permission+0x2c>
	return 2;
    35c2:	82 e0       	ldi	r24, 0x02	; 2
    35c4:	90 e0       	ldi	r25, 0x00	; 0
    35c6:	02 c0       	rjmp	.+4      	; 0x35cc <check_permission+0x2c>
	return 1;
}

int check_permission(can_id_t msg_id, permissions_t role){
	volatile permissions_t permissions;
	if(find_entry_permissions(msg_id, &permissions)) return 1;
    35c8:	81 e0       	ldi	r24, 0x01	; 1
    35ca:	90 e0       	ldi	r25, 0x00	; 0
	if((permissions & role) == role) return 0; 
	return 2;
    35cc:	0f 90       	pop	r0
    35ce:	df 91       	pop	r29
    35d0:	cf 91       	pop	r28
    35d2:	1f 91       	pop	r17
    35d4:	08 95       	ret

000035d6 <hmac_sha256>:

/*
 * keylength in bits!
 * message length in bits!
 */
void hmac_sha256(void *dest, const void *key, uint16_t keylength_b, const void *msg, uint32_t msglength_b){ /* a one-shot*/
    35d6:	2f 92       	push	r2
    35d8:	3f 92       	push	r3
    35da:	4f 92       	push	r4
    35dc:	5f 92       	push	r5
    35de:	6f 92       	push	r6
    35e0:	7f 92       	push	r7
    35e2:	8f 92       	push	r8
    35e4:	9f 92       	push	r9
    35e6:	af 92       	push	r10
    35e8:	bf 92       	push	r11
    35ea:	cf 92       	push	r12
    35ec:	df 92       	push	r13
    35ee:	ef 92       	push	r14
    35f0:	ff 92       	push	r15
    35f2:	0f 93       	push	r16
    35f4:	1f 93       	push	r17
    35f6:	cf 93       	push	r28
    35f8:	df 93       	push	r29
    35fa:	cd b7       	in	r28, 0x3d	; 61
    35fc:	de b7       	in	r29, 0x3e	; 62
    35fe:	c8 56       	subi	r28, 0x68	; 104
    3600:	d1 09       	sbc	r29, r1
    3602:	0f b6       	in	r0, 0x3f	; 63
    3604:	f8 94       	cli
    3606:	de bf       	out	0x3e, r29	; 62
    3608:	0f be       	out	0x3f, r0	; 63
    360a:	cd bf       	out	0x3d, r28	; 61
    360c:	1c 01       	movw	r2, r24
    360e:	49 01       	movw	r8, r18
    3610:	a9 96       	adiw	r28, 0x29	; 41
    3612:	ec ae       	std	Y+60, r14	; 0x3c
    3614:	fd ae       	std	Y+61, r15	; 0x3d
    3616:	0e af       	std	Y+62, r16	; 0x3e
    3618:	1f af       	std	Y+63, r17	; 0x3f
    361a:	a9 97       	sbiw	r28, 0x29	; 41
	sha256_ctx_t s;
	uint8_t i;
	uint8_t buffer[HMAC_SHA256_BLOCK_BYTES];
	
	memset(buffer, 0, HMAC_SHA256_BLOCK_BYTES);
    361c:	fe 01       	movw	r30, r28
    361e:	b5 96       	adiw	r30, 0x25	; 37
    3620:	80 e4       	ldi	r24, 0x40	; 64
    3622:	df 01       	movw	r26, r30
    3624:	1d 92       	st	X+, r1
    3626:	8a 95       	dec	r24
    3628:	e9 f7       	brne	.-6      	; 0x3624 <hmac_sha256+0x4e>
	
	/* if key is larger than a block we have to hash it*/
	if (keylength_b > SHA256_BLOCK_BITS){
    362a:	41 30       	cpi	r20, 0x01	; 1
    362c:	b2 e0       	ldi	r27, 0x02	; 2
    362e:	5b 07       	cpc	r21, r27
    3630:	30 f0       	brcs	.+12     	; 0x363e <hmac_sha256+0x68>
		sha256((void*)buffer, key, keylength_b);
    3632:	9a 01       	movw	r18, r20
    3634:	40 e0       	ldi	r20, 0x00	; 0
    3636:	50 e0       	ldi	r21, 0x00	; 0
    3638:	cf 01       	movw	r24, r30
    363a:	e5 d0       	rcall	.+458    	; 0x3806 <sha256>
    363c:	96 c0       	rjmp	.+300    	; 0x376a <hmac_sha256+0x194>
	} else {
		memcpy(buffer, key, (keylength_b+7)/8);
    363e:	49 5f       	subi	r20, 0xF9	; 249
    3640:	5f 4f       	sbci	r21, 0xFF	; 255
    3642:	56 95       	lsr	r21
    3644:	47 95       	ror	r20
    3646:	56 95       	lsr	r21
    3648:	47 95       	ror	r20
    364a:	56 95       	lsr	r21
    364c:	47 95       	ror	r20
    364e:	ce 01       	movw	r24, r28
    3650:	85 96       	adiw	r24, 0x25	; 37
    3652:	0e 94 fc 2c 	call	0x59f8	; 0x59f8 <memcpy>
    3656:	89 c0       	rjmp	.+274    	; 0x376a <hmac_sha256+0x194>
	}
	
	for (i=0; i<SHA256_BLOCK_BYTES; ++i){
		buffer[i] ^= IPAD;
    3658:	80 81       	ld	r24, Z
    365a:	89 27       	eor	r24, r25
    365c:	81 93       	st	Z+, r24
		sha256((void*)buffer, key, keylength_b);
	} else {
		memcpy(buffer, key, (keylength_b+7)/8);
	}
	
	for (i=0; i<SHA256_BLOCK_BYTES; ++i){
    365e:	ec 15       	cp	r30, r12
    3660:	fd 05       	cpc	r31, r13
    3662:	d1 f7       	brne	.-12     	; 0x3658 <hmac_sha256+0x82>
		buffer[i] ^= IPAD;
	}
	sha256_init(&s);
    3664:	ce 01       	movw	r24, r28
    3666:	01 96       	adiw	r24, 0x01	; 1
    3668:	a4 d0       	rcall	.+328    	; 0x37b2 <sha256_init>
	sha256_nextBlock(&s, buffer);
    366a:	be 01       	movw	r22, r28
    366c:	6b 5d       	subi	r22, 0xDB	; 219
    366e:	7f 4f       	sbci	r23, 0xFF	; 255
    3670:	ce 01       	movw	r24, r28
    3672:	01 96       	adiw	r24, 0x01	; 1
    3674:	aa d0       	rcall	.+340    	; 0x37ca <sha256_nextBlock>
	while (msglength_b >= HMAC_SHA256_BLOCK_BITS){
    3676:	a9 96       	adiw	r28, 0x29	; 41
    3678:	8c ad       	ldd	r24, Y+60	; 0x3c
    367a:	9d ad       	ldd	r25, Y+61	; 0x3d
    367c:	ae ad       	ldd	r26, Y+62	; 0x3e
    367e:	bf ad       	ldd	r27, Y+63	; 0x3f
    3680:	a9 97       	sbiw	r28, 0x29	; 41
    3682:	81 15       	cp	r24, r1
    3684:	e2 e0       	ldi	r30, 0x02	; 2
    3686:	9e 07       	cpc	r25, r30
    3688:	a1 05       	cpc	r26, r1
    368a:	b1 05       	cpc	r27, r1
    368c:	08 f4       	brcc	.+2      	; 0x3690 <hmac_sha256+0xba>
    368e:	41 c0       	rjmp	.+130    	; 0x3712 <hmac_sha256+0x13c>
    3690:	2c 01       	movw	r4, r24
    3692:	3d 01       	movw	r6, r26
    3694:	54 01       	movw	r10, r8
		sha256_nextBlock(&s, msg);
    3696:	b5 01       	movw	r22, r10
    3698:	ce 01       	movw	r24, r28
    369a:	01 96       	adiw	r24, 0x01	; 1
    369c:	96 d0       	rcall	.+300    	; 0x37ca <sha256_nextBlock>
		msg = (uint8_t*)msg + HMAC_SHA256_BLOCK_BYTES;
    369e:	f0 e4       	ldi	r31, 0x40	; 64
    36a0:	af 0e       	add	r10, r31
    36a2:	b1 1c       	adc	r11, r1
		msglength_b -=  HMAC_SHA256_BLOCK_BITS;
    36a4:	22 e0       	ldi	r18, 0x02	; 2
    36a6:	52 1a       	sub	r5, r18
    36a8:	61 08       	sbc	r6, r1
    36aa:	71 08       	sbc	r7, r1
	for (i=0; i<SHA256_BLOCK_BYTES; ++i){
		buffer[i] ^= IPAD;
	}
	sha256_init(&s);
	sha256_nextBlock(&s, buffer);
	while (msglength_b >= HMAC_SHA256_BLOCK_BITS){
    36ac:	41 14       	cp	r4, r1
    36ae:	82 e0       	ldi	r24, 0x02	; 2
    36b0:	58 06       	cpc	r5, r24
    36b2:	61 04       	cpc	r6, r1
    36b4:	71 04       	cpc	r7, r1
    36b6:	78 f7       	brcc	.-34     	; 0x3696 <hmac_sha256+0xc0>
    36b8:	a9 96       	adiw	r28, 0x29	; 41
    36ba:	8c ad       	ldd	r24, Y+60	; 0x3c
    36bc:	9d ad       	ldd	r25, Y+61	; 0x3d
    36be:	ae ad       	ldd	r26, Y+62	; 0x3e
    36c0:	bf ad       	ldd	r27, Y+63	; 0x3f
    36c2:	a9 97       	sbiw	r28, 0x29	; 41
    36c4:	92 50       	subi	r25, 0x02	; 2
    36c6:	a1 09       	sbc	r26, r1
    36c8:	b1 09       	sbc	r27, r1
    36ca:	07 2e       	mov	r0, r23
    36cc:	79 e0       	ldi	r23, 0x09	; 9
    36ce:	b6 95       	lsr	r27
    36d0:	a7 95       	ror	r26
    36d2:	97 95       	ror	r25
    36d4:	87 95       	ror	r24
    36d6:	7a 95       	dec	r23
    36d8:	d1 f7       	brne	.-12     	; 0x36ce <hmac_sha256+0xf8>
    36da:	70 2d       	mov	r23, r0
    36dc:	01 96       	adiw	r24, 0x01	; 1
    36de:	00 24       	eor	r0, r0
    36e0:	96 95       	lsr	r25
    36e2:	87 95       	ror	r24
    36e4:	07 94       	ror	r0
    36e6:	96 95       	lsr	r25
    36e8:	87 95       	ror	r24
    36ea:	07 94       	ror	r0
    36ec:	98 2f       	mov	r25, r24
    36ee:	80 2d       	mov	r24, r0
    36f0:	88 0e       	add	r8, r24
    36f2:	99 1e       	adc	r9, r25
    36f4:	a9 96       	adiw	r28, 0x29	; 41
    36f6:	8c ad       	ldd	r24, Y+60	; 0x3c
    36f8:	9d ad       	ldd	r25, Y+61	; 0x3d
    36fa:	ae ad       	ldd	r26, Y+62	; 0x3e
    36fc:	bf ad       	ldd	r27, Y+63	; 0x3f
    36fe:	a9 97       	sbiw	r28, 0x29	; 41
    3700:	91 70       	andi	r25, 0x01	; 1
    3702:	aa 27       	eor	r26, r26
    3704:	bb 27       	eor	r27, r27
    3706:	a9 96       	adiw	r28, 0x29	; 41
    3708:	8c af       	std	Y+60, r24	; 0x3c
    370a:	9d af       	std	Y+61, r25	; 0x3d
    370c:	ae af       	std	Y+62, r26	; 0x3e
    370e:	bf af       	std	Y+63, r27	; 0x3f
    3710:	a9 97       	sbiw	r28, 0x29	; 41
		sha256_nextBlock(&s, msg);
		msg = (uint8_t*)msg + HMAC_SHA256_BLOCK_BYTES;
		msglength_b -=  HMAC_SHA256_BLOCK_BITS;
	}
	sha256_lastBlock(&s, msg, msglength_b);
    3712:	a7 96       	adiw	r28, 0x27	; 39
    3714:	4e ad       	ldd	r20, Y+62	; 0x3e
    3716:	5f ad       	ldd	r21, Y+63	; 0x3f
    3718:	a7 97       	sbiw	r28, 0x27	; 39
    371a:	b4 01       	movw	r22, r8
    371c:	ce 01       	movw	r24, r28
    371e:	01 96       	adiw	r24, 0x01	; 1
    3720:	57 d0       	rcall	.+174    	; 0x37d0 <sha256_lastBlock>
	/* since buffer still contains key xor ipad we can do ... */
	for (i=0; i<HMAC_SHA256_BLOCK_BYTES; ++i){
		buffer[i] ^= IPAD ^ OPAD;
    3722:	9a e6       	ldi	r25, 0x6A	; 106
    3724:	d8 01       	movw	r26, r16
    3726:	8c 91       	ld	r24, X
    3728:	89 27       	eor	r24, r25
    372a:	f8 01       	movw	r30, r16
    372c:	81 93       	st	Z+, r24
    372e:	8f 01       	movw	r16, r30
		msg = (uint8_t*)msg + HMAC_SHA256_BLOCK_BYTES;
		msglength_b -=  HMAC_SHA256_BLOCK_BITS;
	}
	sha256_lastBlock(&s, msg, msglength_b);
	/* since buffer still contains key xor ipad we can do ... */
	for (i=0; i<HMAC_SHA256_BLOCK_BYTES; ++i){
    3730:	ec 15       	cp	r30, r12
    3732:	fd 05       	cpc	r31, r13
		buffer[i] ^= IPAD ^ OPAD;
	}
	sha256_ctx2hash(dest, &s); /* save inner hash temporary to dest */
    3734:	b9 f7       	brne	.-18     	; 0x3724 <hmac_sha256+0x14e>
    3736:	be 01       	movw	r22, r28
    3738:	6f 5f       	subi	r22, 0xFF	; 255
    373a:	7f 4f       	sbci	r23, 0xFF	; 255
    373c:	c1 01       	movw	r24, r2
	sha256_init(&s);
    373e:	4b d0       	rcall	.+150    	; 0x37d6 <sha256_ctx2hash>
    3740:	ce 01       	movw	r24, r28
    3742:	01 96       	adiw	r24, 0x01	; 1
	sha256_nextBlock(&s, buffer);
    3744:	36 d0       	rcall	.+108    	; 0x37b2 <sha256_init>
    3746:	be 01       	movw	r22, r28
    3748:	6b 5d       	subi	r22, 0xDB	; 219
    374a:	7f 4f       	sbci	r23, 0xFF	; 255
    374c:	ce 01       	movw	r24, r28
    374e:	01 96       	adiw	r24, 0x01	; 1
	sha256_lastBlock(&s, dest, SHA256_HASH_BITS);
    3750:	3c d0       	rcall	.+120    	; 0x37ca <sha256_nextBlock>
    3752:	40 e0       	ldi	r20, 0x00	; 0
    3754:	51 e0       	ldi	r21, 0x01	; 1
    3756:	b1 01       	movw	r22, r2
    3758:	ce 01       	movw	r24, r28
    375a:	01 96       	adiw	r24, 0x01	; 1
	sha256_ctx2hash(dest, &s);
    375c:	39 d0       	rcall	.+114    	; 0x37d0 <sha256_lastBlock>
    375e:	be 01       	movw	r22, r28
    3760:	6f 5f       	subi	r22, 0xFF	; 255
    3762:	7f 4f       	sbci	r23, 0xFF	; 255
    3764:	c1 01       	movw	r24, r2
    3766:	37 d0       	rcall	.+110    	; 0x37d6 <sha256_ctx2hash>
}
    3768:	0a c0       	rjmp	.+20     	; 0x377e <hmac_sha256+0x1a8>
    376a:	8e 01       	movw	r16, r28
    376c:	0b 5d       	subi	r16, 0xDB	; 219
    376e:	1f 4f       	sbci	r17, 0xFF	; 255
    3770:	6e 01       	movw	r12, r28
    3772:	f5 e6       	ldi	r31, 0x65	; 101
    3774:	cf 0e       	add	r12, r31
    3776:	d1 1c       	adc	r13, r1

/*
 * keylength in bits!
 * message length in bits!
 */
void hmac_sha256(void *dest, const void *key, uint16_t keylength_b, const void *msg, uint32_t msglength_b){ /* a one-shot*/
    3778:	f8 01       	movw	r30, r16
	} else {
		memcpy(buffer, key, (keylength_b+7)/8);
	}
	
	for (i=0; i<SHA256_BLOCK_BYTES; ++i){
		buffer[i] ^= IPAD;
    377a:	96 e3       	ldi	r25, 0x36	; 54
    377c:	6d cf       	rjmp	.-294    	; 0x3658 <hmac_sha256+0x82>
	sha256_ctx2hash(dest, &s); /* save inner hash temporary to dest */
	sha256_init(&s);
	sha256_nextBlock(&s, buffer);
	sha256_lastBlock(&s, dest, SHA256_HASH_BITS);
	sha256_ctx2hash(dest, &s);
}
    377e:	c8 59       	subi	r28, 0x98	; 152
    3780:	df 4f       	sbci	r29, 0xFF	; 255
    3782:	0f b6       	in	r0, 0x3f	; 63
    3784:	f8 94       	cli
    3786:	de bf       	out	0x3e, r29	; 62
    3788:	0f be       	out	0x3f, r0	; 63
    378a:	cd bf       	out	0x3d, r28	; 61
    378c:	df 91       	pop	r29
    378e:	cf 91       	pop	r28
    3790:	1f 91       	pop	r17
    3792:	0f 91       	pop	r16
    3794:	ff 90       	pop	r15
    3796:	ef 90       	pop	r14
    3798:	df 90       	pop	r13
    379a:	cf 90       	pop	r12
    379c:	bf 90       	pop	r11
    379e:	af 90       	pop	r10
    37a0:	9f 90       	pop	r9
    37a2:	8f 90       	pop	r8
    37a4:	7f 90       	pop	r7
    37a6:	6f 90       	pop	r6
    37a8:	5f 90       	pop	r5
    37aa:	4f 90       	pop	r4
    37ac:	3f 90       	pop	r3
    37ae:	2f 90       	pop	r2
    37b0:	08 95       	ret

000037b2 <sha256_init>:
 * \c sh256_init c initialises the given sha256 context for hashing
 * @param state pointer to a sha256 context
 * @return none
 */
void sha256_init(sha256_ctx_t *state){
	state->length=0;
    37b2:	fc 01       	movw	r30, r24
    37b4:	10 a2       	std	Z+32, r1	; 0x20
    37b6:	11 a2       	std	Z+33, r1	; 0x21
    37b8:	12 a2       	std	Z+34, r1	; 0x22
    37ba:	13 a2       	std	Z+35, r1	; 0x23
	memcpy_P(state->h, sha256_init_vector, 8*4);
    37bc:	40 e2       	ldi	r20, 0x20	; 32
    37be:	50 e0       	ldi	r21, 0x00	; 0
    37c0:	64 e9       	ldi	r22, 0x94	; 148
    37c2:	70 e0       	ldi	r23, 0x00	; 0
    37c4:	0c 94 e6 2c 	jmp	0x59cc	; 0x59cc <memcpy_P>
    37c8:	08 95       	ret

000037ca <sha256_nextBlock>:
}

/*************************************************************************/
void sha256_nextBlock (sha256_ctx_t *state, const void *block){
	sha2_small_common_nextBlock(state, block);
    37ca:	0c 94 44 26 	jmp	0x4c88	; 0x4c88 <sha2_small_common_nextBlock>
    37ce:	08 95       	ret

000037d0 <sha256_lastBlock>:
}

/*************************************************************************/
void sha256_lastBlock (sha256_ctx_t *state, const void *block, uint16_t length_b){
	sha2_small_common_lastBlock(state, block, length_b);
    37d0:	0c 94 54 29 	jmp	0x52a8	; 0x52a8 <sha2_small_common_lastBlock>
    37d4:	08 95       	ret

000037d6 <sha256_ctx2hash>:



/*************************************************************************/

void sha256_ctx2hash(void *dest, const sha256_ctx_t *state){
    37d6:	cf 93       	push	r28
    37d8:	df 93       	push	r29
    37da:	ac 01       	movw	r20, r24
    37dc:	ec 01       	movw	r28, r24
    37de:	a0 96       	adiw	r28, 0x20	; 32
    37e0:	fa 01       	movw	r30, r20
#if defined LITTLE_ENDIAN
	uint8_t i, j, *s=(uint8_t*)(state->h);
	i=8;
	do{
		j=3;
    37e2:	93 e0       	ldi	r25, 0x03	; 3
		do{
			*((uint8_t*)dest) = s[j];
    37e4:	db 01       	movw	r26, r22
    37e6:	a9 0f       	add	r26, r25
    37e8:	b1 1d       	adc	r27, r1
    37ea:	2c 91       	ld	r18, X
    37ec:	21 93       	st	Z+, r18
			dest = (uint8_t*)dest + 1;
		}while(j--);
    37ee:	91 50       	subi	r25, 0x01	; 1
    37f0:	c8 f7       	brcc	.-14     	; 0x37e4 <sha256_ctx2hash+0xe>
    37f2:	4c 5f       	subi	r20, 0xFC	; 252
    37f4:	5f 4f       	sbci	r21, 0xFF	; 255
		s += 4;
    37f6:	6c 5f       	subi	r22, 0xFC	; 252
    37f8:	7f 4f       	sbci	r23, 0xFF	; 255
	}while(--i);
    37fa:	4c 17       	cp	r20, r28
    37fc:	5d 07       	cpc	r21, r29
    37fe:	81 f7       	brne	.-32     	; 0x37e0 <sha256_ctx2hash+0xa>
#elif BIG_ENDIAN
	memcpy(dest, state->h, 32);
#else
# error unsupported endian type!
#endif
}
    3800:	df 91       	pop	r29
    3802:	cf 91       	pop	r28
    3804:	08 95       	ret

00003806 <sha256>:
/*************************************************************************/

/*
 * length in bits!
 */
void sha256(void *dest, const void *msg, uint32_t length_b){ /* length could be choosen longer but this is for C */
    3806:	4f 92       	push	r4
    3808:	5f 92       	push	r5
    380a:	6f 92       	push	r6
    380c:	7f 92       	push	r7
    380e:	8f 92       	push	r8
    3810:	9f 92       	push	r9
    3812:	af 92       	push	r10
    3814:	bf 92       	push	r11
    3816:	cf 92       	push	r12
    3818:	df 92       	push	r13
    381a:	ef 92       	push	r14
    381c:	ff 92       	push	r15
    381e:	0f 93       	push	r16
    3820:	1f 93       	push	r17
    3822:	cf 93       	push	r28
    3824:	df 93       	push	r29
    3826:	cd b7       	in	r28, 0x3d	; 61
    3828:	de b7       	in	r29, 0x3e	; 62
    382a:	a4 97       	sbiw	r28, 0x24	; 36
    382c:	0f b6       	in	r0, 0x3f	; 63
    382e:	f8 94       	cli
    3830:	de bf       	out	0x3e, r29	; 62
    3832:	0f be       	out	0x3f, r0	; 63
    3834:	cd bf       	out	0x3d, r28	; 61
    3836:	4c 01       	movw	r8, r24
    3838:	5b 01       	movw	r10, r22
    383a:	69 01       	movw	r12, r18
    383c:	7a 01       	movw	r14, r20
	sha256_ctx_t s;
	sha256_init(&s);
    383e:	ce 01       	movw	r24, r28
    3840:	01 96       	adiw	r24, 0x01	; 1
    3842:	b7 df       	rcall	.-146    	; 0x37b2 <sha256_init>
	while(length_b >= SHA256_BLOCK_BITS){
    3844:	c1 14       	cp	r12, r1
    3846:	82 e0       	ldi	r24, 0x02	; 2
    3848:	d8 06       	cpc	r13, r24
    384a:	e1 04       	cpc	r14, r1
    384c:	f1 04       	cpc	r15, r1
    384e:	90 f1       	brcs	.+100    	; 0x38b4 <sha256+0xae>
    3850:	26 01       	movw	r4, r12
    3852:	37 01       	movw	r6, r14
    3854:	85 01       	movw	r16, r10
	memcpy_P(state->h, sha256_init_vector, 8*4);
}

/*************************************************************************/
void sha256_nextBlock (sha256_ctx_t *state, const void *block){
	sha2_small_common_nextBlock(state, block);
    3856:	b8 01       	movw	r22, r16
    3858:	ce 01       	movw	r24, r28
    385a:	01 96       	adiw	r24, 0x01	; 1
    385c:	0e 94 44 26 	call	0x4c88	; 0x4c88 <sha2_small_common_nextBlock>
void sha256(void *dest, const void *msg, uint32_t length_b){ /* length could be choosen longer but this is for C */
	sha256_ctx_t s;
	sha256_init(&s);
	while(length_b >= SHA256_BLOCK_BITS){
		sha256_nextBlock(&s, msg);
		msg = (uint8_t*)msg + SHA256_BLOCK_BITS/8;
    3860:	00 5c       	subi	r16, 0xC0	; 192
    3862:	1f 4f       	sbci	r17, 0xFF	; 255
		length_b -= SHA256_BLOCK_BITS;
    3864:	82 e0       	ldi	r24, 0x02	; 2
    3866:	58 1a       	sub	r5, r24
    3868:	61 08       	sbc	r6, r1
    386a:	71 08       	sbc	r7, r1
 * length in bits!
 */
void sha256(void *dest, const void *msg, uint32_t length_b){ /* length could be choosen longer but this is for C */
	sha256_ctx_t s;
	sha256_init(&s);
	while(length_b >= SHA256_BLOCK_BITS){
    386c:	41 14       	cp	r4, r1
    386e:	82 e0       	ldi	r24, 0x02	; 2
    3870:	58 06       	cpc	r5, r24
    3872:	61 04       	cpc	r6, r1
    3874:	71 04       	cpc	r7, r1
    3876:	78 f7       	brcc	.-34     	; 0x3856 <sha256+0x50>
    3878:	d7 01       	movw	r26, r14
    387a:	c6 01       	movw	r24, r12
    387c:	92 50       	subi	r25, 0x02	; 2
    387e:	a1 09       	sbc	r26, r1
    3880:	b1 09       	sbc	r27, r1
    3882:	07 2e       	mov	r0, r23
    3884:	79 e0       	ldi	r23, 0x09	; 9
    3886:	b6 95       	lsr	r27
    3888:	a7 95       	ror	r26
    388a:	97 95       	ror	r25
    388c:	87 95       	ror	r24
    388e:	7a 95       	dec	r23
    3890:	d1 f7       	brne	.-12     	; 0x3886 <sha256+0x80>
    3892:	70 2d       	mov	r23, r0
    3894:	01 96       	adiw	r24, 0x01	; 1
    3896:	00 24       	eor	r0, r0
    3898:	96 95       	lsr	r25
    389a:	87 95       	ror	r24
    389c:	07 94       	ror	r0
    389e:	96 95       	lsr	r25
    38a0:	87 95       	ror	r24
    38a2:	07 94       	ror	r0
    38a4:	98 2f       	mov	r25, r24
    38a6:	80 2d       	mov	r24, r0
    38a8:	a8 0e       	add	r10, r24
    38aa:	b9 1e       	adc	r11, r25
    38ac:	81 e0       	ldi	r24, 0x01	; 1
    38ae:	d8 22       	and	r13, r24
    38b0:	ee 24       	eor	r14, r14
    38b2:	ff 24       	eor	r15, r15
	sha2_small_common_nextBlock(state, block);
}

/*************************************************************************/
void sha256_lastBlock (sha256_ctx_t *state, const void *block, uint16_t length_b){
	sha2_small_common_lastBlock(state, block, length_b);
    38b4:	a6 01       	movw	r20, r12
    38b6:	b5 01       	movw	r22, r10
    38b8:	ce 01       	movw	r24, r28
    38ba:	01 96       	adiw	r24, 0x01	; 1
    38bc:	0e 94 54 29 	call	0x52a8	; 0x52a8 <sha2_small_common_lastBlock>
		sha256_nextBlock(&s, msg);
		msg = (uint8_t*)msg + SHA256_BLOCK_BITS/8;
		length_b -= SHA256_BLOCK_BITS;
	}
	sha256_lastBlock(&s, msg, length_b);
	sha256_ctx2hash(dest,&s);
    38c0:	be 01       	movw	r22, r28
    38c2:	6f 5f       	subi	r22, 0xFF	; 255
    38c4:	7f 4f       	sbci	r23, 0xFF	; 255
    38c6:	c4 01       	movw	r24, r8
    38c8:	86 df       	rcall	.-244    	; 0x37d6 <sha256_ctx2hash>
}
    38ca:	a4 96       	adiw	r28, 0x24	; 36
    38cc:	0f b6       	in	r0, 0x3f	; 63
    38ce:	f8 94       	cli
    38d0:	de bf       	out	0x3e, r29	; 62
    38d2:	0f be       	out	0x3f, r0	; 63
    38d4:	cd bf       	out	0x3d, r28	; 61
    38d6:	df 91       	pop	r29
    38d8:	cf 91       	pop	r28
    38da:	1f 91       	pop	r17
    38dc:	0f 91       	pop	r16
    38de:	ff 90       	pop	r15
    38e0:	ef 90       	pop	r14
    38e2:	df 90       	pop	r13
    38e4:	cf 90       	pop	r12
    38e6:	bf 90       	pop	r11
    38e8:	af 90       	pop	r10
    38ea:	9f 90       	pop	r9
    38ec:	8f 90       	pop	r8
    38ee:	7f 90       	pop	r7
    38f0:	6f 90       	pop	r6
    38f2:	5f 90       	pop	r5
    38f4:	4f 90       	pop	r4
    38f6:	08 95       	ret

000038f8 <sha2_large_common_nextBlock>:
#define SIGMA_0(x) (rotr64((x), 28) ^ rotl64((x), 30) ^ rotl64((x), 25))
#define SIGMA_1(x) (rotr64((x), 14) ^ rotr64((x), 18) ^ rotl64((x), 23))
#define SIGMA_a(x) (rotr64((x),  1) ^ rotr64((x),  8) ^ ((x)>>7))
#define SIGMA_b(x) (rotr64((x), 19) ^ rotl64((x),  3) ^ ((x)>>6))

void sha2_large_common_nextBlock(sha2_large_common_ctx_t *ctx, const void *block){
    38f8:	2f 92       	push	r2
    38fa:	3f 92       	push	r3
    38fc:	4f 92       	push	r4
    38fe:	5f 92       	push	r5
    3900:	6f 92       	push	r6
    3902:	7f 92       	push	r7
    3904:	8f 92       	push	r8
    3906:	9f 92       	push	r9
    3908:	af 92       	push	r10
    390a:	bf 92       	push	r11
    390c:	cf 92       	push	r12
    390e:	df 92       	push	r13
    3910:	ef 92       	push	r14
    3912:	ff 92       	push	r15
    3914:	0f 93       	push	r16
    3916:	1f 93       	push	r17
    3918:	cf 93       	push	r28
    391a:	df 93       	push	r29
    391c:	cd b7       	in	r28, 0x3d	; 61
    391e:	de b7       	in	r29, 0x3e	; 62
    3920:	ca 5e       	subi	r28, 0xEA	; 234
    3922:	d1 09       	sbc	r29, r1
    3924:	0f b6       	in	r0, 0x3f	; 63
    3926:	f8 94       	cli
    3928:	de bf       	out	0x3e, r29	; 62
    392a:	0f be       	out	0x3f, r0	; 63
    392c:	cd bf       	out	0x3d, r28	; 61
    392e:	c7 51       	subi	r28, 0x17	; 23
    3930:	df 4f       	sbci	r29, 0xFF	; 255
    3932:	99 83       	std	Y+1, r25	; 0x01
    3934:	88 83       	st	Y, r24
    3936:	c9 5e       	subi	r28, 0xE9	; 233
    3938:	d0 40       	sbci	r29, 0x00	; 0
    393a:	ce 01       	movw	r24, r28
    393c:	01 96       	adiw	r24, 0x01	; 1
    393e:	c5 52       	subi	r28, 0x25	; 37
    3940:	df 4f       	sbci	r29, 0xFF	; 255
    3942:	99 83       	std	Y+1, r25	; 0x01
    3944:	88 83       	st	Y, r24
    3946:	cb 5d       	subi	r28, 0xDB	; 219
    3948:	d0 40       	sbci	r29, 0x00	; 0
    394a:	fe 01       	movw	r30, r28
    394c:	ef 57       	subi	r30, 0x7F	; 127
    394e:	ff 4f       	sbci	r31, 0xFF	; 255
    3950:	c7 53       	subi	r28, 0x37	; 55
    3952:	df 4f       	sbci	r29, 0xFF	; 255
    3954:	f9 83       	std	Y+1, r31	; 0x01
    3956:	e8 83       	st	Y, r30
    3958:	c9 5c       	subi	r28, 0xC9	; 201
    395a:	d0 40       	sbci	r29, 0x00	; 0
    395c:	2c 01       	movw	r4, r24
};


static const
uint64_t change_endian64(uint64_t x){
	uint64_t r=0;
    395e:	c9 51       	subi	r28, 0x19	; 25
    3960:	df 4f       	sbci	r29, 0xFF	; 255
    3962:	79 83       	std	Y+1, r23	; 0x01
    3964:	68 83       	st	Y, r22
    3966:	c7 5e       	subi	r28, 0xE7	; 231
    3968:	d0 40       	sbci	r29, 0x00	; 0
	uint64_t t1, t2;
	const uint64_t *k=sha2_large_common_const;
	uint8_t i;
	i=16;
	do{
		w[16-i] = change_endian64(*((const uint64_t*)block));
    396a:	c9 51       	subi	r28, 0x19	; 25
    396c:	df 4f       	sbci	r29, 0xFF	; 255
    396e:	a8 81       	ld	r26, Y
    3970:	b9 81       	ldd	r27, Y+1	; 0x01
    3972:	c7 5e       	subi	r28, 0xE7	; 231
    3974:	d0 40       	sbci	r29, 0x00	; 0
    3976:	bc 91       	ld	r27, X
    3978:	c5 53       	subi	r28, 0x35	; 53
    397a:	df 4f       	sbci	r29, 0xFF	; 255
    397c:	b8 83       	st	Y, r27
    397e:	cb 5c       	subi	r28, 0xCB	; 203
    3980:	d0 40       	sbci	r29, 0x00	; 0
    3982:	c9 51       	subi	r28, 0x19	; 25
    3984:	df 4f       	sbci	r29, 0xFF	; 255
    3986:	e8 81       	ld	r30, Y
    3988:	f9 81       	ldd	r31, Y+1	; 0x01
    398a:	c7 5e       	subi	r28, 0xE7	; 231
    398c:	d0 40       	sbci	r29, 0x00	; 0
    398e:	71 80       	ldd	r7, Z+1	; 0x01
    3990:	82 80       	ldd	r8, Z+2	; 0x02
    3992:	93 80       	ldd	r9, Z+3	; 0x03
    3994:	a4 80       	ldd	r10, Z+4	; 0x04
    3996:	b5 80       	ldd	r11, Z+5	; 0x05
    3998:	a6 81       	ldd	r26, Z+6	; 0x06
    399a:	b7 81       	ldd	r27, Z+7	; 0x07
    399c:	38 96       	adiw	r30, 0x08	; 8
    399e:	c9 51       	subi	r28, 0x19	; 25
    39a0:	df 4f       	sbci	r29, 0xFF	; 255
    39a2:	f9 83       	std	Y+1, r31	; 0x01
    39a4:	e8 83       	st	Y, r30
    39a6:	c7 5e       	subi	r28, 0xE7	; 231
    39a8:	d0 40       	sbci	r29, 0x00	; 0
    39aa:	68 94       	set
    39ac:	66 24       	eor	r6, r6
    39ae:	63 f8       	bld	r6, 3
};


static const
uint64_t change_endian64(uint64_t x){
	uint64_t r=0;
    39b0:	c1 2c       	mov	r12, r1
    39b2:	d1 2c       	mov	r13, r1
    39b4:	e1 2c       	mov	r14, r1
    39b6:	f1 2c       	mov	r15, r1
    39b8:	10 e0       	ldi	r17, 0x00	; 0
    39ba:	f0 e0       	ldi	r31, 0x00	; 0
    39bc:	21 2c       	mov	r2, r1
    39be:	31 2c       	mov	r3, r1
	uint8_t i=8;
	do{
		r <<= 8;
    39c0:	2c 2d       	mov	r18, r12
    39c2:	3d 2d       	mov	r19, r13
    39c4:	4e 2d       	mov	r20, r14
    39c6:	5f 2d       	mov	r21, r15
    39c8:	61 2f       	mov	r22, r17
    39ca:	7f 2f       	mov	r23, r31
    39cc:	82 2d       	mov	r24, r2
    39ce:	93 2d       	mov	r25, r3
    39d0:	08 e0       	ldi	r16, 0x08	; 8
    39d2:	0e 94 15 2b 	call	0x562a	; 0x562a <__ashldi3>
		r |= 0xff&x;
    39d6:	c5 53       	subi	r28, 0x35	; 53
    39d8:	df 4f       	sbci	r29, 0xFF	; 255
    39da:	c8 80       	ld	r12, Y
    39dc:	cb 5c       	subi	r28, 0xCB	; 203
    39de:	d0 40       	sbci	r29, 0x00	; 0
    39e0:	c2 2a       	or	r12, r18
    39e2:	d3 2e       	mov	r13, r19
    39e4:	e4 2e       	mov	r14, r20
    39e6:	f5 2e       	mov	r15, r21
    39e8:	16 2f       	mov	r17, r22
    39ea:	f7 2f       	mov	r31, r23
    39ec:	28 2e       	mov	r2, r24
    39ee:	39 2e       	mov	r3, r25
		x >>=8;
    39f0:	c5 53       	subi	r28, 0x35	; 53
    39f2:	df 4f       	sbci	r29, 0xFF	; 255
    39f4:	28 81       	ld	r18, Y
    39f6:	cb 5c       	subi	r28, 0xCB	; 203
    39f8:	d0 40       	sbci	r29, 0x00	; 0
    39fa:	37 2d       	mov	r19, r7
    39fc:	48 2d       	mov	r20, r8
    39fe:	59 2d       	mov	r21, r9
    3a00:	6a 2d       	mov	r22, r10
    3a02:	7b 2d       	mov	r23, r11
    3a04:	8a 2f       	mov	r24, r26
    3a06:	9b 2f       	mov	r25, r27
    3a08:	0e 94 30 2b 	call	0x5660	; 0x5660 <__lshrdi3>
    3a0c:	c5 53       	subi	r28, 0x35	; 53
    3a0e:	df 4f       	sbci	r29, 0xFF	; 255
    3a10:	28 83       	st	Y, r18
    3a12:	cb 5c       	subi	r28, 0xCB	; 203
    3a14:	d0 40       	sbci	r29, 0x00	; 0
    3a16:	73 2e       	mov	r7, r19
    3a18:	84 2e       	mov	r8, r20
    3a1a:	95 2e       	mov	r9, r21
    3a1c:	a6 2e       	mov	r10, r22
    3a1e:	b7 2e       	mov	r11, r23
    3a20:	a8 2f       	mov	r26, r24
    3a22:	b9 2f       	mov	r27, r25
    3a24:	6a 94       	dec	r6
	}while(--i);
    3a26:	61 10       	cpse	r6, r1
    3a28:	cb cf       	rjmp	.-106    	; 0x39c0 <sha2_large_common_nextBlock+0xc8>
	uint64_t t1, t2;
	const uint64_t *k=sha2_large_common_const;
	uint8_t i;
	i=16;
	do{
		w[16-i] = change_endian64(*((const uint64_t*)block));
    3a2a:	d2 01       	movw	r26, r4
    3a2c:	cc 92       	st	X, r12
    3a2e:	11 96       	adiw	r26, 0x01	; 1
    3a30:	dc 92       	st	X, r13
    3a32:	11 97       	sbiw	r26, 0x01	; 1
    3a34:	12 96       	adiw	r26, 0x02	; 2
    3a36:	ec 92       	st	X, r14
    3a38:	12 97       	sbiw	r26, 0x02	; 2
    3a3a:	13 96       	adiw	r26, 0x03	; 3
    3a3c:	fc 92       	st	X, r15
    3a3e:	13 97       	sbiw	r26, 0x03	; 3
    3a40:	14 96       	adiw	r26, 0x04	; 4
    3a42:	1c 93       	st	X, r17
    3a44:	14 97       	sbiw	r26, 0x04	; 4
    3a46:	15 96       	adiw	r26, 0x05	; 5
    3a48:	fc 93       	st	X, r31
    3a4a:	15 97       	sbiw	r26, 0x05	; 5
    3a4c:	16 96       	adiw	r26, 0x06	; 6
    3a4e:	2c 92       	st	X, r2
    3a50:	16 97       	sbiw	r26, 0x06	; 6
    3a52:	17 96       	adiw	r26, 0x07	; 7
    3a54:	3c 92       	st	X, r3
    3a56:	b8 e0       	ldi	r27, 0x08	; 8
    3a58:	4b 0e       	add	r4, r27
    3a5a:	51 1c       	adc	r5, r1
		block = (uint8_t*)block + 8;
	}while(--i);
    3a5c:	c7 53       	subi	r28, 0x37	; 55
    3a5e:	df 4f       	sbci	r29, 0xFF	; 255
    3a60:	e8 81       	ld	r30, Y
    3a62:	f9 81       	ldd	r31, Y+1	; 0x01
    3a64:	c9 5c       	subi	r28, 0xC9	; 201
    3a66:	d0 40       	sbci	r29, 0x00	; 0
    3a68:	e4 15       	cp	r30, r4
    3a6a:	f5 05       	cpc	r31, r5
    3a6c:	09 f0       	breq	.+2      	; 0x3a70 <sha2_large_common_nextBlock+0x178>
    3a6e:	7d cf       	rjmp	.-262    	; 0x396a <sha2_large_common_nextBlock+0x72>
	memcpy(a, ctx->h, 8*8);
    3a70:	80 e4       	ldi	r24, 0x40	; 64
    3a72:	c7 51       	subi	r28, 0x17	; 23
    3a74:	df 4f       	sbci	r29, 0xFF	; 255
    3a76:	e8 81       	ld	r30, Y
    3a78:	f9 81       	ldd	r31, Y+1	; 0x01
    3a7a:	c9 5e       	subi	r28, 0xE9	; 233
    3a7c:	d0 40       	sbci	r29, 0x00	; 0
    3a7e:	de 01       	movw	r26, r28
    3a80:	af 57       	subi	r26, 0x7F	; 127
    3a82:	bf 4f       	sbci	r27, 0xFF	; 255
    3a84:	01 90       	ld	r0, Z+
    3a86:	0d 92       	st	X+, r0
    3a88:	8a 95       	dec	r24
    3a8a:	e1 f7       	brne	.-8      	; 0x3a84 <sha2_large_common_nextBlock+0x18c>
    3a8c:	84 eb       	ldi	r24, 0xB4	; 180
    3a8e:	90 e0       	ldi	r25, 0x00	; 0
    3a90:	cf 52       	subi	r28, 0x2F	; 47
    3a92:	df 4f       	sbci	r29, 0xFF	; 255
    3a94:	99 83       	std	Y+1, r25	; 0x01
    3a96:	88 83       	st	Y, r24
    3a98:	c1 5d       	subi	r28, 0xD1	; 209
    3a9a:	d0 40       	sbci	r29, 0x00	; 0
	for(i=0; i<80; ++i){
    3a9c:	c0 53       	subi	r28, 0x30	; 48
    3a9e:	df 4f       	sbci	r29, 0xFF	; 255
    3aa0:	18 82       	st	Y, r1
    3aa2:	c0 5d       	subi	r28, 0xD0	; 208
    3aa4:	d0 40       	sbci	r29, 0x00	; 0
			memmove(&(w[0]), &(w[1]), 15*8);
			w[15] = wx;
		}
		t1 = a[7] + SIGMA_1(a[4]) + CH(a[4], a[5], a[6]) + pgm_read_uint64_t_P(k++) + wx;
		t2 = SIGMA_0(a[0]) + MAJ(a[0], a[1], a[2]);
		memmove(&(a[1]), &(a[0]), 7*8);
    3aa6:	a1 e8       	ldi	r26, 0x81	; 129
    3aa8:	b0 e0       	ldi	r27, 0x00	; 0
    3aaa:	ac 0f       	add	r26, r28
    3aac:	bd 1f       	adc	r27, r29
    3aae:	18 96       	adiw	r26, 0x08	; 8
    3ab0:	c9 51       	subi	r28, 0x19	; 25
    3ab2:	df 4f       	sbci	r29, 0xFF	; 255
    3ab4:	b9 83       	std	Y+1, r27	; 0x01
    3ab6:	a8 83       	st	Y, r26
    3ab8:	c7 5e       	subi	r28, 0xE7	; 231
    3aba:	d0 40       	sbci	r29, 0x00	; 0
		w[16-i] = change_endian64(*((const uint64_t*)block));
		block = (uint8_t*)block + 8;
	}while(--i);
	memcpy(a, ctx->h, 8*8);
	for(i=0; i<80; ++i){
		if(i<16){
    3abc:	c0 53       	subi	r28, 0x30	; 48
    3abe:	df 4f       	sbci	r29, 0xFF	; 255
    3ac0:	b8 81       	ld	r27, Y
    3ac2:	c0 5d       	subi	r28, 0xD0	; 208
    3ac4:	d0 40       	sbci	r29, 0x00	; 0
    3ac6:	b0 31       	cpi	r27, 0x10	; 16
    3ac8:	08 f0       	brcs	.+2      	; 0x3acc <sha2_large_common_nextBlock+0x1d4>
    3aca:	60 c0       	rjmp	.+192    	; 0x3b8c <sha2_large_common_nextBlock+0x294>
			wx=w[i];
    3acc:	c5 52       	subi	r28, 0x25	; 37
    3ace:	df 4f       	sbci	r29, 0xFF	; 255
    3ad0:	e8 81       	ld	r30, Y
    3ad2:	f9 81       	ldd	r31, Y+1	; 0x01
    3ad4:	cb 5d       	subi	r28, 0xDB	; 219
    3ad6:	d0 40       	sbci	r29, 0x00	; 0
    3ad8:	f0 81       	ld	r31, Z
    3ada:	c5 53       	subi	r28, 0x35	; 53
    3adc:	df 4f       	sbci	r29, 0xFF	; 255
    3ade:	f8 83       	st	Y, r31
    3ae0:	cb 5c       	subi	r28, 0xCB	; 203
    3ae2:	d0 40       	sbci	r29, 0x00	; 0
    3ae4:	c5 52       	subi	r28, 0x25	; 37
    3ae6:	df 4f       	sbci	r29, 0xFF	; 255
    3ae8:	a8 81       	ld	r26, Y
    3aea:	b9 81       	ldd	r27, Y+1	; 0x01
    3aec:	cb 5d       	subi	r28, 0xDB	; 219
    3aee:	d0 40       	sbci	r29, 0x00	; 0
    3af0:	11 96       	adiw	r26, 0x01	; 1
    3af2:	bc 91       	ld	r27, X
    3af4:	c4 53       	subi	r28, 0x34	; 52
    3af6:	df 4f       	sbci	r29, 0xFF	; 255
    3af8:	b8 83       	st	Y, r27
    3afa:	cc 5c       	subi	r28, 0xCC	; 204
    3afc:	d0 40       	sbci	r29, 0x00	; 0
    3afe:	c5 52       	subi	r28, 0x25	; 37
    3b00:	df 4f       	sbci	r29, 0xFF	; 255
    3b02:	e8 81       	ld	r30, Y
    3b04:	f9 81       	ldd	r31, Y+1	; 0x01
    3b06:	cb 5d       	subi	r28, 0xDB	; 219
    3b08:	d0 40       	sbci	r29, 0x00	; 0
    3b0a:	f2 81       	ldd	r31, Z+2	; 0x02
    3b0c:	c3 53       	subi	r28, 0x33	; 51
    3b0e:	df 4f       	sbci	r29, 0xFF	; 255
    3b10:	f8 83       	st	Y, r31
    3b12:	cd 5c       	subi	r28, 0xCD	; 205
    3b14:	d0 40       	sbci	r29, 0x00	; 0
    3b16:	c5 52       	subi	r28, 0x25	; 37
    3b18:	df 4f       	sbci	r29, 0xFF	; 255
    3b1a:	a8 81       	ld	r26, Y
    3b1c:	b9 81       	ldd	r27, Y+1	; 0x01
    3b1e:	cb 5d       	subi	r28, 0xDB	; 219
    3b20:	d0 40       	sbci	r29, 0x00	; 0
    3b22:	13 96       	adiw	r26, 0x03	; 3
    3b24:	bc 91       	ld	r27, X
    3b26:	c2 53       	subi	r28, 0x32	; 50
    3b28:	df 4f       	sbci	r29, 0xFF	; 255
    3b2a:	b8 83       	st	Y, r27
    3b2c:	ce 5c       	subi	r28, 0xCE	; 206
    3b2e:	d0 40       	sbci	r29, 0x00	; 0
    3b30:	c5 52       	subi	r28, 0x25	; 37
    3b32:	df 4f       	sbci	r29, 0xFF	; 255
    3b34:	e8 81       	ld	r30, Y
    3b36:	f9 81       	ldd	r31, Y+1	; 0x01
    3b38:	cb 5d       	subi	r28, 0xDB	; 219
    3b3a:	d0 40       	sbci	r29, 0x00	; 0
    3b3c:	f4 81       	ldd	r31, Z+4	; 0x04
    3b3e:	c1 53       	subi	r28, 0x31	; 49
    3b40:	df 4f       	sbci	r29, 0xFF	; 255
    3b42:	f8 83       	st	Y, r31
    3b44:	cf 5c       	subi	r28, 0xCF	; 207
    3b46:	d0 40       	sbci	r29, 0x00	; 0
    3b48:	c5 52       	subi	r28, 0x25	; 37
    3b4a:	df 4f       	sbci	r29, 0xFF	; 255
    3b4c:	a8 81       	ld	r26, Y
    3b4e:	b9 81       	ldd	r27, Y+1	; 0x01
    3b50:	cb 5d       	subi	r28, 0xDB	; 219
    3b52:	d0 40       	sbci	r29, 0x00	; 0
    3b54:	15 96       	adiw	r26, 0x05	; 5
    3b56:	bc 91       	ld	r27, X
    3b58:	cd 52       	subi	r28, 0x2D	; 45
    3b5a:	df 4f       	sbci	r29, 0xFF	; 255
    3b5c:	b8 83       	st	Y, r27
    3b5e:	c3 5d       	subi	r28, 0xD3	; 211
    3b60:	d0 40       	sbci	r29, 0x00	; 0
    3b62:	c5 52       	subi	r28, 0x25	; 37
    3b64:	df 4f       	sbci	r29, 0xFF	; 255
    3b66:	e8 81       	ld	r30, Y
    3b68:	f9 81       	ldd	r31, Y+1	; 0x01
    3b6a:	cb 5d       	subi	r28, 0xDB	; 219
    3b6c:	d0 40       	sbci	r29, 0x00	; 0
    3b6e:	f6 81       	ldd	r31, Z+6	; 0x06
    3b70:	cc 52       	subi	r28, 0x2C	; 44
    3b72:	df 4f       	sbci	r29, 0xFF	; 255
    3b74:	f8 83       	st	Y, r31
    3b76:	c4 5d       	subi	r28, 0xD4	; 212
    3b78:	d0 40       	sbci	r29, 0x00	; 0
    3b7a:	c5 52       	subi	r28, 0x25	; 37
    3b7c:	df 4f       	sbci	r29, 0xFF	; 255
    3b7e:	a8 81       	ld	r26, Y
    3b80:	b9 81       	ldd	r27, Y+1	; 0x01
    3b82:	cb 5d       	subi	r28, 0xDB	; 219
    3b84:	d0 40       	sbci	r29, 0x00	; 0
    3b86:	17 96       	adiw	r26, 0x07	; 7
    3b88:	4c 90       	ld	r4, X
    3b8a:	db c1       	rjmp	.+950    	; 0x3f42 <sha2_large_common_nextBlock+0x64a>
		}else{
			wx = SIGMA_b(w[14]) + w[9] + SIGMA_a(w[1]) + w[0];
    3b8c:	e2 96       	adiw	r28, 0x32	; 50
    3b8e:	5f ac       	ldd	r5, Y+63	; 0x3f
    3b90:	e2 97       	sbiw	r28, 0x32	; 50
    3b92:	e3 96       	adiw	r28, 0x33	; 51
    3b94:	6f ac       	ldd	r6, Y+63	; 0x3f
    3b96:	e3 97       	sbiw	r28, 0x33	; 51
    3b98:	e4 96       	adiw	r28, 0x34	; 52
    3b9a:	7f ac       	ldd	r7, Y+63	; 0x3f
    3b9c:	e4 97       	sbiw	r28, 0x34	; 52
    3b9e:	e5 96       	adiw	r28, 0x35	; 53
    3ba0:	8f ac       	ldd	r8, Y+63	; 0x3f
    3ba2:	e5 97       	sbiw	r28, 0x35	; 53
    3ba4:	e6 96       	adiw	r28, 0x36	; 54
    3ba6:	9f ac       	ldd	r9, Y+63	; 0x3f
    3ba8:	e6 97       	sbiw	r28, 0x36	; 54
    3baa:	e7 96       	adiw	r28, 0x37	; 55
    3bac:	bf ad       	ldd	r27, Y+63	; 0x3f
    3bae:	e7 97       	sbiw	r28, 0x37	; 55
    3bb0:	e8 96       	adiw	r28, 0x38	; 56
    3bb2:	af ad       	ldd	r26, Y+63	; 0x3f
    3bb4:	e8 97       	sbiw	r28, 0x38	; 56
    3bb6:	e9 96       	adiw	r28, 0x39	; 57
    3bb8:	ff ad       	ldd	r31, Y+63	; 0x3f
    3bba:	e9 97       	sbiw	r28, 0x39	; 57
    3bbc:	e9 85       	ldd	r30, Y+9	; 0x09
    3bbe:	c5 53       	subi	r28, 0x35	; 53
    3bc0:	df 4f       	sbci	r29, 0xFF	; 255
    3bc2:	e8 83       	st	Y, r30
    3bc4:	cb 5c       	subi	r28, 0xCB	; 203
    3bc6:	d0 40       	sbci	r29, 0x00	; 0
    3bc8:	ea 85       	ldd	r30, Y+10	; 0x0a
    3bca:	c4 53       	subi	r28, 0x34	; 52
    3bcc:	df 4f       	sbci	r29, 0xFF	; 255
    3bce:	e8 83       	st	Y, r30
    3bd0:	cc 5c       	subi	r28, 0xCC	; 204
    3bd2:	d0 40       	sbci	r29, 0x00	; 0
    3bd4:	eb 85       	ldd	r30, Y+11	; 0x0b
    3bd6:	c3 53       	subi	r28, 0x33	; 51
    3bd8:	df 4f       	sbci	r29, 0xFF	; 255
    3bda:	e8 83       	st	Y, r30
    3bdc:	cd 5c       	subi	r28, 0xCD	; 205
    3bde:	d0 40       	sbci	r29, 0x00	; 0
    3be0:	ec 85       	ldd	r30, Y+12	; 0x0c
    3be2:	c2 53       	subi	r28, 0x32	; 50
    3be4:	df 4f       	sbci	r29, 0xFF	; 255
    3be6:	e8 83       	st	Y, r30
    3be8:	ce 5c       	subi	r28, 0xCE	; 206
    3bea:	d0 40       	sbci	r29, 0x00	; 0
    3bec:	ed 85       	ldd	r30, Y+13	; 0x0d
    3bee:	c1 53       	subi	r28, 0x31	; 49
    3bf0:	df 4f       	sbci	r29, 0xFF	; 255
    3bf2:	e8 83       	st	Y, r30
    3bf4:	cf 5c       	subi	r28, 0xCF	; 207
    3bf6:	d0 40       	sbci	r29, 0x00	; 0
    3bf8:	2e 84       	ldd	r2, Y+14	; 0x0e
    3bfa:	3f 84       	ldd	r3, Y+15	; 0x0f
    3bfc:	48 88       	ldd	r4, Y+16	; 0x10
    3bfe:	2a 96       	adiw	r28, 0x0a	; 10
    3c00:	2f ad       	ldd	r18, Y+63	; 0x3f
    3c02:	2a 97       	sbiw	r28, 0x0a	; 10
    3c04:	2b 96       	adiw	r28, 0x0b	; 11
    3c06:	3f ad       	ldd	r19, Y+63	; 0x3f
    3c08:	2b 97       	sbiw	r28, 0x0b	; 11
    3c0a:	2c 96       	adiw	r28, 0x0c	; 12
    3c0c:	4f ad       	ldd	r20, Y+63	; 0x3f
    3c0e:	2c 97       	sbiw	r28, 0x0c	; 12
    3c10:	2d 96       	adiw	r28, 0x0d	; 13
    3c12:	5f ad       	ldd	r21, Y+63	; 0x3f
    3c14:	2d 97       	sbiw	r28, 0x0d	; 13
    3c16:	2e 96       	adiw	r28, 0x0e	; 14
    3c18:	6f ad       	ldd	r22, Y+63	; 0x3f
    3c1a:	2e 97       	sbiw	r28, 0x0e	; 14
    3c1c:	2f 96       	adiw	r28, 0x0f	; 15
    3c1e:	7f ad       	ldd	r23, Y+63	; 0x3f
    3c20:	2f 97       	sbiw	r28, 0x0f	; 15
    3c22:	60 96       	adiw	r28, 0x10	; 16
    3c24:	8f ad       	ldd	r24, Y+63	; 0x3f
    3c26:	60 97       	sbiw	r28, 0x10	; 16
    3c28:	61 96       	adiw	r28, 0x11	; 17
    3c2a:	9f ad       	ldd	r25, Y+63	; 0x3f
    3c2c:	61 97       	sbiw	r28, 0x11	; 17
    3c2e:	a9 80       	ldd	r10, Y+1	; 0x01
    3c30:	ba 80       	ldd	r11, Y+2	; 0x02
    3c32:	cb 80       	ldd	r12, Y+3	; 0x03
    3c34:	dc 80       	ldd	r13, Y+4	; 0x04
    3c36:	ed 80       	ldd	r14, Y+5	; 0x05
    3c38:	fe 80       	ldd	r15, Y+6	; 0x06
    3c3a:	0f 81       	ldd	r16, Y+7	; 0x07
    3c3c:	18 85       	ldd	r17, Y+8	; 0x08
    3c3e:	0e 94 67 2b 	call	0x56ce	; 0x56ce <__adddi3>
    3c42:	cd 52       	subi	r28, 0x2D	; 45
    3c44:	df 4f       	sbci	r29, 0xFF	; 255
    3c46:	28 83       	st	Y, r18
    3c48:	c3 5d       	subi	r28, 0xD3	; 211
    3c4a:	d0 40       	sbci	r29, 0x00	; 0
    3c4c:	cc 52       	subi	r28, 0x2C	; 44
    3c4e:	df 4f       	sbci	r29, 0xFF	; 255
    3c50:	38 83       	st	Y, r19
    3c52:	c4 5d       	subi	r28, 0xD4	; 212
    3c54:	d0 40       	sbci	r29, 0x00	; 0
    3c56:	cb 52       	subi	r28, 0x2B	; 43
    3c58:	df 4f       	sbci	r29, 0xFF	; 255
    3c5a:	48 83       	st	Y, r20
    3c5c:	c5 5d       	subi	r28, 0xD5	; 213
    3c5e:	d0 40       	sbci	r29, 0x00	; 0
    3c60:	ca 52       	subi	r28, 0x2A	; 42
    3c62:	df 4f       	sbci	r29, 0xFF	; 255
    3c64:	58 83       	st	Y, r21
    3c66:	c6 5d       	subi	r28, 0xD6	; 214
    3c68:	d0 40       	sbci	r29, 0x00	; 0
    3c6a:	c9 52       	subi	r28, 0x29	; 41
    3c6c:	df 4f       	sbci	r29, 0xFF	; 255
    3c6e:	68 83       	st	Y, r22
    3c70:	c7 5d       	subi	r28, 0xD7	; 215
    3c72:	d0 40       	sbci	r29, 0x00	; 0
    3c74:	c8 52       	subi	r28, 0x28	; 40
    3c76:	df 4f       	sbci	r29, 0xFF	; 255
    3c78:	78 83       	st	Y, r23
    3c7a:	c8 5d       	subi	r28, 0xD8	; 216
    3c7c:	d0 40       	sbci	r29, 0x00	; 0
    3c7e:	c7 52       	subi	r28, 0x27	; 39
    3c80:	df 4f       	sbci	r29, 0xFF	; 255
    3c82:	88 83       	st	Y, r24
    3c84:	c9 5d       	subi	r28, 0xD9	; 217
    3c86:	d0 40       	sbci	r29, 0x00	; 0
    3c88:	c6 52       	subi	r28, 0x26	; 38
    3c8a:	df 4f       	sbci	r29, 0xFF	; 255
    3c8c:	98 83       	st	Y, r25
    3c8e:	ca 5d       	subi	r28, 0xDA	; 218
    3c90:	d0 40       	sbci	r29, 0x00	; 0
    3c92:	25 2d       	mov	r18, r5
    3c94:	36 2d       	mov	r19, r6
    3c96:	47 2d       	mov	r20, r7
    3c98:	58 2d       	mov	r21, r8
    3c9a:	69 2d       	mov	r22, r9
    3c9c:	7b 2f       	mov	r23, r27
    3c9e:	8a 2f       	mov	r24, r26
    3ca0:	9f 2f       	mov	r25, r31
    3ca2:	03 e0       	ldi	r16, 0x03	; 3
    3ca4:	0e 94 4c 2b 	call	0x5698	; 0x5698 <__rotldi3>
    3ca8:	a2 2e       	mov	r10, r18
    3caa:	b3 2e       	mov	r11, r19
    3cac:	c4 2e       	mov	r12, r20
    3cae:	d5 2e       	mov	r13, r21
    3cb0:	e6 2e       	mov	r14, r22
    3cb2:	f7 2e       	mov	r15, r23
    3cb4:	e8 2f       	mov	r30, r24
    3cb6:	19 2f       	mov	r17, r25
    3cb8:	25 2d       	mov	r18, r5
    3cba:	36 2d       	mov	r19, r6
    3cbc:	47 2d       	mov	r20, r7
    3cbe:	58 2d       	mov	r21, r8
    3cc0:	69 2d       	mov	r22, r9
    3cc2:	7b 2f       	mov	r23, r27
    3cc4:	8a 2f       	mov	r24, r26
    3cc6:	9f 2f       	mov	r25, r31
    3cc8:	0d e2       	ldi	r16, 0x2D	; 45
    3cca:	0e 94 4c 2b 	call	0x5698	; 0x5698 <__rotldi3>
    3cce:	a2 26       	eor	r10, r18
    3cd0:	b3 26       	eor	r11, r19
    3cd2:	c4 26       	eor	r12, r20
    3cd4:	d5 26       	eor	r13, r21
    3cd6:	e6 26       	eor	r14, r22
    3cd8:	f7 26       	eor	r15, r23
    3cda:	e8 27       	eor	r30, r24
    3cdc:	19 27       	eor	r17, r25
    3cde:	25 2d       	mov	r18, r5
    3ce0:	36 2d       	mov	r19, r6
    3ce2:	47 2d       	mov	r20, r7
    3ce4:	58 2d       	mov	r21, r8
    3ce6:	69 2d       	mov	r22, r9
    3ce8:	7b 2f       	mov	r23, r27
    3cea:	8a 2f       	mov	r24, r26
    3cec:	9f 2f       	mov	r25, r31
    3cee:	06 e0       	ldi	r16, 0x06	; 6
    3cf0:	0e 94 30 2b 	call	0x5660	; 0x5660 <__lshrdi3>
    3cf4:	a2 26       	eor	r10, r18
    3cf6:	b3 26       	eor	r11, r19
    3cf8:	c4 26       	eor	r12, r20
    3cfa:	d5 26       	eor	r13, r21
    3cfc:	e6 26       	eor	r14, r22
    3cfe:	f7 26       	eor	r15, r23
    3d00:	0e 2f       	mov	r16, r30
    3d02:	08 27       	eor	r16, r24
    3d04:	19 27       	eor	r17, r25
    3d06:	cd 52       	subi	r28, 0x2D	; 45
    3d08:	df 4f       	sbci	r29, 0xFF	; 255
    3d0a:	28 81       	ld	r18, Y
    3d0c:	c3 5d       	subi	r28, 0xD3	; 211
    3d0e:	d0 40       	sbci	r29, 0x00	; 0
    3d10:	cc 52       	subi	r28, 0x2C	; 44
    3d12:	df 4f       	sbci	r29, 0xFF	; 255
    3d14:	38 81       	ld	r19, Y
    3d16:	c4 5d       	subi	r28, 0xD4	; 212
    3d18:	d0 40       	sbci	r29, 0x00	; 0
    3d1a:	cb 52       	subi	r28, 0x2B	; 43
    3d1c:	df 4f       	sbci	r29, 0xFF	; 255
    3d1e:	48 81       	ld	r20, Y
    3d20:	c5 5d       	subi	r28, 0xD5	; 213
    3d22:	d0 40       	sbci	r29, 0x00	; 0
    3d24:	ca 52       	subi	r28, 0x2A	; 42
    3d26:	df 4f       	sbci	r29, 0xFF	; 255
    3d28:	58 81       	ld	r21, Y
    3d2a:	c6 5d       	subi	r28, 0xD6	; 214
    3d2c:	d0 40       	sbci	r29, 0x00	; 0
    3d2e:	c9 52       	subi	r28, 0x29	; 41
    3d30:	df 4f       	sbci	r29, 0xFF	; 255
    3d32:	68 81       	ld	r22, Y
    3d34:	c7 5d       	subi	r28, 0xD7	; 215
    3d36:	d0 40       	sbci	r29, 0x00	; 0
    3d38:	c8 52       	subi	r28, 0x28	; 40
    3d3a:	df 4f       	sbci	r29, 0xFF	; 255
    3d3c:	78 81       	ld	r23, Y
    3d3e:	c8 5d       	subi	r28, 0xD8	; 216
    3d40:	d0 40       	sbci	r29, 0x00	; 0
    3d42:	c7 52       	subi	r28, 0x27	; 39
    3d44:	df 4f       	sbci	r29, 0xFF	; 255
    3d46:	88 81       	ld	r24, Y
    3d48:	c9 5d       	subi	r28, 0xD9	; 217
    3d4a:	d0 40       	sbci	r29, 0x00	; 0
    3d4c:	c6 52       	subi	r28, 0x26	; 38
    3d4e:	df 4f       	sbci	r29, 0xFF	; 255
    3d50:	98 81       	ld	r25, Y
    3d52:	ca 5d       	subi	r28, 0xDA	; 218
    3d54:	d0 40       	sbci	r29, 0x00	; 0
    3d56:	0e 94 67 2b 	call	0x56ce	; 0x56ce <__adddi3>
    3d5a:	62 2e       	mov	r6, r18
    3d5c:	73 2e       	mov	r7, r19
    3d5e:	84 2e       	mov	r8, r20
    3d60:	95 2e       	mov	r9, r21
    3d62:	b6 2f       	mov	r27, r22
    3d64:	a7 2f       	mov	r26, r23
    3d66:	f8 2f       	mov	r31, r24
    3d68:	e9 2f       	mov	r30, r25
    3d6a:	c5 53       	subi	r28, 0x35	; 53
    3d6c:	df 4f       	sbci	r29, 0xFF	; 255
    3d6e:	28 81       	ld	r18, Y
    3d70:	cb 5c       	subi	r28, 0xCB	; 203
    3d72:	d0 40       	sbci	r29, 0x00	; 0
    3d74:	c4 53       	subi	r28, 0x34	; 52
    3d76:	df 4f       	sbci	r29, 0xFF	; 255
    3d78:	38 81       	ld	r19, Y
    3d7a:	cc 5c       	subi	r28, 0xCC	; 204
    3d7c:	d0 40       	sbci	r29, 0x00	; 0
    3d7e:	c3 53       	subi	r28, 0x33	; 51
    3d80:	df 4f       	sbci	r29, 0xFF	; 255
    3d82:	48 81       	ld	r20, Y
    3d84:	cd 5c       	subi	r28, 0xCD	; 205
    3d86:	d0 40       	sbci	r29, 0x00	; 0
    3d88:	c2 53       	subi	r28, 0x32	; 50
    3d8a:	df 4f       	sbci	r29, 0xFF	; 255
    3d8c:	58 81       	ld	r21, Y
    3d8e:	ce 5c       	subi	r28, 0xCE	; 206
    3d90:	d0 40       	sbci	r29, 0x00	; 0
    3d92:	c1 53       	subi	r28, 0x31	; 49
    3d94:	df 4f       	sbci	r29, 0xFF	; 255
    3d96:	68 81       	ld	r22, Y
    3d98:	cf 5c       	subi	r28, 0xCF	; 207
    3d9a:	d0 40       	sbci	r29, 0x00	; 0
    3d9c:	72 2d       	mov	r23, r2
    3d9e:	83 2d       	mov	r24, r3
    3da0:	94 2d       	mov	r25, r4
    3da2:	08 e3       	ldi	r16, 0x38	; 56
    3da4:	0e 94 4c 2b 	call	0x5698	; 0x5698 <__rotldi3>
    3da8:	a2 2e       	mov	r10, r18
    3daa:	b3 2e       	mov	r11, r19
    3dac:	c4 2e       	mov	r12, r20
    3dae:	d5 2e       	mov	r13, r21
    3db0:	e6 2e       	mov	r14, r22
    3db2:	f7 2e       	mov	r15, r23
    3db4:	58 2e       	mov	r5, r24
    3db6:	19 2f       	mov	r17, r25
    3db8:	c5 53       	subi	r28, 0x35	; 53
    3dba:	df 4f       	sbci	r29, 0xFF	; 255
    3dbc:	28 81       	ld	r18, Y
    3dbe:	cb 5c       	subi	r28, 0xCB	; 203
    3dc0:	d0 40       	sbci	r29, 0x00	; 0
    3dc2:	c4 53       	subi	r28, 0x34	; 52
    3dc4:	df 4f       	sbci	r29, 0xFF	; 255
    3dc6:	38 81       	ld	r19, Y
    3dc8:	cc 5c       	subi	r28, 0xCC	; 204
    3dca:	d0 40       	sbci	r29, 0x00	; 0
    3dcc:	c3 53       	subi	r28, 0x33	; 51
    3dce:	df 4f       	sbci	r29, 0xFF	; 255
    3dd0:	48 81       	ld	r20, Y
    3dd2:	cd 5c       	subi	r28, 0xCD	; 205
    3dd4:	d0 40       	sbci	r29, 0x00	; 0
    3dd6:	c2 53       	subi	r28, 0x32	; 50
    3dd8:	df 4f       	sbci	r29, 0xFF	; 255
    3dda:	58 81       	ld	r21, Y
    3ddc:	ce 5c       	subi	r28, 0xCE	; 206
    3dde:	d0 40       	sbci	r29, 0x00	; 0
    3de0:	c1 53       	subi	r28, 0x31	; 49
    3de2:	df 4f       	sbci	r29, 0xFF	; 255
    3de4:	68 81       	ld	r22, Y
    3de6:	cf 5c       	subi	r28, 0xCF	; 207
    3de8:	d0 40       	sbci	r29, 0x00	; 0
    3dea:	72 2d       	mov	r23, r2
    3dec:	83 2d       	mov	r24, r3
    3dee:	94 2d       	mov	r25, r4
    3df0:	0f e3       	ldi	r16, 0x3F	; 63
    3df2:	0e 94 4c 2b 	call	0x5698	; 0x5698 <__rotldi3>
    3df6:	a2 26       	eor	r10, r18
    3df8:	b3 26       	eor	r11, r19
    3dfa:	c4 26       	eor	r12, r20
    3dfc:	d5 26       	eor	r13, r21
    3dfe:	e6 26       	eor	r14, r22
    3e00:	f7 26       	eor	r15, r23
    3e02:	58 26       	eor	r5, r24
    3e04:	19 27       	eor	r17, r25
    3e06:	c5 53       	subi	r28, 0x35	; 53
    3e08:	df 4f       	sbci	r29, 0xFF	; 255
    3e0a:	28 81       	ld	r18, Y
    3e0c:	cb 5c       	subi	r28, 0xCB	; 203
    3e0e:	d0 40       	sbci	r29, 0x00	; 0
    3e10:	c4 53       	subi	r28, 0x34	; 52
    3e12:	df 4f       	sbci	r29, 0xFF	; 255
    3e14:	38 81       	ld	r19, Y
    3e16:	cc 5c       	subi	r28, 0xCC	; 204
    3e18:	d0 40       	sbci	r29, 0x00	; 0
    3e1a:	c3 53       	subi	r28, 0x33	; 51
    3e1c:	df 4f       	sbci	r29, 0xFF	; 255
    3e1e:	48 81       	ld	r20, Y
    3e20:	cd 5c       	subi	r28, 0xCD	; 205
    3e22:	d0 40       	sbci	r29, 0x00	; 0
    3e24:	c2 53       	subi	r28, 0x32	; 50
    3e26:	df 4f       	sbci	r29, 0xFF	; 255
    3e28:	58 81       	ld	r21, Y
    3e2a:	ce 5c       	subi	r28, 0xCE	; 206
    3e2c:	d0 40       	sbci	r29, 0x00	; 0
    3e2e:	c1 53       	subi	r28, 0x31	; 49
    3e30:	df 4f       	sbci	r29, 0xFF	; 255
    3e32:	68 81       	ld	r22, Y
    3e34:	cf 5c       	subi	r28, 0xCF	; 207
    3e36:	d0 40       	sbci	r29, 0x00	; 0
    3e38:	72 2d       	mov	r23, r2
    3e3a:	83 2d       	mov	r24, r3
    3e3c:	94 2d       	mov	r25, r4
    3e3e:	07 e0       	ldi	r16, 0x07	; 7
    3e40:	0e 94 30 2b 	call	0x5660	; 0x5660 <__lshrdi3>
    3e44:	a2 26       	eor	r10, r18
    3e46:	b3 26       	eor	r11, r19
    3e48:	c4 26       	eor	r12, r20
    3e4a:	d5 26       	eor	r13, r21
    3e4c:	e6 26       	eor	r14, r22
    3e4e:	f7 26       	eor	r15, r23
    3e50:	05 2d       	mov	r16, r5
    3e52:	08 27       	eor	r16, r24
    3e54:	19 27       	eor	r17, r25
    3e56:	26 2d       	mov	r18, r6
    3e58:	37 2d       	mov	r19, r7
    3e5a:	48 2d       	mov	r20, r8
    3e5c:	59 2d       	mov	r21, r9
    3e5e:	6b 2f       	mov	r22, r27
    3e60:	7a 2f       	mov	r23, r26
    3e62:	8f 2f       	mov	r24, r31
    3e64:	9e 2f       	mov	r25, r30
    3e66:	0e 94 67 2b 	call	0x56ce	; 0x56ce <__adddi3>
    3e6a:	c5 53       	subi	r28, 0x35	; 53
    3e6c:	df 4f       	sbci	r29, 0xFF	; 255
    3e6e:	28 83       	st	Y, r18
    3e70:	cb 5c       	subi	r28, 0xCB	; 203
    3e72:	d0 40       	sbci	r29, 0x00	; 0
    3e74:	c4 53       	subi	r28, 0x34	; 52
    3e76:	df 4f       	sbci	r29, 0xFF	; 255
    3e78:	38 83       	st	Y, r19
    3e7a:	cc 5c       	subi	r28, 0xCC	; 204
    3e7c:	d0 40       	sbci	r29, 0x00	; 0
    3e7e:	c3 53       	subi	r28, 0x33	; 51
    3e80:	df 4f       	sbci	r29, 0xFF	; 255
    3e82:	48 83       	st	Y, r20
    3e84:	cd 5c       	subi	r28, 0xCD	; 205
    3e86:	d0 40       	sbci	r29, 0x00	; 0
    3e88:	c2 53       	subi	r28, 0x32	; 50
    3e8a:	df 4f       	sbci	r29, 0xFF	; 255
    3e8c:	58 83       	st	Y, r21
    3e8e:	ce 5c       	subi	r28, 0xCE	; 206
    3e90:	d0 40       	sbci	r29, 0x00	; 0
    3e92:	c1 53       	subi	r28, 0x31	; 49
    3e94:	df 4f       	sbci	r29, 0xFF	; 255
    3e96:	68 83       	st	Y, r22
    3e98:	cf 5c       	subi	r28, 0xCF	; 207
    3e9a:	d0 40       	sbci	r29, 0x00	; 0
    3e9c:	cd 52       	subi	r28, 0x2D	; 45
    3e9e:	df 4f       	sbci	r29, 0xFF	; 255
    3ea0:	78 83       	st	Y, r23
    3ea2:	c3 5d       	subi	r28, 0xD3	; 211
    3ea4:	d0 40       	sbci	r29, 0x00	; 0
    3ea6:	cc 52       	subi	r28, 0x2C	; 44
    3ea8:	df 4f       	sbci	r29, 0xFF	; 255
    3eaa:	88 83       	st	Y, r24
    3eac:	c4 5d       	subi	r28, 0xD4	; 212
    3eae:	d0 40       	sbci	r29, 0x00	; 0
    3eb0:	49 2e       	mov	r4, r25
			memmove(&(w[0]), &(w[1]), 15*8);
    3eb2:	48 e7       	ldi	r20, 0x78	; 120
    3eb4:	50 e0       	ldi	r21, 0x00	; 0
    3eb6:	be 01       	movw	r22, r28
    3eb8:	67 5f       	subi	r22, 0xF7	; 247
    3eba:	7f 4f       	sbci	r23, 0xFF	; 255
    3ebc:	ce 01       	movw	r24, r28
    3ebe:	01 96       	adiw	r24, 0x01	; 1
    3ec0:	0e 94 05 2d 	call	0x5a0a	; 0x5a0a <memmove>
			w[15] = wx;
    3ec4:	c5 53       	subi	r28, 0x35	; 53
    3ec6:	df 4f       	sbci	r29, 0xFF	; 255
    3ec8:	f8 81       	ld	r31, Y
    3eca:	cb 5c       	subi	r28, 0xCB	; 203
    3ecc:	d0 40       	sbci	r29, 0x00	; 0
    3ece:	ea 96       	adiw	r28, 0x3a	; 58
    3ed0:	ff af       	std	Y+63, r31	; 0x3f
    3ed2:	ea 97       	sbiw	r28, 0x3a	; 58
    3ed4:	c4 53       	subi	r28, 0x34	; 52
    3ed6:	df 4f       	sbci	r29, 0xFF	; 255
    3ed8:	18 81       	ld	r17, Y
    3eda:	cc 5c       	subi	r28, 0xCC	; 204
    3edc:	d0 40       	sbci	r29, 0x00	; 0
    3ede:	eb 96       	adiw	r28, 0x3b	; 59
    3ee0:	1f af       	std	Y+63, r17	; 0x3f
    3ee2:	eb 97       	sbiw	r28, 0x3b	; 59
    3ee4:	c3 53       	subi	r28, 0x33	; 51
    3ee6:	df 4f       	sbci	r29, 0xFF	; 255
    3ee8:	88 81       	ld	r24, Y
    3eea:	cd 5c       	subi	r28, 0xCD	; 205
    3eec:	d0 40       	sbci	r29, 0x00	; 0
    3eee:	ec 96       	adiw	r28, 0x3c	; 60
    3ef0:	8f af       	std	Y+63, r24	; 0x3f
    3ef2:	ec 97       	sbiw	r28, 0x3c	; 60
    3ef4:	c2 53       	subi	r28, 0x32	; 50
    3ef6:	df 4f       	sbci	r29, 0xFF	; 255
    3ef8:	98 81       	ld	r25, Y
    3efa:	ce 5c       	subi	r28, 0xCE	; 206
    3efc:	d0 40       	sbci	r29, 0x00	; 0
    3efe:	ed 96       	adiw	r28, 0x3d	; 61
    3f00:	9f af       	std	Y+63, r25	; 0x3f
    3f02:	ed 97       	sbiw	r28, 0x3d	; 61
    3f04:	c1 53       	subi	r28, 0x31	; 49
    3f06:	df 4f       	sbci	r29, 0xFF	; 255
    3f08:	a8 81       	ld	r26, Y
    3f0a:	cf 5c       	subi	r28, 0xCF	; 207
    3f0c:	d0 40       	sbci	r29, 0x00	; 0
    3f0e:	ee 96       	adiw	r28, 0x3e	; 62
    3f10:	af af       	std	Y+63, r26	; 0x3f
    3f12:	ee 97       	sbiw	r28, 0x3e	; 62
    3f14:	cd 52       	subi	r28, 0x2D	; 45
    3f16:	df 4f       	sbci	r29, 0xFF	; 255
    3f18:	b8 81       	ld	r27, Y
    3f1a:	c3 5d       	subi	r28, 0xD3	; 211
    3f1c:	d0 40       	sbci	r29, 0x00	; 0
    3f1e:	ef 96       	adiw	r28, 0x3f	; 63
    3f20:	bf af       	std	Y+63, r27	; 0x3f
    3f22:	ef 97       	sbiw	r28, 0x3f	; 63
    3f24:	cc 52       	subi	r28, 0x2C	; 44
    3f26:	df 4f       	sbci	r29, 0xFF	; 255
    3f28:	e8 81       	ld	r30, Y
    3f2a:	c4 5d       	subi	r28, 0xD4	; 212
    3f2c:	d0 40       	sbci	r29, 0x00	; 0
    3f2e:	c1 58       	subi	r28, 0x81	; 129
    3f30:	df 4f       	sbci	r29, 0xFF	; 255
    3f32:	e8 83       	st	Y, r30
    3f34:	cf 57       	subi	r28, 0x7F	; 127
    3f36:	d0 40       	sbci	r29, 0x00	; 0
    3f38:	c0 58       	subi	r28, 0x80	; 128
    3f3a:	df 4f       	sbci	r29, 0xFF	; 255
    3f3c:	48 82       	st	Y, r4
    3f3e:	c0 58       	subi	r28, 0x80	; 128
    3f40:	d0 40       	sbci	r29, 0x00	; 0
		}
		t1 = a[7] + SIGMA_1(a[4]) + CH(a[4], a[5], a[6]) + pgm_read_uint64_t_P(k++) + wx;
    3f42:	c7 54       	subi	r28, 0x47	; 71
    3f44:	df 4f       	sbci	r29, 0xFF	; 255
    3f46:	18 81       	ld	r17, Y
    3f48:	c9 5b       	subi	r28, 0xB9	; 185
    3f4a:	d0 40       	sbci	r29, 0x00	; 0
    3f4c:	cb 52       	subi	r28, 0x2B	; 43
    3f4e:	df 4f       	sbci	r29, 0xFF	; 255
    3f50:	18 83       	st	Y, r17
    3f52:	c5 5d       	subi	r28, 0xD5	; 213
    3f54:	d0 40       	sbci	r29, 0x00	; 0
    3f56:	c6 54       	subi	r28, 0x46	; 70
    3f58:	df 4f       	sbci	r29, 0xFF	; 255
    3f5a:	a8 81       	ld	r26, Y
    3f5c:	ca 5b       	subi	r28, 0xBA	; 186
    3f5e:	d0 40       	sbci	r29, 0x00	; 0
    3f60:	ca 52       	subi	r28, 0x2A	; 42
    3f62:	df 4f       	sbci	r29, 0xFF	; 255
    3f64:	a8 83       	st	Y, r26
    3f66:	c6 5d       	subi	r28, 0xD6	; 214
    3f68:	d0 40       	sbci	r29, 0x00	; 0
    3f6a:	c5 54       	subi	r28, 0x45	; 69
    3f6c:	df 4f       	sbci	r29, 0xFF	; 255
    3f6e:	b8 81       	ld	r27, Y
    3f70:	cb 5b       	subi	r28, 0xBB	; 187
    3f72:	d0 40       	sbci	r29, 0x00	; 0
    3f74:	c9 52       	subi	r28, 0x29	; 41
    3f76:	df 4f       	sbci	r29, 0xFF	; 255
    3f78:	b8 83       	st	Y, r27
    3f7a:	c7 5d       	subi	r28, 0xD7	; 215
    3f7c:	d0 40       	sbci	r29, 0x00	; 0
    3f7e:	c4 54       	subi	r28, 0x44	; 68
    3f80:	df 4f       	sbci	r29, 0xFF	; 255
    3f82:	18 81       	ld	r17, Y
    3f84:	cc 5b       	subi	r28, 0xBC	; 188
    3f86:	d0 40       	sbci	r29, 0x00	; 0
    3f88:	c8 52       	subi	r28, 0x28	; 40
    3f8a:	df 4f       	sbci	r29, 0xFF	; 255
    3f8c:	18 83       	st	Y, r17
    3f8e:	c8 5d       	subi	r28, 0xD8	; 216
    3f90:	d0 40       	sbci	r29, 0x00	; 0
    3f92:	c3 54       	subi	r28, 0x43	; 67
    3f94:	df 4f       	sbci	r29, 0xFF	; 255
    3f96:	a8 81       	ld	r26, Y
    3f98:	cd 5b       	subi	r28, 0xBD	; 189
    3f9a:	d0 40       	sbci	r29, 0x00	; 0
    3f9c:	c7 52       	subi	r28, 0x27	; 39
    3f9e:	df 4f       	sbci	r29, 0xFF	; 255
    3fa0:	a8 83       	st	Y, r26
    3fa2:	c9 5d       	subi	r28, 0xD9	; 217
    3fa4:	d0 40       	sbci	r29, 0x00	; 0
    3fa6:	c2 54       	subi	r28, 0x42	; 66
    3fa8:	df 4f       	sbci	r29, 0xFF	; 255
    3faa:	b8 81       	ld	r27, Y
    3fac:	ce 5b       	subi	r28, 0xBE	; 190
    3fae:	d0 40       	sbci	r29, 0x00	; 0
    3fb0:	c6 52       	subi	r28, 0x26	; 38
    3fb2:	df 4f       	sbci	r29, 0xFF	; 255
    3fb4:	b8 83       	st	Y, r27
    3fb6:	ca 5d       	subi	r28, 0xDA	; 218
    3fb8:	d0 40       	sbci	r29, 0x00	; 0
    3fba:	c1 54       	subi	r28, 0x41	; 65
    3fbc:	df 4f       	sbci	r29, 0xFF	; 255
    3fbe:	18 81       	ld	r17, Y
    3fc0:	cf 5b       	subi	r28, 0xBF	; 191
    3fc2:	d0 40       	sbci	r29, 0x00	; 0
    3fc4:	c3 52       	subi	r28, 0x23	; 35
    3fc6:	df 4f       	sbci	r29, 0xFF	; 255
    3fc8:	18 83       	st	Y, r17
    3fca:	cd 5d       	subi	r28, 0xDD	; 221
    3fcc:	d0 40       	sbci	r29, 0x00	; 0
    3fce:	c0 54       	subi	r28, 0x40	; 64
    3fd0:	df 4f       	sbci	r29, 0xFF	; 255
    3fd2:	a8 81       	ld	r26, Y
    3fd4:	c0 5c       	subi	r28, 0xC0	; 192
    3fd6:	d0 40       	sbci	r29, 0x00	; 0
    3fd8:	c2 52       	subi	r28, 0x22	; 34
    3fda:	df 4f       	sbci	r29, 0xFF	; 255
    3fdc:	a8 83       	st	Y, r26
    3fde:	ce 5d       	subi	r28, 0xDE	; 222
    3fe0:	d0 40       	sbci	r29, 0x00	; 0
    3fe2:	cf 55       	subi	r28, 0x5F	; 95
    3fe4:	df 4f       	sbci	r29, 0xFF	; 255
    3fe6:	98 80       	ld	r9, Y
    3fe8:	c1 5a       	subi	r28, 0xA1	; 161
    3fea:	d0 40       	sbci	r29, 0x00	; 0
    3fec:	ce 55       	subi	r28, 0x5E	; 94
    3fee:	df 4f       	sbci	r29, 0xFF	; 255
    3ff0:	b8 80       	ld	r11, Y
    3ff2:	c2 5a       	subi	r28, 0xA2	; 162
    3ff4:	d0 40       	sbci	r29, 0x00	; 0
    3ff6:	cd 55       	subi	r28, 0x5D	; 93
    3ff8:	df 4f       	sbci	r29, 0xFF	; 255
    3ffa:	c8 80       	ld	r12, Y
    3ffc:	c3 5a       	subi	r28, 0xA3	; 163
    3ffe:	d0 40       	sbci	r29, 0x00	; 0
    4000:	cc 55       	subi	r28, 0x5C	; 92
    4002:	df 4f       	sbci	r29, 0xFF	; 255
    4004:	d8 80       	ld	r13, Y
    4006:	c4 5a       	subi	r28, 0xA4	; 164
    4008:	d0 40       	sbci	r29, 0x00	; 0
    400a:	cb 55       	subi	r28, 0x5B	; 91
    400c:	df 4f       	sbci	r29, 0xFF	; 255
    400e:	f8 80       	ld	r15, Y
    4010:	c5 5a       	subi	r28, 0xA5	; 165
    4012:	d0 40       	sbci	r29, 0x00	; 0
    4014:	ca 55       	subi	r28, 0x5A	; 90
    4016:	df 4f       	sbci	r29, 0xFF	; 255
    4018:	18 81       	ld	r17, Y
    401a:	c6 5a       	subi	r28, 0xA6	; 166
    401c:	d0 40       	sbci	r29, 0x00	; 0
    401e:	c9 55       	subi	r28, 0x59	; 89
    4020:	df 4f       	sbci	r29, 0xFF	; 255
    4022:	b8 81       	ld	r27, Y
    4024:	c7 5a       	subi	r28, 0xA7	; 167
    4026:	d0 40       	sbci	r29, 0x00	; 0
    4028:	c8 55       	subi	r28, 0x58	; 88
    402a:	df 4f       	sbci	r29, 0xFF	; 255
    402c:	a8 81       	ld	r26, Y
    402e:	c8 5a       	subi	r28, 0xA8	; 168
    4030:	d0 40       	sbci	r29, 0x00	; 0
    4032:	79 2d       	mov	r23, r9
    4034:	70 95       	com	r23
    4036:	6b 2d       	mov	r22, r11
    4038:	60 95       	com	r22
    403a:	5c 2d       	mov	r21, r12
    403c:	50 95       	com	r21
    403e:	4d 2d       	mov	r20, r13
    4040:	40 95       	com	r20
    4042:	3f 2d       	mov	r19, r15
    4044:	30 95       	com	r19
    4046:	21 2f       	mov	r18, r17
    4048:	20 95       	com	r18
    404a:	9b 2f       	mov	r25, r27
    404c:	90 95       	com	r25
    404e:	8a 2f       	mov	r24, r26
    4050:	80 95       	com	r24
    4052:	cf 54       	subi	r28, 0x4F	; 79
    4054:	df 4f       	sbci	r29, 0xFF	; 255
    4056:	68 80       	ld	r6, Y
    4058:	c1 5b       	subi	r28, 0xB1	; 177
    405a:	d0 40       	sbci	r29, 0x00	; 0
    405c:	67 22       	and	r6, r23
    405e:	ce 54       	subi	r28, 0x4E	; 78
    4060:	df 4f       	sbci	r29, 0xFF	; 255
    4062:	88 80       	ld	r8, Y
    4064:	c2 5b       	subi	r28, 0xB2	; 178
    4066:	d0 40       	sbci	r29, 0x00	; 0
    4068:	86 22       	and	r8, r22
    406a:	cd 54       	subi	r28, 0x4D	; 77
    406c:	df 4f       	sbci	r29, 0xFF	; 255
    406e:	e8 80       	ld	r14, Y
    4070:	c3 5b       	subi	r28, 0xB3	; 179
    4072:	d0 40       	sbci	r29, 0x00	; 0
    4074:	e5 22       	and	r14, r21
    4076:	cc 54       	subi	r28, 0x4C	; 76
    4078:	df 4f       	sbci	r29, 0xFF	; 255
    407a:	f8 81       	ld	r31, Y
    407c:	c4 5b       	subi	r28, 0xB4	; 180
    407e:	d0 40       	sbci	r29, 0x00	; 0
    4080:	f4 23       	and	r31, r20
    4082:	cb 54       	subi	r28, 0x4B	; 75
    4084:	df 4f       	sbci	r29, 0xFF	; 255
    4086:	78 81       	ld	r23, Y
    4088:	c5 5b       	subi	r28, 0xB5	; 181
    408a:	d0 40       	sbci	r29, 0x00	; 0
    408c:	73 23       	and	r23, r19
    408e:	ca 54       	subi	r28, 0x4A	; 74
    4090:	df 4f       	sbci	r29, 0xFF	; 255
    4092:	58 81       	ld	r21, Y
    4094:	c6 5b       	subi	r28, 0xB6	; 182
    4096:	d0 40       	sbci	r29, 0x00	; 0
    4098:	52 23       	and	r21, r18
    409a:	c9 54       	subi	r28, 0x49	; 73
    409c:	df 4f       	sbci	r29, 0xFF	; 255
    409e:	38 81       	ld	r19, Y
    40a0:	c7 5b       	subi	r28, 0xB7	; 183
    40a2:	d0 40       	sbci	r29, 0x00	; 0
    40a4:	39 23       	and	r19, r25
    40a6:	c8 54       	subi	r28, 0x48	; 72
    40a8:	df 4f       	sbci	r29, 0xFF	; 255
    40aa:	98 81       	ld	r25, Y
    40ac:	c8 5b       	subi	r28, 0xB8	; 184
    40ae:	d0 40       	sbci	r29, 0x00	; 0
    40b0:	98 23       	and	r25, r24
    40b2:	c7 55       	subi	r28, 0x57	; 87
    40b4:	df 4f       	sbci	r29, 0xFF	; 255
    40b6:	78 80       	ld	r7, Y
    40b8:	c9 5a       	subi	r28, 0xA9	; 169
    40ba:	d0 40       	sbci	r29, 0x00	; 0
    40bc:	79 20       	and	r7, r9
    40be:	c6 55       	subi	r28, 0x56	; 86
    40c0:	df 4f       	sbci	r29, 0xFF	; 255
    40c2:	a8 80       	ld	r10, Y
    40c4:	ca 5a       	subi	r28, 0xAA	; 170
    40c6:	d0 40       	sbci	r29, 0x00	; 0
    40c8:	ab 20       	and	r10, r11
    40ca:	c5 55       	subi	r28, 0x55	; 85
    40cc:	df 4f       	sbci	r29, 0xFF	; 255
    40ce:	08 81       	ld	r16, Y
    40d0:	cb 5a       	subi	r28, 0xAB	; 171
    40d2:	d0 40       	sbci	r29, 0x00	; 0
    40d4:	0c 21       	and	r16, r12
    40d6:	c4 55       	subi	r28, 0x54	; 84
    40d8:	df 4f       	sbci	r29, 0xFF	; 255
    40da:	e8 81       	ld	r30, Y
    40dc:	cc 5a       	subi	r28, 0xAC	; 172
    40de:	d0 40       	sbci	r29, 0x00	; 0
    40e0:	ed 21       	and	r30, r13
    40e2:	c3 55       	subi	r28, 0x53	; 83
    40e4:	df 4f       	sbci	r29, 0xFF	; 255
    40e6:	68 81       	ld	r22, Y
    40e8:	cd 5a       	subi	r28, 0xAD	; 173
    40ea:	d0 40       	sbci	r29, 0x00	; 0
    40ec:	6f 21       	and	r22, r15
    40ee:	c2 55       	subi	r28, 0x52	; 82
    40f0:	df 4f       	sbci	r29, 0xFF	; 255
    40f2:	48 81       	ld	r20, Y
    40f4:	ce 5a       	subi	r28, 0xAE	; 174
    40f6:	d0 40       	sbci	r29, 0x00	; 0
    40f8:	41 23       	and	r20, r17
    40fa:	c1 55       	subi	r28, 0x51	; 81
    40fc:	df 4f       	sbci	r29, 0xFF	; 255
    40fe:	28 81       	ld	r18, Y
    4100:	cf 5a       	subi	r28, 0xAF	; 175
    4102:	d0 40       	sbci	r29, 0x00	; 0
    4104:	2b 23       	and	r18, r27
    4106:	c0 55       	subi	r28, 0x50	; 80
    4108:	df 4f       	sbci	r29, 0xFF	; 255
    410a:	88 81       	ld	r24, Y
    410c:	c0 5b       	subi	r28, 0xB0	; 176
    410e:	d0 40       	sbci	r29, 0x00	; 0
    4110:	8a 23       	and	r24, r26
    4112:	67 24       	eor	r6, r7
    4114:	c1 52       	subi	r28, 0x21	; 33
    4116:	df 4f       	sbci	r29, 0xFF	; 255
    4118:	68 82       	st	Y, r6
    411a:	cf 5d       	subi	r28, 0xDF	; 223
    411c:	d0 40       	sbci	r29, 0x00	; 0
    411e:	8a 24       	eor	r8, r10
    4120:	c0 52       	subi	r28, 0x20	; 32
    4122:	df 4f       	sbci	r29, 0xFF	; 255
    4124:	88 82       	st	Y, r8
    4126:	c0 5e       	subi	r28, 0xE0	; 224
    4128:	d0 40       	sbci	r29, 0x00	; 0
    412a:	e0 26       	eor	r14, r16
    412c:	cf 51       	subi	r28, 0x1F	; 31
    412e:	df 4f       	sbci	r29, 0xFF	; 255
    4130:	e8 82       	st	Y, r14
    4132:	c1 5e       	subi	r28, 0xE1	; 225
    4134:	d0 40       	sbci	r29, 0x00	; 0
    4136:	fe 27       	eor	r31, r30
    4138:	ce 51       	subi	r28, 0x1E	; 30
    413a:	df 4f       	sbci	r29, 0xFF	; 255
    413c:	f8 83       	st	Y, r31
    413e:	c2 5e       	subi	r28, 0xE2	; 226
    4140:	d0 40       	sbci	r29, 0x00	; 0
    4142:	76 27       	eor	r23, r22
    4144:	cd 51       	subi	r28, 0x1D	; 29
    4146:	df 4f       	sbci	r29, 0xFF	; 255
    4148:	78 83       	st	Y, r23
    414a:	c3 5e       	subi	r28, 0xE3	; 227
    414c:	d0 40       	sbci	r29, 0x00	; 0
    414e:	54 27       	eor	r21, r20
    4150:	cc 51       	subi	r28, 0x1C	; 28
    4152:	df 4f       	sbci	r29, 0xFF	; 255
    4154:	58 83       	st	Y, r21
    4156:	c4 5e       	subi	r28, 0xE4	; 228
    4158:	d0 40       	sbci	r29, 0x00	; 0
    415a:	32 27       	eor	r19, r18
    415c:	cb 51       	subi	r28, 0x1B	; 27
    415e:	df 4f       	sbci	r29, 0xFF	; 255
    4160:	38 83       	st	Y, r19
    4162:	c5 5e       	subi	r28, 0xE5	; 229
    4164:	d0 40       	sbci	r29, 0x00	; 0
    4166:	98 27       	eor	r25, r24
    4168:	ca 51       	subi	r28, 0x1A	; 26
    416a:	df 4f       	sbci	r29, 0xFF	; 255
    416c:	98 83       	st	Y, r25
    416e:	c6 5e       	subi	r28, 0xE6	; 230
    4170:	d0 40       	sbci	r29, 0x00	; 0
uint64_t pgm_read_uint64_t_P(const uint64_t * p){
	union {
		uint64_t v64;
		uint32_t v32[2];
	} ret;
	ret.v32[0] = pgm_read_dword(p);
    4172:	cf 52       	subi	r28, 0x2F	; 47
    4174:	df 4f       	sbci	r29, 0xFF	; 255
    4176:	e8 81       	ld	r30, Y
    4178:	f9 81       	ldd	r31, Y+1	; 0x01
    417a:	c1 5d       	subi	r28, 0xD1	; 209
    417c:	d0 40       	sbci	r29, 0x00	; 0
    417e:	45 91       	lpm	r20, Z+
    4180:	55 91       	lpm	r21, Z+
    4182:	65 91       	lpm	r22, Z+
    4184:	74 91       	lpm	r23, Z
    4186:	a4 2e       	mov	r10, r20
    4188:	cf 53       	subi	r28, 0x3F	; 63
    418a:	df 4f       	sbci	r29, 0xFF	; 255
    418c:	48 83       	st	Y, r20
    418e:	59 83       	std	Y+1, r21	; 0x01
    4190:	6a 83       	std	Y+2, r22	; 0x02
    4192:	7b 83       	std	Y+3, r23	; 0x03
    4194:	c1 5c       	subi	r28, 0xC1	; 193
    4196:	d0 40       	sbci	r29, 0x00	; 0
	ret.v32[1] = pgm_read_dword((uint8_t*)p + 4);
    4198:	cf 52       	subi	r28, 0x2F	; 47
    419a:	df 4f       	sbci	r29, 0xFF	; 255
    419c:	e8 81       	ld	r30, Y
    419e:	f9 81       	ldd	r31, Y+1	; 0x01
    41a0:	c1 5d       	subi	r28, 0xD1	; 209
    41a2:	d0 40       	sbci	r29, 0x00	; 0
    41a4:	34 96       	adiw	r30, 0x04	; 4
    41a6:	45 91       	lpm	r20, Z+
    41a8:	55 91       	lpm	r21, Z+
    41aa:	65 91       	lpm	r22, Z+
    41ac:	74 91       	lpm	r23, Z
    41ae:	e4 2e       	mov	r14, r20
    41b0:	cb 53       	subi	r28, 0x3B	; 59
    41b2:	df 4f       	sbci	r29, 0xFF	; 255
    41b4:	48 83       	st	Y, r20
    41b6:	59 83       	std	Y+1, r21	; 0x01
    41b8:	6a 83       	std	Y+2, r22	; 0x02
    41ba:	7b 83       	std	Y+3, r23	; 0x03
    41bc:	c5 5c       	subi	r28, 0xC5	; 197
    41be:	d0 40       	sbci	r29, 0x00	; 0
    41c0:	29 2d       	mov	r18, r9
    41c2:	3b 2d       	mov	r19, r11
    41c4:	4c 2d       	mov	r20, r12
    41c6:	5d 2d       	mov	r21, r13
    41c8:	6f 2d       	mov	r22, r15
    41ca:	71 2f       	mov	r23, r17
    41cc:	8b 2f       	mov	r24, r27
    41ce:	9a 2f       	mov	r25, r26
    41d0:	0e e2       	ldi	r16, 0x2E	; 46
    41d2:	0e 94 4c 2b 	call	0x5698	; 0x5698 <__rotldi3>
    41d6:	22 2e       	mov	r2, r18
    41d8:	33 2e       	mov	r3, r19
    41da:	54 2e       	mov	r5, r20
    41dc:	65 2e       	mov	r6, r21
    41de:	76 2e       	mov	r7, r22
    41e0:	87 2e       	mov	r8, r23
    41e2:	f8 2f       	mov	r31, r24
    41e4:	e9 2f       	mov	r30, r25
    41e6:	29 2d       	mov	r18, r9
    41e8:	3b 2d       	mov	r19, r11
    41ea:	4c 2d       	mov	r20, r12
    41ec:	5d 2d       	mov	r21, r13
    41ee:	6f 2d       	mov	r22, r15
    41f0:	71 2f       	mov	r23, r17
    41f2:	8b 2f       	mov	r24, r27
    41f4:	9a 2f       	mov	r25, r26
    41f6:	02 e3       	ldi	r16, 0x32	; 50
    41f8:	0e 94 4c 2b 	call	0x5698	; 0x5698 <__rotldi3>
    41fc:	22 26       	eor	r2, r18
    41fe:	33 26       	eor	r3, r19
    4200:	54 26       	eor	r5, r20
    4202:	65 26       	eor	r6, r21
    4204:	76 26       	eor	r7, r22
    4206:	87 26       	eor	r8, r23
    4208:	f8 27       	eor	r31, r24
    420a:	e9 27       	eor	r30, r25
    420c:	29 2d       	mov	r18, r9
    420e:	3b 2d       	mov	r19, r11
    4210:	4c 2d       	mov	r20, r12
    4212:	5d 2d       	mov	r21, r13
    4214:	6f 2d       	mov	r22, r15
    4216:	71 2f       	mov	r23, r17
    4218:	8b 2f       	mov	r24, r27
    421a:	9a 2f       	mov	r25, r26
    421c:	07 e1       	ldi	r16, 0x17	; 23
    421e:	0e 94 4c 2b 	call	0x5698	; 0x5698 <__rotldi3>
    4222:	22 26       	eor	r2, r18
    4224:	33 26       	eor	r3, r19
    4226:	54 26       	eor	r5, r20
    4228:	65 26       	eor	r6, r21
    422a:	76 26       	eor	r7, r22
    422c:	87 26       	eor	r8, r23
    422e:	f8 27       	eor	r31, r24
    4230:	e9 27       	eor	r30, r25
    4232:	cb 52       	subi	r28, 0x2B	; 43
    4234:	df 4f       	sbci	r29, 0xFF	; 255
    4236:	28 81       	ld	r18, Y
    4238:	c5 5d       	subi	r28, 0xD5	; 213
    423a:	d0 40       	sbci	r29, 0x00	; 0
    423c:	ca 52       	subi	r28, 0x2A	; 42
    423e:	df 4f       	sbci	r29, 0xFF	; 255
    4240:	38 81       	ld	r19, Y
    4242:	c6 5d       	subi	r28, 0xD6	; 214
    4244:	d0 40       	sbci	r29, 0x00	; 0
    4246:	c9 52       	subi	r28, 0x29	; 41
    4248:	df 4f       	sbci	r29, 0xFF	; 255
    424a:	48 81       	ld	r20, Y
    424c:	c7 5d       	subi	r28, 0xD7	; 215
    424e:	d0 40       	sbci	r29, 0x00	; 0
    4250:	c8 52       	subi	r28, 0x28	; 40
    4252:	df 4f       	sbci	r29, 0xFF	; 255
    4254:	58 81       	ld	r21, Y
    4256:	c8 5d       	subi	r28, 0xD8	; 216
    4258:	d0 40       	sbci	r29, 0x00	; 0
    425a:	c7 52       	subi	r28, 0x27	; 39
    425c:	df 4f       	sbci	r29, 0xFF	; 255
    425e:	68 81       	ld	r22, Y
    4260:	c9 5d       	subi	r28, 0xD9	; 217
    4262:	d0 40       	sbci	r29, 0x00	; 0
    4264:	c6 52       	subi	r28, 0x26	; 38
    4266:	df 4f       	sbci	r29, 0xFF	; 255
    4268:	78 81       	ld	r23, Y
    426a:	ca 5d       	subi	r28, 0xDA	; 218
    426c:	d0 40       	sbci	r29, 0x00	; 0
    426e:	c3 52       	subi	r28, 0x23	; 35
    4270:	df 4f       	sbci	r29, 0xFF	; 255
    4272:	88 81       	ld	r24, Y
    4274:	cd 5d       	subi	r28, 0xDD	; 221
    4276:	d0 40       	sbci	r29, 0x00	; 0
    4278:	c2 52       	subi	r28, 0x22	; 34
    427a:	df 4f       	sbci	r29, 0xFF	; 255
    427c:	98 81       	ld	r25, Y
    427e:	ce 5d       	subi	r28, 0xDE	; 222
    4280:	d0 40       	sbci	r29, 0x00	; 0
    4282:	ce 53       	subi	r28, 0x3E	; 62
    4284:	df 4f       	sbci	r29, 0xFF	; 255
    4286:	b8 80       	ld	r11, Y
    4288:	c2 5c       	subi	r28, 0xC2	; 194
    428a:	d0 40       	sbci	r29, 0x00	; 0
    428c:	cd 53       	subi	r28, 0x3D	; 61
    428e:	df 4f       	sbci	r29, 0xFF	; 255
    4290:	c8 80       	ld	r12, Y
    4292:	c3 5c       	subi	r28, 0xC3	; 195
    4294:	d0 40       	sbci	r29, 0x00	; 0
    4296:	cc 53       	subi	r28, 0x3C	; 60
    4298:	df 4f       	sbci	r29, 0xFF	; 255
    429a:	d8 80       	ld	r13, Y
    429c:	c4 5c       	subi	r28, 0xC4	; 196
    429e:	d0 40       	sbci	r29, 0x00	; 0
    42a0:	ca 53       	subi	r28, 0x3A	; 58
    42a2:	df 4f       	sbci	r29, 0xFF	; 255
    42a4:	f8 80       	ld	r15, Y
    42a6:	c6 5c       	subi	r28, 0xC6	; 198
    42a8:	d0 40       	sbci	r29, 0x00	; 0
    42aa:	c9 53       	subi	r28, 0x39	; 57
    42ac:	df 4f       	sbci	r29, 0xFF	; 255
    42ae:	08 81       	ld	r16, Y
    42b0:	c7 5c       	subi	r28, 0xC7	; 199
    42b2:	d0 40       	sbci	r29, 0x00	; 0
    42b4:	c8 53       	subi	r28, 0x38	; 56
    42b6:	df 4f       	sbci	r29, 0xFF	; 255
    42b8:	18 81       	ld	r17, Y
    42ba:	c8 5c       	subi	r28, 0xC8	; 200
    42bc:	d0 40       	sbci	r29, 0x00	; 0
    42be:	0e 94 67 2b 	call	0x56ce	; 0x56ce <__adddi3>
    42c2:	a2 2e       	mov	r10, r18
    42c4:	b3 2e       	mov	r11, r19
    42c6:	c4 2e       	mov	r12, r20
    42c8:	d5 2e       	mov	r13, r21
    42ca:	e6 2e       	mov	r14, r22
    42cc:	f7 2e       	mov	r15, r23
    42ce:	08 2f       	mov	r16, r24
    42d0:	19 2f       	mov	r17, r25
    42d2:	22 2d       	mov	r18, r2
    42d4:	33 2d       	mov	r19, r3
    42d6:	45 2d       	mov	r20, r5
    42d8:	56 2d       	mov	r21, r6
    42da:	67 2d       	mov	r22, r7
    42dc:	78 2d       	mov	r23, r8
    42de:	8f 2f       	mov	r24, r31
    42e0:	9e 2f       	mov	r25, r30
    42e2:	0e 94 67 2b 	call	0x56ce	; 0x56ce <__adddi3>
		}else{
			wx = SIGMA_b(w[14]) + w[9] + SIGMA_a(w[1]) + w[0];
			memmove(&(w[0]), &(w[1]), 15*8);
			w[15] = wx;
		}
		t1 = a[7] + SIGMA_1(a[4]) + CH(a[4], a[5], a[6]) + pgm_read_uint64_t_P(k++) + wx;
    42e6:	c1 52       	subi	r28, 0x21	; 33
    42e8:	df 4f       	sbci	r29, 0xFF	; 255
    42ea:	a8 80       	ld	r10, Y
    42ec:	cf 5d       	subi	r28, 0xDF	; 223
    42ee:	d0 40       	sbci	r29, 0x00	; 0
    42f0:	c0 52       	subi	r28, 0x20	; 32
    42f2:	df 4f       	sbci	r29, 0xFF	; 255
    42f4:	b8 80       	ld	r11, Y
    42f6:	c0 5e       	subi	r28, 0xE0	; 224
    42f8:	d0 40       	sbci	r29, 0x00	; 0
    42fa:	cf 51       	subi	r28, 0x1F	; 31
    42fc:	df 4f       	sbci	r29, 0xFF	; 255
    42fe:	c8 80       	ld	r12, Y
    4300:	c1 5e       	subi	r28, 0xE1	; 225
    4302:	d0 40       	sbci	r29, 0x00	; 0
    4304:	ce 51       	subi	r28, 0x1E	; 30
    4306:	df 4f       	sbci	r29, 0xFF	; 255
    4308:	d8 80       	ld	r13, Y
    430a:	c2 5e       	subi	r28, 0xE2	; 226
    430c:	d0 40       	sbci	r29, 0x00	; 0
    430e:	cd 51       	subi	r28, 0x1D	; 29
    4310:	df 4f       	sbci	r29, 0xFF	; 255
    4312:	e8 80       	ld	r14, Y
    4314:	c3 5e       	subi	r28, 0xE3	; 227
    4316:	d0 40       	sbci	r29, 0x00	; 0
    4318:	cc 51       	subi	r28, 0x1C	; 28
    431a:	df 4f       	sbci	r29, 0xFF	; 255
    431c:	f8 80       	ld	r15, Y
    431e:	c4 5e       	subi	r28, 0xE4	; 228
    4320:	d0 40       	sbci	r29, 0x00	; 0
    4322:	cb 51       	subi	r28, 0x1B	; 27
    4324:	df 4f       	sbci	r29, 0xFF	; 255
    4326:	08 81       	ld	r16, Y
    4328:	c5 5e       	subi	r28, 0xE5	; 229
    432a:	d0 40       	sbci	r29, 0x00	; 0
    432c:	ca 51       	subi	r28, 0x1A	; 26
    432e:	df 4f       	sbci	r29, 0xFF	; 255
    4330:	18 81       	ld	r17, Y
    4332:	c6 5e       	subi	r28, 0xE6	; 230
    4334:	d0 40       	sbci	r29, 0x00	; 0
    4336:	0e 94 67 2b 	call	0x56ce	; 0x56ce <__adddi3>
    433a:	c5 53       	subi	r28, 0x35	; 53
    433c:	df 4f       	sbci	r29, 0xFF	; 255
    433e:	a8 80       	ld	r10, Y
    4340:	cb 5c       	subi	r28, 0xCB	; 203
    4342:	d0 40       	sbci	r29, 0x00	; 0
    4344:	c4 53       	subi	r28, 0x34	; 52
    4346:	df 4f       	sbci	r29, 0xFF	; 255
    4348:	b8 80       	ld	r11, Y
    434a:	cc 5c       	subi	r28, 0xCC	; 204
    434c:	d0 40       	sbci	r29, 0x00	; 0
    434e:	c3 53       	subi	r28, 0x33	; 51
    4350:	df 4f       	sbci	r29, 0xFF	; 255
    4352:	c8 80       	ld	r12, Y
    4354:	cd 5c       	subi	r28, 0xCD	; 205
    4356:	d0 40       	sbci	r29, 0x00	; 0
    4358:	c2 53       	subi	r28, 0x32	; 50
    435a:	df 4f       	sbci	r29, 0xFF	; 255
    435c:	d8 80       	ld	r13, Y
    435e:	ce 5c       	subi	r28, 0xCE	; 206
    4360:	d0 40       	sbci	r29, 0x00	; 0
    4362:	c1 53       	subi	r28, 0x31	; 49
    4364:	df 4f       	sbci	r29, 0xFF	; 255
    4366:	e8 80       	ld	r14, Y
    4368:	cf 5c       	subi	r28, 0xCF	; 207
    436a:	d0 40       	sbci	r29, 0x00	; 0
    436c:	cd 52       	subi	r28, 0x2D	; 45
    436e:	df 4f       	sbci	r29, 0xFF	; 255
    4370:	f8 80       	ld	r15, Y
    4372:	c3 5d       	subi	r28, 0xD3	; 211
    4374:	d0 40       	sbci	r29, 0x00	; 0
    4376:	cc 52       	subi	r28, 0x2C	; 44
    4378:	df 4f       	sbci	r29, 0xFF	; 255
    437a:	08 81       	ld	r16, Y
    437c:	c4 5d       	subi	r28, 0xD4	; 212
    437e:	d0 40       	sbci	r29, 0x00	; 0
    4380:	14 2d       	mov	r17, r4
    4382:	0e 94 67 2b 	call	0x56ce	; 0x56ce <__adddi3>
    4386:	c5 53       	subi	r28, 0x35	; 53
    4388:	df 4f       	sbci	r29, 0xFF	; 255
    438a:	28 83       	st	Y, r18
    438c:	cb 5c       	subi	r28, 0xCB	; 203
    438e:	d0 40       	sbci	r29, 0x00	; 0
    4390:	c4 53       	subi	r28, 0x34	; 52
    4392:	df 4f       	sbci	r29, 0xFF	; 255
    4394:	38 83       	st	Y, r19
    4396:	cc 5c       	subi	r28, 0xCC	; 204
    4398:	d0 40       	sbci	r29, 0x00	; 0
    439a:	c3 53       	subi	r28, 0x33	; 51
    439c:	df 4f       	sbci	r29, 0xFF	; 255
    439e:	48 83       	st	Y, r20
    43a0:	cd 5c       	subi	r28, 0xCD	; 205
    43a2:	d0 40       	sbci	r29, 0x00	; 0
    43a4:	c2 53       	subi	r28, 0x32	; 50
    43a6:	df 4f       	sbci	r29, 0xFF	; 255
    43a8:	58 83       	st	Y, r21
    43aa:	ce 5c       	subi	r28, 0xCE	; 206
    43ac:	d0 40       	sbci	r29, 0x00	; 0
    43ae:	c1 53       	subi	r28, 0x31	; 49
    43b0:	df 4f       	sbci	r29, 0xFF	; 255
    43b2:	68 83       	st	Y, r22
    43b4:	cf 5c       	subi	r28, 0xCF	; 207
    43b6:	d0 40       	sbci	r29, 0x00	; 0
    43b8:	cd 52       	subi	r28, 0x2D	; 45
    43ba:	df 4f       	sbci	r29, 0xFF	; 255
    43bc:	78 83       	st	Y, r23
    43be:	c3 5d       	subi	r28, 0xD3	; 211
    43c0:	d0 40       	sbci	r29, 0x00	; 0
    43c2:	cc 52       	subi	r28, 0x2C	; 44
    43c4:	df 4f       	sbci	r29, 0xFF	; 255
    43c6:	88 83       	st	Y, r24
    43c8:	c4 5d       	subi	r28, 0xD4	; 212
    43ca:	d0 40       	sbci	r29, 0x00	; 0
    43cc:	cb 52       	subi	r28, 0x2B	; 43
    43ce:	df 4f       	sbci	r29, 0xFF	; 255
    43d0:	98 83       	st	Y, r25
    43d2:	c5 5d       	subi	r28, 0xD5	; 213
    43d4:	d0 40       	sbci	r29, 0x00	; 0
		t2 = SIGMA_0(a[0]) + MAJ(a[0], a[1], a[2]);
    43d6:	cf 57       	subi	r28, 0x7F	; 127
    43d8:	df 4f       	sbci	r29, 0xFF	; 255
    43da:	a8 80       	ld	r10, Y
    43dc:	c1 58       	subi	r28, 0x81	; 129
    43de:	d0 40       	sbci	r29, 0x00	; 0
    43e0:	ce 57       	subi	r28, 0x7E	; 126
    43e2:	df 4f       	sbci	r29, 0xFF	; 255
    43e4:	b8 80       	ld	r11, Y
    43e6:	c2 58       	subi	r28, 0x82	; 130
    43e8:	d0 40       	sbci	r29, 0x00	; 0
    43ea:	cd 57       	subi	r28, 0x7D	; 125
    43ec:	df 4f       	sbci	r29, 0xFF	; 255
    43ee:	78 80       	ld	r7, Y
    43f0:	c3 58       	subi	r28, 0x83	; 131
    43f2:	d0 40       	sbci	r29, 0x00	; 0
    43f4:	cc 57       	subi	r28, 0x7C	; 124
    43f6:	df 4f       	sbci	r29, 0xFF	; 255
    43f8:	68 80       	ld	r6, Y
    43fa:	c4 58       	subi	r28, 0x84	; 132
    43fc:	d0 40       	sbci	r29, 0x00	; 0
    43fe:	cb 57       	subi	r28, 0x7B	; 123
    4400:	df 4f       	sbci	r29, 0xFF	; 255
    4402:	58 80       	ld	r5, Y
    4404:	c5 58       	subi	r28, 0x85	; 133
    4406:	d0 40       	sbci	r29, 0x00	; 0
    4408:	ca 57       	subi	r28, 0x7A	; 122
    440a:	df 4f       	sbci	r29, 0xFF	; 255
    440c:	48 80       	ld	r4, Y
    440e:	c6 58       	subi	r28, 0x86	; 134
    4410:	d0 40       	sbci	r29, 0x00	; 0
    4412:	c9 57       	subi	r28, 0x79	; 121
    4414:	df 4f       	sbci	r29, 0xFF	; 255
    4416:	38 80       	ld	r3, Y
    4418:	c7 58       	subi	r28, 0x87	; 135
    441a:	d0 40       	sbci	r29, 0x00	; 0
    441c:	c8 57       	subi	r28, 0x78	; 120
    441e:	df 4f       	sbci	r29, 0xFF	; 255
    4420:	28 80       	ld	r2, Y
    4422:	c8 58       	subi	r28, 0x88	; 136
    4424:	d0 40       	sbci	r29, 0x00	; 0
    4426:	c7 57       	subi	r28, 0x77	; 119
    4428:	df 4f       	sbci	r29, 0xFF	; 255
    442a:	18 81       	ld	r17, Y
    442c:	c9 58       	subi	r28, 0x89	; 137
    442e:	d0 40       	sbci	r29, 0x00	; 0
    4430:	ca 52       	subi	r28, 0x2A	; 42
    4432:	df 4f       	sbci	r29, 0xFF	; 255
    4434:	18 83       	st	Y, r17
    4436:	c6 5d       	subi	r28, 0xD6	; 214
    4438:	d0 40       	sbci	r29, 0x00	; 0
    443a:	c6 57       	subi	r28, 0x76	; 118
    443c:	df 4f       	sbci	r29, 0xFF	; 255
    443e:	18 81       	ld	r17, Y
    4440:	ca 58       	subi	r28, 0x8A	; 138
    4442:	d0 40       	sbci	r29, 0x00	; 0
    4444:	c9 52       	subi	r28, 0x29	; 41
    4446:	df 4f       	sbci	r29, 0xFF	; 255
    4448:	18 83       	st	Y, r17
    444a:	c7 5d       	subi	r28, 0xD7	; 215
    444c:	d0 40       	sbci	r29, 0x00	; 0
    444e:	c5 57       	subi	r28, 0x75	; 117
    4450:	df 4f       	sbci	r29, 0xFF	; 255
    4452:	18 81       	ld	r17, Y
    4454:	cb 58       	subi	r28, 0x8B	; 139
    4456:	d0 40       	sbci	r29, 0x00	; 0
    4458:	c8 52       	subi	r28, 0x28	; 40
    445a:	df 4f       	sbci	r29, 0xFF	; 255
    445c:	18 83       	st	Y, r17
    445e:	c8 5d       	subi	r28, 0xD8	; 216
    4460:	d0 40       	sbci	r29, 0x00	; 0
    4462:	c4 57       	subi	r28, 0x74	; 116
    4464:	df 4f       	sbci	r29, 0xFF	; 255
    4466:	18 81       	ld	r17, Y
    4468:	cc 58       	subi	r28, 0x8C	; 140
    446a:	d0 40       	sbci	r29, 0x00	; 0
    446c:	c7 52       	subi	r28, 0x27	; 39
    446e:	df 4f       	sbci	r29, 0xFF	; 255
    4470:	18 83       	st	Y, r17
    4472:	c9 5d       	subi	r28, 0xD9	; 217
    4474:	d0 40       	sbci	r29, 0x00	; 0
    4476:	c3 57       	subi	r28, 0x73	; 115
    4478:	df 4f       	sbci	r29, 0xFF	; 255
    447a:	18 81       	ld	r17, Y
    447c:	cd 58       	subi	r28, 0x8D	; 141
    447e:	d0 40       	sbci	r29, 0x00	; 0
    4480:	c6 52       	subi	r28, 0x26	; 38
    4482:	df 4f       	sbci	r29, 0xFF	; 255
    4484:	18 83       	st	Y, r17
    4486:	ca 5d       	subi	r28, 0xDA	; 218
    4488:	d0 40       	sbci	r29, 0x00	; 0
    448a:	c2 57       	subi	r28, 0x72	; 114
    448c:	df 4f       	sbci	r29, 0xFF	; 255
    448e:	18 81       	ld	r17, Y
    4490:	ce 58       	subi	r28, 0x8E	; 142
    4492:	d0 40       	sbci	r29, 0x00	; 0
    4494:	c3 52       	subi	r28, 0x23	; 35
    4496:	df 4f       	sbci	r29, 0xFF	; 255
    4498:	18 83       	st	Y, r17
    449a:	cd 5d       	subi	r28, 0xDD	; 221
    449c:	d0 40       	sbci	r29, 0x00	; 0
    449e:	c1 57       	subi	r28, 0x71	; 113
    44a0:	df 4f       	sbci	r29, 0xFF	; 255
    44a2:	18 81       	ld	r17, Y
    44a4:	cf 58       	subi	r28, 0x8F	; 143
    44a6:	d0 40       	sbci	r29, 0x00	; 0
    44a8:	c2 52       	subi	r28, 0x22	; 34
    44aa:	df 4f       	sbci	r29, 0xFF	; 255
    44ac:	18 83       	st	Y, r17
    44ae:	ce 5d       	subi	r28, 0xDE	; 222
    44b0:	d0 40       	sbci	r29, 0x00	; 0
    44b2:	c0 57       	subi	r28, 0x70	; 112
    44b4:	df 4f       	sbci	r29, 0xFF	; 255
    44b6:	88 80       	ld	r8, Y
    44b8:	c0 59       	subi	r28, 0x90	; 144
    44ba:	d0 40       	sbci	r29, 0x00	; 0
    44bc:	cf 56       	subi	r28, 0x6F	; 111
    44be:	df 4f       	sbci	r29, 0xFF	; 255
    44c0:	18 81       	ld	r17, Y
    44c2:	c1 59       	subi	r28, 0x91	; 145
    44c4:	d0 40       	sbci	r29, 0x00	; 0
    44c6:	c1 52       	subi	r28, 0x21	; 33
    44c8:	df 4f       	sbci	r29, 0xFF	; 255
    44ca:	18 83       	st	Y, r17
    44cc:	cf 5d       	subi	r28, 0xDF	; 223
    44ce:	d0 40       	sbci	r29, 0x00	; 0
    44d0:	ce 56       	subi	r28, 0x6E	; 110
    44d2:	df 4f       	sbci	r29, 0xFF	; 255
    44d4:	18 81       	ld	r17, Y
    44d6:	c2 59       	subi	r28, 0x92	; 146
    44d8:	d0 40       	sbci	r29, 0x00	; 0
    44da:	c0 52       	subi	r28, 0x20	; 32
    44dc:	df 4f       	sbci	r29, 0xFF	; 255
    44de:	18 83       	st	Y, r17
    44e0:	c0 5e       	subi	r28, 0xE0	; 224
    44e2:	d0 40       	sbci	r29, 0x00	; 0
    44e4:	cd 56       	subi	r28, 0x6D	; 109
    44e6:	df 4f       	sbci	r29, 0xFF	; 255
    44e8:	18 81       	ld	r17, Y
    44ea:	c3 59       	subi	r28, 0x93	; 147
    44ec:	d0 40       	sbci	r29, 0x00	; 0
    44ee:	cf 51       	subi	r28, 0x1F	; 31
    44f0:	df 4f       	sbci	r29, 0xFF	; 255
    44f2:	18 83       	st	Y, r17
    44f4:	c1 5e       	subi	r28, 0xE1	; 225
    44f6:	d0 40       	sbci	r29, 0x00	; 0
    44f8:	cc 56       	subi	r28, 0x6C	; 108
    44fa:	df 4f       	sbci	r29, 0xFF	; 255
    44fc:	18 81       	ld	r17, Y
    44fe:	c4 59       	subi	r28, 0x94	; 148
    4500:	d0 40       	sbci	r29, 0x00	; 0
    4502:	ce 51       	subi	r28, 0x1E	; 30
    4504:	df 4f       	sbci	r29, 0xFF	; 255
    4506:	18 83       	st	Y, r17
    4508:	c2 5e       	subi	r28, 0xE2	; 226
    450a:	d0 40       	sbci	r29, 0x00	; 0
    450c:	cb 56       	subi	r28, 0x6B	; 107
    450e:	df 4f       	sbci	r29, 0xFF	; 255
    4510:	18 81       	ld	r17, Y
    4512:	c5 59       	subi	r28, 0x95	; 149
    4514:	d0 40       	sbci	r29, 0x00	; 0
    4516:	cd 51       	subi	r28, 0x1D	; 29
    4518:	df 4f       	sbci	r29, 0xFF	; 255
    451a:	18 83       	st	Y, r17
    451c:	c3 5e       	subi	r28, 0xE3	; 227
    451e:	d0 40       	sbci	r29, 0x00	; 0
    4520:	ca 56       	subi	r28, 0x6A	; 106
    4522:	df 4f       	sbci	r29, 0xFF	; 255
    4524:	18 81       	ld	r17, Y
    4526:	c6 59       	subi	r28, 0x96	; 150
    4528:	d0 40       	sbci	r29, 0x00	; 0
    452a:	cc 51       	subi	r28, 0x1C	; 28
    452c:	df 4f       	sbci	r29, 0xFF	; 255
    452e:	18 83       	st	Y, r17
    4530:	c4 5e       	subi	r28, 0xE4	; 228
    4532:	d0 40       	sbci	r29, 0x00	; 0
    4534:	c9 56       	subi	r28, 0x69	; 105
    4536:	df 4f       	sbci	r29, 0xFF	; 255
    4538:	18 81       	ld	r17, Y
    453a:	c7 59       	subi	r28, 0x97	; 151
    453c:	d0 40       	sbci	r29, 0x00	; 0
    453e:	cb 51       	subi	r28, 0x1B	; 27
    4540:	df 4f       	sbci	r29, 0xFF	; 255
    4542:	18 83       	st	Y, r17
    4544:	c5 5e       	subi	r28, 0xE5	; 229
    4546:	d0 40       	sbci	r29, 0x00	; 0
    4548:	c8 56       	subi	r28, 0x68	; 104
    454a:	df 4f       	sbci	r29, 0xFF	; 255
    454c:	98 80       	ld	r9, Y
    454e:	c8 59       	subi	r28, 0x98	; 152
    4550:	d0 40       	sbci	r29, 0x00	; 0
		memmove(&(a[1]), &(a[0]), 7*8);
    4552:	48 e3       	ldi	r20, 0x38	; 56
    4554:	50 e0       	ldi	r21, 0x00	; 0
    4556:	be 01       	movw	r22, r28
    4558:	6f 57       	subi	r22, 0x7F	; 127
    455a:	7f 4f       	sbci	r23, 0xFF	; 255
    455c:	c9 51       	subi	r28, 0x19	; 25
    455e:	df 4f       	sbci	r29, 0xFF	; 255
    4560:	88 81       	ld	r24, Y
    4562:	99 81       	ldd	r25, Y+1	; 0x01
    4564:	c7 5e       	subi	r28, 0xE7	; 231
    4566:	d0 40       	sbci	r29, 0x00	; 0
    4568:	0e 94 05 2d 	call	0x5a0a	; 0x5a0a <memmove>
		a[0] = t1 + t2;
    456c:	2a 2d       	mov	r18, r10
    456e:	3b 2d       	mov	r19, r11
    4570:	47 2d       	mov	r20, r7
    4572:	56 2d       	mov	r21, r6
    4574:	65 2d       	mov	r22, r5
    4576:	74 2d       	mov	r23, r4
    4578:	83 2d       	mov	r24, r3
    457a:	92 2d       	mov	r25, r2
    457c:	0e e1       	ldi	r16, 0x1E	; 30
    457e:	0e 94 4c 2b 	call	0x5698	; 0x5698 <__rotldi3>
    4582:	d2 2e       	mov	r13, r18
    4584:	e3 2e       	mov	r14, r19
    4586:	f4 2e       	mov	r15, r20
    4588:	15 2f       	mov	r17, r21
    458a:	b6 2f       	mov	r27, r22
    458c:	e7 2f       	mov	r30, r23
    458e:	a8 2f       	mov	r26, r24
    4590:	f9 2f       	mov	r31, r25
    4592:	2a 2d       	mov	r18, r10
    4594:	3b 2d       	mov	r19, r11
    4596:	47 2d       	mov	r20, r7
    4598:	56 2d       	mov	r21, r6
    459a:	65 2d       	mov	r22, r5
    459c:	74 2d       	mov	r23, r4
    459e:	83 2d       	mov	r24, r3
    45a0:	92 2d       	mov	r25, r2
    45a2:	04 e2       	ldi	r16, 0x24	; 36
    45a4:	0e 94 4c 2b 	call	0x5698	; 0x5698 <__rotldi3>
    45a8:	d2 26       	eor	r13, r18
    45aa:	e3 26       	eor	r14, r19
    45ac:	f4 26       	eor	r15, r20
    45ae:	15 27       	eor	r17, r21
    45b0:	b6 27       	eor	r27, r22
    45b2:	e7 27       	eor	r30, r23
    45b4:	a8 27       	eor	r26, r24
    45b6:	f9 27       	eor	r31, r25
    45b8:	2a 2d       	mov	r18, r10
    45ba:	3b 2d       	mov	r19, r11
    45bc:	47 2d       	mov	r20, r7
    45be:	56 2d       	mov	r21, r6
    45c0:	65 2d       	mov	r22, r5
    45c2:	74 2d       	mov	r23, r4
    45c4:	83 2d       	mov	r24, r3
    45c6:	92 2d       	mov	r25, r2
    45c8:	09 e1       	ldi	r16, 0x19	; 25
    45ca:	0e 94 4c 2b 	call	0x5698	; 0x5698 <__rotldi3>
    45ce:	2d 25       	eor	r18, r13
    45d0:	3e 25       	eor	r19, r14
    45d2:	4f 25       	eor	r20, r15
    45d4:	51 27       	eor	r21, r17
    45d6:	6b 27       	eor	r22, r27
    45d8:	7e 27       	eor	r23, r30
    45da:	c1 52       	subi	r28, 0x21	; 33
    45dc:	df 4f       	sbci	r29, 0xFF	; 255
    45de:	b8 81       	ld	r27, Y
    45e0:	cf 5d       	subi	r28, 0xDF	; 223
    45e2:	d0 40       	sbci	r29, 0x00	; 0
    45e4:	ca 52       	subi	r28, 0x2A	; 42
    45e6:	df 4f       	sbci	r29, 0xFF	; 255
    45e8:	18 81       	ld	r17, Y
    45ea:	c6 5d       	subi	r28, 0xD6	; 214
    45ec:	d0 40       	sbci	r29, 0x00	; 0
    45ee:	b1 27       	eor	r27, r17
    45f0:	c0 52       	subi	r28, 0x20	; 32
    45f2:	df 4f       	sbci	r29, 0xFF	; 255
    45f4:	e8 81       	ld	r30, Y
    45f6:	c0 5e       	subi	r28, 0xE0	; 224
    45f8:	d0 40       	sbci	r29, 0x00	; 0
    45fa:	c9 52       	subi	r28, 0x29	; 41
    45fc:	df 4f       	sbci	r29, 0xFF	; 255
    45fe:	18 81       	ld	r17, Y
    4600:	c7 5d       	subi	r28, 0xD7	; 215
    4602:	d0 40       	sbci	r29, 0x00	; 0
    4604:	e1 27       	eor	r30, r17
    4606:	cf 51       	subi	r28, 0x1F	; 31
    4608:	df 4f       	sbci	r29, 0xFF	; 255
    460a:	c8 80       	ld	r12, Y
    460c:	c1 5e       	subi	r28, 0xE1	; 225
    460e:	d0 40       	sbci	r29, 0x00	; 0
    4610:	c8 52       	subi	r28, 0x28	; 40
    4612:	df 4f       	sbci	r29, 0xFF	; 255
    4614:	18 81       	ld	r17, Y
    4616:	c8 5d       	subi	r28, 0xD8	; 216
    4618:	d0 40       	sbci	r29, 0x00	; 0
    461a:	c1 26       	eor	r12, r17
    461c:	ce 51       	subi	r28, 0x1E	; 30
    461e:	df 4f       	sbci	r29, 0xFF	; 255
    4620:	d8 80       	ld	r13, Y
    4622:	c2 5e       	subi	r28, 0xE2	; 226
    4624:	d0 40       	sbci	r29, 0x00	; 0
    4626:	c7 52       	subi	r28, 0x27	; 39
    4628:	df 4f       	sbci	r29, 0xFF	; 255
    462a:	18 81       	ld	r17, Y
    462c:	c9 5d       	subi	r28, 0xD9	; 217
    462e:	d0 40       	sbci	r29, 0x00	; 0
    4630:	d1 26       	eor	r13, r17
    4632:	cd 51       	subi	r28, 0x1D	; 29
    4634:	df 4f       	sbci	r29, 0xFF	; 255
    4636:	e8 80       	ld	r14, Y
    4638:	c3 5e       	subi	r28, 0xE3	; 227
    463a:	d0 40       	sbci	r29, 0x00	; 0
    463c:	c6 52       	subi	r28, 0x26	; 38
    463e:	df 4f       	sbci	r29, 0xFF	; 255
    4640:	18 81       	ld	r17, Y
    4642:	ca 5d       	subi	r28, 0xDA	; 218
    4644:	d0 40       	sbci	r29, 0x00	; 0
    4646:	e1 26       	eor	r14, r17
    4648:	cc 51       	subi	r28, 0x1C	; 28
    464a:	df 4f       	sbci	r29, 0xFF	; 255
    464c:	f8 80       	ld	r15, Y
    464e:	c4 5e       	subi	r28, 0xE4	; 228
    4650:	d0 40       	sbci	r29, 0x00	; 0
    4652:	c3 52       	subi	r28, 0x23	; 35
    4654:	df 4f       	sbci	r29, 0xFF	; 255
    4656:	18 81       	ld	r17, Y
    4658:	cd 5d       	subi	r28, 0xDD	; 221
    465a:	d0 40       	sbci	r29, 0x00	; 0
    465c:	f1 26       	eor	r15, r17
    465e:	cb 51       	subi	r28, 0x1B	; 27
    4660:	df 4f       	sbci	r29, 0xFF	; 255
    4662:	08 81       	ld	r16, Y
    4664:	c5 5e       	subi	r28, 0xE5	; 229
    4666:	d0 40       	sbci	r29, 0x00	; 0
    4668:	c2 52       	subi	r28, 0x22	; 34
    466a:	df 4f       	sbci	r29, 0xFF	; 255
    466c:	18 81       	ld	r17, Y
    466e:	ce 5d       	subi	r28, 0xDE	; 222
    4670:	d0 40       	sbci	r29, 0x00	; 0
    4672:	01 27       	eor	r16, r17
    4674:	19 2d       	mov	r17, r9
    4676:	18 25       	eor	r17, r8
    4678:	ab 22       	and	r10, r27
    467a:	be 22       	and	r11, r30
    467c:	c7 20       	and	r12, r7
    467e:	d6 20       	and	r13, r6
    4680:	e5 20       	and	r14, r5
    4682:	f4 20       	and	r15, r4
    4684:	03 21       	and	r16, r3
    4686:	12 21       	and	r17, r2
    4688:	ca 52       	subi	r28, 0x2A	; 42
    468a:	df 4f       	sbci	r29, 0xFF	; 255
    468c:	e8 81       	ld	r30, Y
    468e:	c6 5d       	subi	r28, 0xD6	; 214
    4690:	d0 40       	sbci	r29, 0x00	; 0
    4692:	c1 52       	subi	r28, 0x21	; 33
    4694:	df 4f       	sbci	r29, 0xFF	; 255
    4696:	b8 81       	ld	r27, Y
    4698:	cf 5d       	subi	r28, 0xDF	; 223
    469a:	d0 40       	sbci	r29, 0x00	; 0
    469c:	eb 23       	and	r30, r27
    469e:	c9 52       	subi	r28, 0x29	; 41
    46a0:	df 4f       	sbci	r29, 0xFF	; 255
    46a2:	28 80       	ld	r2, Y
    46a4:	c7 5d       	subi	r28, 0xD7	; 215
    46a6:	d0 40       	sbci	r29, 0x00	; 0
    46a8:	c0 52       	subi	r28, 0x20	; 32
    46aa:	df 4f       	sbci	r29, 0xFF	; 255
    46ac:	b8 81       	ld	r27, Y
    46ae:	c0 5e       	subi	r28, 0xE0	; 224
    46b0:	d0 40       	sbci	r29, 0x00	; 0
    46b2:	2b 22       	and	r2, r27
    46b4:	c8 52       	subi	r28, 0x28	; 40
    46b6:	df 4f       	sbci	r29, 0xFF	; 255
    46b8:	38 80       	ld	r3, Y
    46ba:	c8 5d       	subi	r28, 0xD8	; 216
    46bc:	d0 40       	sbci	r29, 0x00	; 0
    46be:	cf 51       	subi	r28, 0x1F	; 31
    46c0:	df 4f       	sbci	r29, 0xFF	; 255
    46c2:	b8 81       	ld	r27, Y
    46c4:	c1 5e       	subi	r28, 0xE1	; 225
    46c6:	d0 40       	sbci	r29, 0x00	; 0
    46c8:	3b 22       	and	r3, r27
    46ca:	c7 52       	subi	r28, 0x27	; 39
    46cc:	df 4f       	sbci	r29, 0xFF	; 255
    46ce:	48 80       	ld	r4, Y
    46d0:	c9 5d       	subi	r28, 0xD9	; 217
    46d2:	d0 40       	sbci	r29, 0x00	; 0
    46d4:	ce 51       	subi	r28, 0x1E	; 30
    46d6:	df 4f       	sbci	r29, 0xFF	; 255
    46d8:	b8 81       	ld	r27, Y
    46da:	c2 5e       	subi	r28, 0xE2	; 226
    46dc:	d0 40       	sbci	r29, 0x00	; 0
    46de:	4b 22       	and	r4, r27
    46e0:	c6 52       	subi	r28, 0x26	; 38
    46e2:	df 4f       	sbci	r29, 0xFF	; 255
    46e4:	58 80       	ld	r5, Y
    46e6:	ca 5d       	subi	r28, 0xDA	; 218
    46e8:	d0 40       	sbci	r29, 0x00	; 0
    46ea:	cd 51       	subi	r28, 0x1D	; 29
    46ec:	df 4f       	sbci	r29, 0xFF	; 255
    46ee:	b8 81       	ld	r27, Y
    46f0:	c3 5e       	subi	r28, 0xE3	; 227
    46f2:	d0 40       	sbci	r29, 0x00	; 0
    46f4:	5b 22       	and	r5, r27
    46f6:	c3 52       	subi	r28, 0x23	; 35
    46f8:	df 4f       	sbci	r29, 0xFF	; 255
    46fa:	68 80       	ld	r6, Y
    46fc:	cd 5d       	subi	r28, 0xDD	; 221
    46fe:	d0 40       	sbci	r29, 0x00	; 0
    4700:	cc 51       	subi	r28, 0x1C	; 28
    4702:	df 4f       	sbci	r29, 0xFF	; 255
    4704:	b8 81       	ld	r27, Y
    4706:	c4 5e       	subi	r28, 0xE4	; 228
    4708:	d0 40       	sbci	r29, 0x00	; 0
    470a:	6b 22       	and	r6, r27
    470c:	c2 52       	subi	r28, 0x22	; 34
    470e:	df 4f       	sbci	r29, 0xFF	; 255
    4710:	78 80       	ld	r7, Y
    4712:	ce 5d       	subi	r28, 0xDE	; 222
    4714:	d0 40       	sbci	r29, 0x00	; 0
    4716:	cb 51       	subi	r28, 0x1B	; 27
    4718:	df 4f       	sbci	r29, 0xFF	; 255
    471a:	b8 81       	ld	r27, Y
    471c:	c5 5e       	subi	r28, 0xE5	; 229
    471e:	d0 40       	sbci	r29, 0x00	; 0
    4720:	7b 22       	and	r7, r27
    4722:	b8 2d       	mov	r27, r8
    4724:	b9 21       	and	r27, r9
    4726:	ae 26       	eor	r10, r30
    4728:	b2 24       	eor	r11, r2
    472a:	c3 24       	eor	r12, r3
    472c:	d4 24       	eor	r13, r4
    472e:	e5 24       	eor	r14, r5
    4730:	f6 24       	eor	r15, r6
    4732:	07 25       	eor	r16, r7
    4734:	1b 27       	eor	r17, r27
    4736:	8a 27       	eor	r24, r26
    4738:	9f 27       	eor	r25, r31
    473a:	c9 d7       	rcall	.+3986   	; 0x56ce <__adddi3>
    473c:	c5 53       	subi	r28, 0x35	; 53
    473e:	df 4f       	sbci	r29, 0xFF	; 255
    4740:	a8 80       	ld	r10, Y
    4742:	cb 5c       	subi	r28, 0xCB	; 203
    4744:	d0 40       	sbci	r29, 0x00	; 0
    4746:	c4 53       	subi	r28, 0x34	; 52
    4748:	df 4f       	sbci	r29, 0xFF	; 255
    474a:	b8 80       	ld	r11, Y
    474c:	cc 5c       	subi	r28, 0xCC	; 204
    474e:	d0 40       	sbci	r29, 0x00	; 0
    4750:	c3 53       	subi	r28, 0x33	; 51
    4752:	df 4f       	sbci	r29, 0xFF	; 255
    4754:	c8 80       	ld	r12, Y
    4756:	cd 5c       	subi	r28, 0xCD	; 205
    4758:	d0 40       	sbci	r29, 0x00	; 0
    475a:	c2 53       	subi	r28, 0x32	; 50
    475c:	df 4f       	sbci	r29, 0xFF	; 255
    475e:	d8 80       	ld	r13, Y
    4760:	ce 5c       	subi	r28, 0xCE	; 206
    4762:	d0 40       	sbci	r29, 0x00	; 0
    4764:	c1 53       	subi	r28, 0x31	; 49
    4766:	df 4f       	sbci	r29, 0xFF	; 255
    4768:	e8 80       	ld	r14, Y
    476a:	cf 5c       	subi	r28, 0xCF	; 207
    476c:	d0 40       	sbci	r29, 0x00	; 0
    476e:	cd 52       	subi	r28, 0x2D	; 45
    4770:	df 4f       	sbci	r29, 0xFF	; 255
    4772:	f8 80       	ld	r15, Y
    4774:	c3 5d       	subi	r28, 0xD3	; 211
    4776:	d0 40       	sbci	r29, 0x00	; 0
    4778:	cc 52       	subi	r28, 0x2C	; 44
    477a:	df 4f       	sbci	r29, 0xFF	; 255
    477c:	08 81       	ld	r16, Y
    477e:	c4 5d       	subi	r28, 0xD4	; 212
    4780:	d0 40       	sbci	r29, 0x00	; 0
    4782:	cb 52       	subi	r28, 0x2B	; 43
    4784:	df 4f       	sbci	r29, 0xFF	; 255
    4786:	18 81       	ld	r17, Y
    4788:	c5 5d       	subi	r28, 0xD5	; 213
    478a:	d0 40       	sbci	r29, 0x00	; 0
    478c:	a0 d7       	rcall	.+3904   	; 0x56ce <__adddi3>
    478e:	cf 57       	subi	r28, 0x7F	; 127
    4790:	df 4f       	sbci	r29, 0xFF	; 255
    4792:	28 83       	st	Y, r18
    4794:	c1 58       	subi	r28, 0x81	; 129
    4796:	d0 40       	sbci	r29, 0x00	; 0
    4798:	ce 57       	subi	r28, 0x7E	; 126
    479a:	df 4f       	sbci	r29, 0xFF	; 255
    479c:	38 83       	st	Y, r19
    479e:	c2 58       	subi	r28, 0x82	; 130
    47a0:	d0 40       	sbci	r29, 0x00	; 0
    47a2:	cd 57       	subi	r28, 0x7D	; 125
    47a4:	df 4f       	sbci	r29, 0xFF	; 255
    47a6:	48 83       	st	Y, r20
    47a8:	c3 58       	subi	r28, 0x83	; 131
    47aa:	d0 40       	sbci	r29, 0x00	; 0
    47ac:	cc 57       	subi	r28, 0x7C	; 124
    47ae:	df 4f       	sbci	r29, 0xFF	; 255
    47b0:	58 83       	st	Y, r21
    47b2:	c4 58       	subi	r28, 0x84	; 132
    47b4:	d0 40       	sbci	r29, 0x00	; 0
    47b6:	cb 57       	subi	r28, 0x7B	; 123
    47b8:	df 4f       	sbci	r29, 0xFF	; 255
    47ba:	68 83       	st	Y, r22
    47bc:	c5 58       	subi	r28, 0x85	; 133
    47be:	d0 40       	sbci	r29, 0x00	; 0
    47c0:	ca 57       	subi	r28, 0x7A	; 122
    47c2:	df 4f       	sbci	r29, 0xFF	; 255
    47c4:	78 83       	st	Y, r23
    47c6:	c6 58       	subi	r28, 0x86	; 134
    47c8:	d0 40       	sbci	r29, 0x00	; 0
    47ca:	c9 57       	subi	r28, 0x79	; 121
    47cc:	df 4f       	sbci	r29, 0xFF	; 255
    47ce:	88 83       	st	Y, r24
    47d0:	c7 58       	subi	r28, 0x87	; 135
    47d2:	d0 40       	sbci	r29, 0x00	; 0
    47d4:	c8 57       	subi	r28, 0x78	; 120
    47d6:	df 4f       	sbci	r29, 0xFF	; 255
    47d8:	98 83       	st	Y, r25
    47da:	c8 58       	subi	r28, 0x88	; 136
    47dc:	d0 40       	sbci	r29, 0x00	; 0
		a[4] += t1;
    47de:	2a 2d       	mov	r18, r10
    47e0:	3b 2d       	mov	r19, r11
    47e2:	4c 2d       	mov	r20, r12
    47e4:	5d 2d       	mov	r21, r13
    47e6:	6e 2d       	mov	r22, r14
    47e8:	7f 2d       	mov	r23, r15
    47ea:	80 2f       	mov	r24, r16
    47ec:	91 2f       	mov	r25, r17
    47ee:	cf 55       	subi	r28, 0x5F	; 95
    47f0:	df 4f       	sbci	r29, 0xFF	; 255
    47f2:	a8 80       	ld	r10, Y
    47f4:	c1 5a       	subi	r28, 0xA1	; 161
    47f6:	d0 40       	sbci	r29, 0x00	; 0
    47f8:	ce 55       	subi	r28, 0x5E	; 94
    47fa:	df 4f       	sbci	r29, 0xFF	; 255
    47fc:	b8 80       	ld	r11, Y
    47fe:	c2 5a       	subi	r28, 0xA2	; 162
    4800:	d0 40       	sbci	r29, 0x00	; 0
    4802:	cd 55       	subi	r28, 0x5D	; 93
    4804:	df 4f       	sbci	r29, 0xFF	; 255
    4806:	c8 80       	ld	r12, Y
    4808:	c3 5a       	subi	r28, 0xA3	; 163
    480a:	d0 40       	sbci	r29, 0x00	; 0
    480c:	cc 55       	subi	r28, 0x5C	; 92
    480e:	df 4f       	sbci	r29, 0xFF	; 255
    4810:	d8 80       	ld	r13, Y
    4812:	c4 5a       	subi	r28, 0xA4	; 164
    4814:	d0 40       	sbci	r29, 0x00	; 0
    4816:	cb 55       	subi	r28, 0x5B	; 91
    4818:	df 4f       	sbci	r29, 0xFF	; 255
    481a:	e8 80       	ld	r14, Y
    481c:	c5 5a       	subi	r28, 0xA5	; 165
    481e:	d0 40       	sbci	r29, 0x00	; 0
    4820:	ca 55       	subi	r28, 0x5A	; 90
    4822:	df 4f       	sbci	r29, 0xFF	; 255
    4824:	f8 80       	ld	r15, Y
    4826:	c6 5a       	subi	r28, 0xA6	; 166
    4828:	d0 40       	sbci	r29, 0x00	; 0
    482a:	c9 55       	subi	r28, 0x59	; 89
    482c:	df 4f       	sbci	r29, 0xFF	; 255
    482e:	08 81       	ld	r16, Y
    4830:	c7 5a       	subi	r28, 0xA7	; 167
    4832:	d0 40       	sbci	r29, 0x00	; 0
    4834:	c8 55       	subi	r28, 0x58	; 88
    4836:	df 4f       	sbci	r29, 0xFF	; 255
    4838:	18 81       	ld	r17, Y
    483a:	c8 5a       	subi	r28, 0xA8	; 168
    483c:	d0 40       	sbci	r29, 0x00	; 0
    483e:	47 d7       	rcall	.+3726   	; 0x56ce <__adddi3>
    4840:	cf 55       	subi	r28, 0x5F	; 95
    4842:	df 4f       	sbci	r29, 0xFF	; 255
    4844:	28 83       	st	Y, r18
    4846:	c1 5a       	subi	r28, 0xA1	; 161
    4848:	d0 40       	sbci	r29, 0x00	; 0
    484a:	ce 55       	subi	r28, 0x5E	; 94
    484c:	df 4f       	sbci	r29, 0xFF	; 255
    484e:	38 83       	st	Y, r19
    4850:	c2 5a       	subi	r28, 0xA2	; 162
    4852:	d0 40       	sbci	r29, 0x00	; 0
    4854:	cd 55       	subi	r28, 0x5D	; 93
    4856:	df 4f       	sbci	r29, 0xFF	; 255
    4858:	48 83       	st	Y, r20
    485a:	c3 5a       	subi	r28, 0xA3	; 163
    485c:	d0 40       	sbci	r29, 0x00	; 0
    485e:	cc 55       	subi	r28, 0x5C	; 92
    4860:	df 4f       	sbci	r29, 0xFF	; 255
    4862:	58 83       	st	Y, r21
    4864:	c4 5a       	subi	r28, 0xA4	; 164
    4866:	d0 40       	sbci	r29, 0x00	; 0
    4868:	cb 55       	subi	r28, 0x5B	; 91
    486a:	df 4f       	sbci	r29, 0xFF	; 255
    486c:	68 83       	st	Y, r22
    486e:	c5 5a       	subi	r28, 0xA5	; 165
    4870:	d0 40       	sbci	r29, 0x00	; 0
    4872:	ca 55       	subi	r28, 0x5A	; 90
    4874:	df 4f       	sbci	r29, 0xFF	; 255
    4876:	78 83       	st	Y, r23
    4878:	c6 5a       	subi	r28, 0xA6	; 166
    487a:	d0 40       	sbci	r29, 0x00	; 0
    487c:	c9 55       	subi	r28, 0x59	; 89
    487e:	df 4f       	sbci	r29, 0xFF	; 255
    4880:	88 83       	st	Y, r24
    4882:	c7 5a       	subi	r28, 0xA7	; 167
    4884:	d0 40       	sbci	r29, 0x00	; 0
    4886:	c8 55       	subi	r28, 0x58	; 88
    4888:	df 4f       	sbci	r29, 0xFF	; 255
    488a:	98 83       	st	Y, r25
    488c:	c8 5a       	subi	r28, 0xA8	; 168
    488e:	d0 40       	sbci	r29, 0x00	; 0
	do{
		w[16-i] = change_endian64(*((const uint64_t*)block));
		block = (uint8_t*)block + 8;
	}while(--i);
	memcpy(a, ctx->h, 8*8);
	for(i=0; i<80; ++i){
    4890:	c0 53       	subi	r28, 0x30	; 48
    4892:	df 4f       	sbci	r29, 0xFF	; 255
    4894:	e8 81       	ld	r30, Y
    4896:	c0 5d       	subi	r28, 0xD0	; 208
    4898:	d0 40       	sbci	r29, 0x00	; 0
    489a:	ef 5f       	subi	r30, 0xFF	; 255
    489c:	c0 53       	subi	r28, 0x30	; 48
    489e:	df 4f       	sbci	r29, 0xFF	; 255
    48a0:	e8 83       	st	Y, r30
    48a2:	c0 5d       	subi	r28, 0xD0	; 208
    48a4:	d0 40       	sbci	r29, 0x00	; 0
    48a6:	c5 52       	subi	r28, 0x25	; 37
    48a8:	df 4f       	sbci	r29, 0xFF	; 255
    48aa:	88 81       	ld	r24, Y
    48ac:	99 81       	ldd	r25, Y+1	; 0x01
    48ae:	cb 5d       	subi	r28, 0xDB	; 219
    48b0:	d0 40       	sbci	r29, 0x00	; 0
    48b2:	08 96       	adiw	r24, 0x08	; 8
    48b4:	c5 52       	subi	r28, 0x25	; 37
    48b6:	df 4f       	sbci	r29, 0xFF	; 255
    48b8:	99 83       	std	Y+1, r25	; 0x01
    48ba:	88 83       	st	Y, r24
    48bc:	cb 5d       	subi	r28, 0xDB	; 219
    48be:	d0 40       	sbci	r29, 0x00	; 0
    48c0:	cf 52       	subi	r28, 0x2F	; 47
    48c2:	df 4f       	sbci	r29, 0xFF	; 255
    48c4:	a8 81       	ld	r26, Y
    48c6:	b9 81       	ldd	r27, Y+1	; 0x01
    48c8:	c1 5d       	subi	r28, 0xD1	; 209
    48ca:	d0 40       	sbci	r29, 0x00	; 0
    48cc:	18 96       	adiw	r26, 0x08	; 8
    48ce:	cf 52       	subi	r28, 0x2F	; 47
    48d0:	df 4f       	sbci	r29, 0xFF	; 255
    48d2:	b9 83       	std	Y+1, r27	; 0x01
    48d4:	a8 83       	st	Y, r26
    48d6:	c1 5d       	subi	r28, 0xD1	; 209
    48d8:	d0 40       	sbci	r29, 0x00	; 0
    48da:	e0 35       	cpi	r30, 0x50	; 80
    48dc:	09 f0       	breq	.+2      	; 0x48e0 <sha2_large_common_nextBlock+0xfe8>
    48de:	ee c8       	rjmp	.-3620   	; 0x3abc <sha2_large_common_nextBlock+0x1c4>
    48e0:	0f 2e       	mov	r0, r31
    48e2:	f7 e0       	ldi	r31, 0x07	; 7
    48e4:	9f 2e       	mov	r9, r31
    48e6:	f0 2d       	mov	r31, r0
		a[0] = t1 + t2;
		a[4] += t1;
	}
	i=7;
	do{
		ctx->h[i] += a[i];
    48e8:	79 2c       	mov	r7, r9
    48ea:	c7 51       	subi	r28, 0x17	; 23
    48ec:	df 4f       	sbci	r29, 0xFF	; 255
    48ee:	88 80       	ld	r8, Y
    48f0:	99 80       	ldd	r9, Y+1	; 0x01
    48f2:	c9 5e       	subi	r28, 0xE9	; 233
    48f4:	d0 40       	sbci	r29, 0x00	; 0
    48f6:	a7 2d       	mov	r26, r7
    48f8:	b0 e0       	ldi	r27, 0x00	; 0
    48fa:	aa 0f       	add	r26, r26
    48fc:	bb 1f       	adc	r27, r27
    48fe:	aa 0f       	add	r26, r26
    4900:	bb 1f       	adc	r27, r27
    4902:	aa 0f       	add	r26, r26
    4904:	bb 1f       	adc	r27, r27
    4906:	f4 01       	movw	r30, r8
    4908:	ea 0f       	add	r30, r26
    490a:	fb 1f       	adc	r31, r27
    490c:	81 e8       	ldi	r24, 0x81	; 129
    490e:	90 e0       	ldi	r25, 0x00	; 0
    4910:	8c 0f       	add	r24, r28
    4912:	9d 1f       	adc	r25, r29
    4914:	a8 0f       	add	r26, r24
    4916:	b9 1f       	adc	r27, r25
    4918:	20 81       	ld	r18, Z
    491a:	31 81       	ldd	r19, Z+1	; 0x01
    491c:	42 81       	ldd	r20, Z+2	; 0x02
    491e:	53 81       	ldd	r21, Z+3	; 0x03
    4920:	64 81       	ldd	r22, Z+4	; 0x04
    4922:	75 81       	ldd	r23, Z+5	; 0x05
    4924:	86 81       	ldd	r24, Z+6	; 0x06
    4926:	97 81       	ldd	r25, Z+7	; 0x07
    4928:	ac 90       	ld	r10, X
    492a:	11 96       	adiw	r26, 0x01	; 1
    492c:	bc 90       	ld	r11, X
    492e:	11 97       	sbiw	r26, 0x01	; 1
    4930:	12 96       	adiw	r26, 0x02	; 2
    4932:	cc 90       	ld	r12, X
    4934:	12 97       	sbiw	r26, 0x02	; 2
    4936:	13 96       	adiw	r26, 0x03	; 3
    4938:	dc 90       	ld	r13, X
    493a:	13 97       	sbiw	r26, 0x03	; 3
    493c:	14 96       	adiw	r26, 0x04	; 4
    493e:	ec 90       	ld	r14, X
    4940:	14 97       	sbiw	r26, 0x04	; 4
    4942:	15 96       	adiw	r26, 0x05	; 5
    4944:	fc 90       	ld	r15, X
    4946:	15 97       	sbiw	r26, 0x05	; 5
    4948:	16 96       	adiw	r26, 0x06	; 6
    494a:	0c 91       	ld	r16, X
    494c:	16 97       	sbiw	r26, 0x06	; 6
    494e:	17 96       	adiw	r26, 0x07	; 7
    4950:	1c 91       	ld	r17, X
    4952:	bd d6       	rcall	.+3450   	; 0x56ce <__adddi3>
    4954:	20 83       	st	Z, r18
    4956:	31 83       	std	Z+1, r19	; 0x01
    4958:	42 83       	std	Z+2, r20	; 0x02
    495a:	53 83       	std	Z+3, r21	; 0x03
    495c:	64 83       	std	Z+4, r22	; 0x04
    495e:	75 83       	std	Z+5, r23	; 0x05
    4960:	86 83       	std	Z+6, r24	; 0x06
    4962:	97 83       	std	Z+7, r25	; 0x07
	}while(i--);
    4964:	7a 94       	dec	r7
    4966:	9f ef       	ldi	r25, 0xFF	; 255
    4968:	79 12       	cpse	r7, r25
    496a:	c5 cf       	rjmp	.-118    	; 0x48f6 <sha2_large_common_nextBlock+0xffe>
	ctx->length += 1;
    496c:	c7 51       	subi	r28, 0x17	; 23
    496e:	df 4f       	sbci	r29, 0xFF	; 255
    4970:	e8 81       	ld	r30, Y
    4972:	f9 81       	ldd	r31, Y+1	; 0x01
    4974:	c9 5e       	subi	r28, 0xE9	; 233
    4976:	d0 40       	sbci	r29, 0x00	; 0
    4978:	e0 5c       	subi	r30, 0xC0	; 192
    497a:	ff 4f       	sbci	r31, 0xFF	; 255
    497c:	80 81       	ld	r24, Z
    497e:	91 81       	ldd	r25, Z+1	; 0x01
    4980:	a2 81       	ldd	r26, Z+2	; 0x02
    4982:	b3 81       	ldd	r27, Z+3	; 0x03
    4984:	01 96       	adiw	r24, 0x01	; 1
    4986:	a1 1d       	adc	r26, r1
    4988:	b1 1d       	adc	r27, r1
    498a:	80 83       	st	Z, r24
    498c:	91 83       	std	Z+1, r25	; 0x01
    498e:	a2 83       	std	Z+2, r26	; 0x02
    4990:	b3 83       	std	Z+3, r27	; 0x03
}
    4992:	c6 51       	subi	r28, 0x16	; 22
    4994:	df 4f       	sbci	r29, 0xFF	; 255
    4996:	0f b6       	in	r0, 0x3f	; 63
    4998:	f8 94       	cli
    499a:	de bf       	out	0x3e, r29	; 62
    499c:	0f be       	out	0x3f, r0	; 63
    499e:	cd bf       	out	0x3d, r28	; 61
    49a0:	df 91       	pop	r29
    49a2:	cf 91       	pop	r28
    49a4:	1f 91       	pop	r17
    49a6:	0f 91       	pop	r16
    49a8:	ff 90       	pop	r15
    49aa:	ef 90       	pop	r14
    49ac:	df 90       	pop	r13
    49ae:	cf 90       	pop	r12
    49b0:	bf 90       	pop	r11
    49b2:	af 90       	pop	r10
    49b4:	9f 90       	pop	r9
    49b6:	8f 90       	pop	r8
    49b8:	7f 90       	pop	r7
    49ba:	6f 90       	pop	r6
    49bc:	5f 90       	pop	r5
    49be:	4f 90       	pop	r4
    49c0:	3f 90       	pop	r3
    49c2:	2f 90       	pop	r2
    49c4:	08 95       	ret

000049c6 <sha2_large_common_lastBlock>:

void sha2_large_common_lastBlock(sha2_large_common_ctx_t *ctx, const void *block, uint16_t length_b){
    49c6:	2f 92       	push	r2
    49c8:	3f 92       	push	r3
    49ca:	4f 92       	push	r4
    49cc:	5f 92       	push	r5
    49ce:	6f 92       	push	r6
    49d0:	7f 92       	push	r7
    49d2:	8f 92       	push	r8
    49d4:	9f 92       	push	r9
    49d6:	af 92       	push	r10
    49d8:	bf 92       	push	r11
    49da:	cf 92       	push	r12
    49dc:	df 92       	push	r13
    49de:	ef 92       	push	r14
    49e0:	ff 92       	push	r15
    49e2:	0f 93       	push	r16
    49e4:	1f 93       	push	r17
    49e6:	cf 93       	push	r28
    49e8:	df 93       	push	r29
    49ea:	cd b7       	in	r28, 0x3d	; 61
    49ec:	de b7       	in	r29, 0x3e	; 62
    49ee:	cc 58       	subi	r28, 0x8C	; 140
    49f0:	d1 09       	sbc	r29, r1
    49f2:	0f b6       	in	r0, 0x3f	; 63
    49f4:	f8 94       	cli
    49f6:	de bf       	out	0x3e, r29	; 62
    49f8:	0f be       	out	0x3f, r0	; 63
    49fa:	cd bf       	out	0x3d, r28	; 61
    49fc:	cf 57       	subi	r28, 0x7F	; 127
    49fe:	df 4f       	sbci	r29, 0xFF	; 255
    4a00:	99 83       	std	Y+1, r25	; 0x01
    4a02:	88 83       	st	Y, r24
    4a04:	c1 58       	subi	r28, 0x81	; 129
    4a06:	d0 40       	sbci	r29, 0x00	; 0
    4a08:	c5 57       	subi	r28, 0x75	; 117
    4a0a:	df 4f       	sbci	r29, 0xFF	; 255
    4a0c:	79 83       	std	Y+1, r23	; 0x01
    4a0e:	68 83       	st	Y, r22
    4a10:	cb 58       	subi	r28, 0x8B	; 139
    4a12:	d0 40       	sbci	r29, 0x00	; 0
    4a14:	4a 01       	movw	r8, r20
	while(length_b >= 1024){
    4a16:	41 15       	cp	r20, r1
    4a18:	24 e0       	ldi	r18, 0x04	; 4
    4a1a:	52 07       	cpc	r21, r18
    4a1c:	78 f1       	brcs	.+94     	; 0x4a7c <sha2_large_common_lastBlock+0xb6>
    4a1e:	7a 01       	movw	r14, r20
    4a20:	8b 01       	movw	r16, r22
		sha2_large_common_nextBlock(ctx, block);
    4a22:	b8 01       	movw	r22, r16
    4a24:	cf 57       	subi	r28, 0x7F	; 127
    4a26:	df 4f       	sbci	r29, 0xFF	; 255
    4a28:	88 81       	ld	r24, Y
    4a2a:	99 81       	ldd	r25, Y+1	; 0x01
    4a2c:	c1 58       	subi	r28, 0x81	; 129
    4a2e:	d0 40       	sbci	r29, 0x00	; 0
    4a30:	0e 94 7c 1c 	call	0x38f8	; 0x38f8 <sha2_large_common_nextBlock>
		block = (uint8_t*)block + 1024/8;
    4a34:	00 58       	subi	r16, 0x80	; 128
    4a36:	1f 4f       	sbci	r17, 0xFF	; 255
		length_b -= 1024;
    4a38:	34 e0       	ldi	r19, 0x04	; 4
    4a3a:	f3 1a       	sub	r15, r19
	}while(i--);
	ctx->length += 1;
}

void sha2_large_common_lastBlock(sha2_large_common_ctx_t *ctx, const void *block, uint16_t length_b){
	while(length_b >= 1024){
    4a3c:	e1 14       	cp	r14, r1
    4a3e:	84 e0       	ldi	r24, 0x04	; 4
    4a40:	f8 06       	cpc	r15, r24
    4a42:	78 f7       	brcc	.-34     	; 0x4a22 <sha2_large_common_lastBlock+0x5c>
    4a44:	c4 01       	movw	r24, r8
    4a46:	94 50       	subi	r25, 0x04	; 4
    4a48:	89 2f       	mov	r24, r25
    4a4a:	99 27       	eor	r25, r25
    4a4c:	86 95       	lsr	r24
    4a4e:	86 95       	lsr	r24
    4a50:	01 96       	adiw	r24, 0x01	; 1
    4a52:	96 95       	lsr	r25
    4a54:	98 2f       	mov	r25, r24
    4a56:	88 27       	eor	r24, r24
    4a58:	97 95       	ror	r25
    4a5a:	87 95       	ror	r24
    4a5c:	c5 57       	subi	r28, 0x75	; 117
    4a5e:	df 4f       	sbci	r29, 0xFF	; 255
    4a60:	e8 81       	ld	r30, Y
    4a62:	f9 81       	ldd	r31, Y+1	; 0x01
    4a64:	cb 58       	subi	r28, 0x8B	; 139
    4a66:	d0 40       	sbci	r29, 0x00	; 0
    4a68:	e8 0f       	add	r30, r24
    4a6a:	f9 1f       	adc	r31, r25
    4a6c:	c5 57       	subi	r28, 0x75	; 117
    4a6e:	df 4f       	sbci	r29, 0xFF	; 255
    4a70:	f9 83       	std	Y+1, r31	; 0x01
    4a72:	e8 83       	st	Y, r30
    4a74:	cb 58       	subi	r28, 0x8B	; 139
    4a76:	d0 40       	sbci	r29, 0x00	; 0
    4a78:	f3 e0       	ldi	r31, 0x03	; 3
    4a7a:	9f 22       	and	r9, r31
		block = (uint8_t*)block + 1024/8;
		length_b -= 1024;
	}
	uint8_t buffer[1024/8];
	uint64_t len;
	len = ((uint64_t)ctx->length)*1024LL + length_b;
    4a7c:	cf 57       	subi	r28, 0x7F	; 127
    4a7e:	df 4f       	sbci	r29, 0xFF	; 255
    4a80:	e8 81       	ld	r30, Y
    4a82:	f9 81       	ldd	r31, Y+1	; 0x01
    4a84:	c1 58       	subi	r28, 0x81	; 129
    4a86:	d0 40       	sbci	r29, 0x00	; 0
    4a88:	e0 5c       	subi	r30, 0xC0	; 192
    4a8a:	ff 4f       	sbci	r31, 0xFF	; 255
    4a8c:	80 81       	ld	r24, Z
    4a8e:	91 81       	ldd	r25, Z+1	; 0x01
    4a90:	a2 81       	ldd	r26, Z+2	; 0x02
    4a92:	b3 81       	ldd	r27, Z+3	; 0x03
    4a94:	5c 01       	movw	r10, r24
    4a96:	6d 01       	movw	r12, r26
    4a98:	28 2f       	mov	r18, r24
    4a9a:	3b 2d       	mov	r19, r11
    4a9c:	4c 2d       	mov	r20, r12
    4a9e:	5d 2d       	mov	r21, r13
    4aa0:	60 e0       	ldi	r22, 0x00	; 0
    4aa2:	70 e0       	ldi	r23, 0x00	; 0
    4aa4:	80 e0       	ldi	r24, 0x00	; 0
    4aa6:	90 e0       	ldi	r25, 0x00	; 0
    4aa8:	0a e0       	ldi	r16, 0x0A	; 10
    4aaa:	bf d5       	rcall	.+2942   	; 0x562a <__ashldi3>
    4aac:	54 01       	movw	r10, r8
    4aae:	c1 2c       	mov	r12, r1
    4ab0:	d1 2c       	mov	r13, r1
    4ab2:	e1 2c       	mov	r14, r1
    4ab4:	f1 2c       	mov	r15, r1
    4ab6:	87 01       	movw	r16, r14
    4ab8:	cd 57       	subi	r28, 0x7D	; 125
    4aba:	df 4f       	sbci	r29, 0xFF	; 255
    4abc:	88 82       	st	Y, r8
    4abe:	c3 58       	subi	r28, 0x83	; 131
    4ac0:	d0 40       	sbci	r29, 0x00	; 0
    4ac2:	cc 57       	subi	r28, 0x7C	; 124
    4ac4:	df 4f       	sbci	r29, 0xFF	; 255
    4ac6:	b8 82       	st	Y, r11
    4ac8:	c4 58       	subi	r28, 0x84	; 132
    4aca:	d0 40       	sbci	r29, 0x00	; 0
    4acc:	cb 57       	subi	r28, 0x7B	; 123
    4ace:	df 4f       	sbci	r29, 0xFF	; 255
    4ad0:	c8 82       	st	Y, r12
    4ad2:	c5 58       	subi	r28, 0x85	; 133
    4ad4:	d0 40       	sbci	r29, 0x00	; 0
    4ad6:	ca 57       	subi	r28, 0x7A	; 122
    4ad8:	df 4f       	sbci	r29, 0xFF	; 255
    4ada:	d8 82       	st	Y, r13
    4adc:	c6 58       	subi	r28, 0x86	; 134
    4ade:	d0 40       	sbci	r29, 0x00	; 0
    4ae0:	c9 57       	subi	r28, 0x79	; 121
    4ae2:	df 4f       	sbci	r29, 0xFF	; 255
    4ae4:	e8 82       	st	Y, r14
    4ae6:	c7 58       	subi	r28, 0x87	; 135
    4ae8:	d0 40       	sbci	r29, 0x00	; 0
    4aea:	c8 57       	subi	r28, 0x78	; 120
    4aec:	df 4f       	sbci	r29, 0xFF	; 255
    4aee:	f8 82       	st	Y, r15
    4af0:	c8 58       	subi	r28, 0x88	; 136
    4af2:	d0 40       	sbci	r29, 0x00	; 0
    4af4:	c7 57       	subi	r28, 0x77	; 119
    4af6:	df 4f       	sbci	r29, 0xFF	; 255
    4af8:	08 83       	st	Y, r16
    4afa:	c9 58       	subi	r28, 0x89	; 137
    4afc:	d0 40       	sbci	r29, 0x00	; 0
    4afe:	c6 57       	subi	r28, 0x76	; 118
    4b00:	df 4f       	sbci	r29, 0xFF	; 255
    4b02:	18 83       	st	Y, r17
    4b04:	ca 58       	subi	r28, 0x8A	; 138
    4b06:	d0 40       	sbci	r29, 0x00	; 0
    4b08:	c1 2c       	mov	r12, r1
    4b0a:	d1 2c       	mov	r13, r1
    4b0c:	e1 2c       	mov	r14, r1
    4b0e:	f1 2c       	mov	r15, r1
    4b10:	00 e0       	ldi	r16, 0x00	; 0
    4b12:	10 e0       	ldi	r17, 0x00	; 0
    4b14:	dc d5       	rcall	.+3000   	; 0x56ce <__adddi3>
    4b16:	e2 2f       	mov	r30, r18
    4b18:	a3 2e       	mov	r10, r19
    4b1a:	b4 2e       	mov	r11, r20
    4b1c:	b5 2f       	mov	r27, r21
    4b1e:	a6 2f       	mov	r26, r22
    4b20:	f7 2f       	mov	r31, r23
    4b22:	28 2e       	mov	r2, r24
    4b24:	39 2e       	mov	r3, r25
    4b26:	68 94       	set
    4b28:	44 24       	eor	r4, r4
    4b2a:	43 f8       	bld	r4, 3
};


static const
uint64_t change_endian64(uint64_t x){
	uint64_t r=0;
    4b2c:	71 2c       	mov	r7, r1
    4b2e:	51 2c       	mov	r5, r1
    4b30:	61 2c       	mov	r6, r1
	uint8_t i=8;
	do{
		r <<= 8;
    4b32:	27 2d       	mov	r18, r7
    4b34:	3c 2d       	mov	r19, r12
    4b36:	4d 2d       	mov	r20, r13
    4b38:	5e 2d       	mov	r21, r14
    4b3a:	6f 2d       	mov	r22, r15
    4b3c:	71 2f       	mov	r23, r17
    4b3e:	85 2d       	mov	r24, r5
    4b40:	96 2d       	mov	r25, r6
    4b42:	08 e0       	ldi	r16, 0x08	; 8
    4b44:	72 d5       	rcall	.+2788   	; 0x562a <__ashldi3>
		r |= 0xff&x;
    4b46:	7e 2e       	mov	r7, r30
    4b48:	72 2a       	or	r7, r18
    4b4a:	c3 2e       	mov	r12, r19
    4b4c:	d4 2e       	mov	r13, r20
    4b4e:	e5 2e       	mov	r14, r21
    4b50:	f6 2e       	mov	r15, r22
    4b52:	17 2f       	mov	r17, r23
    4b54:	58 2e       	mov	r5, r24
    4b56:	69 2e       	mov	r6, r25
		x >>=8;
    4b58:	2e 2f       	mov	r18, r30
    4b5a:	3a 2d       	mov	r19, r10
    4b5c:	4b 2d       	mov	r20, r11
    4b5e:	5b 2f       	mov	r21, r27
    4b60:	6a 2f       	mov	r22, r26
    4b62:	7f 2f       	mov	r23, r31
    4b64:	82 2d       	mov	r24, r2
    4b66:	93 2d       	mov	r25, r3
    4b68:	7b d5       	rcall	.+2806   	; 0x5660 <__lshrdi3>
    4b6a:	e2 2f       	mov	r30, r18
    4b6c:	a3 2e       	mov	r10, r19
    4b6e:	b4 2e       	mov	r11, r20
    4b70:	b5 2f       	mov	r27, r21
    4b72:	a6 2f       	mov	r26, r22
    4b74:	f7 2f       	mov	r31, r23
    4b76:	28 2e       	mov	r2, r24
    4b78:	39 2e       	mov	r3, r25
    4b7a:	4a 94       	dec	r4
	}while(--i);
    4b7c:	41 10       	cpse	r4, r1
    4b7e:	d9 cf       	rjmp	.-78     	; 0x4b32 <sha2_large_common_lastBlock+0x16c>
	}
	uint8_t buffer[1024/8];
	uint64_t len;
	len = ((uint64_t)ctx->length)*1024LL + length_b;
	len = change_endian64(len);
	memset(buffer, 0, 1024/8);
    4b80:	9e 01       	movw	r18, r28
    4b82:	2f 5f       	subi	r18, 0xFF	; 255
    4b84:	3f 4f       	sbci	r19, 0xFF	; 255
    4b86:	59 01       	movw	r10, r18
    4b88:	80 e8       	ldi	r24, 0x80	; 128
    4b8a:	f9 01       	movw	r30, r18
    4b8c:	11 92       	st	Z+, r1
    4b8e:	8a 95       	dec	r24
    4b90:	e9 f7       	brne	.-6      	; 0x4b8c <sha2_large_common_lastBlock+0x1c6>
	memcpy(buffer, block, (length_b+7)/8);
    4b92:	a4 01       	movw	r20, r8
    4b94:	49 5f       	subi	r20, 0xF9	; 249
    4b96:	5f 4f       	sbci	r21, 0xFF	; 255
    4b98:	56 95       	lsr	r21
    4b9a:	47 95       	ror	r20
    4b9c:	56 95       	lsr	r21
    4b9e:	47 95       	ror	r20
    4ba0:	56 95       	lsr	r21
    4ba2:	47 95       	ror	r20
    4ba4:	c5 57       	subi	r28, 0x75	; 117
    4ba6:	df 4f       	sbci	r29, 0xFF	; 255
    4ba8:	68 81       	ld	r22, Y
    4baa:	79 81       	ldd	r23, Y+1	; 0x01
    4bac:	cb 58       	subi	r28, 0x8B	; 139
    4bae:	d0 40       	sbci	r29, 0x00	; 0
    4bb0:	c9 01       	movw	r24, r18
    4bb2:	22 d7       	rcall	.+3652   	; 0x59f8 <memcpy>
	buffer[length_b/8] |= 0x80>>(length_b%8);
    4bb4:	f4 01       	movw	r30, r8
    4bb6:	f6 95       	lsr	r31
    4bb8:	e7 95       	ror	r30
    4bba:	f6 95       	lsr	r31
    4bbc:	e7 95       	ror	r30
    4bbe:	f6 95       	lsr	r31
    4bc0:	e7 95       	ror	r30
    4bc2:	ea 0d       	add	r30, r10
    4bc4:	fb 1d       	adc	r31, r11
    4bc6:	94 01       	movw	r18, r8
    4bc8:	27 70       	andi	r18, 0x07	; 7
    4bca:	33 27       	eor	r19, r19
    4bcc:	80 e8       	ldi	r24, 0x80	; 128
    4bce:	90 e0       	ldi	r25, 0x00	; 0
    4bd0:	02 c0       	rjmp	.+4      	; 0x4bd6 <sha2_large_common_lastBlock+0x210>
    4bd2:	95 95       	asr	r25
    4bd4:	87 95       	ror	r24
    4bd6:	2a 95       	dec	r18
    4bd8:	e2 f7       	brpl	.-8      	; 0x4bd2 <sha2_large_common_lastBlock+0x20c>
    4bda:	90 81       	ld	r25, Z
    4bdc:	89 2b       	or	r24, r25
    4bde:	80 83       	st	Z, r24
	if(length_b>1024-128-1){
    4be0:	f0 e8       	ldi	r31, 0x80	; 128
    4be2:	8f 16       	cp	r8, r31
    4be4:	f3 e0       	ldi	r31, 0x03	; 3
    4be6:	9f 06       	cpc	r9, r31
    4be8:	70 f0       	brcs	.+28     	; 0x4c06 <sha2_large_common_lastBlock+0x240>
		/* length goes into the next block */
		sha2_large_common_nextBlock(ctx, buffer);
    4bea:	b5 01       	movw	r22, r10
    4bec:	cf 57       	subi	r28, 0x7F	; 127
    4bee:	df 4f       	sbci	r29, 0xFF	; 255
    4bf0:	88 81       	ld	r24, Y
    4bf2:	99 81       	ldd	r25, Y+1	; 0x01
    4bf4:	c1 58       	subi	r28, 0x81	; 129
    4bf6:	d0 40       	sbci	r29, 0x00	; 0
    4bf8:	0e 94 7c 1c 	call	0x38f8	; 0x38f8 <sha2_large_common_nextBlock>
		memset(buffer, 0, 120);
    4bfc:	88 e7       	ldi	r24, 0x78	; 120
    4bfe:	f5 01       	movw	r30, r10
    4c00:	11 92       	st	Z+, r1
    4c02:	8a 95       	dec	r24
    4c04:	e9 f7       	brne	.-6      	; 0x4c00 <sha2_large_common_lastBlock+0x23a>
	}
	memcpy(&(buffer[128-8]), &len, 8);
    4c06:	ea 96       	adiw	r28, 0x3a	; 58
    4c08:	7f ae       	std	Y+63, r7	; 0x3f
    4c0a:	ea 97       	sbiw	r28, 0x3a	; 58
    4c0c:	eb 96       	adiw	r28, 0x3b	; 59
    4c0e:	cf ae       	std	Y+63, r12	; 0x3f
    4c10:	eb 97       	sbiw	r28, 0x3b	; 59
    4c12:	ec 96       	adiw	r28, 0x3c	; 60
    4c14:	df ae       	std	Y+63, r13	; 0x3f
    4c16:	ec 97       	sbiw	r28, 0x3c	; 60
    4c18:	ed 96       	adiw	r28, 0x3d	; 61
    4c1a:	ef ae       	std	Y+63, r14	; 0x3f
    4c1c:	ed 97       	sbiw	r28, 0x3d	; 61
    4c1e:	ee 96       	adiw	r28, 0x3e	; 62
    4c20:	ff ae       	std	Y+63, r15	; 0x3f
    4c22:	ee 97       	sbiw	r28, 0x3e	; 62
    4c24:	ef 96       	adiw	r28, 0x3f	; 63
    4c26:	1f af       	std	Y+63, r17	; 0x3f
    4c28:	ef 97       	sbiw	r28, 0x3f	; 63
    4c2a:	c1 58       	subi	r28, 0x81	; 129
    4c2c:	df 4f       	sbci	r29, 0xFF	; 255
    4c2e:	58 82       	st	Y, r5
    4c30:	cf 57       	subi	r28, 0x7F	; 127
    4c32:	d0 40       	sbci	r29, 0x00	; 0
    4c34:	c0 58       	subi	r28, 0x80	; 128
    4c36:	df 4f       	sbci	r29, 0xFF	; 255
    4c38:	68 82       	st	Y, r6
    4c3a:	c0 58       	subi	r28, 0x80	; 128
    4c3c:	d0 40       	sbci	r29, 0x00	; 0
	sha2_large_common_nextBlock(ctx, buffer);
    4c3e:	be 01       	movw	r22, r28
    4c40:	6f 5f       	subi	r22, 0xFF	; 255
    4c42:	7f 4f       	sbci	r23, 0xFF	; 255
    4c44:	cf 57       	subi	r28, 0x7F	; 127
    4c46:	df 4f       	sbci	r29, 0xFF	; 255
    4c48:	88 81       	ld	r24, Y
    4c4a:	99 81       	ldd	r25, Y+1	; 0x01
    4c4c:	c1 58       	subi	r28, 0x81	; 129
    4c4e:	d0 40       	sbci	r29, 0x00	; 0
    4c50:	0e 94 7c 1c 	call	0x38f8	; 0x38f8 <sha2_large_common_nextBlock>
}
    4c54:	c4 57       	subi	r28, 0x74	; 116
    4c56:	df 4f       	sbci	r29, 0xFF	; 255
    4c58:	0f b6       	in	r0, 0x3f	; 63
    4c5a:	f8 94       	cli
    4c5c:	de bf       	out	0x3e, r29	; 62
    4c5e:	0f be       	out	0x3f, r0	; 63
    4c60:	cd bf       	out	0x3d, r28	; 61
    4c62:	df 91       	pop	r29
    4c64:	cf 91       	pop	r28
    4c66:	1f 91       	pop	r17
    4c68:	0f 91       	pop	r16
    4c6a:	ff 90       	pop	r15
    4c6c:	ef 90       	pop	r14
    4c6e:	df 90       	pop	r13
    4c70:	cf 90       	pop	r12
    4c72:	bf 90       	pop	r11
    4c74:	af 90       	pop	r10
    4c76:	9f 90       	pop	r9
    4c78:	8f 90       	pop	r8
    4c7a:	7f 90       	pop	r7
    4c7c:	6f 90       	pop	r6
    4c7e:	5f 90       	pop	r5
    4c80:	4f 90       	pop	r4
    4c82:	3f 90       	pop	r3
    4c84:	2f 90       	pop	r2
    4c86:	08 95       	ret

00004c88 <sha2_small_common_nextBlock>:


/**
 * block must be, 512, Bit = 64, Byte, long !!!
 */
void sha2_small_common_nextBlock (sha2_small_common_ctx_t *state, const void *block){
    4c88:	2f 92       	push	r2
    4c8a:	3f 92       	push	r3
    4c8c:	4f 92       	push	r4
    4c8e:	5f 92       	push	r5
    4c90:	6f 92       	push	r6
    4c92:	7f 92       	push	r7
    4c94:	8f 92       	push	r8
    4c96:	9f 92       	push	r9
    4c98:	af 92       	push	r10
    4c9a:	bf 92       	push	r11
    4c9c:	cf 92       	push	r12
    4c9e:	df 92       	push	r13
    4ca0:	ef 92       	push	r14
    4ca2:	ff 92       	push	r15
    4ca4:	0f 93       	push	r16
    4ca6:	1f 93       	push	r17
    4ca8:	cf 93       	push	r28
    4caa:	df 93       	push	r29
    4cac:	cd b7       	in	r28, 0x3d	; 61
    4cae:	de b7       	in	r29, 0x3e	; 62
    4cb0:	cb 56       	subi	r28, 0x6B	; 107
    4cb2:	d1 09       	sbc	r29, r1
    4cb4:	0f b6       	in	r0, 0x3f	; 63
    4cb6:	f8 94       	cli
    4cb8:	de bf       	out	0x3e, r29	; 62
    4cba:	0f be       	out	0x3f, r0	; 63
    4cbc:	cd bf       	out	0x3d, r28	; 61
    4cbe:	ac 96       	adiw	r28, 0x2c	; 44
    4cc0:	9f af       	std	Y+63, r25	; 0x3f
    4cc2:	8e af       	std	Y+62, r24	; 0x3e
    4cc4:	ac 97       	sbiw	r28, 0x2c	; 44
    4cc6:	9e 01       	movw	r18, r28
    4cc8:	2f 5f       	subi	r18, 0xFF	; 255
    4cca:	3f 4f       	sbci	r19, 0xFF	; 255
    4ccc:	a8 96       	adiw	r28, 0x28	; 40
    4cce:	3f af       	std	Y+63, r19	; 0x3f
    4cd0:	2e af       	std	Y+62, r18	; 0x3e
    4cd2:	a8 97       	sbiw	r28, 0x28	; 40
    4cd4:	20 5c       	subi	r18, 0xC0	; 192
    4cd6:	3f 4f       	sbci	r19, 0xFF	; 255
    4cd8:	a8 96       	adiw	r28, 0x28	; 40
    4cda:	ee ad       	ldd	r30, Y+62	; 0x3e
    4cdc:	ff ad       	ldd	r31, Y+63	; 0x3f
    4cde:	a8 97       	sbiw	r28, 0x28	; 40
    4ce0:	af 01       	movw	r20, r30
	uint32_t a[8],t1,t2;

	/* init w */
#if defined LITTLE_ENDIAN
	for (i=0; i<16; ++i){
		w[i]= change_endian32(((uint32_t*)block)[i]);
    4ce2:	fb 01       	movw	r30, r22
    4ce4:	81 91       	ld	r24, Z+
    4ce6:	91 91       	ld	r25, Z+
    4ce8:	a1 91       	ld	r26, Z+
    4cea:	b1 91       	ld	r27, Z+
    4cec:	bf 01       	movw	r22, r30
    4cee:	b8 2e       	mov	r11, r24
    4cf0:	aa 24       	eor	r10, r10
    4cf2:	99 24       	eor	r9, r9
    4cf4:	88 24       	eor	r8, r8
    4cf6:	cb 2e       	mov	r12, r27
    4cf8:	dd 24       	eor	r13, r13
    4cfa:	ee 24       	eor	r14, r14
    4cfc:	ff 24       	eor	r15, r15
    4cfe:	c8 28       	or	r12, r8
    4d00:	d9 28       	or	r13, r9
    4d02:	ea 28       	or	r14, r10
    4d04:	fb 28       	or	r15, r11
    4d06:	4c 01       	movw	r8, r24
    4d08:	5d 01       	movw	r10, r26
    4d0a:	88 24       	eor	r8, r8
    4d0c:	aa 24       	eor	r10, r10
    4d0e:	bb 24       	eor	r11, r11
    4d10:	ba 2c       	mov	r11, r10
    4d12:	a9 2c       	mov	r10, r9
    4d14:	98 2c       	mov	r9, r8
    4d16:	88 24       	eor	r8, r8
    4d18:	c8 28       	or	r12, r8
    4d1a:	d9 28       	or	r13, r9
    4d1c:	ea 28       	or	r14, r10
    4d1e:	fb 28       	or	r15, r11
    4d20:	88 27       	eor	r24, r24
    4d22:	99 27       	eor	r25, r25
    4d24:	bb 27       	eor	r27, r27
    4d26:	89 2f       	mov	r24, r25
    4d28:	9a 2f       	mov	r25, r26
    4d2a:	ab 2f       	mov	r26, r27
    4d2c:	bb 27       	eor	r27, r27
    4d2e:	8c 29       	or	r24, r12
    4d30:	9d 29       	or	r25, r13
    4d32:	ae 29       	or	r26, r14
    4d34:	bf 29       	or	r27, r15
    4d36:	fa 01       	movw	r30, r20
    4d38:	81 93       	st	Z+, r24
    4d3a:	91 93       	st	Z+, r25
    4d3c:	a1 93       	st	Z+, r26
    4d3e:	b1 93       	st	Z+, r27
    4d40:	af 01       	movw	r20, r30
	uint8_t  i;
	uint32_t a[8],t1,t2;

	/* init w */
#if defined LITTLE_ENDIAN
	for (i=0; i<16; ++i){
    4d42:	e2 17       	cp	r30, r18
    4d44:	f3 07       	cpc	r31, r19
    4d46:	69 f6       	brne	.-102    	; 0x4ce2 <sha2_small_common_nextBlock+0x5a>
	for (i=16; i<64; ++i){
		w[i] = SIGMA_b(w[i-2]) + w[i-7] + SIGMA_a(w[i-15]) + w[i-16];
	}
*/
/* init working variables */
	memcpy((void*)a,(void*)(state->h), 8*4);
    4d48:	80 e2       	ldi	r24, 0x20	; 32
    4d4a:	ac 96       	adiw	r28, 0x2c	; 44
    4d4c:	ee ad       	ldd	r30, Y+62	; 0x3e
    4d4e:	ff ad       	ldd	r31, Y+63	; 0x3f
    4d50:	ac 97       	sbiw	r28, 0x2c	; 44
    4d52:	de 01       	movw	r26, r28
    4d54:	af 5b       	subi	r26, 0xBF	; 191
    4d56:	bf 4f       	sbci	r27, 0xFF	; 255
    4d58:	01 90       	ld	r0, Z+
    4d5a:	0d 92       	st	X+, r0
    4d5c:	8a 95       	dec	r24
    4d5e:	e1 f7       	brne	.-8      	; 0x4d58 <sha2_small_common_nextBlock+0xd0>
    4d60:	0f 2e       	mov	r0, r31
    4d62:	f4 e3       	ldi	r31, 0x34	; 52
    4d64:	2f 2e       	mov	r2, r31
    4d66:	f3 e0       	ldi	r31, 0x03	; 3
    4d68:	3f 2e       	mov	r3, r31
    4d6a:	f0 2d       	mov	r31, r0

/* do the, fun stuff, */
	for (i=0; i<64; ++i){
    4d6c:	a6 96       	adiw	r28, 0x26	; 38
    4d6e:	1f ae       	std	Y+63, r1	; 0x3f
    4d70:	a6 97       	sbiw	r28, 0x26	; 38
			memmove(&(w[0]), &(w[1]), 15*4);
			w[15] = wx;
		}
		t1 = a[7] + SIGMA_1(a[4]) + CH(a[4],a[5],a[6]) + pgm_read_dword(&k[i]) + wx;
		t2 = SIGMA_0(a[0]) + MAJ(a[0],a[1],a[2]);
		memmove(&(a[1]), &(a[0]), 7*4); 	/* a[7]=a[6]; a[6]=a[5]; a[5]=a[4]; a[4]=a[3]; a[3]=a[2]; a[2]=a[1]; a[1]=a[0]; */
    4d72:	21 e4       	ldi	r18, 0x41	; 65
    4d74:	30 e0       	ldi	r19, 0x00	; 0
    4d76:	2c 0f       	add	r18, r28
    4d78:	3d 1f       	adc	r19, r29
    4d7a:	2c 5f       	subi	r18, 0xFC	; 252
    4d7c:	3f 4f       	sbci	r19, 0xFF	; 255
    4d7e:	aa 96       	adiw	r28, 0x2a	; 42
    4d80:	3f af       	std	Y+63, r19	; 0x3f
    4d82:	2e af       	std	Y+62, r18	; 0x3e
    4d84:	aa 97       	sbiw	r28, 0x2a	; 42
/* init working variables */
	memcpy((void*)a,(void*)(state->h), 8*4);

/* do the, fun stuff, */
	for (i=0; i<64; ++i){
		if(i<16){
    4d86:	a6 96       	adiw	r28, 0x26	; 38
    4d88:	3f ad       	ldd	r19, Y+63	; 0x3f
    4d8a:	a6 97       	sbiw	r28, 0x26	; 38
    4d8c:	30 31       	cpi	r19, 0x10	; 16
    4d8e:	48 f4       	brcc	.+18     	; 0x4da2 <sha2_small_common_nextBlock+0x11a>
			wx = w[i];
    4d90:	a8 96       	adiw	r28, 0x28	; 40
    4d92:	ae ad       	ldd	r26, Y+62	; 0x3e
    4d94:	bf ad       	ldd	r27, Y+63	; 0x3f
    4d96:	a8 97       	sbiw	r28, 0x28	; 40
    4d98:	cd 90       	ld	r12, X+
    4d9a:	dd 90       	ld	r13, X+
    4d9c:	ed 90       	ld	r14, X+
    4d9e:	fc 90       	ld	r15, X
    4da0:	b8 c0       	rjmp	.+368    	; 0x4f12 <sha2_small_common_nextBlock+0x28a>
		}else{
			wx = SIGMA_b(w[14]) + w[9] + SIGMA_a(w[1]) + w[0];
    4da2:	89 ad       	ldd	r24, Y+57	; 0x39
    4da4:	9a ad       	ldd	r25, Y+58	; 0x3a
    4da6:	ab ad       	ldd	r26, Y+59	; 0x3b
    4da8:	bc ad       	ldd	r27, Y+60	; 0x3c
    4daa:	8d 80       	ldd	r8, Y+5	; 0x05
    4dac:	9e 80       	ldd	r9, Y+6	; 0x06
    4dae:	af 80       	ldd	r10, Y+7	; 0x07
    4db0:	b8 84       	ldd	r11, Y+8	; 0x08
    4db2:	6c 01       	movw	r12, r24
    4db4:	7d 01       	movw	r14, r26
    4db6:	0b 2e       	mov	r0, r27
    4db8:	bd e0       	ldi	r27, 0x0D	; 13
    4dba:	cc 0c       	add	r12, r12
    4dbc:	dd 1c       	adc	r13, r13
    4dbe:	ee 1c       	adc	r14, r14
    4dc0:	ff 1c       	adc	r15, r15
    4dc2:	ba 95       	dec	r27
    4dc4:	d1 f7       	brne	.-12     	; 0x4dba <sha2_small_common_nextBlock+0x132>
    4dc6:	b0 2d       	mov	r27, r0
    4dc8:	ac 01       	movw	r20, r24
    4dca:	bd 01       	movw	r22, r26
    4dcc:	03 2e       	mov	r0, r19
    4dce:	33 e1       	ldi	r19, 0x13	; 19
    4dd0:	76 95       	lsr	r23
    4dd2:	67 95       	ror	r22
    4dd4:	57 95       	ror	r21
    4dd6:	47 95       	ror	r20
    4dd8:	3a 95       	dec	r19
    4dda:	d1 f7       	brne	.-12     	; 0x4dd0 <sha2_small_common_nextBlock+0x148>
    4ddc:	30 2d       	mov	r19, r0
    4dde:	97 01       	movw	r18, r14
    4de0:	86 01       	movw	r16, r12
    4de2:	04 2b       	or	r16, r20
    4de4:	15 2b       	or	r17, r21
    4de6:	26 2b       	or	r18, r22
    4de8:	37 2b       	or	r19, r23
    4dea:	6c 01       	movw	r12, r24
    4dec:	7d 01       	movw	r14, r26
    4dee:	0b 2e       	mov	r0, r27
    4df0:	bf e0       	ldi	r27, 0x0F	; 15
    4df2:	cc 0c       	add	r12, r12
    4df4:	dd 1c       	adc	r13, r13
    4df6:	ee 1c       	adc	r14, r14
    4df8:	ff 1c       	adc	r15, r15
    4dfa:	ba 95       	dec	r27
    4dfc:	d1 f7       	brne	.-12     	; 0x4df2 <sha2_small_common_nextBlock+0x16a>
    4dfe:	b0 2d       	mov	r27, r0
    4e00:	ac 01       	movw	r20, r24
    4e02:	bd 01       	movw	r22, r26
    4e04:	03 2e       	mov	r0, r19
    4e06:	31 e1       	ldi	r19, 0x11	; 17
    4e08:	76 95       	lsr	r23
    4e0a:	67 95       	ror	r22
    4e0c:	57 95       	ror	r21
    4e0e:	47 95       	ror	r20
    4e10:	3a 95       	dec	r19
    4e12:	d1 f7       	brne	.-12     	; 0x4e08 <sha2_small_common_nextBlock+0x180>
    4e14:	30 2d       	mov	r19, r0
    4e16:	4c 29       	or	r20, r12
    4e18:	5d 29       	or	r21, r13
    4e1a:	6e 29       	or	r22, r14
    4e1c:	7f 29       	or	r23, r15
    4e1e:	68 01       	movw	r12, r16
    4e20:	79 01       	movw	r14, r18
    4e22:	c4 26       	eor	r12, r20
    4e24:	d5 26       	eor	r13, r21
    4e26:	e6 26       	eor	r14, r22
    4e28:	f7 26       	eor	r15, r23
    4e2a:	07 2e       	mov	r0, r23
    4e2c:	7a e0       	ldi	r23, 0x0A	; 10
    4e2e:	b6 95       	lsr	r27
    4e30:	a7 95       	ror	r26
    4e32:	97 95       	ror	r25
    4e34:	87 95       	ror	r24
    4e36:	7a 95       	dec	r23
    4e38:	d1 f7       	brne	.-12     	; 0x4e2e <sha2_small_common_nextBlock+0x1a6>
    4e3a:	70 2d       	mov	r23, r0
    4e3c:	8c 25       	eor	r24, r12
    4e3e:	9d 25       	eor	r25, r13
    4e40:	ae 25       	eor	r26, r14
    4e42:	bf 25       	eor	r27, r15
    4e44:	cd a0       	ldd	r12, Y+37	; 0x25
    4e46:	de a0       	ldd	r13, Y+38	; 0x26
    4e48:	ef a0       	ldd	r14, Y+39	; 0x27
    4e4a:	f8 a4       	ldd	r15, Y+40	; 0x28
    4e4c:	49 81       	ldd	r20, Y+1	; 0x01
    4e4e:	5a 81       	ldd	r21, Y+2	; 0x02
    4e50:	6b 81       	ldd	r22, Y+3	; 0x03
    4e52:	7c 81       	ldd	r23, Y+4	; 0x04
    4e54:	c4 0e       	add	r12, r20
    4e56:	d5 1e       	adc	r13, r21
    4e58:	e6 1e       	adc	r14, r22
    4e5a:	f7 1e       	adc	r15, r23
    4e5c:	8c 0d       	add	r24, r12
    4e5e:	9d 1d       	adc	r25, r13
    4e60:	ae 1d       	adc	r26, r14
    4e62:	bf 1d       	adc	r27, r15
    4e64:	75 01       	movw	r14, r10
    4e66:	64 01       	movw	r12, r8
    4e68:	0b 2e       	mov	r0, r27
    4e6a:	be e0       	ldi	r27, 0x0E	; 14
    4e6c:	cc 0c       	add	r12, r12
    4e6e:	dd 1c       	adc	r13, r13
    4e70:	ee 1c       	adc	r14, r14
    4e72:	ff 1c       	adc	r15, r15
    4e74:	ba 95       	dec	r27
    4e76:	d1 f7       	brne	.-12     	; 0x4e6c <sha2_small_common_nextBlock+0x1e4>
    4e78:	b0 2d       	mov	r27, r0
    4e7a:	b5 01       	movw	r22, r10
    4e7c:	a4 01       	movw	r20, r8
    4e7e:	03 2e       	mov	r0, r19
    4e80:	32 e1       	ldi	r19, 0x12	; 18
    4e82:	76 95       	lsr	r23
    4e84:	67 95       	ror	r22
    4e86:	57 95       	ror	r21
    4e88:	47 95       	ror	r20
    4e8a:	3a 95       	dec	r19
    4e8c:	d1 f7       	brne	.-12     	; 0x4e82 <sha2_small_common_nextBlock+0x1fa>
    4e8e:	30 2d       	mov	r19, r0
    4e90:	c4 2a       	or	r12, r20
    4e92:	d5 2a       	or	r13, r21
    4e94:	e6 2a       	or	r14, r22
    4e96:	f7 2a       	or	r15, r23
    4e98:	b5 01       	movw	r22, r10
    4e9a:	a4 01       	movw	r20, r8
    4e9c:	68 94       	set
    4e9e:	16 f8       	bld	r1, 6
    4ea0:	76 95       	lsr	r23
    4ea2:	67 95       	ror	r22
    4ea4:	57 95       	ror	r21
    4ea6:	47 95       	ror	r20
    4ea8:	16 94       	lsr	r1
    4eaa:	d1 f7       	brne	.-12     	; 0x4ea0 <sha2_small_common_nextBlock+0x218>
    4eac:	95 01       	movw	r18, r10
    4eae:	84 01       	movw	r16, r8
    4eb0:	0f 2e       	mov	r0, r31
    4eb2:	f9 e1       	ldi	r31, 0x19	; 25
    4eb4:	00 0f       	add	r16, r16
    4eb6:	11 1f       	adc	r17, r17
    4eb8:	22 1f       	adc	r18, r18
    4eba:	33 1f       	adc	r19, r19
    4ebc:	fa 95       	dec	r31
    4ebe:	d1 f7       	brne	.-12     	; 0x4eb4 <sha2_small_common_nextBlock+0x22c>
    4ec0:	f0 2d       	mov	r31, r0
    4ec2:	40 2b       	or	r20, r16
    4ec4:	51 2b       	or	r21, r17
    4ec6:	62 2b       	or	r22, r18
    4ec8:	73 2b       	or	r23, r19
    4eca:	c4 26       	eor	r12, r20
    4ecc:	d5 26       	eor	r13, r21
    4ece:	e6 26       	eor	r14, r22
    4ed0:	f7 26       	eor	r15, r23
    4ed2:	68 94       	set
    4ed4:	12 f8       	bld	r1, 2
    4ed6:	b6 94       	lsr	r11
    4ed8:	a7 94       	ror	r10
    4eda:	97 94       	ror	r9
    4edc:	87 94       	ror	r8
    4ede:	16 94       	lsr	r1
    4ee0:	d1 f7       	brne	.-12     	; 0x4ed6 <sha2_small_common_nextBlock+0x24e>
    4ee2:	8c 24       	eor	r8, r12
    4ee4:	9d 24       	eor	r9, r13
    4ee6:	ae 24       	eor	r10, r14
    4ee8:	bf 24       	eor	r11, r15
    4eea:	6c 01       	movw	r12, r24
    4eec:	7d 01       	movw	r14, r26
    4eee:	c8 0c       	add	r12, r8
    4ef0:	d9 1c       	adc	r13, r9
    4ef2:	ea 1c       	adc	r14, r10
    4ef4:	fb 1c       	adc	r15, r11
			memmove(&(w[0]), &(w[1]), 15*4);
    4ef6:	4c e3       	ldi	r20, 0x3C	; 60
    4ef8:	50 e0       	ldi	r21, 0x00	; 0
    4efa:	be 01       	movw	r22, r28
    4efc:	6b 5f       	subi	r22, 0xFB	; 251
    4efe:	7f 4f       	sbci	r23, 0xFF	; 255
    4f00:	ce 01       	movw	r24, r28
    4f02:	01 96       	adiw	r24, 0x01	; 1
    4f04:	82 d5       	rcall	.+2820   	; 0x5a0a <memmove>
			w[15] = wx;
    4f06:	21 96       	adiw	r28, 0x01	; 1
    4f08:	cc ae       	std	Y+60, r12	; 0x3c
    4f0a:	dd ae       	std	Y+61, r13	; 0x3d
    4f0c:	ee ae       	std	Y+62, r14	; 0x3e
    4f0e:	ff ae       	std	Y+63, r15	; 0x3f
    4f10:	21 97       	sbiw	r28, 0x01	; 1
		}
		t1 = a[7] + SIGMA_1(a[4]) + CH(a[4],a[5],a[6]) + pgm_read_dword(&k[i]) + wx;
    4f12:	65 96       	adiw	r28, 0x15	; 21
    4f14:	8c ad       	ldd	r24, Y+60	; 0x3c
    4f16:	9d ad       	ldd	r25, Y+61	; 0x3d
    4f18:	ae ad       	ldd	r26, Y+62	; 0x3e
    4f1a:	bf ad       	ldd	r27, Y+63	; 0x3f
    4f1c:	65 97       	sbiw	r28, 0x15	; 21
    4f1e:	f1 01       	movw	r30, r2
    4f20:	25 91       	lpm	r18, Z+
    4f22:	35 91       	lpm	r19, Z+
    4f24:	45 91       	lpm	r20, Z+
    4f26:	54 91       	lpm	r21, Z
    4f28:	a5 96       	adiw	r28, 0x25	; 37
    4f2a:	2c af       	std	Y+60, r18	; 0x3c
    4f2c:	3d af       	std	Y+61, r19	; 0x3d
    4f2e:	4e af       	std	Y+62, r20	; 0x3e
    4f30:	5f af       	std	Y+63, r21	; 0x3f
    4f32:	a5 97       	sbiw	r28, 0x25	; 37
    4f34:	4c 01       	movw	r8, r24
    4f36:	5d 01       	movw	r10, r26
    4f38:	80 94       	com	r8
    4f3a:	90 94       	com	r9
    4f3c:	a0 94       	com	r10
    4f3e:	b0 94       	com	r11
    4f40:	6d 96       	adiw	r28, 0x1d	; 29
    4f42:	4c ad       	ldd	r20, Y+60	; 0x3c
    4f44:	5d ad       	ldd	r21, Y+61	; 0x3d
    4f46:	6e ad       	ldd	r22, Y+62	; 0x3e
    4f48:	7f ad       	ldd	r23, Y+63	; 0x3f
    4f4a:	6d 97       	sbiw	r28, 0x1d	; 29
    4f4c:	84 22       	and	r8, r20
    4f4e:	95 22       	and	r9, r21
    4f50:	a6 22       	and	r10, r22
    4f52:	b7 22       	and	r11, r23
    4f54:	69 96       	adiw	r28, 0x19	; 25
    4f56:	4c ad       	ldd	r20, Y+60	; 0x3c
    4f58:	5d ad       	ldd	r21, Y+61	; 0x3d
    4f5a:	6e ad       	ldd	r22, Y+62	; 0x3e
    4f5c:	7f ad       	ldd	r23, Y+63	; 0x3f
    4f5e:	69 97       	sbiw	r28, 0x19	; 25
    4f60:	8c 01       	movw	r16, r24
    4f62:	9d 01       	movw	r18, r26
    4f64:	04 23       	and	r16, r20
    4f66:	15 23       	and	r17, r21
    4f68:	26 23       	and	r18, r22
    4f6a:	37 23       	and	r19, r23
    4f6c:	b5 01       	movw	r22, r10
    4f6e:	a4 01       	movw	r20, r8
    4f70:	40 27       	eor	r20, r16
    4f72:	51 27       	eor	r21, r17
    4f74:	62 27       	eor	r22, r18
    4f76:	73 27       	eor	r23, r19
    4f78:	4c 01       	movw	r8, r24
    4f7a:	5d 01       	movw	r10, r26
    4f7c:	07 2e       	mov	r0, r23
    4f7e:	7b e0       	ldi	r23, 0x0B	; 11
    4f80:	b6 94       	lsr	r11
    4f82:	a7 94       	ror	r10
    4f84:	97 94       	ror	r9
    4f86:	87 94       	ror	r8
    4f88:	7a 95       	dec	r23
    4f8a:	d1 f7       	brne	.-12     	; 0x4f80 <sha2_small_common_nextBlock+0x2f8>
    4f8c:	70 2d       	mov	r23, r0
    4f8e:	8c 01       	movw	r16, r24
    4f90:	9d 01       	movw	r18, r26
    4f92:	0f 2e       	mov	r0, r31
    4f94:	f5 e1       	ldi	r31, 0x15	; 21
    4f96:	00 0f       	add	r16, r16
    4f98:	11 1f       	adc	r17, r17
    4f9a:	22 1f       	adc	r18, r18
    4f9c:	33 1f       	adc	r19, r19
    4f9e:	fa 95       	dec	r31
    4fa0:	d1 f7       	brne	.-12     	; 0x4f96 <sha2_small_common_nextBlock+0x30e>
    4fa2:	f0 2d       	mov	r31, r0
    4fa4:	80 2a       	or	r8, r16
    4fa6:	91 2a       	or	r9, r17
    4fa8:	a2 2a       	or	r10, r18
    4faa:	b3 2a       	or	r11, r19
    4fac:	2c 01       	movw	r4, r24
    4fae:	3d 01       	movw	r6, r26
    4fb0:	68 94       	set
    4fb2:	15 f8       	bld	r1, 5
    4fb4:	76 94       	lsr	r7
    4fb6:	67 94       	ror	r6
    4fb8:	57 94       	ror	r5
    4fba:	47 94       	ror	r4
    4fbc:	16 94       	lsr	r1
    4fbe:	d1 f7       	brne	.-12     	; 0x4fb4 <sha2_small_common_nextBlock+0x32c>
    4fc0:	8c 01       	movw	r16, r24
    4fc2:	9d 01       	movw	r18, r26
    4fc4:	0f 2e       	mov	r0, r31
    4fc6:	fa e1       	ldi	r31, 0x1A	; 26
    4fc8:	00 0f       	add	r16, r16
    4fca:	11 1f       	adc	r17, r17
    4fcc:	22 1f       	adc	r18, r18
    4fce:	33 1f       	adc	r19, r19
    4fd0:	fa 95       	dec	r31
    4fd2:	d1 f7       	brne	.-12     	; 0x4fc8 <sha2_small_common_nextBlock+0x340>
    4fd4:	f0 2d       	mov	r31, r0
    4fd6:	04 29       	or	r16, r4
    4fd8:	15 29       	or	r17, r5
    4fda:	26 29       	or	r18, r6
    4fdc:	37 29       	or	r19, r7
    4fde:	08 25       	eor	r16, r8
    4fe0:	19 25       	eor	r17, r9
    4fe2:	2a 25       	eor	r18, r10
    4fe4:	3b 25       	eor	r19, r11
    4fe6:	4c 01       	movw	r8, r24
    4fe8:	5d 01       	movw	r10, r26
    4fea:	88 0c       	add	r8, r8
    4fec:	99 1c       	adc	r9, r9
    4fee:	aa 1c       	adc	r10, r10
    4ff0:	bb 1c       	adc	r11, r11
    4ff2:	88 0c       	add	r8, r8
    4ff4:	99 1c       	adc	r9, r9
    4ff6:	aa 1c       	adc	r10, r10
    4ff8:	bb 1c       	adc	r11, r11
    4ffa:	88 0c       	add	r8, r8
    4ffc:	99 1c       	adc	r9, r9
    4ffe:	aa 1c       	adc	r10, r10
    5000:	bb 1c       	adc	r11, r11
    5002:	88 0c       	add	r8, r8
    5004:	99 1c       	adc	r9, r9
    5006:	aa 1c       	adc	r10, r10
    5008:	bb 1c       	adc	r11, r11
    500a:	88 0c       	add	r8, r8
    500c:	99 1c       	adc	r9, r9
    500e:	aa 1c       	adc	r10, r10
    5010:	bb 1c       	adc	r11, r11
    5012:	88 0c       	add	r8, r8
    5014:	99 1c       	adc	r9, r9
    5016:	aa 1c       	adc	r10, r10
    5018:	bb 1c       	adc	r11, r11
    501a:	88 0c       	add	r8, r8
    501c:	99 1c       	adc	r9, r9
    501e:	aa 1c       	adc	r10, r10
    5020:	bb 1c       	adc	r11, r11
    5022:	07 2e       	mov	r0, r23
    5024:	79 e1       	ldi	r23, 0x19	; 25
    5026:	b6 95       	lsr	r27
    5028:	a7 95       	ror	r26
    502a:	97 95       	ror	r25
    502c:	87 95       	ror	r24
    502e:	7a 95       	dec	r23
    5030:	d1 f7       	brne	.-12     	; 0x5026 <sha2_small_common_nextBlock+0x39e>
    5032:	70 2d       	mov	r23, r0
    5034:	88 29       	or	r24, r8
    5036:	99 29       	or	r25, r9
    5038:	aa 29       	or	r26, r10
    503a:	bb 29       	or	r27, r11
    503c:	08 27       	eor	r16, r24
    503e:	19 27       	eor	r17, r25
    5040:	2a 27       	eor	r18, r26
    5042:	3b 27       	eor	r19, r27
    5044:	40 0f       	add	r20, r16
    5046:	51 1f       	adc	r21, r17
    5048:	62 1f       	adc	r22, r18
    504a:	73 1f       	adc	r23, r19
    504c:	a1 96       	adiw	r28, 0x21	; 33
    504e:	0c ad       	ldd	r16, Y+60	; 0x3c
    5050:	1d ad       	ldd	r17, Y+61	; 0x3d
    5052:	2e ad       	ldd	r18, Y+62	; 0x3e
    5054:	3f ad       	ldd	r19, Y+63	; 0x3f
    5056:	a1 97       	sbiw	r28, 0x21	; 33
    5058:	40 0f       	add	r20, r16
    505a:	51 1f       	adc	r21, r17
    505c:	62 1f       	adc	r22, r18
    505e:	73 1f       	adc	r23, r19
    5060:	c4 0e       	add	r12, r20
    5062:	d5 1e       	adc	r13, r21
    5064:	e6 1e       	adc	r14, r22
    5066:	f7 1e       	adc	r15, r23
    5068:	a5 96       	adiw	r28, 0x25	; 37
    506a:	8c ad       	ldd	r24, Y+60	; 0x3c
    506c:	9d ad       	ldd	r25, Y+61	; 0x3d
    506e:	ae ad       	ldd	r26, Y+62	; 0x3e
    5070:	bf ad       	ldd	r27, Y+63	; 0x3f
    5072:	a5 97       	sbiw	r28, 0x25	; 37
    5074:	8c 0d       	add	r24, r12
    5076:	9d 1d       	adc	r25, r13
    5078:	ae 1d       	adc	r26, r14
    507a:	bf 1d       	adc	r27, r15
    507c:	a5 96       	adiw	r28, 0x25	; 37
    507e:	8c af       	std	Y+60, r24	; 0x3c
    5080:	9d af       	std	Y+61, r25	; 0x3d
    5082:	ae af       	std	Y+62, r26	; 0x3e
    5084:	bf af       	std	Y+63, r27	; 0x3f
    5086:	a5 97       	sbiw	r28, 0x25	; 37
		t2 = SIGMA_0(a[0]) + MAJ(a[0],a[1],a[2]);
    5088:	25 96       	adiw	r28, 0x05	; 5
    508a:	8c ac       	ldd	r8, Y+60	; 0x3c
    508c:	9d ac       	ldd	r9, Y+61	; 0x3d
    508e:	ae ac       	ldd	r10, Y+62	; 0x3e
    5090:	bf ac       	ldd	r11, Y+63	; 0x3f
    5092:	25 97       	sbiw	r28, 0x05	; 5
    5094:	29 96       	adiw	r28, 0x09	; 9
    5096:	4c ac       	ldd	r4, Y+60	; 0x3c
    5098:	5d ac       	ldd	r5, Y+61	; 0x3d
    509a:	6e ac       	ldd	r6, Y+62	; 0x3e
    509c:	7f ac       	ldd	r7, Y+63	; 0x3f
    509e:	29 97       	sbiw	r28, 0x09	; 9
    50a0:	2d 96       	adiw	r28, 0x0d	; 13
    50a2:	cc ac       	ldd	r12, Y+60	; 0x3c
    50a4:	dd ac       	ldd	r13, Y+61	; 0x3d
    50a6:	ee ac       	ldd	r14, Y+62	; 0x3e
    50a8:	ff ac       	ldd	r15, Y+63	; 0x3f
    50aa:	2d 97       	sbiw	r28, 0x0d	; 13
		memmove(&(a[1]), &(a[0]), 7*4); 	/* a[7]=a[6]; a[6]=a[5]; a[5]=a[4]; a[4]=a[3]; a[3]=a[2]; a[2]=a[1]; a[1]=a[0]; */
    50ac:	4c e1       	ldi	r20, 0x1C	; 28
    50ae:	50 e0       	ldi	r21, 0x00	; 0
    50b0:	be 01       	movw	r22, r28
    50b2:	6f 5b       	subi	r22, 0xBF	; 191
    50b4:	7f 4f       	sbci	r23, 0xFF	; 255
    50b6:	aa 96       	adiw	r28, 0x2a	; 42
    50b8:	8e ad       	ldd	r24, Y+62	; 0x3e
    50ba:	9f ad       	ldd	r25, Y+63	; 0x3f
    50bc:	aa 97       	sbiw	r28, 0x2a	; 42
    50be:	a5 d4       	rcall	.+2378   	; 0x5a0a <memmove>
		a[4] += t1;
    50c0:	65 96       	adiw	r28, 0x15	; 21
    50c2:	8c ad       	ldd	r24, Y+60	; 0x3c
    50c4:	9d ad       	ldd	r25, Y+61	; 0x3d
    50c6:	ae ad       	ldd	r26, Y+62	; 0x3e
    50c8:	bf ad       	ldd	r27, Y+63	; 0x3f
    50ca:	65 97       	sbiw	r28, 0x15	; 21
    50cc:	a5 96       	adiw	r28, 0x25	; 37
    50ce:	2c ad       	ldd	r18, Y+60	; 0x3c
    50d0:	3d ad       	ldd	r19, Y+61	; 0x3d
    50d2:	4e ad       	ldd	r20, Y+62	; 0x3e
    50d4:	5f ad       	ldd	r21, Y+63	; 0x3f
    50d6:	a5 97       	sbiw	r28, 0x25	; 37
    50d8:	82 0f       	add	r24, r18
    50da:	93 1f       	adc	r25, r19
    50dc:	a4 1f       	adc	r26, r20
    50de:	b5 1f       	adc	r27, r21
    50e0:	65 96       	adiw	r28, 0x15	; 21
    50e2:	8c af       	std	Y+60, r24	; 0x3c
    50e4:	9d af       	std	Y+61, r25	; 0x3d
    50e6:	ae af       	std	Y+62, r26	; 0x3e
    50e8:	bf af       	std	Y+63, r27	; 0x3f
    50ea:	65 97       	sbiw	r28, 0x15	; 21
		a[0] = t1 + t2;
    50ec:	b5 01       	movw	r22, r10
    50ee:	a4 01       	movw	r20, r8
    50f0:	03 2e       	mov	r0, r19
    50f2:	3d e0       	ldi	r19, 0x0D	; 13
    50f4:	76 95       	lsr	r23
    50f6:	67 95       	ror	r22
    50f8:	57 95       	ror	r21
    50fa:	47 95       	ror	r20
    50fc:	3a 95       	dec	r19
    50fe:	d1 f7       	brne	.-12     	; 0x50f4 <sha2_small_common_nextBlock+0x46c>
    5100:	30 2d       	mov	r19, r0
    5102:	d5 01       	movw	r26, r10
    5104:	c4 01       	movw	r24, r8
    5106:	07 2e       	mov	r0, r23
    5108:	73 e1       	ldi	r23, 0x13	; 19
    510a:	88 0f       	add	r24, r24
    510c:	99 1f       	adc	r25, r25
    510e:	aa 1f       	adc	r26, r26
    5110:	bb 1f       	adc	r27, r27
    5112:	7a 95       	dec	r23
    5114:	d1 f7       	brne	.-12     	; 0x510a <sha2_small_common_nextBlock+0x482>
    5116:	70 2d       	mov	r23, r0
    5118:	84 2b       	or	r24, r20
    511a:	95 2b       	or	r25, r21
    511c:	a6 2b       	or	r26, r22
    511e:	b7 2b       	or	r27, r23
    5120:	b5 01       	movw	r22, r10
    5122:	a4 01       	movw	r20, r8
    5124:	76 95       	lsr	r23
    5126:	67 95       	ror	r22
    5128:	57 95       	ror	r21
    512a:	47 95       	ror	r20
    512c:	76 95       	lsr	r23
    512e:	67 95       	ror	r22
    5130:	57 95       	ror	r21
    5132:	47 95       	ror	r20
    5134:	95 01       	movw	r18, r10
    5136:	84 01       	movw	r16, r8
    5138:	0f 2e       	mov	r0, r31
    513a:	fe e1       	ldi	r31, 0x1E	; 30
    513c:	00 0f       	add	r16, r16
    513e:	11 1f       	adc	r17, r17
    5140:	22 1f       	adc	r18, r18
    5142:	33 1f       	adc	r19, r19
    5144:	fa 95       	dec	r31
    5146:	d1 f7       	brne	.-12     	; 0x513c <sha2_small_common_nextBlock+0x4b4>
    5148:	f0 2d       	mov	r31, r0
    514a:	40 2b       	or	r20, r16
    514c:	51 2b       	or	r21, r17
    514e:	62 2b       	or	r22, r18
    5150:	73 2b       	or	r23, r19
    5152:	48 27       	eor	r20, r24
    5154:	59 27       	eor	r21, r25
    5156:	6a 27       	eor	r22, r26
    5158:	7b 27       	eor	r23, r27
    515a:	95 01       	movw	r18, r10
    515c:	84 01       	movw	r16, r8
    515e:	0f 2e       	mov	r0, r31
    5160:	fa e0       	ldi	r31, 0x0A	; 10
    5162:	00 0f       	add	r16, r16
    5164:	11 1f       	adc	r17, r17
    5166:	22 1f       	adc	r18, r18
    5168:	33 1f       	adc	r19, r19
    516a:	fa 95       	dec	r31
    516c:	d1 f7       	brne	.-12     	; 0x5162 <sha2_small_common_nextBlock+0x4da>
    516e:	f0 2d       	mov	r31, r0
    5170:	d5 01       	movw	r26, r10
    5172:	c4 01       	movw	r24, r8
    5174:	07 2e       	mov	r0, r23
    5176:	76 e1       	ldi	r23, 0x16	; 22
    5178:	b6 95       	lsr	r27
    517a:	a7 95       	ror	r26
    517c:	97 95       	ror	r25
    517e:	87 95       	ror	r24
    5180:	7a 95       	dec	r23
    5182:	d1 f7       	brne	.-12     	; 0x5178 <sha2_small_common_nextBlock+0x4f0>
    5184:	70 2d       	mov	r23, r0
    5186:	80 2b       	or	r24, r16
    5188:	91 2b       	or	r25, r17
    518a:	a2 2b       	or	r26, r18
    518c:	b3 2b       	or	r27, r19
    518e:	48 27       	eor	r20, r24
    5190:	59 27       	eor	r21, r25
    5192:	6a 27       	eor	r22, r26
    5194:	7b 27       	eor	r23, r27
    5196:	97 01       	movw	r18, r14
    5198:	86 01       	movw	r16, r12
    519a:	04 25       	eor	r16, r4
    519c:	15 25       	eor	r17, r5
    519e:	26 25       	eor	r18, r6
    51a0:	37 25       	eor	r19, r7
    51a2:	80 22       	and	r8, r16
    51a4:	91 22       	and	r9, r17
    51a6:	a2 22       	and	r10, r18
    51a8:	b3 22       	and	r11, r19
    51aa:	c4 20       	and	r12, r4
    51ac:	d5 20       	and	r13, r5
    51ae:	e6 20       	and	r14, r6
    51b0:	f7 20       	and	r15, r7
    51b2:	95 01       	movw	r18, r10
    51b4:	84 01       	movw	r16, r8
    51b6:	0c 25       	eor	r16, r12
    51b8:	1d 25       	eor	r17, r13
    51ba:	2e 25       	eor	r18, r14
    51bc:	3f 25       	eor	r19, r15
    51be:	40 0f       	add	r20, r16
    51c0:	51 1f       	adc	r21, r17
    51c2:	62 1f       	adc	r22, r18
    51c4:	73 1f       	adc	r23, r19
    51c6:	a5 96       	adiw	r28, 0x25	; 37
    51c8:	8c ad       	ldd	r24, Y+60	; 0x3c
    51ca:	9d ad       	ldd	r25, Y+61	; 0x3d
    51cc:	ae ad       	ldd	r26, Y+62	; 0x3e
    51ce:	bf ad       	ldd	r27, Y+63	; 0x3f
    51d0:	a5 97       	sbiw	r28, 0x25	; 37
    51d2:	48 0f       	add	r20, r24
    51d4:	59 1f       	adc	r21, r25
    51d6:	6a 1f       	adc	r22, r26
    51d8:	7b 1f       	adc	r23, r27
    51da:	25 96       	adiw	r28, 0x05	; 5
    51dc:	4c af       	std	Y+60, r20	; 0x3c
    51de:	5d af       	std	Y+61, r21	; 0x3d
    51e0:	6e af       	std	Y+62, r22	; 0x3e
    51e2:	7f af       	std	Y+63, r23	; 0x3f
    51e4:	25 97       	sbiw	r28, 0x05	; 5
*/
/* init working variables */
	memcpy((void*)a,(void*)(state->h), 8*4);

/* do the, fun stuff, */
	for (i=0; i<64; ++i){
    51e6:	a6 96       	adiw	r28, 0x26	; 38
    51e8:	9f ad       	ldd	r25, Y+63	; 0x3f
    51ea:	a6 97       	sbiw	r28, 0x26	; 38
    51ec:	9f 5f       	subi	r25, 0xFF	; 255
    51ee:	a6 96       	adiw	r28, 0x26	; 38
    51f0:	9f af       	std	Y+63, r25	; 0x3f
    51f2:	a6 97       	sbiw	r28, 0x26	; 38
    51f4:	a4 e0       	ldi	r26, 0x04	; 4
    51f6:	2a 0e       	add	r2, r26
    51f8:	31 1c       	adc	r3, r1
    51fa:	a8 96       	adiw	r28, 0x28	; 40
    51fc:	ee ad       	ldd	r30, Y+62	; 0x3e
    51fe:	ff ad       	ldd	r31, Y+63	; 0x3f
    5200:	a8 97       	sbiw	r28, 0x28	; 40
    5202:	34 96       	adiw	r30, 0x04	; 4
    5204:	a8 96       	adiw	r28, 0x28	; 40
    5206:	ff af       	std	Y+63, r31	; 0x3f
    5208:	ee af       	std	Y+62, r30	; 0x3e
    520a:	a8 97       	sbiw	r28, 0x28	; 40
    520c:	90 34       	cpi	r25, 0x40	; 64
    520e:	09 f0       	breq	.+2      	; 0x5212 <sha2_small_common_nextBlock+0x58a>
    5210:	ba cd       	rjmp	.-1164   	; 0x4d86 <sha2_small_common_nextBlock+0xfe>
    5212:	fe 01       	movw	r30, r28
    5214:	ef 5b       	subi	r30, 0xBF	; 191
    5216:	ff 4f       	sbci	r31, 0xFF	; 255
    5218:	ac 96       	adiw	r28, 0x2c	; 44
    521a:	2e ad       	ldd	r18, Y+62	; 0x3e
    521c:	3f ad       	ldd	r19, Y+63	; 0x3f
    521e:	ac 97       	sbiw	r28, 0x2c	; 44
    5220:	af 01       	movw	r20, r30
    5222:	40 5e       	subi	r20, 0xE0	; 224
    5224:	5f 4f       	sbci	r21, 0xFF	; 255
    5226:	bf 01       	movw	r22, r30
		a[0] = t1 + t2;
	}

/* update, the, state, */
	for (i=0; i<8; ++i){
		state->h[i] += a[i];
    5228:	fb 01       	movw	r30, r22
    522a:	81 91       	ld	r24, Z+
    522c:	91 91       	ld	r25, Z+
    522e:	a1 91       	ld	r26, Z+
    5230:	b1 91       	ld	r27, Z+
    5232:	bf 01       	movw	r22, r30
    5234:	f9 01       	movw	r30, r18
    5236:	c0 80       	ld	r12, Z
    5238:	d1 80       	ldd	r13, Z+1	; 0x01
    523a:	e2 80       	ldd	r14, Z+2	; 0x02
    523c:	f3 80       	ldd	r15, Z+3	; 0x03
    523e:	8c 0d       	add	r24, r12
    5240:	9d 1d       	adc	r25, r13
    5242:	ae 1d       	adc	r26, r14
    5244:	bf 1d       	adc	r27, r15
    5246:	81 93       	st	Z+, r24
    5248:	91 93       	st	Z+, r25
    524a:	a1 93       	st	Z+, r26
    524c:	b1 93       	st	Z+, r27
    524e:	9f 01       	movw	r18, r30
		a[4] += t1;
		a[0] = t1 + t2;
	}

/* update, the, state, */
	for (i=0; i<8; ++i){
    5250:	64 17       	cp	r22, r20
    5252:	75 07       	cpc	r23, r21
    5254:	49 f7       	brne	.-46     	; 0x5228 <sha2_small_common_nextBlock+0x5a0>
		state->h[i] += a[i];
	}
	state->length += 1;
    5256:	ac 96       	adiw	r28, 0x2c	; 44
    5258:	ee ad       	ldd	r30, Y+62	; 0x3e
    525a:	ff ad       	ldd	r31, Y+63	; 0x3f
    525c:	ac 97       	sbiw	r28, 0x2c	; 44
    525e:	80 a1       	ldd	r24, Z+32	; 0x20
    5260:	91 a1       	ldd	r25, Z+33	; 0x21
    5262:	a2 a1       	ldd	r26, Z+34	; 0x22
    5264:	b3 a1       	ldd	r27, Z+35	; 0x23
    5266:	01 96       	adiw	r24, 0x01	; 1
    5268:	a1 1d       	adc	r26, r1
    526a:	b1 1d       	adc	r27, r1
    526c:	80 a3       	std	Z+32, r24	; 0x20
    526e:	91 a3       	std	Z+33, r25	; 0x21
    5270:	a2 a3       	std	Z+34, r26	; 0x22
    5272:	b3 a3       	std	Z+35, r27	; 0x23
}
    5274:	c5 59       	subi	r28, 0x95	; 149
    5276:	df 4f       	sbci	r29, 0xFF	; 255
    5278:	0f b6       	in	r0, 0x3f	; 63
    527a:	f8 94       	cli
    527c:	de bf       	out	0x3e, r29	; 62
    527e:	0f be       	out	0x3f, r0	; 63
    5280:	cd bf       	out	0x3d, r28	; 61
    5282:	df 91       	pop	r29
    5284:	cf 91       	pop	r28
    5286:	1f 91       	pop	r17
    5288:	0f 91       	pop	r16
    528a:	ff 90       	pop	r15
    528c:	ef 90       	pop	r14
    528e:	df 90       	pop	r13
    5290:	cf 90       	pop	r12
    5292:	bf 90       	pop	r11
    5294:	af 90       	pop	r10
    5296:	9f 90       	pop	r9
    5298:	8f 90       	pop	r8
    529a:	7f 90       	pop	r7
    529c:	6f 90       	pop	r6
    529e:	5f 90       	pop	r5
    52a0:	4f 90       	pop	r4
    52a2:	3f 90       	pop	r3
    52a4:	2f 90       	pop	r2
    52a6:	08 95       	ret

000052a8 <sha2_small_common_lastBlock>:


void sha2_small_common_lastBlock(sha2_small_common_ctx_t *state, const void *block, uint16_t length_b){
    52a8:	8f 92       	push	r8
    52aa:	9f 92       	push	r9
    52ac:	af 92       	push	r10
    52ae:	bf 92       	push	r11
    52b0:	cf 92       	push	r12
    52b2:	df 92       	push	r13
    52b4:	ef 92       	push	r14
    52b6:	ff 92       	push	r15
    52b8:	0f 93       	push	r16
    52ba:	1f 93       	push	r17
    52bc:	cf 93       	push	r28
    52be:	df 93       	push	r29
    52c0:	cd b7       	in	r28, 0x3d	; 61
    52c2:	de b7       	in	r29, 0x3e	; 62
    52c4:	c8 54       	subi	r28, 0x48	; 72
    52c6:	d1 09       	sbc	r29, r1
    52c8:	0f b6       	in	r0, 0x3f	; 63
    52ca:	f8 94       	cli
    52cc:	de bf       	out	0x3e, r29	; 62
    52ce:	0f be       	out	0x3f, r0	; 63
    52d0:	cd bf       	out	0x3d, r28	; 61
    52d2:	8c 01       	movw	r16, r24
    52d4:	4b 01       	movw	r8, r22
    52d6:	5a 01       	movw	r10, r20
	uint8_t lb[512/8]; /* local block */
	uint64_t len;
	while(length_b>=512){
    52d8:	41 15       	cp	r20, r1
    52da:	62 e0       	ldi	r22, 0x02	; 2
    52dc:	56 07       	cpc	r21, r22
    52de:	28 f1       	brcs	.+74     	; 0x532a <sha2_small_common_lastBlock+0x82>
    52e0:	6a 01       	movw	r12, r20
    52e2:	74 01       	movw	r14, r8
		sha2_small_common_nextBlock(state, block);
    52e4:	b7 01       	movw	r22, r14
    52e6:	c8 01       	movw	r24, r16
    52e8:	cf dc       	rcall	.-1634   	; 0x4c88 <sha2_small_common_nextBlock>
		length_b -= 512;
    52ea:	72 e0       	ldi	r23, 0x02	; 2
    52ec:	d7 1a       	sub	r13, r23
		block = (uint8_t*)block+64;
    52ee:	80 e4       	ldi	r24, 0x40	; 64
    52f0:	e8 0e       	add	r14, r24
    52f2:	f1 1c       	adc	r15, r1


void sha2_small_common_lastBlock(sha2_small_common_ctx_t *state, const void *block, uint16_t length_b){
	uint8_t lb[512/8]; /* local block */
	uint64_t len;
	while(length_b>=512){
    52f4:	c1 14       	cp	r12, r1
    52f6:	92 e0       	ldi	r25, 0x02	; 2
    52f8:	d9 06       	cpc	r13, r25
    52fa:	a0 f7       	brcc	.-24     	; 0x52e4 <sha2_small_common_lastBlock+0x3c>
    52fc:	75 01       	movw	r14, r10
    52fe:	e1 e0       	ldi	r30, 0x01	; 1
    5300:	fe 22       	and	r15, r30
    5302:	f2 e0       	ldi	r31, 0x02	; 2
    5304:	bf 1a       	sub	r11, r31
    5306:	ab 2c       	mov	r10, r11
    5308:	bb 24       	eor	r11, r11
    530a:	a6 94       	lsr	r10
    530c:	6f ef       	ldi	r22, 0xFF	; 255
    530e:	a6 1a       	sub	r10, r22
    5310:	b6 0a       	sbc	r11, r22
    5312:	00 24       	eor	r0, r0
    5314:	b6 94       	lsr	r11
    5316:	a7 94       	ror	r10
    5318:	07 94       	ror	r0
    531a:	b6 94       	lsr	r11
    531c:	a7 94       	ror	r10
    531e:	07 94       	ror	r0
    5320:	ba 2c       	mov	r11, r10
    5322:	a0 2c       	mov	r10, r0
    5324:	8a 0c       	add	r8, r10
    5326:	9b 1c       	adc	r9, r11
    5328:	01 c0       	rjmp	.+2      	; 0x532c <sha2_small_common_lastBlock+0x84>
    532a:	7a 01       	movw	r14, r20
		sha2_small_common_nextBlock(state, block);
		length_b -= 512;
		block = (uint8_t*)block+64;
	}
	len = state->length*512 + length_b;
    532c:	f8 01       	movw	r30, r16
    532e:	80 a1       	ldd	r24, Z+32	; 0x20
    5330:	91 a1       	ldd	r25, Z+33	; 0x21
    5332:	a2 a1       	ldd	r26, Z+34	; 0x22
    5334:	b3 a1       	ldd	r27, Z+35	; 0x23
    5336:	07 2e       	mov	r0, r23
    5338:	79 e0       	ldi	r23, 0x09	; 9
    533a:	88 0f       	add	r24, r24
    533c:	99 1f       	adc	r25, r25
    533e:	aa 1f       	adc	r26, r26
    5340:	bb 1f       	adc	r27, r27
    5342:	7a 95       	dec	r23
    5344:	d1 f7       	brne	.-12     	; 0x533a <sha2_small_common_lastBlock+0x92>
    5346:	70 2d       	mov	r23, r0
    5348:	8e 0d       	add	r24, r14
    534a:	9f 1d       	adc	r25, r15
    534c:	a1 1d       	adc	r26, r1
    534e:	b1 1d       	adc	r27, r1
    5350:	9c 01       	movw	r18, r24
    5352:	ad 01       	movw	r20, r26
    5354:	22 96       	adiw	r28, 0x02	; 2
    5356:	2f af       	std	Y+63, r18	; 0x3f
    5358:	22 97       	sbiw	r28, 0x02	; 2
    535a:	23 96       	adiw	r28, 0x03	; 3
    535c:	3f af       	std	Y+63, r19	; 0x3f
    535e:	23 97       	sbiw	r28, 0x03	; 3
    5360:	24 96       	adiw	r28, 0x04	; 4
    5362:	4f af       	std	Y+63, r20	; 0x3f
    5364:	24 97       	sbiw	r28, 0x04	; 4
    5366:	25 96       	adiw	r28, 0x05	; 5
    5368:	5f af       	std	Y+63, r21	; 0x3f
    536a:	25 97       	sbiw	r28, 0x05	; 5
    536c:	26 96       	adiw	r28, 0x06	; 6
    536e:	1f ae       	std	Y+63, r1	; 0x3f
    5370:	26 97       	sbiw	r28, 0x06	; 6
    5372:	27 96       	adiw	r28, 0x07	; 7
    5374:	1f ae       	std	Y+63, r1	; 0x3f
    5376:	27 97       	sbiw	r28, 0x07	; 7
    5378:	28 96       	adiw	r28, 0x08	; 8
    537a:	1f ae       	std	Y+63, r1	; 0x3f
    537c:	28 97       	sbiw	r28, 0x08	; 8
    537e:	29 96       	adiw	r28, 0x09	; 9
    5380:	1f ae       	std	Y+63, r1	; 0x3f
    5382:	29 97       	sbiw	r28, 0x09	; 9
	memset(lb, 0, 64);
    5384:	be 01       	movw	r22, r28
    5386:	6f 5f       	subi	r22, 0xFF	; 255
    5388:	7f 4f       	sbci	r23, 0xFF	; 255
    538a:	6b 01       	movw	r12, r22
    538c:	80 e4       	ldi	r24, 0x40	; 64
    538e:	fb 01       	movw	r30, r22
    5390:	11 92       	st	Z+, r1
    5392:	8a 95       	dec	r24
    5394:	e9 f7       	brne	.-6      	; 0x5390 <sha2_small_common_lastBlock+0xe8>
	memcpy(lb, block, (length_b+7)/8);
    5396:	a7 01       	movw	r20, r14
    5398:	49 5f       	subi	r20, 0xF9	; 249
    539a:	5f 4f       	sbci	r21, 0xFF	; 255
    539c:	56 95       	lsr	r21
    539e:	47 95       	ror	r20
    53a0:	56 95       	lsr	r21
    53a2:	47 95       	ror	r20
    53a4:	56 95       	lsr	r21
    53a6:	47 95       	ror	r20
    53a8:	b4 01       	movw	r22, r8
    53aa:	c6 01       	movw	r24, r12
    53ac:	25 d3       	rcall	.+1610   	; 0x59f8 <memcpy>

	/* set the final one bit */
	lb[length_b/8] |= 0x80>>(length_b & 0x7);
    53ae:	f7 01       	movw	r30, r14
    53b0:	f6 95       	lsr	r31
    53b2:	e7 95       	ror	r30
    53b4:	f6 95       	lsr	r31
    53b6:	e7 95       	ror	r30
    53b8:	f6 95       	lsr	r31
    53ba:	e7 95       	ror	r30
    53bc:	ec 0d       	add	r30, r12
    53be:	fd 1d       	adc	r31, r13
    53c0:	c7 01       	movw	r24, r14
    53c2:	87 70       	andi	r24, 0x07	; 7
    53c4:	99 27       	eor	r25, r25
    53c6:	20 e8       	ldi	r18, 0x80	; 128
    53c8:	30 e0       	ldi	r19, 0x00	; 0
    53ca:	02 c0       	rjmp	.+4      	; 0x53d0 <sha2_small_common_lastBlock+0x128>
    53cc:	35 95       	asr	r19
    53ce:	27 95       	ror	r18
    53d0:	8a 95       	dec	r24
    53d2:	e2 f7       	brpl	.-8      	; 0x53cc <sha2_small_common_lastBlock+0x124>
    53d4:	80 81       	ld	r24, Z
    53d6:	28 2b       	or	r18, r24
    53d8:	20 83       	st	Z, r18
	/* pad with zeros */
	if (length_b>=512-64){ /* not enouth space for 64bit length value */
    53da:	f0 ec       	ldi	r31, 0xC0	; 192
    53dc:	ef 16       	cp	r14, r31
    53de:	f1 e0       	ldi	r31, 0x01	; 1
    53e0:	ff 06       	cpc	r15, r31
    53e2:	40 f0       	brcs	.+16     	; 0x53f4 <sha2_small_common_lastBlock+0x14c>
		sha2_small_common_nextBlock(state, lb);
    53e4:	b6 01       	movw	r22, r12
    53e6:	c8 01       	movw	r24, r16
    53e8:	4f dc       	rcall	.-1890   	; 0x4c88 <sha2_small_common_nextBlock>
		memset(lb, 0, 64);
    53ea:	80 e4       	ldi	r24, 0x40	; 64
    53ec:	f6 01       	movw	r30, r12
    53ee:	11 92       	st	Z+, r1
    53f0:	8a 95       	dec	r24
    53f2:	e9 f7       	brne	.-6      	; 0x53ee <sha2_small_common_lastBlock+0x146>


void sha2_small_common_lastBlock(sha2_small_common_ctx_t *state, const void *block, uint16_t length_b){
	uint8_t lb[512/8]; /* local block */
	uint64_t len;
	while(length_b>=512){
    53f4:	27 e0       	ldi	r18, 0x07	; 7
#if defined LITTLE_ENDIAN
	 	/* this is now rolled up */
	uint8_t i;
	i=7;
	do{
		lb[63-i] = ((uint8_t*)&len)[i];
    53f6:	4f e3       	ldi	r20, 0x3F	; 63
    53f8:	50 e0       	ldi	r21, 0x00	; 0
    53fa:	82 2f       	mov	r24, r18
    53fc:	90 e0       	ldi	r25, 0x00	; 0
    53fe:	fa 01       	movw	r30, r20
    5400:	e8 1b       	sub	r30, r24
    5402:	f9 0b       	sbc	r31, r25
    5404:	61 e0       	ldi	r22, 0x01	; 1
    5406:	70 e0       	ldi	r23, 0x00	; 0
    5408:	6c 0f       	add	r22, r28
    540a:	7d 1f       	adc	r23, r29
    540c:	e6 0f       	add	r30, r22
    540e:	f7 1f       	adc	r31, r23
    5410:	a1 e4       	ldi	r26, 0x41	; 65
    5412:	b0 e0       	ldi	r27, 0x00	; 0
    5414:	ac 0f       	add	r26, r28
    5416:	bd 1f       	adc	r27, r29
    5418:	a8 0f       	add	r26, r24
    541a:	b9 1f       	adc	r27, r25
    541c:	8c 91       	ld	r24, X
    541e:	80 83       	st	Z, r24
	}while(i--);
    5420:	21 50       	subi	r18, 0x01	; 1
    5422:	58 f7       	brcc	.-42     	; 0x53fa <sha2_small_common_lastBlock+0x152>
#elif defined BIG_ENDIAN
	*((uint64_t)&(lb[56])) = len;
#endif
	sha2_small_common_nextBlock(state, lb);
    5424:	be 01       	movw	r22, r28
    5426:	6f 5f       	subi	r22, 0xFF	; 255
    5428:	7f 4f       	sbci	r23, 0xFF	; 255
    542a:	c8 01       	movw	r24, r16
    542c:	2d dc       	rcall	.-1958   	; 0x4c88 <sha2_small_common_nextBlock>
}
    542e:	c8 5b       	subi	r28, 0xB8	; 184
    5430:	df 4f       	sbci	r29, 0xFF	; 255
    5432:	0f b6       	in	r0, 0x3f	; 63
    5434:	f8 94       	cli
    5436:	de bf       	out	0x3e, r29	; 62
    5438:	0f be       	out	0x3f, r0	; 63
    543a:	cd bf       	out	0x3d, r28	; 61
    543c:	df 91       	pop	r29
    543e:	cf 91       	pop	r28
    5440:	1f 91       	pop	r17
    5442:	0f 91       	pop	r16
    5444:	ff 90       	pop	r15
    5446:	ef 90       	pop	r14
    5448:	df 90       	pop	r13
    544a:	cf 90       	pop	r12
    544c:	bf 90       	pop	r11
    544e:	af 90       	pop	r10
    5450:	9f 90       	pop	r9
    5452:	8f 90       	pop	r8
    5454:	08 95       	ret

00005456 <sha512_init>:
0x510e527fade682d1LL, 0x9b05688c2b3e6c1fLL, 0x1f83d9abfb41bd6bLL, 0x5be0cd19137e2179LL
};


void sha512_init(sha512_ctx_t *ctx){
	ctx->length = 0;
    5456:	fc 01       	movw	r30, r24
    5458:	e0 5c       	subi	r30, 0xC0	; 192
    545a:	ff 4f       	sbci	r31, 0xFF	; 255
    545c:	10 82       	st	Z, r1
    545e:	11 82       	std	Z+1, r1	; 0x01
    5460:	12 82       	std	Z+2, r1	; 0x02
    5462:	13 82       	std	Z+3, r1	; 0x03
	memcpy_P(ctx->h, sha512_init_values, 8*8);
    5464:	40 e4       	ldi	r20, 0x40	; 64
    5466:	50 e0       	ldi	r21, 0x00	; 0
    5468:	64 e3       	ldi	r22, 0x34	; 52
    546a:	74 e0       	ldi	r23, 0x04	; 4
    546c:	af c2       	rjmp	.+1374   	; 0x59cc <memcpy_P>
    546e:	08 95       	ret

00005470 <sha512_ctx2hash>:
}

void sha512_ctx2hash(void *dest, const sha512_ctx_t *ctx){
    5470:	cf 93       	push	r28
    5472:	df 93       	push	r29
    5474:	ac 01       	movw	r20, r24
    5476:	ec 01       	movw	r28, r24
    5478:	c0 5c       	subi	r28, 0xC0	; 192
    547a:	df 4f       	sbci	r29, 0xFF	; 255
    547c:	fa 01       	movw	r30, r20
	uint8_t i=8, j, *s = (uint8_t*)(ctx->h);
	do{
		j=7;
    547e:	97 e0       	ldi	r25, 0x07	; 7
		do{
			*((uint8_t*)dest) = s[j];
    5480:	db 01       	movw	r26, r22
    5482:	a9 0f       	add	r26, r25
    5484:	b1 1d       	adc	r27, r1
    5486:	2c 91       	ld	r18, X
    5488:	21 93       	st	Z+, r18
			dest = (uint8_t*)dest + 1;
		}while(j--);
    548a:	91 50       	subi	r25, 0x01	; 1
    548c:	c8 f7       	brcc	.-14     	; 0x5480 <sha512_ctx2hash+0x10>
    548e:	48 5f       	subi	r20, 0xF8	; 248
    5490:	5f 4f       	sbci	r21, 0xFF	; 255
		s += 8;
    5492:	68 5f       	subi	r22, 0xF8	; 248
    5494:	7f 4f       	sbci	r23, 0xFF	; 255
	}while(--i);
    5496:	4c 17       	cp	r20, r28
    5498:	5d 07       	cpc	r21, r29
    549a:	81 f7       	brne	.-32     	; 0x547c <sha512_ctx2hash+0xc>
}
    549c:	df 91       	pop	r29
    549e:	cf 91       	pop	r28
    54a0:	08 95       	ret

000054a2 <sha512>:


void sha512(void *dest, const void *msg, uint32_t length_b){
    54a2:	4f 92       	push	r4
    54a4:	5f 92       	push	r5
    54a6:	6f 92       	push	r6
    54a8:	7f 92       	push	r7
    54aa:	8f 92       	push	r8
    54ac:	9f 92       	push	r9
    54ae:	af 92       	push	r10
    54b0:	bf 92       	push	r11
    54b2:	cf 92       	push	r12
    54b4:	df 92       	push	r13
    54b6:	ef 92       	push	r14
    54b8:	ff 92       	push	r15
    54ba:	0f 93       	push	r16
    54bc:	1f 93       	push	r17
    54be:	cf 93       	push	r28
    54c0:	df 93       	push	r29
    54c2:	cd b7       	in	r28, 0x3d	; 61
    54c4:	de b7       	in	r29, 0x3e	; 62
    54c6:	c4 54       	subi	r28, 0x44	; 68
    54c8:	d1 09       	sbc	r29, r1
    54ca:	0f b6       	in	r0, 0x3f	; 63
    54cc:	f8 94       	cli
    54ce:	de bf       	out	0x3e, r29	; 62
    54d0:	0f be       	out	0x3f, r0	; 63
    54d2:	cd bf       	out	0x3d, r28	; 61
    54d4:	4c 01       	movw	r8, r24
    54d6:	5b 01       	movw	r10, r22
    54d8:	69 01       	movw	r12, r18
    54da:	7a 01       	movw	r14, r20
	sha512_ctx_t ctx;
	sha512_init(&ctx);
    54dc:	ce 01       	movw	r24, r28
    54de:	01 96       	adiw	r24, 0x01	; 1
    54e0:	ba df       	rcall	.-140    	; 0x5456 <sha512_init>
	while(length_b >= 1024){
    54e2:	c1 14       	cp	r12, r1
    54e4:	84 e0       	ldi	r24, 0x04	; 4
    54e6:	d8 06       	cpc	r13, r24
    54e8:	e1 04       	cpc	r14, r1
    54ea:	f1 04       	cpc	r15, r1
    54ec:	70 f1       	brcs	.+92     	; 0x554a <sha512+0xa8>
    54ee:	26 01       	movw	r4, r12
    54f0:	37 01       	movw	r6, r14
    54f2:	85 01       	movw	r16, r10
#include "sha2_large_common.h"
#include "sha512.h"


void sha512_nextBlock (sha512_ctx_t *ctx, const void *block){
	sha2_large_common_nextBlock(ctx, block);
    54f4:	b8 01       	movw	r22, r16
    54f6:	ce 01       	movw	r24, r28
    54f8:	01 96       	adiw	r24, 0x01	; 1
    54fa:	0e 94 7c 1c 	call	0x38f8	; 0x38f8 <sha2_large_common_nextBlock>
void sha512(void *dest, const void *msg, uint32_t length_b){
	sha512_ctx_t ctx;
	sha512_init(&ctx);
	while(length_b >= 1024){
		sha512_nextBlock(&ctx, msg);
		msg = (uint8_t*)msg + 1024/8;
    54fe:	00 58       	subi	r16, 0x80	; 128
    5500:	1f 4f       	sbci	r17, 0xFF	; 255
		length_b -= 1024;
    5502:	84 e0       	ldi	r24, 0x04	; 4
    5504:	58 1a       	sub	r5, r24
    5506:	61 08       	sbc	r6, r1
    5508:	71 08       	sbc	r7, r1


void sha512(void *dest, const void *msg, uint32_t length_b){
	sha512_ctx_t ctx;
	sha512_init(&ctx);
	while(length_b >= 1024){
    550a:	41 14       	cp	r4, r1
    550c:	84 e0       	ldi	r24, 0x04	; 4
    550e:	58 06       	cpc	r5, r24
    5510:	61 04       	cpc	r6, r1
    5512:	71 04       	cpc	r7, r1
    5514:	78 f7       	brcc	.-34     	; 0x54f4 <sha512+0x52>
    5516:	d7 01       	movw	r26, r14
    5518:	c6 01       	movw	r24, r12
    551a:	94 50       	subi	r25, 0x04	; 4
    551c:	a1 09       	sbc	r26, r1
    551e:	b1 09       	sbc	r27, r1
    5520:	07 2e       	mov	r0, r23
    5522:	7a e0       	ldi	r23, 0x0A	; 10
    5524:	b6 95       	lsr	r27
    5526:	a7 95       	ror	r26
    5528:	97 95       	ror	r25
    552a:	87 95       	ror	r24
    552c:	7a 95       	dec	r23
    552e:	d1 f7       	brne	.-12     	; 0x5524 <sha512+0x82>
    5530:	70 2d       	mov	r23, r0
    5532:	01 96       	adiw	r24, 0x01	; 1
    5534:	96 95       	lsr	r25
    5536:	98 2f       	mov	r25, r24
    5538:	88 27       	eor	r24, r24
    553a:	97 95       	ror	r25
    553c:	87 95       	ror	r24
    553e:	a8 0e       	add	r10, r24
    5540:	b9 1e       	adc	r11, r25
    5542:	83 e0       	ldi	r24, 0x03	; 3
    5544:	d8 22       	and	r13, r24
    5546:	ee 24       	eor	r14, r14
    5548:	ff 24       	eor	r15, r15
void sha512_nextBlock (sha512_ctx_t *ctx, const void *block){
	sha2_large_common_nextBlock(ctx, block);
}

void sha512_lastBlock(sha512_ctx_t *ctx, const void *block, uint16_t length_b){
	sha2_large_common_lastBlock(ctx, block, length_b);
    554a:	a6 01       	movw	r20, r12
    554c:	b5 01       	movw	r22, r10
    554e:	ce 01       	movw	r24, r28
    5550:	01 96       	adiw	r24, 0x01	; 1
    5552:	39 da       	rcall	.-2958   	; 0x49c6 <sha2_large_common_lastBlock>
		sha512_nextBlock(&ctx, msg);
		msg = (uint8_t*)msg + 1024/8;
		length_b -= 1024;
	}
	sha512_lastBlock(&ctx, msg, length_b);
	sha512_ctx2hash(dest, &ctx);
    5554:	be 01       	movw	r22, r28
    5556:	6f 5f       	subi	r22, 0xFF	; 255
    5558:	7f 4f       	sbci	r23, 0xFF	; 255
    555a:	c4 01       	movw	r24, r8
    555c:	89 df       	rcall	.-238    	; 0x5470 <sha512_ctx2hash>
}
    555e:	cc 5b       	subi	r28, 0xBC	; 188
    5560:	df 4f       	sbci	r29, 0xFF	; 255
    5562:	0f b6       	in	r0, 0x3f	; 63
    5564:	f8 94       	cli
    5566:	de bf       	out	0x3e, r29	; 62
    5568:	0f be       	out	0x3f, r0	; 63
    556a:	cd bf       	out	0x3d, r28	; 61
    556c:	df 91       	pop	r29
    556e:	cf 91       	pop	r28
    5570:	1f 91       	pop	r17
    5572:	0f 91       	pop	r16
    5574:	ff 90       	pop	r15
    5576:	ef 90       	pop	r14
    5578:	df 90       	pop	r13
    557a:	cf 90       	pop	r12
    557c:	bf 90       	pop	r11
    557e:	af 90       	pop	r10
    5580:	9f 90       	pop	r9
    5582:	8f 90       	pop	r8
    5584:	7f 90       	pop	r7
    5586:	6f 90       	pop	r6
    5588:	5f 90       	pop	r5
    558a:	4f 90       	pop	r4
    558c:	08 95       	ret

0000558e <uart_init>:
#include <avr/io.h>
#include <string.h>
#include "uart_f.h"

void uart_init(){
	UBRR0H = (BAUD_PRESCALE >> 8); // Load upper 8-bits of the baud rate value into the high byte of the UBRR register
    558e:	10 92 c5 00 	sts	0x00C5, r1	; 0x8000c5 <__TEXT_REGION_LENGTH__+0x7e00c5>
	UBRR0L = BAUD_PRESCALE; // Load lower 8-bits of the baud rate value into the low byte of the UBRR register
    5592:	83 e3       	ldi	r24, 0x33	; 51
    5594:	80 93 c4 00 	sts	0x00C4, r24	; 0x8000c4 <__TEXT_REGION_LENGTH__+0x7e00c4>
	UCSR0C = (0<<UMSEL0) | (0<<UPM0) | (1<<USBS0) | (3<<UCSZ0);
    5598:	8e e0       	ldi	r24, 0x0E	; 14
    559a:	80 93 c2 00 	sts	0x00C2, r24	; 0x8000c2 <__TEXT_REGION_LENGTH__+0x7e00c2>
	UCSR0B = (1<<RXEN0) | (1<<TXEN0);
    559e:	88 e1       	ldi	r24, 0x18	; 24
    55a0:	80 93 c1 00 	sts	0x00C1, r24	; 0x8000c1 <__TEXT_REGION_LENGTH__+0x7e00c1>
    55a4:	08 95       	ret

000055a6 <uart_puts>:
}

void uart_puts(char* s){
    55a6:	0f 93       	push	r16
    55a8:	1f 93       	push	r17
    55aa:	cf 93       	push	r28
    55ac:	df 93       	push	r29
    55ae:	1f 92       	push	r1
    55b0:	cd b7       	in	r28, 0x3d	; 61
    55b2:	de b7       	in	r29, 0x3e	; 62
    55b4:	bc 01       	movw	r22, r24
	volatile uint8_t i;
	int len = strlen(s);
    55b6:	fc 01       	movw	r30, r24
    55b8:	01 90       	ld	r0, Z+
    55ba:	00 20       	and	r0, r0
    55bc:	e9 f7       	brne	.-6      	; 0x55b8 <uart_puts+0x12>
    55be:	31 97       	sbiw	r30, 0x01	; 1
    55c0:	af 01       	movw	r20, r30
    55c2:	48 1b       	sub	r20, r24
    55c4:	59 0b       	sbc	r21, r25
	for (i = 0; i < len; i++){
    55c6:	19 82       	std	Y+1, r1	; 0x01
    55c8:	89 81       	ldd	r24, Y+1	; 0x01
    55ca:	90 e0       	ldi	r25, 0x00	; 0
    55cc:	84 17       	cp	r24, r20
    55ce:	95 07       	cpc	r25, r21
    55d0:	b4 f4       	brge	.+44     	; 0x55fe <uart_puts+0x58>
		while(!( UCSR0A & 0X20));
    55d2:	e0 ec       	ldi	r30, 0xC0	; 192
    55d4:	f0 e0       	ldi	r31, 0x00	; 0
		UDR0=s[i];
    55d6:	06 ec       	ldi	r16, 0xC6	; 198
    55d8:	10 e0       	ldi	r17, 0x00	; 0

void uart_puts(char* s){
	volatile uint8_t i;
	int len = strlen(s);
	for (i = 0; i < len; i++){
		while(!( UCSR0A & 0X20));
    55da:	90 81       	ld	r25, Z
    55dc:	95 ff       	sbrs	r25, 5
    55de:	fd cf       	rjmp	.-6      	; 0x55da <uart_puts+0x34>
		UDR0=s[i];
    55e0:	89 81       	ldd	r24, Y+1	; 0x01
    55e2:	db 01       	movw	r26, r22
    55e4:	a8 0f       	add	r26, r24
    55e6:	b1 1d       	adc	r27, r1
    55e8:	9c 91       	ld	r25, X
    55ea:	d8 01       	movw	r26, r16
    55ec:	9c 93       	st	X, r25
}

void uart_puts(char* s){
	volatile uint8_t i;
	int len = strlen(s);
	for (i = 0; i < len; i++){
    55ee:	99 81       	ldd	r25, Y+1	; 0x01
    55f0:	9f 5f       	subi	r25, 0xFF	; 255
    55f2:	99 83       	std	Y+1, r25	; 0x01
    55f4:	29 81       	ldd	r18, Y+1	; 0x01
    55f6:	30 e0       	ldi	r19, 0x00	; 0
    55f8:	24 17       	cp	r18, r20
    55fa:	35 07       	cpc	r19, r21
    55fc:	74 f3       	brlt	.-36     	; 0x55da <uart_puts+0x34>
		while(!( UCSR0A & 0X20));
		UDR0=s[i];
	}
	while(!( UCSR0A & 0X20));
    55fe:	e0 ec       	ldi	r30, 0xC0	; 192
    5600:	f0 e0       	ldi	r31, 0x00	; 0
    5602:	80 81       	ld	r24, Z
    5604:	85 ff       	sbrs	r24, 5
    5606:	fd cf       	rjmp	.-6      	; 0x5602 <uart_puts+0x5c>
	UDR0 = 13;
    5608:	8d e0       	ldi	r24, 0x0D	; 13
    560a:	80 93 c6 00 	sts	0x00C6, r24	; 0x8000c6 <__TEXT_REGION_LENGTH__+0x7e00c6>
	while(!( UCSR0A & 0X20));
    560e:	e0 ec       	ldi	r30, 0xC0	; 192
    5610:	f0 e0       	ldi	r31, 0x00	; 0
    5612:	80 81       	ld	r24, Z
    5614:	85 ff       	sbrs	r24, 5
    5616:	fd cf       	rjmp	.-6      	; 0x5612 <uart_puts+0x6c>
	UDR0 = 10;
    5618:	8a e0       	ldi	r24, 0x0A	; 10
    561a:	80 93 c6 00 	sts	0x00C6, r24	; 0x8000c6 <__TEXT_REGION_LENGTH__+0x7e00c6>
}
    561e:	0f 90       	pop	r0
    5620:	df 91       	pop	r29
    5622:	cf 91       	pop	r28
    5624:	1f 91       	pop	r17
    5626:	0f 91       	pop	r16
    5628:	08 95       	ret

0000562a <__ashldi3>:
    562a:	0f 93       	push	r16
    562c:	08 30       	cpi	r16, 0x08	; 8
    562e:	90 f0       	brcs	.+36     	; 0x5654 <__ashldi3+0x2a>
    5630:	98 2f       	mov	r25, r24
    5632:	87 2f       	mov	r24, r23
    5634:	76 2f       	mov	r23, r22
    5636:	65 2f       	mov	r22, r21
    5638:	54 2f       	mov	r21, r20
    563a:	43 2f       	mov	r20, r19
    563c:	32 2f       	mov	r19, r18
    563e:	22 27       	eor	r18, r18
    5640:	08 50       	subi	r16, 0x08	; 8
    5642:	f4 cf       	rjmp	.-24     	; 0x562c <__ashldi3+0x2>
    5644:	22 0f       	add	r18, r18
    5646:	33 1f       	adc	r19, r19
    5648:	44 1f       	adc	r20, r20
    564a:	55 1f       	adc	r21, r21
    564c:	66 1f       	adc	r22, r22
    564e:	77 1f       	adc	r23, r23
    5650:	88 1f       	adc	r24, r24
    5652:	99 1f       	adc	r25, r25
    5654:	0a 95       	dec	r16
    5656:	b2 f7       	brpl	.-20     	; 0x5644 <__ashldi3+0x1a>
    5658:	0f 91       	pop	r16
    565a:	08 95       	ret

0000565c <__ashrdi3>:
    565c:	97 fb       	bst	r25, 7
    565e:	10 f8       	bld	r1, 0

00005660 <__lshrdi3>:
    5660:	16 94       	lsr	r1
    5662:	00 08       	sbc	r0, r0
    5664:	0f 93       	push	r16
    5666:	08 30       	cpi	r16, 0x08	; 8
    5668:	98 f0       	brcs	.+38     	; 0x5690 <__lshrdi3+0x30>
    566a:	08 50       	subi	r16, 0x08	; 8
    566c:	23 2f       	mov	r18, r19
    566e:	34 2f       	mov	r19, r20
    5670:	45 2f       	mov	r20, r21
    5672:	56 2f       	mov	r21, r22
    5674:	67 2f       	mov	r22, r23
    5676:	78 2f       	mov	r23, r24
    5678:	89 2f       	mov	r24, r25
    567a:	90 2d       	mov	r25, r0
    567c:	f4 cf       	rjmp	.-24     	; 0x5666 <__lshrdi3+0x6>
    567e:	05 94       	asr	r0
    5680:	97 95       	ror	r25
    5682:	87 95       	ror	r24
    5684:	77 95       	ror	r23
    5686:	67 95       	ror	r22
    5688:	57 95       	ror	r21
    568a:	47 95       	ror	r20
    568c:	37 95       	ror	r19
    568e:	27 95       	ror	r18
    5690:	0a 95       	dec	r16
    5692:	aa f7       	brpl	.-22     	; 0x567e <__lshrdi3+0x1e>
    5694:	0f 91       	pop	r16
    5696:	08 95       	ret

00005698 <__rotldi3>:
    5698:	0f 93       	push	r16
    569a:	08 30       	cpi	r16, 0x08	; 8
    569c:	a0 f0       	brcs	.+40     	; 0x56c6 <__rotldi3+0x2e>
    569e:	08 50       	subi	r16, 0x08	; 8
    56a0:	09 2e       	mov	r0, r25
    56a2:	98 2f       	mov	r25, r24
    56a4:	87 2f       	mov	r24, r23
    56a6:	76 2f       	mov	r23, r22
    56a8:	65 2f       	mov	r22, r21
    56aa:	54 2f       	mov	r21, r20
    56ac:	43 2f       	mov	r20, r19
    56ae:	32 2f       	mov	r19, r18
    56b0:	20 2d       	mov	r18, r0
    56b2:	f3 cf       	rjmp	.-26     	; 0x569a <__rotldi3+0x2>
    56b4:	22 0f       	add	r18, r18
    56b6:	33 1f       	adc	r19, r19
    56b8:	44 1f       	adc	r20, r20
    56ba:	55 1f       	adc	r21, r21
    56bc:	66 1f       	adc	r22, r22
    56be:	77 1f       	adc	r23, r23
    56c0:	88 1f       	adc	r24, r24
    56c2:	99 1f       	adc	r25, r25
    56c4:	21 1d       	adc	r18, r1
    56c6:	0a 95       	dec	r16
    56c8:	aa f7       	brpl	.-22     	; 0x56b4 <__rotldi3+0x1c>
    56ca:	0f 91       	pop	r16
    56cc:	08 95       	ret

000056ce <__adddi3>:
    56ce:	2a 0d       	add	r18, r10
    56d0:	3b 1d       	adc	r19, r11
    56d2:	4c 1d       	adc	r20, r12
    56d4:	5d 1d       	adc	r21, r13
    56d6:	6e 1d       	adc	r22, r14
    56d8:	7f 1d       	adc	r23, r15
    56da:	80 1f       	adc	r24, r16
    56dc:	91 1f       	adc	r25, r17
    56de:	08 95       	ret

000056e0 <malloc>:
    56e0:	0f 93       	push	r16
    56e2:	1f 93       	push	r17
    56e4:	cf 93       	push	r28
    56e6:	df 93       	push	r29
    56e8:	82 30       	cpi	r24, 0x02	; 2
    56ea:	91 05       	cpc	r25, r1
    56ec:	10 f4       	brcc	.+4      	; 0x56f2 <malloc+0x12>
    56ee:	82 e0       	ldi	r24, 0x02	; 2
    56f0:	90 e0       	ldi	r25, 0x00	; 0
    56f2:	e0 91 ef 04 	lds	r30, 0x04EF	; 0x8004ef <__flp>
    56f6:	f0 91 f0 04 	lds	r31, 0x04F0	; 0x8004f0 <__flp+0x1>
    56fa:	20 e0       	ldi	r18, 0x00	; 0
    56fc:	30 e0       	ldi	r19, 0x00	; 0
    56fe:	a0 e0       	ldi	r26, 0x00	; 0
    5700:	b0 e0       	ldi	r27, 0x00	; 0
    5702:	30 97       	sbiw	r30, 0x00	; 0
    5704:	19 f1       	breq	.+70     	; 0x574c <malloc+0x6c>
    5706:	40 81       	ld	r20, Z
    5708:	51 81       	ldd	r21, Z+1	; 0x01
    570a:	02 81       	ldd	r16, Z+2	; 0x02
    570c:	13 81       	ldd	r17, Z+3	; 0x03
    570e:	48 17       	cp	r20, r24
    5710:	59 07       	cpc	r21, r25
    5712:	c8 f0       	brcs	.+50     	; 0x5746 <malloc+0x66>
    5714:	84 17       	cp	r24, r20
    5716:	95 07       	cpc	r25, r21
    5718:	69 f4       	brne	.+26     	; 0x5734 <malloc+0x54>
    571a:	10 97       	sbiw	r26, 0x00	; 0
    571c:	31 f0       	breq	.+12     	; 0x572a <malloc+0x4a>
    571e:	12 96       	adiw	r26, 0x02	; 2
    5720:	0c 93       	st	X, r16
    5722:	12 97       	sbiw	r26, 0x02	; 2
    5724:	13 96       	adiw	r26, 0x03	; 3
    5726:	1c 93       	st	X, r17
    5728:	27 c0       	rjmp	.+78     	; 0x5778 <malloc+0x98>
    572a:	00 93 ef 04 	sts	0x04EF, r16	; 0x8004ef <__flp>
    572e:	10 93 f0 04 	sts	0x04F0, r17	; 0x8004f0 <__flp+0x1>
    5732:	22 c0       	rjmp	.+68     	; 0x5778 <malloc+0x98>
    5734:	21 15       	cp	r18, r1
    5736:	31 05       	cpc	r19, r1
    5738:	19 f0       	breq	.+6      	; 0x5740 <malloc+0x60>
    573a:	42 17       	cp	r20, r18
    573c:	53 07       	cpc	r21, r19
    573e:	18 f4       	brcc	.+6      	; 0x5746 <malloc+0x66>
    5740:	9a 01       	movw	r18, r20
    5742:	bd 01       	movw	r22, r26
    5744:	ef 01       	movw	r28, r30
    5746:	df 01       	movw	r26, r30
    5748:	f8 01       	movw	r30, r16
    574a:	db cf       	rjmp	.-74     	; 0x5702 <malloc+0x22>
    574c:	21 15       	cp	r18, r1
    574e:	31 05       	cpc	r19, r1
    5750:	f9 f0       	breq	.+62     	; 0x5790 <malloc+0xb0>
    5752:	28 1b       	sub	r18, r24
    5754:	39 0b       	sbc	r19, r25
    5756:	24 30       	cpi	r18, 0x04	; 4
    5758:	31 05       	cpc	r19, r1
    575a:	80 f4       	brcc	.+32     	; 0x577c <malloc+0x9c>
    575c:	8a 81       	ldd	r24, Y+2	; 0x02
    575e:	9b 81       	ldd	r25, Y+3	; 0x03
    5760:	61 15       	cp	r22, r1
    5762:	71 05       	cpc	r23, r1
    5764:	21 f0       	breq	.+8      	; 0x576e <malloc+0x8e>
    5766:	fb 01       	movw	r30, r22
    5768:	93 83       	std	Z+3, r25	; 0x03
    576a:	82 83       	std	Z+2, r24	; 0x02
    576c:	04 c0       	rjmp	.+8      	; 0x5776 <malloc+0x96>
    576e:	90 93 f0 04 	sts	0x04F0, r25	; 0x8004f0 <__flp+0x1>
    5772:	80 93 ef 04 	sts	0x04EF, r24	; 0x8004ef <__flp>
    5776:	fe 01       	movw	r30, r28
    5778:	32 96       	adiw	r30, 0x02	; 2
    577a:	44 c0       	rjmp	.+136    	; 0x5804 <malloc+0x124>
    577c:	fe 01       	movw	r30, r28
    577e:	e2 0f       	add	r30, r18
    5780:	f3 1f       	adc	r31, r19
    5782:	81 93       	st	Z+, r24
    5784:	91 93       	st	Z+, r25
    5786:	22 50       	subi	r18, 0x02	; 2
    5788:	31 09       	sbc	r19, r1
    578a:	39 83       	std	Y+1, r19	; 0x01
    578c:	28 83       	st	Y, r18
    578e:	3a c0       	rjmp	.+116    	; 0x5804 <malloc+0x124>
    5790:	20 91 ed 04 	lds	r18, 0x04ED	; 0x8004ed <__brkval>
    5794:	30 91 ee 04 	lds	r19, 0x04EE	; 0x8004ee <__brkval+0x1>
    5798:	23 2b       	or	r18, r19
    579a:	41 f4       	brne	.+16     	; 0x57ac <malloc+0xcc>
    579c:	20 91 02 01 	lds	r18, 0x0102	; 0x800102 <__malloc_heap_start>
    57a0:	30 91 03 01 	lds	r19, 0x0103	; 0x800103 <__malloc_heap_start+0x1>
    57a4:	30 93 ee 04 	sts	0x04EE, r19	; 0x8004ee <__brkval+0x1>
    57a8:	20 93 ed 04 	sts	0x04ED, r18	; 0x8004ed <__brkval>
    57ac:	20 91 00 01 	lds	r18, 0x0100	; 0x800100 <__data_start>
    57b0:	30 91 01 01 	lds	r19, 0x0101	; 0x800101 <__data_start+0x1>
    57b4:	21 15       	cp	r18, r1
    57b6:	31 05       	cpc	r19, r1
    57b8:	41 f4       	brne	.+16     	; 0x57ca <malloc+0xea>
    57ba:	2d b7       	in	r18, 0x3d	; 61
    57bc:	3e b7       	in	r19, 0x3e	; 62
    57be:	40 91 04 01 	lds	r20, 0x0104	; 0x800104 <__malloc_margin>
    57c2:	50 91 05 01 	lds	r21, 0x0105	; 0x800105 <__malloc_margin+0x1>
    57c6:	24 1b       	sub	r18, r20
    57c8:	35 0b       	sbc	r19, r21
    57ca:	e0 91 ed 04 	lds	r30, 0x04ED	; 0x8004ed <__brkval>
    57ce:	f0 91 ee 04 	lds	r31, 0x04EE	; 0x8004ee <__brkval+0x1>
    57d2:	e2 17       	cp	r30, r18
    57d4:	f3 07       	cpc	r31, r19
    57d6:	a0 f4       	brcc	.+40     	; 0x5800 <malloc+0x120>
    57d8:	2e 1b       	sub	r18, r30
    57da:	3f 0b       	sbc	r19, r31
    57dc:	28 17       	cp	r18, r24
    57de:	39 07       	cpc	r19, r25
    57e0:	78 f0       	brcs	.+30     	; 0x5800 <malloc+0x120>
    57e2:	ac 01       	movw	r20, r24
    57e4:	4e 5f       	subi	r20, 0xFE	; 254
    57e6:	5f 4f       	sbci	r21, 0xFF	; 255
    57e8:	24 17       	cp	r18, r20
    57ea:	35 07       	cpc	r19, r21
    57ec:	48 f0       	brcs	.+18     	; 0x5800 <malloc+0x120>
    57ee:	4e 0f       	add	r20, r30
    57f0:	5f 1f       	adc	r21, r31
    57f2:	50 93 ee 04 	sts	0x04EE, r21	; 0x8004ee <__brkval+0x1>
    57f6:	40 93 ed 04 	sts	0x04ED, r20	; 0x8004ed <__brkval>
    57fa:	81 93       	st	Z+, r24
    57fc:	91 93       	st	Z+, r25
    57fe:	02 c0       	rjmp	.+4      	; 0x5804 <malloc+0x124>
    5800:	e0 e0       	ldi	r30, 0x00	; 0
    5802:	f0 e0       	ldi	r31, 0x00	; 0
    5804:	cf 01       	movw	r24, r30
    5806:	df 91       	pop	r29
    5808:	cf 91       	pop	r28
    580a:	1f 91       	pop	r17
    580c:	0f 91       	pop	r16
    580e:	08 95       	ret

00005810 <free>:
    5810:	cf 93       	push	r28
    5812:	df 93       	push	r29
    5814:	00 97       	sbiw	r24, 0x00	; 0
    5816:	09 f4       	brne	.+2      	; 0x581a <free+0xa>
    5818:	81 c0       	rjmp	.+258    	; 0x591c <free+0x10c>
    581a:	fc 01       	movw	r30, r24
    581c:	32 97       	sbiw	r30, 0x02	; 2
    581e:	13 82       	std	Z+3, r1	; 0x03
    5820:	12 82       	std	Z+2, r1	; 0x02
    5822:	a0 91 ef 04 	lds	r26, 0x04EF	; 0x8004ef <__flp>
    5826:	b0 91 f0 04 	lds	r27, 0x04F0	; 0x8004f0 <__flp+0x1>
    582a:	10 97       	sbiw	r26, 0x00	; 0
    582c:	81 f4       	brne	.+32     	; 0x584e <free+0x3e>
    582e:	20 81       	ld	r18, Z
    5830:	31 81       	ldd	r19, Z+1	; 0x01
    5832:	82 0f       	add	r24, r18
    5834:	93 1f       	adc	r25, r19
    5836:	20 91 ed 04 	lds	r18, 0x04ED	; 0x8004ed <__brkval>
    583a:	30 91 ee 04 	lds	r19, 0x04EE	; 0x8004ee <__brkval+0x1>
    583e:	28 17       	cp	r18, r24
    5840:	39 07       	cpc	r19, r25
    5842:	51 f5       	brne	.+84     	; 0x5898 <free+0x88>
    5844:	f0 93 ee 04 	sts	0x04EE, r31	; 0x8004ee <__brkval+0x1>
    5848:	e0 93 ed 04 	sts	0x04ED, r30	; 0x8004ed <__brkval>
    584c:	67 c0       	rjmp	.+206    	; 0x591c <free+0x10c>
    584e:	ed 01       	movw	r28, r26
    5850:	20 e0       	ldi	r18, 0x00	; 0
    5852:	30 e0       	ldi	r19, 0x00	; 0
    5854:	ce 17       	cp	r28, r30
    5856:	df 07       	cpc	r29, r31
    5858:	40 f4       	brcc	.+16     	; 0x586a <free+0x5a>
    585a:	4a 81       	ldd	r20, Y+2	; 0x02
    585c:	5b 81       	ldd	r21, Y+3	; 0x03
    585e:	9e 01       	movw	r18, r28
    5860:	41 15       	cp	r20, r1
    5862:	51 05       	cpc	r21, r1
    5864:	f1 f0       	breq	.+60     	; 0x58a2 <free+0x92>
    5866:	ea 01       	movw	r28, r20
    5868:	f5 cf       	rjmp	.-22     	; 0x5854 <free+0x44>
    586a:	d3 83       	std	Z+3, r29	; 0x03
    586c:	c2 83       	std	Z+2, r28	; 0x02
    586e:	40 81       	ld	r20, Z
    5870:	51 81       	ldd	r21, Z+1	; 0x01
    5872:	84 0f       	add	r24, r20
    5874:	95 1f       	adc	r25, r21
    5876:	c8 17       	cp	r28, r24
    5878:	d9 07       	cpc	r29, r25
    587a:	59 f4       	brne	.+22     	; 0x5892 <free+0x82>
    587c:	88 81       	ld	r24, Y
    587e:	99 81       	ldd	r25, Y+1	; 0x01
    5880:	84 0f       	add	r24, r20
    5882:	95 1f       	adc	r25, r21
    5884:	02 96       	adiw	r24, 0x02	; 2
    5886:	91 83       	std	Z+1, r25	; 0x01
    5888:	80 83       	st	Z, r24
    588a:	8a 81       	ldd	r24, Y+2	; 0x02
    588c:	9b 81       	ldd	r25, Y+3	; 0x03
    588e:	93 83       	std	Z+3, r25	; 0x03
    5890:	82 83       	std	Z+2, r24	; 0x02
    5892:	21 15       	cp	r18, r1
    5894:	31 05       	cpc	r19, r1
    5896:	29 f4       	brne	.+10     	; 0x58a2 <free+0x92>
    5898:	f0 93 f0 04 	sts	0x04F0, r31	; 0x8004f0 <__flp+0x1>
    589c:	e0 93 ef 04 	sts	0x04EF, r30	; 0x8004ef <__flp>
    58a0:	3d c0       	rjmp	.+122    	; 0x591c <free+0x10c>
    58a2:	e9 01       	movw	r28, r18
    58a4:	fb 83       	std	Y+3, r31	; 0x03
    58a6:	ea 83       	std	Y+2, r30	; 0x02
    58a8:	49 91       	ld	r20, Y+
    58aa:	59 91       	ld	r21, Y+
    58ac:	c4 0f       	add	r28, r20
    58ae:	d5 1f       	adc	r29, r21
    58b0:	ec 17       	cp	r30, r28
    58b2:	fd 07       	cpc	r31, r29
    58b4:	61 f4       	brne	.+24     	; 0x58ce <free+0xbe>
    58b6:	80 81       	ld	r24, Z
    58b8:	91 81       	ldd	r25, Z+1	; 0x01
    58ba:	84 0f       	add	r24, r20
    58bc:	95 1f       	adc	r25, r21
    58be:	02 96       	adiw	r24, 0x02	; 2
    58c0:	e9 01       	movw	r28, r18
    58c2:	99 83       	std	Y+1, r25	; 0x01
    58c4:	88 83       	st	Y, r24
    58c6:	82 81       	ldd	r24, Z+2	; 0x02
    58c8:	93 81       	ldd	r25, Z+3	; 0x03
    58ca:	9b 83       	std	Y+3, r25	; 0x03
    58cc:	8a 83       	std	Y+2, r24	; 0x02
    58ce:	e0 e0       	ldi	r30, 0x00	; 0
    58d0:	f0 e0       	ldi	r31, 0x00	; 0
    58d2:	12 96       	adiw	r26, 0x02	; 2
    58d4:	8d 91       	ld	r24, X+
    58d6:	9c 91       	ld	r25, X
    58d8:	13 97       	sbiw	r26, 0x03	; 3
    58da:	00 97       	sbiw	r24, 0x00	; 0
    58dc:	19 f0       	breq	.+6      	; 0x58e4 <free+0xd4>
    58de:	fd 01       	movw	r30, r26
    58e0:	dc 01       	movw	r26, r24
    58e2:	f7 cf       	rjmp	.-18     	; 0x58d2 <free+0xc2>
    58e4:	8d 91       	ld	r24, X+
    58e6:	9c 91       	ld	r25, X
    58e8:	11 97       	sbiw	r26, 0x01	; 1
    58ea:	9d 01       	movw	r18, r26
    58ec:	2e 5f       	subi	r18, 0xFE	; 254
    58ee:	3f 4f       	sbci	r19, 0xFF	; 255
    58f0:	82 0f       	add	r24, r18
    58f2:	93 1f       	adc	r25, r19
    58f4:	20 91 ed 04 	lds	r18, 0x04ED	; 0x8004ed <__brkval>
    58f8:	30 91 ee 04 	lds	r19, 0x04EE	; 0x8004ee <__brkval+0x1>
    58fc:	28 17       	cp	r18, r24
    58fe:	39 07       	cpc	r19, r25
    5900:	69 f4       	brne	.+26     	; 0x591c <free+0x10c>
    5902:	30 97       	sbiw	r30, 0x00	; 0
    5904:	29 f4       	brne	.+10     	; 0x5910 <free+0x100>
    5906:	10 92 f0 04 	sts	0x04F0, r1	; 0x8004f0 <__flp+0x1>
    590a:	10 92 ef 04 	sts	0x04EF, r1	; 0x8004ef <__flp>
    590e:	02 c0       	rjmp	.+4      	; 0x5914 <free+0x104>
    5910:	13 82       	std	Z+3, r1	; 0x03
    5912:	12 82       	std	Z+2, r1	; 0x02
    5914:	b0 93 ee 04 	sts	0x04EE, r27	; 0x8004ee <__brkval+0x1>
    5918:	a0 93 ed 04 	sts	0x04ED, r26	; 0x8004ed <__brkval>
    591c:	df 91       	pop	r29
    591e:	cf 91       	pop	r28
    5920:	08 95       	ret

00005922 <do_rand>:
    5922:	8f 92       	push	r8
    5924:	9f 92       	push	r9
    5926:	af 92       	push	r10
    5928:	bf 92       	push	r11
    592a:	cf 92       	push	r12
    592c:	df 92       	push	r13
    592e:	ef 92       	push	r14
    5930:	ff 92       	push	r15
    5932:	cf 93       	push	r28
    5934:	df 93       	push	r29
    5936:	ec 01       	movw	r28, r24
    5938:	68 81       	ld	r22, Y
    593a:	79 81       	ldd	r23, Y+1	; 0x01
    593c:	8a 81       	ldd	r24, Y+2	; 0x02
    593e:	9b 81       	ldd	r25, Y+3	; 0x03
    5940:	61 15       	cp	r22, r1
    5942:	71 05       	cpc	r23, r1
    5944:	81 05       	cpc	r24, r1
    5946:	91 05       	cpc	r25, r1
    5948:	21 f4       	brne	.+8      	; 0x5952 <do_rand+0x30>
    594a:	64 e2       	ldi	r22, 0x24	; 36
    594c:	79 ed       	ldi	r23, 0xD9	; 217
    594e:	8b e5       	ldi	r24, 0x5B	; 91
    5950:	97 e0       	ldi	r25, 0x07	; 7
    5952:	2d e1       	ldi	r18, 0x1D	; 29
    5954:	33 ef       	ldi	r19, 0xF3	; 243
    5956:	41 e0       	ldi	r20, 0x01	; 1
    5958:	50 e0       	ldi	r21, 0x00	; 0
    595a:	6f d0       	rcall	.+222    	; 0x5a3a <__divmodsi4>
    595c:	49 01       	movw	r8, r18
    595e:	5a 01       	movw	r10, r20
    5960:	9b 01       	movw	r18, r22
    5962:	ac 01       	movw	r20, r24
    5964:	a7 ea       	ldi	r26, 0xA7	; 167
    5966:	b1 e4       	ldi	r27, 0x41	; 65
    5968:	84 d0       	rcall	.+264    	; 0x5a72 <__muluhisi3>
    596a:	6b 01       	movw	r12, r22
    596c:	7c 01       	movw	r14, r24
    596e:	ac ee       	ldi	r26, 0xEC	; 236
    5970:	b4 ef       	ldi	r27, 0xF4	; 244
    5972:	a5 01       	movw	r20, r10
    5974:	94 01       	movw	r18, r8
    5976:	89 d0       	rcall	.+274    	; 0x5a8a <__mulohisi3>
    5978:	dc 01       	movw	r26, r24
    597a:	cb 01       	movw	r24, r22
    597c:	8c 0d       	add	r24, r12
    597e:	9d 1d       	adc	r25, r13
    5980:	ae 1d       	adc	r26, r14
    5982:	bf 1d       	adc	r27, r15
    5984:	b7 ff       	sbrs	r27, 7
    5986:	03 c0       	rjmp	.+6      	; 0x598e <do_rand+0x6c>
    5988:	01 97       	sbiw	r24, 0x01	; 1
    598a:	a1 09       	sbc	r26, r1
    598c:	b0 48       	sbci	r27, 0x80	; 128
    598e:	88 83       	st	Y, r24
    5990:	99 83       	std	Y+1, r25	; 0x01
    5992:	aa 83       	std	Y+2, r26	; 0x02
    5994:	bb 83       	std	Y+3, r27	; 0x03
    5996:	9f 77       	andi	r25, 0x7F	; 127
    5998:	df 91       	pop	r29
    599a:	cf 91       	pop	r28
    599c:	ff 90       	pop	r15
    599e:	ef 90       	pop	r14
    59a0:	df 90       	pop	r13
    59a2:	cf 90       	pop	r12
    59a4:	bf 90       	pop	r11
    59a6:	af 90       	pop	r10
    59a8:	9f 90       	pop	r9
    59aa:	8f 90       	pop	r8
    59ac:	08 95       	ret

000059ae <rand_r>:
    59ae:	b9 cf       	rjmp	.-142    	; 0x5922 <do_rand>

000059b0 <rand>:
    59b0:	86 e0       	ldi	r24, 0x06	; 6
    59b2:	91 e0       	ldi	r25, 0x01	; 1
    59b4:	b6 cf       	rjmp	.-148    	; 0x5922 <do_rand>

000059b6 <srand>:
    59b6:	a0 e0       	ldi	r26, 0x00	; 0
    59b8:	b0 e0       	ldi	r27, 0x00	; 0
    59ba:	80 93 06 01 	sts	0x0106, r24	; 0x800106 <next>
    59be:	90 93 07 01 	sts	0x0107, r25	; 0x800107 <next+0x1>
    59c2:	a0 93 08 01 	sts	0x0108, r26	; 0x800108 <next+0x2>
    59c6:	b0 93 09 01 	sts	0x0109, r27	; 0x800109 <next+0x3>
    59ca:	08 95       	ret

000059cc <memcpy_P>:
    59cc:	fb 01       	movw	r30, r22
    59ce:	dc 01       	movw	r26, r24
    59d0:	02 c0       	rjmp	.+4      	; 0x59d6 <memcpy_P+0xa>
    59d2:	05 90       	lpm	r0, Z+
    59d4:	0d 92       	st	X+, r0
    59d6:	41 50       	subi	r20, 0x01	; 1
    59d8:	50 40       	sbci	r21, 0x00	; 0
    59da:	d8 f7       	brcc	.-10     	; 0x59d2 <memcpy_P+0x6>
    59dc:	08 95       	ret

000059de <memcmp>:
    59de:	fb 01       	movw	r30, r22
    59e0:	dc 01       	movw	r26, r24
    59e2:	04 c0       	rjmp	.+8      	; 0x59ec <memcmp+0xe>
    59e4:	8d 91       	ld	r24, X+
    59e6:	01 90       	ld	r0, Z+
    59e8:	80 19       	sub	r24, r0
    59ea:	21 f4       	brne	.+8      	; 0x59f4 <memcmp+0x16>
    59ec:	41 50       	subi	r20, 0x01	; 1
    59ee:	50 40       	sbci	r21, 0x00	; 0
    59f0:	c8 f7       	brcc	.-14     	; 0x59e4 <memcmp+0x6>
    59f2:	88 1b       	sub	r24, r24
    59f4:	99 0b       	sbc	r25, r25
    59f6:	08 95       	ret

000059f8 <memcpy>:
    59f8:	fb 01       	movw	r30, r22
    59fa:	dc 01       	movw	r26, r24
    59fc:	02 c0       	rjmp	.+4      	; 0x5a02 <memcpy+0xa>
    59fe:	01 90       	ld	r0, Z+
    5a00:	0d 92       	st	X+, r0
    5a02:	41 50       	subi	r20, 0x01	; 1
    5a04:	50 40       	sbci	r21, 0x00	; 0
    5a06:	d8 f7       	brcc	.-10     	; 0x59fe <memcpy+0x6>
    5a08:	08 95       	ret

00005a0a <memmove>:
    5a0a:	68 17       	cp	r22, r24
    5a0c:	79 07       	cpc	r23, r25
    5a0e:	68 f4       	brcc	.+26     	; 0x5a2a <memmove+0x20>
    5a10:	fb 01       	movw	r30, r22
    5a12:	dc 01       	movw	r26, r24
    5a14:	e4 0f       	add	r30, r20
    5a16:	f5 1f       	adc	r31, r21
    5a18:	a4 0f       	add	r26, r20
    5a1a:	b5 1f       	adc	r27, r21
    5a1c:	02 c0       	rjmp	.+4      	; 0x5a22 <memmove+0x18>
    5a1e:	02 90       	ld	r0, -Z
    5a20:	0e 92       	st	-X, r0
    5a22:	41 50       	subi	r20, 0x01	; 1
    5a24:	50 40       	sbci	r21, 0x00	; 0
    5a26:	d8 f7       	brcc	.-10     	; 0x5a1e <memmove+0x14>
    5a28:	08 95       	ret
    5a2a:	e6 cf       	rjmp	.-52     	; 0x59f8 <memcpy>

00005a2c <memset>:
    5a2c:	dc 01       	movw	r26, r24
    5a2e:	01 c0       	rjmp	.+2      	; 0x5a32 <memset+0x6>
    5a30:	6d 93       	st	X+, r22
    5a32:	41 50       	subi	r20, 0x01	; 1
    5a34:	50 40       	sbci	r21, 0x00	; 0
    5a36:	e0 f7       	brcc	.-8      	; 0x5a30 <memset+0x4>
    5a38:	08 95       	ret

00005a3a <__divmodsi4>:
    5a3a:	05 2e       	mov	r0, r21
    5a3c:	97 fb       	bst	r25, 7
    5a3e:	16 f4       	brtc	.+4      	; 0x5a44 <__divmodsi4+0xa>
    5a40:	00 94       	com	r0
    5a42:	0f d0       	rcall	.+30     	; 0x5a62 <__negsi2>
    5a44:	57 fd       	sbrc	r21, 7
    5a46:	05 d0       	rcall	.+10     	; 0x5a52 <__divmodsi4_neg2>
    5a48:	24 d0       	rcall	.+72     	; 0x5a92 <__udivmodsi4>
    5a4a:	07 fc       	sbrc	r0, 7
    5a4c:	02 d0       	rcall	.+4      	; 0x5a52 <__divmodsi4_neg2>
    5a4e:	46 f4       	brtc	.+16     	; 0x5a60 <__divmodsi4_exit>
    5a50:	08 c0       	rjmp	.+16     	; 0x5a62 <__negsi2>

00005a52 <__divmodsi4_neg2>:
    5a52:	50 95       	com	r21
    5a54:	40 95       	com	r20
    5a56:	30 95       	com	r19
    5a58:	21 95       	neg	r18
    5a5a:	3f 4f       	sbci	r19, 0xFF	; 255
    5a5c:	4f 4f       	sbci	r20, 0xFF	; 255
    5a5e:	5f 4f       	sbci	r21, 0xFF	; 255

00005a60 <__divmodsi4_exit>:
    5a60:	08 95       	ret

00005a62 <__negsi2>:
    5a62:	90 95       	com	r25
    5a64:	80 95       	com	r24
    5a66:	70 95       	com	r23
    5a68:	61 95       	neg	r22
    5a6a:	7f 4f       	sbci	r23, 0xFF	; 255
    5a6c:	8f 4f       	sbci	r24, 0xFF	; 255
    5a6e:	9f 4f       	sbci	r25, 0xFF	; 255
    5a70:	08 95       	ret

00005a72 <__muluhisi3>:
    5a72:	31 d0       	rcall	.+98     	; 0x5ad6 <__umulhisi3>
    5a74:	a5 9f       	mul	r26, r21
    5a76:	90 0d       	add	r25, r0
    5a78:	b4 9f       	mul	r27, r20
    5a7a:	90 0d       	add	r25, r0
    5a7c:	a4 9f       	mul	r26, r20
    5a7e:	80 0d       	add	r24, r0
    5a80:	91 1d       	adc	r25, r1
    5a82:	11 24       	eor	r1, r1
    5a84:	08 95       	ret

00005a86 <__mulshisi3>:
    5a86:	b7 ff       	sbrs	r27, 7
    5a88:	f4 cf       	rjmp	.-24     	; 0x5a72 <__muluhisi3>

00005a8a <__mulohisi3>:
    5a8a:	f3 df       	rcall	.-26     	; 0x5a72 <__muluhisi3>
    5a8c:	82 1b       	sub	r24, r18
    5a8e:	93 0b       	sbc	r25, r19
    5a90:	08 95       	ret

00005a92 <__udivmodsi4>:
    5a92:	a1 e2       	ldi	r26, 0x21	; 33
    5a94:	1a 2e       	mov	r1, r26
    5a96:	aa 1b       	sub	r26, r26
    5a98:	bb 1b       	sub	r27, r27
    5a9a:	fd 01       	movw	r30, r26
    5a9c:	0d c0       	rjmp	.+26     	; 0x5ab8 <__udivmodsi4_ep>

00005a9e <__udivmodsi4_loop>:
    5a9e:	aa 1f       	adc	r26, r26
    5aa0:	bb 1f       	adc	r27, r27
    5aa2:	ee 1f       	adc	r30, r30
    5aa4:	ff 1f       	adc	r31, r31
    5aa6:	a2 17       	cp	r26, r18
    5aa8:	b3 07       	cpc	r27, r19
    5aaa:	e4 07       	cpc	r30, r20
    5aac:	f5 07       	cpc	r31, r21
    5aae:	20 f0       	brcs	.+8      	; 0x5ab8 <__udivmodsi4_ep>
    5ab0:	a2 1b       	sub	r26, r18
    5ab2:	b3 0b       	sbc	r27, r19
    5ab4:	e4 0b       	sbc	r30, r20
    5ab6:	f5 0b       	sbc	r31, r21

00005ab8 <__udivmodsi4_ep>:
    5ab8:	66 1f       	adc	r22, r22
    5aba:	77 1f       	adc	r23, r23
    5abc:	88 1f       	adc	r24, r24
    5abe:	99 1f       	adc	r25, r25
    5ac0:	1a 94       	dec	r1
    5ac2:	69 f7       	brne	.-38     	; 0x5a9e <__udivmodsi4_loop>
    5ac4:	60 95       	com	r22
    5ac6:	70 95       	com	r23
    5ac8:	80 95       	com	r24
    5aca:	90 95       	com	r25
    5acc:	9b 01       	movw	r18, r22
    5ace:	ac 01       	movw	r20, r24
    5ad0:	bd 01       	movw	r22, r26
    5ad2:	cf 01       	movw	r24, r30
    5ad4:	08 95       	ret

00005ad6 <__umulhisi3>:
    5ad6:	a2 9f       	mul	r26, r18
    5ad8:	b0 01       	movw	r22, r0
    5ada:	b3 9f       	mul	r27, r19
    5adc:	c0 01       	movw	r24, r0
    5ade:	a3 9f       	mul	r26, r19
    5ae0:	70 0d       	add	r23, r0
    5ae2:	81 1d       	adc	r24, r1
    5ae4:	11 24       	eor	r1, r1
    5ae6:	91 1d       	adc	r25, r1
    5ae8:	b2 9f       	mul	r27, r18
    5aea:	70 0d       	add	r23, r0
    5aec:	81 1d       	adc	r24, r1
    5aee:	11 24       	eor	r1, r1
    5af0:	91 1d       	adc	r25, r1
    5af2:	08 95       	ret

00005af4 <_exit>:
    5af4:	f8 94       	cli

00005af6 <__stop_program>:
    5af6:	ff cf       	rjmp	.-2      	; 0x5af6 <__stop_program>
